ARM GAS  D:\noval\Temp\ccMrHsGD.s 			page 1


   1              		.cpu cortex-m23
   2              		.arch armv8-m.base
   3              		.fpu softvfp
   4              		.eabi_attribute 20, 1
   5              		.eabi_attribute 21, 1
   6              		.eabi_attribute 23, 3
   7              		.eabi_attribute 24, 1
   8              		.eabi_attribute 25, 1
   9              		.eabi_attribute 26, 1
  10              		.eabi_attribute 30, 1
  11              		.eabi_attribute 34, 0
  12              		.eabi_attribute 18, 4
  13              		.file	"app.c"
  14              		.text
  15              	.Ltext0:
  16              		.cfi_sections	.debug_frame
  17              		.file 1 "Core/Src/app.c"
  18              		.section	.rodata.AppInterface.str1.4,"aMS",%progbits,1
  19              		.align	2
  20              	.LC0:
  21 0000 2D2D2D2D 		.ascii	"----I\000"
  21      4900
  22              		.section	.text.AppInterface,"ax",%progbits
  23              		.align	1
  24              		.global	AppInterface
  25              		.syntax unified
  26              		.code	16
  27              		.thumb_func
  29              	AppInterface:
  30              	.LFB65:
   1:Core/Src/app.c **** /*
   2:Core/Src/app.c ****  * file: app.c
   3:Core/Src/app.c ****  * brief: Application main file
   4:Core/Src/app.c ****  */
   5:Core/Src/app.c **** /* includes -----------------------------------------------------*/
   6:Core/Src/app.c **** #include "app.h"
   7:Core/Src/app.c **** #include "log.h"
   8:Core/Src/app.c **** #include "lcd.h"
   9:Core/Src/app.c **** #include "peripheral.h"
  10:Core/Src/app.c **** #include "gd32e23x.h"
  11:Core/Src/app.c **** #include "stdint.h"
  12:Core/Src/app.c **** #include <string.h>
  13:Core/Src/app.c **** #include "systick.h"
  14:Core/Src/app.c **** 
  15:Core/Src/app.c **** /* defines ------------------------------------------------------*/
  16:Core/Src/app.c **** 
  17:Core/Src/app.c **** /* private variables --------------------------------------------*/
  18:Core/Src/app.c **** const uint8_t UI_MSG[][32] = {
  19:Core/Src/app.c ****     "Oscilloscope",
  20:Core/Src/app.c ****     "Vpp: 0.00V  F: 0.00kHz",
  21:Core/Src/app.c ****     "PWM:OFF   0.00Hz    0%"
  22:Core/Src/app.c **** };
  23:Core/Src/app.c **** 
  24:Core/Src/app.c **** /* function prototypes ------------------------------------------*/
  25:Core/Src/app.c **** void AppInterface(void);
  26:Core/Src/app.c **** void WaveformDisplay(void);
  27:Core/Src/app.c **** void AppStateDisplay(void);
ARM GAS  D:\noval\Temp\ccMrHsGD.s 			page 2


  28:Core/Src/app.c **** 
  29:Core/Src/app.c **** /* external variables -------------------------------------------*/
  30:Core/Src/app.c **** APP_DATA_T  app_data;
  31:Core/Src/app.c **** APP_STATE_T app_state;
  32:Core/Src/app.c **** 
  33:Core/Src/app.c **** /*
  34:Core/Src/app.c ****  * @brief:  Application initialization
  35:Core/Src/app.c ****  * @param:  None
  36:Core/Src/app.c ****  * @retval: None
  37:Core/Src/app.c ****  */
  38:Core/Src/app.c **** void AppInit(void)
  39:Core/Src/app.c **** {
  40:Core/Src/app.c ****     /* program data initialization */
  41:Core/Src/app.c ****     app_data.pwm_freq = 50;
  42:Core/Src/app.c ****     app_data.pwm_duty = 50;
  43:Core/Src/app.c ****     app_data.wave_freq = 0;
  44:Core/Src/app.c ****     app_data.wave_vpp = 0;
  45:Core/Src/app.c ****     app_data.wave_samp_freq = ADC_SAMPLETIME_239POINT5;
  46:Core/Src/app.c **** 
  47:Core/Src/app.c ****     app_state.pwm_state = PWM_STATE_DISABLE;
  48:Core/Src/app.c ****     app_state.display_update = APP_STATE_DISABLE;
  49:Core/Src/app.c ****     app_state.update_samp_val = APP_STATE_DISABLE;
  50:Core/Src/app.c ****     app_state.waveform_update = WAVEFORM_UPDATE_NONE;
  51:Core/Src/app.c ****     
  52:Core/Src/app.c ****     /* peripheral configuration */
  53:Core/Src/app.c ****     RCUConfig();
  54:Core/Src/app.c ****     GPIOConfig();
  55:Core/Src/app.c **** #if OPEN_ZLOG == 1
  56:Core/Src/app.c ****     USARTConfig();
  57:Core/Src/app.c **** #endif
  58:Core/Src/app.c ****     ADCConfig();
  59:Core/Src/app.c ****     DMAConfig();
  60:Core/Src/app.c ****     SPIConfig();
  61:Core/Src/app.c **** 
  62:Core/Src/app.c ****     /* driver configuration */
  63:Core/Src/app.c ****     LCD_Init();
  64:Core/Src/app.c ****     delay_1ms(10);
  65:Core/Src/app.c ****     
  66:Core/Src/app.c ****     AppInterface();
  67:Core/Src/app.c ****     WaveformDisplay();
  68:Core/Src/app.c ****     AppStateDisplay();
  69:Core/Src/app.c ****     
  70:Core/Src/app.c ****     TIMConfig();
  71:Core/Src/app.c **** 
  72:Core/Src/app.c ****     /* load message */
  73:Core/Src/app.c ****     EMLOG(LOG_DEBUG, "App Start!");
  74:Core/Src/app.c **** }
  75:Core/Src/app.c **** 
  76:Core/Src/app.c **** /*
  77:Core/Src/app.c ****  * @brief:  Application main loop
  78:Core/Src/app.c ****  * @param:  None
  79:Core/Src/app.c ****  * @retval: None
  80:Core/Src/app.c ****  */
  81:Core/Src/app.c **** void AppStart(void)
  82:Core/Src/app.c **** {
  83:Core/Src/app.c ****     EMLOG(LOG_DEBUG, "/***************State****************/");
  84:Core/Src/app.c ****     EMLOG(LOG_DEBUG, "display_update: %d", app_state.display_update);
ARM GAS  D:\noval\Temp\ccMrHsGD.s 			page 3


  85:Core/Src/app.c ****     EMLOG(LOG_DEBUG, "update_samp_val: %d", app_state.update_samp_val);
  86:Core/Src/app.c ****     EMLOG(LOG_DEBUG, "waveform_update: %d", app_state.waveform_update);
  87:Core/Src/app.c ****     EMLOG(LOG_INFO, "pwm_state: %d", app_state.pwm_state);
  88:Core/Src/app.c **** 
  89:Core/Src/app.c ****     EMLOG(LOG_DEBUG, "/***************Data*****************/");
  90:Core/Src/app.c ****     EMLOG(LOG_DEBUG, "pwm_freq: %d", app_data.pwm_freq);
  91:Core/Src/app.c ****     EMLOG(LOG_DEBUG, "pwm_duty: %d", app_data.pwm_duty);
  92:Core/Src/app.c ****     EMLOG(LOG_DEBUG, "wave_freq: %d", app_data.wave_freq);
  93:Core/Src/app.c ****     EMLOG(LOG_DEBUG, "wave_vpp: %d", app_data.wave_vpp);
  94:Core/Src/app.c ****     EMLOG(LOG_DEBUG, "wave_samp_freq: %d", app_data.wave_samp_freq);
  95:Core/Src/app.c **** 
  96:Core/Src/app.c ****     EMLOG(LOG_INFO, "pwm_freq: %d", app_data.pwm_freq);
  97:Core/Src/app.c ****     EMLOG(LOG_INFO, "pwm_freq: %d", app_data.pwm_duty);
  98:Core/Src/app.c ****     EMLOG(LOG_INFO, "wave_freq: %d", app_data.wave_freq);
  99:Core/Src/app.c **** 
 100:Core/Src/app.c ****     if (RESET == gpio_input_bit_get(GPIOB, GPIO_PIN_9)) {
 101:Core/Src/app.c ****         delay_1ms(10);
 102:Core/Src/app.c ****         if (RESET == gpio_input_bit_get(GPIOB, GPIO_PIN_9)) {
 103:Core/Src/app.c ****             while (RESET == gpio_input_bit_get(GPIOB, GPIO_PIN_9));
 104:Core/Src/app.c ****             if (app_state.waveform_update != WAVEFORM_UPDATE_DISABLE) {
 105:Core/Src/app.c ****                 app_state.waveform_update = WAVEFORM_UPDATE_DISABLE;
 106:Core/Src/app.c ****             } else {
 107:Core/Src/app.c ****                 app_state.waveform_update = WAVEFORM_UPDATE_NONE;
 108:Core/Src/app.c ****             }
 109:Core/Src/app.c ****         }
 110:Core/Src/app.c ****     }
 111:Core/Src/app.c ****     switch (app_state.pwm_state) {
 112:Core/Src/app.c ****         case PWM_STATE_OPEN:
 113:Core/Src/app.c ****             PWM_OPEN();
 114:Core/Src/app.c ****             KEY02_01_INTERRUPT_ENABLE();
 115:Core/Src/app.c ****             // app_state.pwm_state = PWM_STATE_NONE;
 116:Core/Src/app.c ****             // app_state.display_update = APP_STATE_ENABLE;
 117:Core/Src/app.c ****             // break;
 118:Core/Src/app.c ****         case PWM_STATE_UPDATE:
 119:Core/Src/app.c ****             timer_autoreload_value_config(TIMER14, app_data.pwm_freq);
 120:Core/Src/app.c ****             timer_channel_output_pulse_value_config(TIMER14, TIMER_CH_0, app_data.pwm_freq * app_da
 121:Core/Src/app.c ****             app_state.pwm_state = PWM_STATE_NONE;
 122:Core/Src/app.c ****             app_state.display_update = APP_STATE_ENABLE;
 123:Core/Src/app.c ****             break;
 124:Core/Src/app.c ****         case PWM_STATE_CLOSE:
 125:Core/Src/app.c ****             exti_interrupt_disable(EXTI_13);
 126:Core/Src/app.c ****             exti_interrupt_disable(EXTI_14);
 127:Core/Src/app.c ****             timer_disable(TIMER14);
 128:Core/Src/app.c ****             rcu_periph_clock_disable(RCU_TIMER14);
 129:Core/Src/app.c ****             gpio_bit_reset(GPIOA, GPIO_PIN_2);
 130:Core/Src/app.c ****             app_state.pwm_state = PWM_STATE_DISABLE;
 131:Core/Src/app.c ****             app_state.display_update = APP_STATE_ENABLE;
 132:Core/Src/app.c ****             break;
 133:Core/Src/app.c ****         default:
 134:Core/Src/app.c ****             break;
 135:Core/Src/app.c ****     }
 136:Core/Src/app.c ****     if (app_state.update_samp_val == APP_STATE_ENABLE) {
 137:Core/Src/app.c ****         adc_regular_channel_config(0, ADC_CHANNEL_3, app_data.wave_samp_freq);
 138:Core/Src/app.c ****         app_state.update_samp_val = APP_STATE_DISABLE;
 139:Core/Src/app.c ****         app_state.display_update = APP_STATE_ENABLE;
 140:Core/Src/app.c ****     }
 141:Core/Src/app.c ****     if (app_state.waveform_update == WAVEFORM_UPDATE_DONE) {
ARM GAS  D:\noval\Temp\ccMrHsGD.s 			page 4


 142:Core/Src/app.c ****         app_state.waveform_update = WAVEFORM_UPDATE_NONE;
 143:Core/Src/app.c ****         WaveformDisplay();
 144:Core/Src/app.c ****     }
 145:Core/Src/app.c ****     if (app_state.display_update) {
 146:Core/Src/app.c ****         app_state.display_update = APP_STATE_DISABLE;
 147:Core/Src/app.c ****         AppStateDisplay();
 148:Core/Src/app.c ****     }
 149:Core/Src/app.c **** }
 150:Core/Src/app.c **** 
 151:Core/Src/app.c **** /*
 152:Core/Src/app.c ****  * @brief  application user interface
 153:Core/Src/app.c ****  * @param  None
 154:Core/Src/app.c ****  * @retval None
 155:Core/Src/app.c ****  */
 156:Core/Src/app.c **** void AppInterface(void)
 157:Core/Src/app.c **** {
  31              		.loc 1 157 1 view -0
  32              		.cfi_startproc
  33              		@ args = 0, pretend = 0, frame = 0
  34              		@ frame_needed = 0, uses_anonymous_args = 0
  35 0000 F0B5     		push	{r4, r5, r6, r7, lr}
  36              	.LCFI0:
  37              		.cfi_def_cfa_offset 20
  38              		.cfi_offset 4, -20
  39              		.cfi_offset 5, -16
  40              		.cfi_offset 6, -12
  41              		.cfi_offset 7, -8
  42              		.cfi_offset 14, -4
  43 0002 85B0     		sub	sp, sp, #20
  44              	.LCFI1:
  45              		.cfi_def_cfa_offset 40
 158:Core/Src/app.c ****     LCD_Draw_Point(AXIS_START_X, HORIZONTAL_AXIS, GREEN);
  46              		.loc 1 158 5 view .LVU1
  47 0004 40F2E072 		movw	r2, #2016
  48 0008 4E21     		movs	r1, #78
  49 000a 0220     		movs	r0, #2
  50 000c FFF7FEFF 		bl	LCD_Draw_Point
  51              	.LVL0:
 159:Core/Src/app.c **** 
 160:Core/Src/app.c ****     /* black background */
 161:Core/Src/app.c ****     LCD_Fill(0, 0, LCD_WIDTH, LCD_HEIGHT, BLACK);
  52              		.loc 1 161 5 view .LVU2
  53 0010 0025     		movs	r5, #0
  54 0012 0095     		str	r5, [sp]
  55 0014 8223     		movs	r3, #130
  56 0016 A122     		movs	r2, #161
  57 0018 0021     		movs	r1, #0
  58 001a 0020     		movs	r0, #0
  59 001c FFF7FEFF 		bl	LCD_Fill
  60              	.LVL1:
 162:Core/Src/app.c ****     /* title */
 163:Core/Src/app.c ****     LCD_Show_String(12, 4, UI_MSG[0], RED, BLACK, 16, 1);
  61              		.loc 1 163 5 view .LVU3
  62 0020 40F20004 		movw	r4, #:lower16:UI_MSG
  63 0024 C0F20004 		movt	r4, #:upper16:UI_MSG
  64 0028 0127     		movs	r7, #1
  65 002a 0297     		str	r7, [sp, #8]
ARM GAS  D:\noval\Temp\ccMrHsGD.s 			page 5


  66 002c 1023     		movs	r3, #16
  67 002e 0193     		str	r3, [sp, #4]
  68 0030 0095     		str	r5, [sp]
  69 0032 4FF60003 		movw	r3, #63488
  70 0036 2200     		movs	r2, r4
  71 0038 0421     		movs	r1, #4
  72 003a 0C20     		movs	r0, #12
  73 003c FFF7FEFF 		bl	LCD_Show_String
  74              	.LVL2:
 164:Core/Src/app.c ****     /* sampling level */
 165:Core/Src/app.c ****     LCD_Show_String(120, 8, (uint8_t *)"----I", YELLOW, BLACK, 12, 0);
  75              		.loc 1 165 5 view .LVU4
  76 0040 40F20002 		movw	r2, #:lower16:.LC0
  77 0044 C0F20002 		movt	r2, #:upper16:.LC0
  78 0048 0295     		str	r5, [sp, #8]
  79 004a 0C26     		movs	r6, #12
  80 004c 0196     		str	r6, [sp, #4]
  81 004e 0095     		str	r5, [sp]
  82 0050 4FF6E073 		movw	r3, #65504
  83 0054 0821     		movs	r1, #8
  84 0056 7820     		movs	r0, #120
  85 0058 FFF7FEFF 		bl	LCD_Show_String
  86              	.LVL3:
 166:Core/Src/app.c ****     /* input waveform state */
 167:Core/Src/app.c ****     LCD_Show_String(AXIS_START_X + 1, 102, UI_MSG[1], YELLOW, BLACK, 12, 1);
  87              		.loc 1 167 5 view .LVU5
  88 005c 2200     		movs	r2, r4
  89 005e 2032     		adds	r2, r2, #32
  90 0060 0297     		str	r7, [sp, #8]
  91 0062 0196     		str	r6, [sp, #4]
  92 0064 0095     		str	r5, [sp]
  93 0066 4FF6E073 		movw	r3, #65504
  94 006a 6621     		movs	r1, #102
  95 006c 0320     		movs	r0, #3
  96 006e FFF7FEFF 		bl	LCD_Show_String
  97              	.LVL4:
 168:Core/Src/app.c ****     /* PWM signal state */
 169:Core/Src/app.c ****     LCD_Show_String(AXIS_START_X + 1, 116, UI_MSG[2], PURPLE, BLACK, 12, 1);
  98              		.loc 1 169 5 view .LVU6
  99 0072 2200     		movs	r2, r4
 100 0074 4032     		adds	r2, r2, #64
 101 0076 0297     		str	r7, [sp, #8]
 102 0078 0196     		str	r6, [sp, #4]
 103 007a 0095     		str	r5, [sp]
 104 007c 48F21003 		movw	r3, #32784
 105 0080 7421     		movs	r1, #116
 106 0082 0320     		movs	r0, #3
 107 0084 FFF7FEFF 		bl	LCD_Show_String
 108              	.LVL5:
 170:Core/Src/app.c ****     /* coordinate axis */
 171:Core/Src/app.c ****     LCD_Draw_Line(AXIS_START_X, 24, AXIS_START_X, 96, GREEN);
 109              		.loc 1 171 5 view .LVU7
 110 0088 40F2E074 		movw	r4, #2016
 111 008c 0094     		str	r4, [sp]
 112 008e 6023     		movs	r3, #96
 113 0090 0222     		movs	r2, #2
 114 0092 1821     		movs	r1, #24
ARM GAS  D:\noval\Temp\ccMrHsGD.s 			page 6


 115 0094 0220     		movs	r0, #2
 116 0096 FFF7FEFF 		bl	LCD_Draw_Line
 117              	.LVL6:
 172:Core/Src/app.c ****     LCD_Draw_Line(AXIS_START_X, 96, LCD_WIDTH - AXIS_START_X, 96, GREEN);
 118              		.loc 1 172 5 view .LVU8
 119 009a 0094     		str	r4, [sp]
 120 009c 6023     		movs	r3, #96
 121 009e 9F22     		movs	r2, #159
 122 00a0 6021     		movs	r1, #96
 123 00a2 0220     		movs	r0, #2
 124 00a4 FFF7FEFF 		bl	LCD_Draw_Line
 125              	.LVL7:
 173:Core/Src/app.c ****     /* 0V horizontal line */
 174:Core/Src/app.c ****     LCD_Draw_Line(AXIS_START_X + 1, HORIZONTAL_AXIS, LCD_WIDTH - AXIS_START_X, HORIZONTAL_AXIS, PUR
 126              		.loc 1 174 5 view .LVU9
 127 00a8 48F21003 		movw	r3, #32784
 128 00ac 0093     		str	r3, [sp]
 129 00ae 4E23     		movs	r3, #78
 130 00b0 9F22     		movs	r2, #159
 131 00b2 4E21     		movs	r1, #78
 132 00b4 0320     		movs	r0, #3
 133 00b6 FFF7FEFF 		bl	LCD_Draw_Line
 134              	.LVL8:
 175:Core/Src/app.c **** }
 135              		.loc 1 175 1 is_stmt 0 view .LVU10
 136 00ba 05B0     		add	sp, sp, #20
 137              		@ sp needed
 138 00bc F0BD     		pop	{r4, r5, r6, r7, pc}
 139              		.cfi_endproc
 140              	.LFE65:
 142              		.section	.rodata.AppStateDisplay.str1.4,"aMS",%progbits,1
 143              		.align	2
 144              	.LC3:
 145 0000 66756E63 		.ascii	"function AppStateDisplay exeute...\000"
 145      74696F6E 
 145      20417070 
 145      53746174 
 145      65446973 
 146              		.global	__aeabi_i2f
 147              		.global	__aeabi_fmul
 148              		.global	__aeabi_fsub
 149              		.global	__aeabi_fdiv
 150 0023 00       		.align	2
 151              	.LC8:
 152 0024 4F4E2000 		.ascii	"ON \000"
 153              		.align	2
 154              	.LC9:
 155 0028 4F464600 		.ascii	"OFF\000"
 156              		.align	2
 157              	.LC4:
 158 002c 2D2D2D49 		.ascii	"---I-\000"
 158      2D00
 159 0032 0000     		.align	2
 160              	.LC6:
 161 0034 2D492D2D 		.ascii	"-I---\000"
 161      2D00
 162 003a 0000     		.align	2
ARM GAS  D:\noval\Temp\ccMrHsGD.s 			page 7


 163              	.LC5:
 164 003c 2D2D492D 		.ascii	"--I--\000"
 164      2D00
 165 0042 0000     		.align	2
 166              	.LC7:
 167 0044 492D2D2D 		.ascii	"I----\000"
 167      2D00
 168              		.section	.text.AppStateDisplay,"ax",%progbits
 169              		.align	1
 170              		.global	AppStateDisplay
 171              		.syntax unified
 172              		.code	16
 173              		.thumb_func
 175              	AppStateDisplay:
 176              	.LFB66:
 176:Core/Src/app.c **** 
 177:Core/Src/app.c **** /*
 178:Core/Src/app.c ****  * @brief  
 179:Core/Src/app.c ****  * @param  None
 180:Core/Src/app.c ****  * @retval None
 181:Core/Src/app.c ****  */
 182:Core/Src/app.c **** void AppStateDisplay(void)
 183:Core/Src/app.c **** {
 177              		.loc 1 183 1 is_stmt 1 view -0
 178              		.cfi_startproc
 179              		@ args = 0, pretend = 0, frame = 8
 180              		@ frame_needed = 0, uses_anonymous_args = 0
 181 0000 F0B5     		push	{r4, r5, r6, r7, lr}
 182              	.LCFI2:
 183              		.cfi_def_cfa_offset 20
 184              		.cfi_offset 4, -20
 185              		.cfi_offset 5, -16
 186              		.cfi_offset 6, -12
 187              		.cfi_offset 7, -8
 188              		.cfi_offset 14, -4
 189 0002 87B0     		sub	sp, sp, #28
 190              	.LCFI3:
 191              		.cfi_def_cfa_offset 48
 184:Core/Src/app.c ****     char buf[6] = "";
 192              		.loc 1 184 5 view .LVU12
 193              		.loc 1 184 10 is_stmt 0 view .LVU13
 194 0004 0622     		movs	r2, #6
 195 0006 0021     		movs	r1, #0
 196 0008 04A8     		add	r0, sp, #16
 197 000a FFF7FEFF 		bl	memset
 198              	.LVL9:
 185:Core/Src/app.c **** 
 186:Core/Src/app.c ****     EMLOG(LOG_DEBUG, "function AppStateDisplay exeute...");
 199              		.loc 1 186 5 is_stmt 1 view .LVU14
 200 000e 40F20003 		movw	r3, #:lower16:.LC3
 201 0012 C0F20003 		movt	r3, #:upper16:.LC3
 202 0016 40F20001 		movw	r1, #:lower16:__FUNCTION__.1
 203 001a C0F20001 		movt	r1, #:upper16:__FUNCTION__.1
 204 001e BA22     		movs	r2, #186
 205 0020 0020     		movs	r0, #0
 206 0022 FFF7FEFF 		bl	EM_LOG
 207              	.LVL10:
ARM GAS  D:\noval\Temp\ccMrHsGD.s 			page 8


 187:Core/Src/app.c **** 
 188:Core/Src/app.c ****     /* sampling level */
 189:Core/Src/app.c ****     switch (app_data.wave_samp_freq)
 208              		.loc 1 189 5 view .LVU15
 209              		.loc 1 189 21 is_stmt 0 view .LVU16
 210 0026 40F20003 		movw	r3, #:lower16:app_data
 211 002a C0F20003 		movt	r3, #:upper16:app_data
 212 002e 9B68     		ldr	r3, [r3, #8]
 213              		.loc 1 189 5 view .LVU17
 214 0030 052B     		cmp	r3, #5
 215 0032 00D1     		bne	.LCB139
 216 0034 ACE0     		b	.L3	@long jump
 217              	.LCB139:
 218 0036 0ED8     		bhi	.L4
 219 0038 032B     		cmp	r3, #3
 220 003a 19D0     		beq	.L5
 221 003c 042B     		cmp	r3, #4
 222 003e 00D0     		beq	.LCB145
 223 0040 B0E0     		b	.L7	@long jump
 224              	.LCB145:
 190:Core/Src/app.c ****     {
 191:Core/Src/app.c ****         case ADC_SAMPLETIME_28POINT5:
 192:Core/Src/app.c ****             strncpy(buf, "----I", 6);
 193:Core/Src/app.c ****             break;
 194:Core/Src/app.c ****         case ADC_SAMPLETIME_41POINT5:
 195:Core/Src/app.c ****             strncpy(buf, "---I-", 6);
 225              		.loc 1 195 13 is_stmt 1 view .LVU18
 226 0042 40F20003 		movw	r3, #:lower16:.LC4
 227 0046 C0F20003 		movt	r3, #:upper16:.LC4
 228 004a 1A68     		ldr	r2, [r3]
 229 004c 0492     		str	r2, [sp, #16]
 230 004e 9A88     		ldrh	r2, [r3, #4]
 231 0050 04AB     		add	r3, sp, #16
 232 0052 9A80     		strh	r2, [r3, #4]
 196:Core/Src/app.c ****             break;
 233              		.loc 1 196 13 view .LVU19
 234 0054 15E0     		b	.L9
 235              	.L4:
 189:Core/Src/app.c ****     {
 236              		.loc 1 189 5 is_stmt 0 view .LVU20
 237 0056 062B     		cmp	r3, #6
 238 0058 00D0     		beq	.LCB160
 239 005a A3E0     		b	.L7	@long jump
 240              	.LCB160:
 197:Core/Src/app.c ****         case ADC_SAMPLETIME_55POINT5:
 198:Core/Src/app.c ****             strncpy(buf, "--I--", 6);
 199:Core/Src/app.c ****             break;
 200:Core/Src/app.c ****         case ADC_SAMPLETIME_71POINT5:
 201:Core/Src/app.c ****             strncpy(buf, "-I---", 6);
 241              		.loc 1 201 13 is_stmt 1 view .LVU21
 242 005c 40F20003 		movw	r3, #:lower16:.LC6
 243 0060 C0F20003 		movt	r3, #:upper16:.LC6
 244 0064 1A68     		ldr	r2, [r3]
 245 0066 0492     		str	r2, [sp, #16]
 246 0068 9A88     		ldrh	r2, [r3, #4]
 247 006a 04AB     		add	r3, sp, #16
 248 006c 9A80     		strh	r2, [r3, #4]
ARM GAS  D:\noval\Temp\ccMrHsGD.s 			page 9


 202:Core/Src/app.c ****             break;
 249              		.loc 1 202 13 view .LVU22
 250 006e 08E0     		b	.L9
 251              	.L5:
 192:Core/Src/app.c ****             break;
 252              		.loc 1 192 13 view .LVU23
 253 0070 40F20003 		movw	r3, #:lower16:.LC0
 254 0074 C0F20003 		movt	r3, #:upper16:.LC0
 255 0078 1A68     		ldr	r2, [r3]
 256 007a 0492     		str	r2, [sp, #16]
 257 007c 9A88     		ldrh	r2, [r3, #4]
 258 007e 04AB     		add	r3, sp, #16
 259 0080 9A80     		strh	r2, [r3, #4]
 193:Core/Src/app.c ****         case ADC_SAMPLETIME_41POINT5:
 260              		.loc 1 193 13 view .LVU24
 261              	.L9:
 203:Core/Src/app.c ****         default:
 204:Core/Src/app.c ****             strncpy(buf, "I----", 6);
 205:Core/Src/app.c ****             break;
 206:Core/Src/app.c ****     }
 207:Core/Src/app.c ****     LCD_Show_String(120, 8, (uint8_t *)buf, YELLOW, BLACK, 12, 0);
 262              		.loc 1 207 5 view .LVU25
 263 0082 0025     		movs	r5, #0
 264 0084 0295     		str	r5, [sp, #8]
 265 0086 0C26     		movs	r6, #12
 266 0088 0196     		str	r6, [sp, #4]
 267 008a 0095     		str	r5, [sp]
 268 008c 4FF6E073 		movw	r3, #65504
 269 0090 04AA     		add	r2, sp, #16
 270 0092 0821     		movs	r1, #8
 271 0094 7820     		movs	r0, #120
 272 0096 FFF7FEFF 		bl	LCD_Show_String
 273              	.LVL11:
 208:Core/Src/app.c ****     /* input signal parameter */
 209:Core/Src/app.c ****     LCD_ShowFloatNum1(27, 102, (float)(5 - app_data.wave_vpp / 4096.0f * 6.6f - 0.28f), 4, YELLOW, 
 274              		.loc 1 209 5 view .LVU26
 275              		.loc 1 209 52 is_stmt 0 view .LVU27
 276 009a 40F20004 		movw	r4, #:lower16:app_data
 277 009e C0F20004 		movt	r4, #:upper16:app_data
 278 00a2 E088     		ldrh	r0, [r4, #6]
 279              		.loc 1 209 62 view .LVU28
 280 00a4 FFF7FEFF 		bl	__aeabi_i2f
 281              	.LVL12:
 282 00a8 E621     		movs	r1, #230
 283 00aa 8905     		lsls	r1, r1, #22
 284 00ac FFF7FEFF 		bl	__aeabi_fmul
 285              	.LVL13:
 286              		.loc 1 209 72 view .LVU29
 287 00b0 43F23331 		movw	r1, #13107
 288 00b4 C4F2D301 		movt	r1, 16595
 289 00b8 FFF7FEFF 		bl	__aeabi_fmul
 290              	.LVL14:
 291 00bc 011C     		adds	r1, r0, #0
 292              		.loc 1 209 42 view .LVU30
 293 00be 0020     		movs	r0, #0
 294 00c0 C4F2A000 		movt	r0, 16544
 295 00c4 FFF7FEFF 		bl	__aeabi_fsub
ARM GAS  D:\noval\Temp\ccMrHsGD.s 			page 10


 296              	.LVL15:
 297              		.loc 1 209 5 view .LVU31
 298 00c8 45F62941 		movw	r1, #23593
 299 00cc C3F68F61 		movt	r1, 16015
 300 00d0 FFF7FEFF 		bl	__aeabi_fsub
 301              	.LVL16:
 302 00d4 021C     		adds	r2, r0, #0
 303 00d6 0296     		str	r6, [sp, #8]
 304 00d8 0195     		str	r5, [sp, #4]
 305 00da 4FF6E077 		movw	r7, #65504
 306 00de 0097     		str	r7, [sp]
 307 00e0 0423     		movs	r3, #4
 308 00e2 6621     		movs	r1, #102
 309 00e4 1B20     		movs	r0, #27
 310 00e6 FFF7FEFF 		bl	LCD_ShowFloatNum1
 311              	.LVL17:
 210:Core/Src/app.c ****     LCD_ShowFloatNum1(87, 102, (float)(app_data.wave_freq * 1.03f / 1000.0f), 4, YELLOW, BLACK, 12)
 312              		.loc 1 210 5 is_stmt 1 view .LVU32
 313              		.loc 1 210 48 is_stmt 0 view .LVU33
 314 00ea E068     		ldr	r0, [r4, #12]
 315              		.loc 1 210 59 view .LVU34
 316 00ec FFF7FEFF 		bl	__aeabi_i2f
 317              	.LVL18:
 318 00f0 4DF20A71 		movw	r1, #55050
 319 00f4 C3F68371 		movt	r1, 16259
 320 00f8 FFF7FEFF 		bl	__aeabi_fmul
 321              	.LVL19:
 322              		.loc 1 210 5 view .LVU35
 323 00fc 0021     		movs	r1, #0
 324 00fe C4F27A41 		movt	r1, 17530
 325 0102 FFF7FEFF 		bl	__aeabi_fdiv
 326              	.LVL20:
 327 0106 021C     		adds	r2, r0, #0
 328 0108 0296     		str	r6, [sp, #8]
 329 010a 0195     		str	r5, [sp, #4]
 330 010c 0097     		str	r7, [sp]
 331 010e 0423     		movs	r3, #4
 332 0110 6621     		movs	r1, #102
 333 0112 5720     		movs	r0, #87
 334 0114 FFF7FEFF 		bl	LCD_ShowFloatNum1
 335              	.LVL21:
 211:Core/Src/app.c ****     app_data.wave_freq = 0;
 336              		.loc 1 211 5 is_stmt 1 view .LVU36
 337              		.loc 1 211 24 is_stmt 0 view .LVU37
 338 0118 E560     		str	r5, [r4, #12]
 212:Core/Src/app.c ****     /* PWM */
 213:Core/Src/app.c ****     if (app_state.pwm_state != PWM_STATE_DISABLE) {                                            // p
 339              		.loc 1 213 5 is_stmt 1 view .LVU38
 340              		.loc 1 213 29 is_stmt 0 view .LVU39
 341 011a 40F20003 		movw	r3, #:lower16:app_state
 342 011e C0F20003 		movt	r3, #:upper16:app_state
 343 0122 1B78     		ldrb	r3, [r3]
 344 0124 0F22     		movs	r2, #15
 345 0126 9343     		bics	r3, r2
 346              		.loc 1 213 8 view .LVU40
 347 0128 402B     		cmp	r3, #64
 348 012a 45D0     		beq	.L10
ARM GAS  D:\noval\Temp\ccMrHsGD.s 			page 11


 214:Core/Src/app.c ****         LCD_Show_String(27, 116, (uint8_t *)"ON ", PURPLE, BLACK, 12, 0);
 349              		.loc 1 214 9 is_stmt 1 view .LVU41
 350 012c 40F20002 		movw	r2, #:lower16:.LC8
 351 0130 C0F20002 		movt	r2, #:upper16:.LC8
 352 0134 0023     		movs	r3, #0
 353 0136 0293     		str	r3, [sp, #8]
 354 0138 0C21     		movs	r1, #12
 355 013a 0191     		str	r1, [sp, #4]
 356 013c 0093     		str	r3, [sp]
 357 013e 48F21003 		movw	r3, #32784
 358 0142 6831     		adds	r1, r1, #104
 359 0144 1B20     		movs	r0, #27
 360 0146 FFF7FEFF 		bl	LCD_Show_String
 361              	.LVL22:
 362              	.L11:
 215:Core/Src/app.c ****     } else {
 216:Core/Src/app.c ****         LCD_Show_String(27, 116, (uint8_t *)"OFF", PURPLE, BLACK, 12, 0);
 217:Core/Src/app.c ****     }
 218:Core/Src/app.c ****     LCD_ShowIntNum(57, 116, (uint16_t)(100000U / app_data.pwm_freq), 5, PURPLE, BLACK, 12);    // p
 363              		.loc 1 218 5 view .LVU42
 364              		.loc 1 218 58 is_stmt 0 view .LVU43
 365 014a 40F20004 		movw	r4, #:lower16:app_data
 366 014e C0F20004 		movt	r4, #:upper16:app_data
 367 0152 2368     		ldr	r3, [r4]
 368              		.loc 1 218 48 view .LVU44
 369 0154 48F2A062 		movw	r2, #34464
 370 0158 C0F20102 		movt	r2, 1
 371 015c B2FBF3F2 		udiv	r2, r2, r3
 372              		.loc 1 218 5 view .LVU45
 373 0160 92B2     		uxth	r2, r2
 374 0162 0C27     		movs	r7, #12
 375 0164 0297     		str	r7, [sp, #8]
 376 0166 0026     		movs	r6, #0
 377 0168 0196     		str	r6, [sp, #4]
 378 016a 48F21005 		movw	r5, #32784
 379 016e 0095     		str	r5, [sp]
 380 0170 0523     		movs	r3, #5
 381 0172 7421     		movs	r1, #116
 382 0174 3920     		movs	r0, #57
 383 0176 FFF7FEFF 		bl	LCD_ShowIntNum
 384              	.LVL23:
 219:Core/Src/app.c ****     LCD_ShowIntNum(111, 116, (uint16_t)app_data.pwm_duty, 3, PURPLE, BLACK, 12);               // p
 385              		.loc 1 219 5 is_stmt 1 view .LVU46
 386              		.loc 1 219 48 is_stmt 0 view .LVU47
 387 017a A288     		ldrh	r2, [r4, #4]
 388              		.loc 1 219 5 view .LVU48
 389 017c 0297     		str	r7, [sp, #8]
 390 017e 0196     		str	r6, [sp, #4]
 391 0180 0095     		str	r5, [sp]
 392 0182 0323     		movs	r3, #3
 393 0184 7421     		movs	r1, #116
 394 0186 6F20     		movs	r0, #111
 395 0188 FFF7FEFF 		bl	LCD_ShowIntNum
 396              	.LVL24:
 220:Core/Src/app.c **** }
 397              		.loc 1 220 1 view .LVU49
 398 018c 07B0     		add	sp, sp, #28
ARM GAS  D:\noval\Temp\ccMrHsGD.s 			page 12


 399              		@ sp needed
 400 018e F0BD     		pop	{r4, r5, r6, r7, pc}
 401              	.L3:
 198:Core/Src/app.c ****             break;
 402              		.loc 1 198 13 is_stmt 1 view .LVU50
 403 0190 40F20003 		movw	r3, #:lower16:.LC5
 404 0194 C0F20003 		movt	r3, #:upper16:.LC5
 405 0198 1A68     		ldr	r2, [r3]
 406 019a 0492     		str	r2, [sp, #16]
 407 019c 9A88     		ldrh	r2, [r3, #4]
 408 019e 04AB     		add	r3, sp, #16
 409 01a0 9A80     		strh	r2, [r3, #4]
 199:Core/Src/app.c ****         case ADC_SAMPLETIME_71POINT5:
 410              		.loc 1 199 13 view .LVU51
 411 01a2 6EE7     		b	.L9
 412              	.L7:
 204:Core/Src/app.c ****             break;
 413              		.loc 1 204 13 view .LVU52
 414 01a4 40F20003 		movw	r3, #:lower16:.LC7
 415 01a8 C0F20003 		movt	r3, #:upper16:.LC7
 416 01ac 1A68     		ldr	r2, [r3]
 417 01ae 0492     		str	r2, [sp, #16]
 418 01b0 9A88     		ldrh	r2, [r3, #4]
 419 01b2 04AB     		add	r3, sp, #16
 420 01b4 9A80     		strh	r2, [r3, #4]
 205:Core/Src/app.c ****     }
 421              		.loc 1 205 13 view .LVU53
 422 01b6 64E7     		b	.L9
 423              	.L10:
 216:Core/Src/app.c ****     }
 424              		.loc 1 216 9 view .LVU54
 425 01b8 40F20002 		movw	r2, #:lower16:.LC9
 426 01bc C0F20002 		movt	r2, #:upper16:.LC9
 427 01c0 0023     		movs	r3, #0
 428 01c2 0293     		str	r3, [sp, #8]
 429 01c4 0C21     		movs	r1, #12
 430 01c6 0191     		str	r1, [sp, #4]
 431 01c8 0093     		str	r3, [sp]
 432 01ca 48F21003 		movw	r3, #32784
 433 01ce 6831     		adds	r1, r1, #104
 434 01d0 1B20     		movs	r0, #27
 435 01d2 FFF7FEFF 		bl	LCD_Show_String
 436              	.LVL25:
 437 01d6 B8E7     		b	.L11
 438              		.cfi_endproc
 439              	.LFE66:
 441              		.section	.rodata.WaveformDisplay.str1.4,"aMS",%progbits,1
 442              		.align	2
 443              	.LC10:
 444 0000 66756E63 		.ascii	"function WaveformDisplay exeute...\000"
 444      74696F6E 
 444      20576176 
 444      65666F72 
 444      6D446973 
 445              		.global	__aeabi_f2iz
 446              		.section	.text.WaveformDisplay,"ax",%progbits
 447              		.align	1
ARM GAS  D:\noval\Temp\ccMrHsGD.s 			page 13


 448              		.global	WaveformDisplay
 449              		.syntax unified
 450              		.code	16
 451              		.thumb_func
 453              	WaveformDisplay:
 454              	.LFB67:
 221:Core/Src/app.c **** 
 222:Core/Src/app.c **** /**
 223:Core/Src/app.c ****  * @brief be used to display and update waveform
 224:Core/Src/app.c ****  * 
 225:Core/Src/app.c ****  */
 226:Core/Src/app.c **** void WaveformDisplay(void)
 227:Core/Src/app.c **** {    
 455              		.loc 1 227 1 view -0
 456              		.cfi_startproc
 457              		@ args = 0, pretend = 0, frame = 0
 458              		@ frame_needed = 0, uses_anonymous_args = 0
 459 0000 70B5     		push	{r4, r5, r6, lr}
 460              	.LCFI4:
 461              		.cfi_def_cfa_offset 16
 462              		.cfi_offset 4, -16
 463              		.cfi_offset 5, -12
 464              		.cfi_offset 6, -8
 465              		.cfi_offset 14, -4
 228:Core/Src/app.c ****     int16_t i, x, start_point;
 466              		.loc 1 228 5 view .LVU56
 229:Core/Src/app.c **** 
 230:Core/Src/app.c ****     EMLOG(LOG_INFO, "function WaveformDisplay exeute...");
 467              		.loc 1 230 5 view .LVU57
 468 0002 40F20003 		movw	r3, #:lower16:.LC10
 469 0006 C0F20003 		movt	r3, #:upper16:.LC10
 470 000a 40F20001 		movw	r1, #:lower16:__FUNCTION__.0
 471 000e C0F20001 		movt	r1, #:upper16:__FUNCTION__.0
 472 0012 E622     		movs	r2, #230
 473 0014 0120     		movs	r0, #1
 474 0016 FFF7FEFF 		bl	EM_LOG
 475              	.LVL26:
 231:Core/Src/app.c **** 
 232:Core/Src/app.c ****     for (start_point = 0; start_point < LENGTH - LCD_WIDTH - AXIS_START_X; start_point ++) {
 476              		.loc 1 232 5 view .LVU58
 477              		.loc 1 232 22 is_stmt 0 view .LVU59
 478 001a 0024     		movs	r4, #0
 479              	.LVL27:
 480              	.L13:
 481              		.loc 1 232 39 is_stmt 1 discriminator 1 view .LVU60
 482 001c 882C     		cmp	r4, #136
 483 001e 1FDC     		bgt	.L16
 233:Core/Src/app.c ****         if (app_data.data[start_point] > 3104) {
 484              		.loc 1 233 9 view .LVU61
 485              		.loc 1 233 26 is_stmt 0 view .LVU62
 486 0020 40F20003 		movw	r3, #:lower16:app_data
 487 0024 C0F20003 		movt	r3, #:upper16:app_data
 488 0028 2200     		movs	r2, r4
 489 002a 0832     		adds	r2, r2, #8
 490 002c 5200     		lsls	r2, r2, #1
 491 002e D25A     		ldrh	r2, [r2, r3]
 492              		.loc 1 233 12 view .LVU63
ARM GAS  D:\noval\Temp\ccMrHsGD.s 			page 14


 493 0030 40F62043 		movw	r3, #3104
 494 0034 9A42     		cmp	r2, r3
 495 0036 02D8     		bhi	.L14
 232:Core/Src/app.c ****         if (app_data.data[start_point] > 3104) {
 496              		.loc 1 232 88 is_stmt 1 discriminator 2 view .LVU64
 497 0038 0134     		adds	r4, r4, #1
 498              	.LVL28:
 232:Core/Src/app.c ****         if (app_data.data[start_point] > 3104) {
 499              		.loc 1 232 88 is_stmt 0 discriminator 2 view .LVU65
 500 003a 24B2     		sxth	r4, r4
 501              	.LVL29:
 232:Core/Src/app.c ****         if (app_data.data[start_point] > 3104) {
 502              		.loc 1 232 88 discriminator 2 view .LVU66
 503 003c EEE7     		b	.L13
 504              	.L14:
 234:Core/Src/app.c ****             for (; start_point < LENGTH - LCD_WIDTH; start_point ++) {
 505              		.loc 1 234 32 is_stmt 1 discriminator 1 view .LVU67
 506 003e 8A2C     		cmp	r4, #138
 507 0040 0EDC     		bgt	.L16
 235:Core/Src/app.c ****                 if (app_data.data[start_point] < 3104) {
 508              		.loc 1 235 17 view .LVU68
 509              		.loc 1 235 34 is_stmt 0 view .LVU69
 510 0042 40F20003 		movw	r3, #:lower16:app_data
 511 0046 C0F20003 		movt	r3, #:upper16:app_data
 512 004a 2200     		movs	r2, r4
 513 004c 0832     		adds	r2, r2, #8
 514 004e 5200     		lsls	r2, r2, #1
 515 0050 D25A     		ldrh	r2, [r2, r3]
 516              		.loc 1 235 20 view .LVU70
 517 0052 40F61F43 		movw	r3, #3103
 518 0056 9A42     		cmp	r2, r3
 519 0058 02D9     		bls	.L16
 234:Core/Src/app.c ****             for (; start_point < LENGTH - LCD_WIDTH; start_point ++) {
 520              		.loc 1 234 66 is_stmt 1 view .LVU71
 521 005a 0134     		adds	r4, r4, #1
 522              	.LVL30:
 234:Core/Src/app.c ****             for (; start_point < LENGTH - LCD_WIDTH; start_point ++) {
 523              		.loc 1 234 66 is_stmt 0 view .LVU72
 524 005c 24B2     		sxth	r4, r4
 525              	.LVL31:
 234:Core/Src/app.c ****             for (; start_point < LENGTH - LCD_WIDTH; start_point ++) {
 526              		.loc 1 234 66 view .LVU73
 527 005e EEE7     		b	.L14
 528              	.L16:
 236:Core/Src/app.c ****                     break;
 237:Core/Src/app.c ****                 }
 238:Core/Src/app.c ****             }
 239:Core/Src/app.c ****             break;
 240:Core/Src/app.c ****         }
 241:Core/Src/app.c ****     }
 242:Core/Src/app.c **** 
 243:Core/Src/app.c ****     // LCD_Fill(4, 24, LCD_WIDTH, 95, BLACK);
 244:Core/Src/app.c ****     // LCD_Draw_Point(0, HORIZONTAL_AXIS, GREEN);
 245:Core/Src/app.c ****     app_data.wave_vpp = 2929;
 529              		.loc 1 245 5 is_stmt 1 view .LVU74
 530              		.loc 1 245 23 is_stmt 0 view .LVU75
 531 0060 40F20003 		movw	r3, #:lower16:app_data
ARM GAS  D:\noval\Temp\ccMrHsGD.s 			page 15


 532 0064 C0F20003 		movt	r3, #:upper16:app_data
 533 0068 40F67132 		movw	r2, #2929
 534 006c DA80     		strh	r2, [r3, #6]
 246:Core/Src/app.c ****     for (i = start_point; i < start_point + 157; i++) {
 535              		.loc 1 246 5 is_stmt 1 view .LVU76
 536              	.LVL32:
 537              		.loc 1 246 12 is_stmt 0 view .LVU77
 538 006e 2500     		movs	r5, r4
 539              		.loc 1 246 5 view .LVU78
 540 0070 28E0     		b	.L19
 541              	.LVL33:
 542              	.L21:
 247:Core/Src/app.c ****         if (app_data.data[i] < 3104) {
 248:Core/Src/app.c ****             if (app_data.wave_vpp > app_data.data[i]) app_data.wave_vpp = app_data.data[i];
 249:Core/Src/app.c ****             x = LCD_Draw_Curve(AXIS_START_X + 1, HORIZONTAL_AXIS, (int16_t)((1 - app_data.data[i] /
 543              		.loc 1 249 13 is_stmt 1 view .LVU79
 544              		.loc 1 249 99 is_stmt 0 view .LVU80
 545 0072 FFF7FEFF 		bl	__aeabi_i2f
 546              	.LVL34:
 547 0076 0021     		movs	r1, #0
 548 0078 C4F24251 		movt	r1, 17730
 549 007c FFF7FEFF 		bl	__aeabi_fdiv
 550              	.LVL35:
 551 0080 011C     		adds	r1, r0, #0
 552              		.loc 1 249 80 view .LVU81
 553 0082 FE20     		movs	r0, #254
 554 0084 8005     		lsls	r0, r0, #22
 555 0086 FFF7FEFF 		bl	__aeabi_fsub
 556              	.LVL36:
 557              		.loc 1 249 110 view .LVU82
 558 008a 0021     		movs	r1, #0
 559 008c C4F25421 		movt	r1, 16980
 560 0090 FFF7FEFF 		bl	__aeabi_fmul
 561              	.LVL37:
 562              		.loc 1 249 17 view .LVU83
 563 0094 FFF7FEFF 		bl	__aeabi_f2iz
 564              	.LVL38:
 565 0098 02B2     		sxth	r2, r0
 566 009a 4E21     		movs	r1, #78
 567 009c 0320     		movs	r0, #3
 568 009e FFF7FEFF 		bl	LCD_Draw_Curve
 569              	.LVL39:
 570              		.loc 1 249 15 discriminator 1 view .LVU84
 571 00a2 00B2     		sxth	r0, r0
 572              	.LVL40:
 573              	.L22:
 250:Core/Src/app.c ****         } else {
 251:Core/Src/app.c ****             x = LCD_Draw_Curve(AXIS_START_X + 1, HORIZONTAL_AXIS, (int16_t)((app_data.data[i] - 310
 252:Core/Src/app.c ****         }
 253:Core/Src/app.c ****         app_data.data[i] = 0;
 574              		.loc 1 253 9 is_stmt 1 view .LVU85
 575              		.loc 1 253 26 is_stmt 0 view .LVU86
 576 00a4 40F20003 		movw	r3, #:lower16:app_data
 577 00a8 C0F20003 		movt	r3, #:upper16:app_data
 578 00ac 0836     		adds	r6, r6, #8
 579 00ae 7600     		lsls	r6, r6, #1
 580 00b0 0022     		movs	r2, #0
ARM GAS  D:\noval\Temp\ccMrHsGD.s 			page 16


 581 00b2 F252     		strh	r2, [r6, r3]
 254:Core/Src/app.c ****         LCD_Draw_Point(x, HORIZONTAL_AXIS, PURPLE);
 582              		.loc 1 254 9 is_stmt 1 view .LVU87
 583 00b4 80B2     		uxth	r0, r0
 584              		.loc 1 254 9 is_stmt 0 view .LVU88
 585 00b6 48F21002 		movw	r2, #32784
 586 00ba 4E21     		movs	r1, #78
 587 00bc FFF7FEFF 		bl	LCD_Draw_Point
 588              	.LVL41:
 246:Core/Src/app.c ****         if (app_data.data[i] < 3104) {
 589              		.loc 1 246 51 is_stmt 1 discriminator 2 view .LVU89
 590 00c0 0135     		adds	r5, r5, #1
 591              	.LVL42:
 246:Core/Src/app.c ****         if (app_data.data[i] < 3104) {
 592              		.loc 1 246 51 is_stmt 0 discriminator 2 view .LVU90
 593 00c2 2DB2     		sxth	r5, r5
 594              	.LVL43:
 595              	.L19:
 246:Core/Src/app.c ****         if (app_data.data[i] < 3104) {
 596              		.loc 1 246 29 is_stmt 1 discriminator 1 view .LVU91
 597 00c4 2E00     		movs	r6, r5
 598 00c6 2300     		movs	r3, r4
 599 00c8 9C33     		adds	r3, r3, #156
 600 00ca AB42     		cmp	r3, r5
 601 00cc 30DB     		blt	.L25
 247:Core/Src/app.c ****             if (app_data.wave_vpp > app_data.data[i]) app_data.wave_vpp = app_data.data[i];
 602              		.loc 1 247 9 view .LVU92
 247:Core/Src/app.c ****             if (app_data.wave_vpp > app_data.data[i]) app_data.wave_vpp = app_data.data[i];
 603              		.loc 1 247 26 is_stmt 0 view .LVU93
 604 00ce 40F20003 		movw	r3, #:lower16:app_data
 605 00d2 C0F20003 		movt	r3, #:upper16:app_data
 606 00d6 2A00     		movs	r2, r5
 607 00d8 0832     		adds	r2, r2, #8
 608 00da 5200     		lsls	r2, r2, #1
 609 00dc D05A     		ldrh	r0, [r2, r3]
 247:Core/Src/app.c ****             if (app_data.wave_vpp > app_data.data[i]) app_data.wave_vpp = app_data.data[i];
 610              		.loc 1 247 12 view .LVU94
 611 00de 40F61F43 		movw	r3, #3103
 612 00e2 9842     		cmp	r0, r3
 613 00e4 0CD8     		bhi	.L20
 248:Core/Src/app.c ****             x = LCD_Draw_Curve(AXIS_START_X + 1, HORIZONTAL_AXIS, (int16_t)((1 - app_data.data[i] /
 614              		.loc 1 248 13 is_stmt 1 view .LVU95
 248:Core/Src/app.c ****             x = LCD_Draw_Curve(AXIS_START_X + 1, HORIZONTAL_AXIS, (int16_t)((1 - app_data.data[i] /
 615              		.loc 1 248 25 is_stmt 0 view .LVU96
 616 00e6 40F20003 		movw	r3, #:lower16:app_data
 617 00ea C0F20003 		movt	r3, #:upper16:app_data
 618 00ee DB88     		ldrh	r3, [r3, #6]
 248:Core/Src/app.c ****             x = LCD_Draw_Curve(AXIS_START_X + 1, HORIZONTAL_AXIS, (int16_t)((1 - app_data.data[i] /
 619              		.loc 1 248 16 view .LVU97
 620 00f0 9842     		cmp	r0, r3
 621 00f2 BED2     		bcs	.L21
 248:Core/Src/app.c ****             x = LCD_Draw_Curve(AXIS_START_X + 1, HORIZONTAL_AXIS, (int16_t)((1 - app_data.data[i] /
 622              		.loc 1 248 55 is_stmt 1 discriminator 1 view .LVU98
 248:Core/Src/app.c ****             x = LCD_Draw_Curve(AXIS_START_X + 1, HORIZONTAL_AXIS, (int16_t)((1 - app_data.data[i] /
 623              		.loc 1 248 73 is_stmt 0 discriminator 1 view .LVU99
 624 00f4 40F20003 		movw	r3, #:lower16:app_data
 625 00f8 C0F20003 		movt	r3, #:upper16:app_data
ARM GAS  D:\noval\Temp\ccMrHsGD.s 			page 17


 626 00fc D880     		strh	r0, [r3, #6]
 627 00fe B8E7     		b	.L21
 628              	.L20:
 251:Core/Src/app.c ****         }
 629              		.loc 1 251 13 is_stmt 1 view .LVU100
 251:Core/Src/app.c ****         }
 630              		.loc 1 251 95 is_stmt 0 view .LVU101
 631 0100 104B     		ldr	r3, .L26
 632 0102 9C46     		mov	ip, r3
 633 0104 6044     		add	r0, r0, ip
 251:Core/Src/app.c ****         }
 634              		.loc 1 251 103 view .LVU102
 635 0106 FFF7FEFF 		bl	__aeabi_i2f
 636              	.LVL44:
 637 010a 0021     		movs	r1, #0
 638 010c C4F27841 		movt	r1, 17528
 639 0110 FFF7FEFF 		bl	__aeabi_fdiv
 640              	.LVL45:
 251:Core/Src/app.c ****         }
 641              		.loc 1 251 112 view .LVU103
 642 0114 0021     		movs	r1, #0
 643 0116 CCF28811 		movt	r1, 49544
 644 011a FFF7FEFF 		bl	__aeabi_fmul
 645              	.LVL46:
 251:Core/Src/app.c ****         }
 646              		.loc 1 251 17 view .LVU104
 647 011e FFF7FEFF 		bl	__aeabi_f2iz
 648              	.LVL47:
 649 0122 02B2     		sxth	r2, r0
 650 0124 4E21     		movs	r1, #78
 651 0126 0320     		movs	r0, #3
 652 0128 FFF7FEFF 		bl	LCD_Draw_Curve
 653              	.LVL48:
 251:Core/Src/app.c ****         }
 654              		.loc 1 251 15 discriminator 1 view .LVU105
 655 012c 00B2     		sxth	r0, r0
 656              	.LVL49:
 251:Core/Src/app.c ****         }
 657              		.loc 1 251 15 discriminator 1 view .LVU106
 658 012e B9E7     		b	.L22
 659              	.LVL50:
 660              	.L25:
 255:Core/Src/app.c ****         // delay_1ms(2);
 256:Core/Src/app.c ****     }
 257:Core/Src/app.c ****     dma_transfer_number_config(DMA_CH0, LENGTH);
 661              		.loc 1 257 5 is_stmt 1 view .LVU107
 662 0130 40F22C11 		movw	r1, #300
 663 0134 0020     		movs	r0, #0
 664 0136 FFF7FEFF 		bl	dma_transfer_number_config
 665              	.LVL51:
 258:Core/Src/app.c ****     dma_channel_enable(DMA_CH0);
 666              		.loc 1 258 5 view .LVU108
 667 013a 0020     		movs	r0, #0
 668 013c FFF7FEFF 		bl	dma_channel_enable
 669              	.LVL52:
 259:Core/Src/app.c **** }
 670              		.loc 1 259 1 is_stmt 0 view .LVU109
ARM GAS  D:\noval\Temp\ccMrHsGD.s 			page 18


 671              		@ sp needed
 672              	.LVL53:
 673              	.LVL54:
 674              	.LVL55:
 675              		.loc 1 259 1 view .LVU110
 676 0140 70BD     		pop	{r4, r5, r6, pc}
 677              	.L27:
 678 0142 C046     		.align	2
 679              	.L26:
 680 0144 E0F3FFFF 		.word	-3104
 681              		.cfi_endproc
 682              	.LFE67:
 684              		.section	.rodata.AppInit.str1.4,"aMS",%progbits,1
 685              		.align	2
 686              	.LC11:
 687 0000 41707020 		.ascii	"App Start!\000"
 687      53746172 
 687      742100
 688              		.section	.text.AppInit,"ax",%progbits
 689              		.align	1
 690              		.global	AppInit
 691              		.syntax unified
 692              		.code	16
 693              		.thumb_func
 695              	AppInit:
 696              	.LFB63:
  39:Core/Src/app.c ****     /* program data initialization */
 697              		.loc 1 39 1 is_stmt 1 view -0
 698              		.cfi_startproc
 699              		@ args = 0, pretend = 0, frame = 0
 700              		@ frame_needed = 0, uses_anonymous_args = 0
 701 0000 10B5     		push	{r4, lr}
 702              	.LCFI5:
 703              		.cfi_def_cfa_offset 8
 704              		.cfi_offset 4, -8
 705              		.cfi_offset 14, -4
  41:Core/Src/app.c ****     app_data.pwm_duty = 50;
 706              		.loc 1 41 5 view .LVU112
  41:Core/Src/app.c ****     app_data.pwm_duty = 50;
 707              		.loc 1 41 23 is_stmt 0 view .LVU113
 708 0002 40F20003 		movw	r3, #:lower16:app_data
 709 0006 C0F20003 		movt	r3, #:upper16:app_data
 710 000a 3222     		movs	r2, #50
 711 000c 1A60     		str	r2, [r3]
  42:Core/Src/app.c ****     app_data.wave_freq = 0;
 712              		.loc 1 42 5 is_stmt 1 view .LVU114
  42:Core/Src/app.c ****     app_data.wave_freq = 0;
 713              		.loc 1 42 23 is_stmt 0 view .LVU115
 714 000e 9A80     		strh	r2, [r3, #4]
  43:Core/Src/app.c ****     app_data.wave_vpp = 0;
 715              		.loc 1 43 5 is_stmt 1 view .LVU116
  43:Core/Src/app.c ****     app_data.wave_vpp = 0;
 716              		.loc 1 43 24 is_stmt 0 view .LVU117
 717 0010 0022     		movs	r2, #0
 718 0012 DA60     		str	r2, [r3, #12]
  44:Core/Src/app.c ****     app_data.wave_samp_freq = ADC_SAMPLETIME_239POINT5;
 719              		.loc 1 44 5 is_stmt 1 view .LVU118
ARM GAS  D:\noval\Temp\ccMrHsGD.s 			page 19


  44:Core/Src/app.c ****     app_data.wave_samp_freq = ADC_SAMPLETIME_239POINT5;
 720              		.loc 1 44 23 is_stmt 0 view .LVU119
 721 0014 DA80     		strh	r2, [r3, #6]
  45:Core/Src/app.c **** 
 722              		.loc 1 45 5 is_stmt 1 view .LVU120
  45:Core/Src/app.c **** 
 723              		.loc 1 45 29 is_stmt 0 view .LVU121
 724 0016 0732     		adds	r2, r2, #7
 725 0018 9A60     		str	r2, [r3, #8]
  47:Core/Src/app.c ****     app_state.display_update = APP_STATE_DISABLE;
 726              		.loc 1 47 5 is_stmt 1 view .LVU122
  47:Core/Src/app.c ****     app_state.display_update = APP_STATE_DISABLE;
 727              		.loc 1 47 25 is_stmt 0 view .LVU123
 728 001a 40F20003 		movw	r3, #:lower16:app_state
 729 001e C0F20003 		movt	r3, #:upper16:app_state
 730 0022 1978     		ldrb	r1, [r3]
 731 0024 0832     		adds	r2, r2, #8
 732 0026 0A40     		ands	r2, r1
 733 0028 4021     		movs	r1, #64
 734 002a 0A43     		orrs	r2, r1
 735 002c 1A70     		strb	r2, [r3]
  48:Core/Src/app.c ****     app_state.update_samp_val = APP_STATE_DISABLE;
 736              		.loc 1 48 5 is_stmt 1 view .LVU124
  48:Core/Src/app.c ****     app_state.update_samp_val = APP_STATE_DISABLE;
 737              		.loc 1 48 30 is_stmt 0 view .LVU125
 738 002e D2B2     		uxtb	r2, r2
 739 0030 0121     		movs	r1, #1
 740 0032 8A43     		bics	r2, r1
 741 0034 1A70     		strb	r2, [r3]
  49:Core/Src/app.c ****     app_state.waveform_update = WAVEFORM_UPDATE_NONE;
 742              		.loc 1 49 5 is_stmt 1 view .LVU126
  49:Core/Src/app.c ****     app_state.waveform_update = WAVEFORM_UPDATE_NONE;
 743              		.loc 1 49 31 is_stmt 0 view .LVU127
 744 0036 D2B2     		uxtb	r2, r2
 745 0038 0131     		adds	r1, r1, #1
 746 003a 8A43     		bics	r2, r1
 747 003c 1A70     		strb	r2, [r3]
  50:Core/Src/app.c ****     
 748              		.loc 1 50 5 is_stmt 1 view .LVU128
  50:Core/Src/app.c ****     
 749              		.loc 1 50 31 is_stmt 0 view .LVU129
 750 003e D2B2     		uxtb	r2, r2
 751 0040 0A31     		adds	r1, r1, #10
 752 0042 8A43     		bics	r2, r1
 753 0044 1A70     		strb	r2, [r3]
  53:Core/Src/app.c ****     GPIOConfig();
 754              		.loc 1 53 5 is_stmt 1 view .LVU130
 755 0046 FFF7FEFF 		bl	RCUConfig
 756              	.LVL56:
  54:Core/Src/app.c **** #if OPEN_ZLOG == 1
 757              		.loc 1 54 5 view .LVU131
 758 004a FFF7FEFF 		bl	GPIOConfig
 759              	.LVL57:
  58:Core/Src/app.c ****     DMAConfig();
 760              		.loc 1 58 5 view .LVU132
 761 004e FFF7FEFF 		bl	ADCConfig
 762              	.LVL58:
ARM GAS  D:\noval\Temp\ccMrHsGD.s 			page 20


  59:Core/Src/app.c ****     SPIConfig();
 763              		.loc 1 59 5 view .LVU133
 764 0052 FFF7FEFF 		bl	DMAConfig
 765              	.LVL59:
  60:Core/Src/app.c **** 
 766              		.loc 1 60 5 view .LVU134
 767 0056 FFF7FEFF 		bl	SPIConfig
 768              	.LVL60:
  63:Core/Src/app.c ****     delay_1ms(10);
 769              		.loc 1 63 5 view .LVU135
 770 005a FFF7FEFF 		bl	LCD_Init
 771              	.LVL61:
  64:Core/Src/app.c ****     
 772              		.loc 1 64 5 view .LVU136
 773 005e 0A20     		movs	r0, #10
 774 0060 FFF7FEFF 		bl	delay_1ms
 775              	.LVL62:
  66:Core/Src/app.c ****     WaveformDisplay();
 776              		.loc 1 66 5 view .LVU137
 777 0064 FFF7FEFF 		bl	AppInterface
 778              	.LVL63:
  67:Core/Src/app.c ****     AppStateDisplay();
 779              		.loc 1 67 5 view .LVU138
 780 0068 FFF7FEFF 		bl	WaveformDisplay
 781              	.LVL64:
  68:Core/Src/app.c ****     
 782              		.loc 1 68 5 view .LVU139
 783 006c FFF7FEFF 		bl	AppStateDisplay
 784              	.LVL65:
  70:Core/Src/app.c **** 
 785              		.loc 1 70 5 view .LVU140
 786 0070 FFF7FEFF 		bl	TIMConfig
 787              	.LVL66:
  73:Core/Src/app.c **** }
 788              		.loc 1 73 5 view .LVU141
 789 0074 40F20003 		movw	r3, #:lower16:.LC11
 790 0078 C0F20003 		movt	r3, #:upper16:.LC11
 791 007c 40F20001 		movw	r1, #:lower16:__FUNCTION__.3
 792 0080 C0F20001 		movt	r1, #:upper16:__FUNCTION__.3
 793 0084 4922     		movs	r2, #73
 794 0086 0020     		movs	r0, #0
 795 0088 FFF7FEFF 		bl	EM_LOG
 796              	.LVL67:
  74:Core/Src/app.c **** 
 797              		.loc 1 74 1 is_stmt 0 view .LVU142
 798              		@ sp needed
 799 008c 10BD     		pop	{r4, pc}
 800              		.cfi_endproc
 801              	.LFE63:
 803              		.section	.rodata.AppStart.str1.4,"aMS",%progbits,1
 804              		.align	2
 805              	.LC12:
 806 0000 2F2A2A2A 		.ascii	"/***************State****************/\000"
 806      2A2A2A2A 
 806      2A2A2A2A 
 806      2A2A2A2A 
 806      53746174 
ARM GAS  D:\noval\Temp\ccMrHsGD.s 			page 21


 807 0027 00       		.align	2
 808              	.LC13:
 809 0028 64697370 		.ascii	"display_update: %d\000"
 809      6C61795F 
 809      75706461 
 809      74653A20 
 809      256400
 810 003b 00       		.align	2
 811              	.LC14:
 812 003c 75706461 		.ascii	"update_samp_val: %d\000"
 812      74655F73 
 812      616D705F 
 812      76616C3A 
 812      20256400 
 813              		.align	2
 814              	.LC15:
 815 0050 77617665 		.ascii	"waveform_update: %d\000"
 815      666F726D 
 815      5F757064 
 815      6174653A 
 815      20256400 
 816              		.align	2
 817              	.LC16:
 818 0064 70776D5F 		.ascii	"pwm_state: %d\000"
 818      73746174 
 818      653A2025 
 818      6400
 819 0072 0000     		.align	2
 820              	.LC17:
 821 0074 2F2A2A2A 		.ascii	"/***************Data*****************/\000"
 821      2A2A2A2A 
 821      2A2A2A2A 
 821      2A2A2A2A 
 821      44617461 
 822 009b 00       		.align	2
 823              	.LC18:
 824 009c 70776D5F 		.ascii	"pwm_freq: %d\000"
 824      66726571 
 824      3A202564 
 824      00
 825 00a9 000000   		.align	2
 826              	.LC19:
 827 00ac 70776D5F 		.ascii	"pwm_duty: %d\000"
 827      64757479 
 827      3A202564 
 827      00
 828 00b9 000000   		.align	2
 829              	.LC20:
 830 00bc 77617665 		.ascii	"wave_freq: %d\000"
 830      5F667265 
 830      713A2025 
 830      6400
 831 00ca 0000     		.align	2
 832              	.LC21:
 833 00cc 77617665 		.ascii	"wave_vpp: %d\000"
 833      5F767070 
 833      3A202564 
ARM GAS  D:\noval\Temp\ccMrHsGD.s 			page 22


 833      00
 834 00d9 000000   		.align	2
 835              	.LC22:
 836 00dc 77617665 		.ascii	"wave_samp_freq: %d\000"
 836      5F73616D 
 836      705F6672 
 836      65713A20 
 836      256400
 837              		.section	.text.AppStart,"ax",%progbits
 838              		.align	1
 839              		.global	AppStart
 840              		.syntax unified
 841              		.code	16
 842              		.thumb_func
 844              	AppStart:
 845              	.LFB64:
  82:Core/Src/app.c ****     EMLOG(LOG_DEBUG, "/***************State****************/");
 846              		.loc 1 82 1 is_stmt 1 view -0
 847              		.cfi_startproc
 848              		@ args = 0, pretend = 0, frame = 0
 849              		@ frame_needed = 0, uses_anonymous_args = 0
 850 0000 F0B5     		push	{r4, r5, r6, r7, lr}
 851              	.LCFI6:
 852              		.cfi_def_cfa_offset 20
 853              		.cfi_offset 4, -20
 854              		.cfi_offset 5, -16
 855              		.cfi_offset 6, -12
 856              		.cfi_offset 7, -8
 857              		.cfi_offset 14, -4
 858 0002 83B0     		sub	sp, sp, #12
 859              	.LCFI7:
 860              		.cfi_def_cfa_offset 32
  83:Core/Src/app.c ****     EMLOG(LOG_DEBUG, "display_update: %d", app_state.display_update);
 861              		.loc 1 83 5 view .LVU144
 862 0004 40F20003 		movw	r3, #:lower16:.LC12
 863 0008 C0F20003 		movt	r3, #:upper16:.LC12
 864 000c 40F20004 		movw	r4, #:lower16:__FUNCTION__.2
 865 0010 C0F20004 		movt	r4, #:upper16:__FUNCTION__.2
 866 0014 5322     		movs	r2, #83
 867 0016 2100     		movs	r1, r4
 868 0018 0020     		movs	r0, #0
 869 001a FFF7FEFF 		bl	EM_LOG
 870              	.LVL68:
  84:Core/Src/app.c ****     EMLOG(LOG_DEBUG, "update_samp_val: %d", app_state.update_samp_val);
 871              		.loc 1 84 5 view .LVU145
 872 001e 40F20005 		movw	r5, #:lower16:app_state
 873 0022 C0F20005 		movt	r5, #:upper16:app_state
 874 0026 2A78     		ldrb	r2, [r5]
 875 0028 D207     		lsls	r2, r2, #31
 876 002a D20F     		lsrs	r2, r2, #31
 877 002c 40F20003 		movw	r3, #:lower16:.LC13
 878 0030 C0F20003 		movt	r3, #:upper16:.LC13
 879 0034 0092     		str	r2, [sp]
 880 0036 5422     		movs	r2, #84
 881 0038 2100     		movs	r1, r4
 882 003a 0020     		movs	r0, #0
 883 003c FFF7FEFF 		bl	EM_LOG
ARM GAS  D:\noval\Temp\ccMrHsGD.s 			page 23


 884              	.LVL69:
  85:Core/Src/app.c ****     EMLOG(LOG_DEBUG, "waveform_update: %d", app_state.waveform_update);
 885              		.loc 1 85 5 view .LVU146
 886 0040 2A78     		ldrb	r2, [r5]
 887 0042 9207     		lsls	r2, r2, #30
 888 0044 D20F     		lsrs	r2, r2, #31
 889 0046 40F20003 		movw	r3, #:lower16:.LC14
 890 004a C0F20003 		movt	r3, #:upper16:.LC14
 891 004e 0092     		str	r2, [sp]
 892 0050 5522     		movs	r2, #85
 893 0052 2100     		movs	r1, r4
 894 0054 0020     		movs	r0, #0
 895 0056 FFF7FEFF 		bl	EM_LOG
 896              	.LVL70:
  86:Core/Src/app.c ****     EMLOG(LOG_INFO, "pwm_state: %d", app_state.pwm_state);
 897              		.loc 1 86 5 view .LVU147
 898 005a 2A78     		ldrb	r2, [r5]
 899 005c 1207     		lsls	r2, r2, #28
 900 005e 920F     		lsrs	r2, r2, #30
 901 0060 40F20003 		movw	r3, #:lower16:.LC15
 902 0064 C0F20003 		movt	r3, #:upper16:.LC15
 903 0068 0092     		str	r2, [sp]
 904 006a 5622     		movs	r2, #86
 905 006c 2100     		movs	r1, r4
 906 006e 0020     		movs	r0, #0
 907 0070 FFF7FEFF 		bl	EM_LOG
 908              	.LVL71:
  87:Core/Src/app.c **** 
 909              		.loc 1 87 5 view .LVU148
 910 0074 2A78     		ldrb	r2, [r5]
 911 0076 1209     		lsrs	r2, r2, #4
 912 0078 40F20003 		movw	r3, #:lower16:.LC16
 913 007c C0F20003 		movt	r3, #:upper16:.LC16
 914 0080 0092     		str	r2, [sp]
 915 0082 5722     		movs	r2, #87
 916 0084 2100     		movs	r1, r4
 917 0086 0120     		movs	r0, #1
 918 0088 FFF7FEFF 		bl	EM_LOG
 919              	.LVL72:
  89:Core/Src/app.c ****     EMLOG(LOG_DEBUG, "pwm_freq: %d", app_data.pwm_freq);
 920              		.loc 1 89 5 view .LVU149
 921 008c 40F20003 		movw	r3, #:lower16:.LC17
 922 0090 C0F20003 		movt	r3, #:upper16:.LC17
 923 0094 5922     		movs	r2, #89
 924 0096 2100     		movs	r1, r4
 925 0098 0020     		movs	r0, #0
 926 009a FFF7FEFF 		bl	EM_LOG
 927              	.LVL73:
  90:Core/Src/app.c ****     EMLOG(LOG_DEBUG, "pwm_duty: %d", app_data.pwm_duty);
 928              		.loc 1 90 5 view .LVU150
 929 009e 40F20006 		movw	r6, #:lower16:.LC18
 930 00a2 C0F20006 		movt	r6, #:upper16:.LC18
 931 00a6 40F20005 		movw	r5, #:lower16:app_data
 932 00aa C0F20005 		movt	r5, #:upper16:app_data
 933 00ae 2B68     		ldr	r3, [r5]
 934 00b0 0093     		str	r3, [sp]
 935 00b2 3300     		movs	r3, r6
ARM GAS  D:\noval\Temp\ccMrHsGD.s 			page 24


 936 00b4 5A22     		movs	r2, #90
 937 00b6 2100     		movs	r1, r4
 938 00b8 0020     		movs	r0, #0
 939 00ba FFF7FEFF 		bl	EM_LOG
 940              	.LVL74:
  91:Core/Src/app.c ****     EMLOG(LOG_DEBUG, "wave_freq: %d", app_data.wave_freq);
 941              		.loc 1 91 5 view .LVU151
 942 00be AA88     		ldrh	r2, [r5, #4]
 943 00c0 40F20003 		movw	r3, #:lower16:.LC19
 944 00c4 C0F20003 		movt	r3, #:upper16:.LC19
 945 00c8 0092     		str	r2, [sp]
 946 00ca 5B22     		movs	r2, #91
 947 00cc 2100     		movs	r1, r4
 948 00ce 0020     		movs	r0, #0
 949 00d0 FFF7FEFF 		bl	EM_LOG
 950              	.LVL75:
  92:Core/Src/app.c ****     EMLOG(LOG_DEBUG, "wave_vpp: %d", app_data.wave_vpp);
 951              		.loc 1 92 5 view .LVU152
 952 00d4 40F20007 		movw	r7, #:lower16:.LC20
 953 00d8 C0F20007 		movt	r7, #:upper16:.LC20
 954 00dc EB68     		ldr	r3, [r5, #12]
 955 00de 0093     		str	r3, [sp]
 956 00e0 3B00     		movs	r3, r7
 957 00e2 5C22     		movs	r2, #92
 958 00e4 2100     		movs	r1, r4
 959 00e6 0020     		movs	r0, #0
 960 00e8 FFF7FEFF 		bl	EM_LOG
 961              	.LVL76:
  93:Core/Src/app.c ****     EMLOG(LOG_DEBUG, "wave_samp_freq: %d", app_data.wave_samp_freq);
 962              		.loc 1 93 5 view .LVU153
 963 00ec EA88     		ldrh	r2, [r5, #6]
 964 00ee 40F20003 		movw	r3, #:lower16:.LC21
 965 00f2 C0F20003 		movt	r3, #:upper16:.LC21
 966 00f6 0092     		str	r2, [sp]
 967 00f8 5D22     		movs	r2, #93
 968 00fa 2100     		movs	r1, r4
 969 00fc 0020     		movs	r0, #0
 970 00fe FFF7FEFF 		bl	EM_LOG
 971              	.LVL77:
  94:Core/Src/app.c **** 
 972              		.loc 1 94 5 view .LVU154
 973 0102 40F20003 		movw	r3, #:lower16:.LC22
 974 0106 C0F20003 		movt	r3, #:upper16:.LC22
 975 010a AA68     		ldr	r2, [r5, #8]
 976 010c 0092     		str	r2, [sp]
 977 010e 5E22     		movs	r2, #94
 978 0110 2100     		movs	r1, r4
 979 0112 0020     		movs	r0, #0
 980 0114 FFF7FEFF 		bl	EM_LOG
 981              	.LVL78:
  96:Core/Src/app.c ****     EMLOG(LOG_INFO, "pwm_freq: %d", app_data.pwm_duty);
 982              		.loc 1 96 5 view .LVU155
 983 0118 2B68     		ldr	r3, [r5]
 984 011a 0093     		str	r3, [sp]
 985 011c 3300     		movs	r3, r6
 986 011e 6022     		movs	r2, #96
 987 0120 2100     		movs	r1, r4
ARM GAS  D:\noval\Temp\ccMrHsGD.s 			page 25


 988 0122 0120     		movs	r0, #1
 989 0124 FFF7FEFF 		bl	EM_LOG
 990              	.LVL79:
  97:Core/Src/app.c ****     EMLOG(LOG_INFO, "wave_freq: %d", app_data.wave_freq);
 991              		.loc 1 97 5 view .LVU156
 992 0128 AB88     		ldrh	r3, [r5, #4]
 993 012a 0093     		str	r3, [sp]
 994 012c 3300     		movs	r3, r6
 995 012e 6122     		movs	r2, #97
 996 0130 2100     		movs	r1, r4
 997 0132 0120     		movs	r0, #1
 998 0134 FFF7FEFF 		bl	EM_LOG
 999              	.LVL80:
  98:Core/Src/app.c **** 
 1000              		.loc 1 98 5 view .LVU157
 1001 0138 EB68     		ldr	r3, [r5, #12]
 1002 013a 0093     		str	r3, [sp]
 1003 013c 3B00     		movs	r3, r7
 1004 013e 6222     		movs	r2, #98
 1005 0140 2100     		movs	r1, r4
 1006 0142 0120     		movs	r0, #1
 1007 0144 FFF7FEFF 		bl	EM_LOG
 1008              	.LVL81:
 100:Core/Src/app.c ****         delay_1ms(10);
 1009              		.loc 1 100 5 view .LVU158
 100:Core/Src/app.c ****         delay_1ms(10);
 1010              		.loc 1 100 18 is_stmt 0 view .LVU159
 1011 0148 40F20040 		movw	r0, #1024
 1012 014c C4F60000 		movt	r0, 18432
 1013 0150 40F20021 		movw	r1, #512
 1014 0154 FFF7FEFF 		bl	gpio_input_bit_get
 1015              	.LVL82:
 100:Core/Src/app.c ****         delay_1ms(10);
 1016              		.loc 1 100 8 discriminator 1 view .LVU160
 1017 0158 0028     		cmp	r0, #0
 1018 015a 4BD0     		beq	.L42
 1019              	.L30:
 111:Core/Src/app.c ****         case PWM_STATE_OPEN:
 1020              		.loc 1 111 5 is_stmt 1 view .LVU161
 111:Core/Src/app.c ****         case PWM_STATE_OPEN:
 1021              		.loc 1 111 22 is_stmt 0 view .LVU162
 1022 015c 40F20003 		movw	r3, #:lower16:app_state
 1023 0160 C0F20003 		movt	r3, #:upper16:app_state
 1024 0164 1B78     		ldrb	r3, [r3]
 1025 0166 1B09     		lsrs	r3, r3, #4
 111:Core/Src/app.c ****         case PWM_STATE_OPEN:
 1026              		.loc 1 111 5 view .LVU163
 1027 0168 022B     		cmp	r3, #2
 1028 016a 00D1     		bne	.LCB824
 1029 016c 7BE0     		b	.L33	@long jump
 1030              	.LCB824:
 1031 016e 032B     		cmp	r3, #3
 1032 0170 00D1     		bne	.LCB826
 1033 0172 73E0     		b	.L34	@long jump
 1034              	.LCB826:
 1035 0174 012B     		cmp	r3, #1
 1036 0176 21D1     		bne	.L36
ARM GAS  D:\noval\Temp\ccMrHsGD.s 			page 26


 1037              	.L35:
 119:Core/Src/app.c ****             timer_channel_output_pulse_value_config(TIMER14, TIMER_CH_0, app_data.pwm_freq * app_da
 1038              		.loc 1 119 13 is_stmt 1 view .LVU164
 119:Core/Src/app.c ****             timer_channel_output_pulse_value_config(TIMER14, TIMER_CH_0, app_data.pwm_freq * app_da
 1039              		.loc 1 119 60 is_stmt 0 view .LVU165
 1040 0178 40F20004 		movw	r4, #:lower16:app_data
 1041 017c C0F20004 		movt	r4, #:upper16:app_data
 119:Core/Src/app.c ****             timer_channel_output_pulse_value_config(TIMER14, TIMER_CH_0, app_data.pwm_freq * app_da
 1042              		.loc 1 119 13 view .LVU166
 1043 0180 2188     		ldrh	r1, [r4]
 1044 0182 44F20005 		movw	r5, #16384
 1045 0186 C4F20105 		movt	r5, 16385
 1046 018a 2800     		movs	r0, r5
 1047 018c FFF7FEFF 		bl	timer_autoreload_value_config
 1048              	.LVL83:
 120:Core/Src/app.c ****             app_state.pwm_state = PWM_STATE_NONE;
 1049              		.loc 1 120 13 is_stmt 1 view .LVU167
 120:Core/Src/app.c ****             app_state.pwm_state = PWM_STATE_NONE;
 1050              		.loc 1 120 82 is_stmt 0 view .LVU168
 1051 0190 2368     		ldr	r3, [r4]
 120:Core/Src/app.c ****             app_state.pwm_state = PWM_STATE_NONE;
 1052              		.loc 1 120 102 view .LVU169
 1053 0192 A288     		ldrh	r2, [r4, #4]
 120:Core/Src/app.c ****             app_state.pwm_state = PWM_STATE_NONE;
 1054              		.loc 1 120 92 view .LVU170
 1055 0194 5A43     		muls	r2, r3
 120:Core/Src/app.c ****             app_state.pwm_state = PWM_STATE_NONE;
 1056              		.loc 1 120 13 view .LVU171
 1057 0196 6423     		movs	r3, #100
 1058 0198 B2FBF3F2 		udiv	r2, r2, r3
 1059 019c 0021     		movs	r1, #0
 1060 019e 2800     		movs	r0, r5
 1061 01a0 FFF7FEFF 		bl	timer_channel_output_pulse_value_config
 1062              	.LVL84:
 121:Core/Src/app.c ****             app_state.display_update = APP_STATE_ENABLE;
 1063              		.loc 1 121 13 is_stmt 1 view .LVU172
 121:Core/Src/app.c ****             app_state.display_update = APP_STATE_ENABLE;
 1064              		.loc 1 121 33 is_stmt 0 view .LVU173
 1065 01a4 40F20003 		movw	r3, #:lower16:app_state
 1066 01a8 C0F20003 		movt	r3, #:upper16:app_state
 1067 01ac 1978     		ldrb	r1, [r3]
 1068 01ae 0F22     		movs	r2, #15
 1069 01b0 0A40     		ands	r2, r1
 1070 01b2 1A70     		strb	r2, [r3]
 122:Core/Src/app.c ****             break;
 1071              		.loc 1 122 13 is_stmt 1 view .LVU174
 122:Core/Src/app.c ****             break;
 1072              		.loc 1 122 38 is_stmt 0 view .LVU175
 1073 01b4 D2B2     		uxtb	r2, r2
 1074 01b6 0121     		movs	r1, #1
 1075 01b8 0A43     		orrs	r2, r1
 1076 01ba 1A70     		strb	r2, [r3]
 123:Core/Src/app.c ****         case PWM_STATE_CLOSE:
 1077              		.loc 1 123 13 is_stmt 1 view .LVU176
 1078              	.L36:
 136:Core/Src/app.c ****         adc_regular_channel_config(0, ADC_CHANNEL_3, app_data.wave_samp_freq);
 1079              		.loc 1 136 5 view .LVU177
ARM GAS  D:\noval\Temp\ccMrHsGD.s 			page 27


 136:Core/Src/app.c ****         adc_regular_channel_config(0, ADC_CHANNEL_3, app_data.wave_samp_freq);
 1080              		.loc 1 136 35 is_stmt 0 view .LVU178
 1081 01bc 40F20003 		movw	r3, #:lower16:app_state
 1082 01c0 C0F20003 		movt	r3, #:upper16:app_state
 1083 01c4 1B78     		ldrb	r3, [r3]
 136:Core/Src/app.c ****         adc_regular_channel_config(0, ADC_CHANNEL_3, app_data.wave_samp_freq);
 1084              		.loc 1 136 8 view .LVU179
 1085 01c6 9B07     		lsls	r3, r3, #30
 1086 01c8 00D5     		bpl	.LCB870
 1087 01ca 72E0     		b	.L43	@long jump
 1088              	.LCB870:
 1089              	.L37:
 141:Core/Src/app.c ****         app_state.waveform_update = WAVEFORM_UPDATE_NONE;
 1090              		.loc 1 141 5 is_stmt 1 view .LVU180
 141:Core/Src/app.c ****         app_state.waveform_update = WAVEFORM_UPDATE_NONE;
 1091              		.loc 1 141 35 is_stmt 0 view .LVU181
 1092 01cc 40F20003 		movw	r3, #:lower16:app_state
 1093 01d0 C0F20003 		movt	r3, #:upper16:app_state
 1094 01d4 1A78     		ldrb	r2, [r3]
 1095 01d6 0C23     		movs	r3, #12
 1096 01d8 1340     		ands	r3, r2
 141:Core/Src/app.c ****         app_state.waveform_update = WAVEFORM_UPDATE_NONE;
 1097              		.loc 1 141 8 view .LVU182
 1098 01da 042B     		cmp	r3, #4
 1099 01dc 00D1     		bne	.LCB880
 1100 01de 7EE0     		b	.L44	@long jump
 1101              	.LCB880:
 1102              	.L38:
 145:Core/Src/app.c ****         app_state.display_update = APP_STATE_DISABLE;
 1103              		.loc 1 145 5 is_stmt 1 view .LVU183
 145:Core/Src/app.c ****         app_state.display_update = APP_STATE_DISABLE;
 1104              		.loc 1 145 9 is_stmt 0 view .LVU184
 1105 01e0 40F20003 		movw	r3, #:lower16:app_state
 1106 01e4 C0F20003 		movt	r3, #:upper16:app_state
 1107 01e8 1B78     		ldrb	r3, [r3]
 145:Core/Src/app.c ****         app_state.display_update = APP_STATE_DISABLE;
 1108              		.loc 1 145 8 view .LVU185
 1109 01ea DB07     		lsls	r3, r3, #31
 1110 01ec 00D5     		bpl	.LCB890
 1111 01ee 80E0     		b	.L45	@long jump
 1112              	.LCB890:
 1113              	.L29:
 149:Core/Src/app.c **** 
 1114              		.loc 1 149 1 view .LVU186
 1115 01f0 03B0     		add	sp, sp, #12
 1116              		@ sp needed
 1117 01f2 F0BD     		pop	{r4, r5, r6, r7, pc}
 1118              	.L42:
 101:Core/Src/app.c ****         if (RESET == gpio_input_bit_get(GPIOB, GPIO_PIN_9)) {
 1119              		.loc 1 101 9 is_stmt 1 view .LVU187
 1120 01f4 0A30     		adds	r0, r0, #10
 1121 01f6 FFF7FEFF 		bl	delay_1ms
 1122              	.LVL85:
 102:Core/Src/app.c ****             while (RESET == gpio_input_bit_get(GPIOB, GPIO_PIN_9));
 1123              		.loc 1 102 9 view .LVU188
 102:Core/Src/app.c ****             while (RESET == gpio_input_bit_get(GPIOB, GPIO_PIN_9));
 1124              		.loc 1 102 22 is_stmt 0 view .LVU189
ARM GAS  D:\noval\Temp\ccMrHsGD.s 			page 28


 1125 01fa 40F20040 		movw	r0, #1024
 1126 01fe C4F60000 		movt	r0, 18432
 1127 0202 40F20021 		movw	r1, #512
 1128 0206 FFF7FEFF 		bl	gpio_input_bit_get
 1129              	.LVL86:
 102:Core/Src/app.c ****             while (RESET == gpio_input_bit_get(GPIOB, GPIO_PIN_9));
 1130              		.loc 1 102 12 discriminator 1 view .LVU190
 1131 020a 0028     		cmp	r0, #0
 1132 020c A6D1     		bne	.L30
 1133              	.L31:
 103:Core/Src/app.c ****             if (app_state.waveform_update != WAVEFORM_UPDATE_DISABLE) {
 1134              		.loc 1 103 26 is_stmt 1 discriminator 1 view .LVU191
 103:Core/Src/app.c ****             if (app_state.waveform_update != WAVEFORM_UPDATE_DISABLE) {
 1135              		.loc 1 103 29 is_stmt 0 discriminator 1 view .LVU192
 1136 020e 40F20040 		movw	r0, #1024
 1137 0212 C4F60000 		movt	r0, 18432
 1138 0216 40F20021 		movw	r1, #512
 1139 021a FFF7FEFF 		bl	gpio_input_bit_get
 1140              	.LVL87:
 103:Core/Src/app.c ****             if (app_state.waveform_update != WAVEFORM_UPDATE_DISABLE) {
 1141              		.loc 1 103 26 discriminator 1 view .LVU193
 1142 021e 0028     		cmp	r0, #0
 1143 0220 F5D0     		beq	.L31
 104:Core/Src/app.c ****                 app_state.waveform_update = WAVEFORM_UPDATE_DISABLE;
 1144              		.loc 1 104 13 is_stmt 1 view .LVU194
 104:Core/Src/app.c ****                 app_state.waveform_update = WAVEFORM_UPDATE_DISABLE;
 1145              		.loc 1 104 43 is_stmt 0 view .LVU195
 1146 0222 40F20003 		movw	r3, #:lower16:app_state
 1147 0226 C0F20003 		movt	r3, #:upper16:app_state
 1148 022a 1A78     		ldrb	r2, [r3]
 1149 022c 0C23     		movs	r3, #12
 1150 022e 1340     		ands	r3, r2
 104:Core/Src/app.c ****                 app_state.waveform_update = WAVEFORM_UPDATE_DISABLE;
 1151              		.loc 1 104 16 view .LVU196
 1152 0230 082B     		cmp	r3, #8
 1153 0232 0AD0     		beq	.L32
 105:Core/Src/app.c ****             } else {
 1154              		.loc 1 105 17 is_stmt 1 view .LVU197
 105:Core/Src/app.c ****             } else {
 1155              		.loc 1 105 43 is_stmt 0 view .LVU198
 1156 0234 40F20002 		movw	r2, #:lower16:app_state
 1157 0238 C0F20002 		movt	r2, #:upper16:app_state
 1158 023c 1378     		ldrb	r3, [r2]
 1159 023e 0C21     		movs	r1, #12
 1160 0240 8B43     		bics	r3, r1
 1161 0242 0821     		movs	r1, #8
 1162 0244 0B43     		orrs	r3, r1
 1163 0246 1370     		strb	r3, [r2]
 1164 0248 88E7     		b	.L30
 1165              	.L32:
 107:Core/Src/app.c ****             }
 1166              		.loc 1 107 17 is_stmt 1 view .LVU199
 107:Core/Src/app.c ****             }
 1167              		.loc 1 107 43 is_stmt 0 view .LVU200
 1168 024a 40F20003 		movw	r3, #:lower16:app_state
 1169 024e C0F20003 		movt	r3, #:upper16:app_state
 1170 0252 1A78     		ldrb	r2, [r3]
ARM GAS  D:\noval\Temp\ccMrHsGD.s 			page 29


 1171 0254 0C21     		movs	r1, #12
 1172 0256 8A43     		bics	r2, r1
 1173 0258 1A70     		strb	r2, [r3]
 1174 025a 7FE7     		b	.L30
 1175              	.L34:
 113:Core/Src/app.c ****             KEY02_01_INTERRUPT_ENABLE();
 1176              		.loc 1 113 13 is_stmt 1 view .LVU201
 1177 025c FFF7FEFF 		bl	Timer14Config
 1178              	.LVL88:
 114:Core/Src/app.c ****             // app_state.pwm_state = PWM_STATE_NONE;
 1179              		.loc 1 114 13 view .LVU202
 1180 0260 FFF7FEFF 		bl	GPIO13_14InterruptEnable
 1181              	.LVL89:
 1182 0264 88E7     		b	.L35
 1183              	.L33:
 125:Core/Src/app.c ****             exti_interrupt_disable(EXTI_14);
 1184              		.loc 1 125 13 view .LVU203
 1185 0266 42F20000 		movw	r0, #8192
 1186 026a FFF7FEFF 		bl	exti_interrupt_disable
 1187              	.LVL90:
 126:Core/Src/app.c ****             timer_disable(TIMER14);
 1188              		.loc 1 126 13 view .LVU204
 1189 026e 44F20000 		movw	r0, #16384
 1190 0272 FFF7FEFF 		bl	exti_interrupt_disable
 1191              	.LVL91:
 127:Core/Src/app.c ****             rcu_periph_clock_disable(RCU_TIMER14);
 1192              		.loc 1 127 13 view .LVU205
 1193 0276 44F20000 		movw	r0, #16384
 1194 027a C4F20100 		movt	r0, 16385
 1195 027e FFF7FEFF 		bl	timer_disable
 1196              	.LVL92:
 128:Core/Src/app.c ****             gpio_bit_reset(GPIOA, GPIO_PIN_2);
 1197              		.loc 1 128 13 view .LVU206
 1198 0282 40F21060 		movw	r0, #1552
 1199 0286 FFF7FEFF 		bl	rcu_periph_clock_disable
 1200              	.LVL93:
 129:Core/Src/app.c ****             app_state.pwm_state = PWM_STATE_DISABLE;
 1201              		.loc 1 129 13 view .LVU207
 1202 028a 9020     		movs	r0, #144
 1203 028c 0421     		movs	r1, #4
 1204 028e C005     		lsls	r0, r0, #23
 1205 0290 FFF7FEFF 		bl	gpio_bit_reset
 1206              	.LVL94:
 130:Core/Src/app.c ****             app_state.display_update = APP_STATE_ENABLE;
 1207              		.loc 1 130 13 view .LVU208
 130:Core/Src/app.c ****             app_state.display_update = APP_STATE_ENABLE;
 1208              		.loc 1 130 33 is_stmt 0 view .LVU209
 1209 0294 40F20003 		movw	r3, #:lower16:app_state
 1210 0298 C0F20003 		movt	r3, #:upper16:app_state
 1211 029c 1978     		ldrb	r1, [r3]
 1212 029e 0F22     		movs	r2, #15
 1213 02a0 0A40     		ands	r2, r1
 1214 02a2 4021     		movs	r1, #64
 1215 02a4 0A43     		orrs	r2, r1
 1216 02a6 1A70     		strb	r2, [r3]
 131:Core/Src/app.c ****             break;
 1217              		.loc 1 131 13 is_stmt 1 view .LVU210
ARM GAS  D:\noval\Temp\ccMrHsGD.s 			page 30


 131:Core/Src/app.c ****             break;
 1218              		.loc 1 131 38 is_stmt 0 view .LVU211
 1219 02a8 D2B2     		uxtb	r2, r2
 1220 02aa 0121     		movs	r1, #1
 1221 02ac 0A43     		orrs	r2, r1
 1222 02ae 1A70     		strb	r2, [r3]
 132:Core/Src/app.c ****         default:
 1223              		.loc 1 132 13 is_stmt 1 view .LVU212
 1224 02b0 84E7     		b	.L36
 1225              	.L43:
 137:Core/Src/app.c ****         app_state.update_samp_val = APP_STATE_DISABLE;
 1226              		.loc 1 137 9 view .LVU213
 1227 02b2 40F20003 		movw	r3, #:lower16:app_data
 1228 02b6 C0F20003 		movt	r3, #:upper16:app_data
 1229 02ba 9A68     		ldr	r2, [r3, #8]
 1230 02bc 0321     		movs	r1, #3
 1231 02be 0020     		movs	r0, #0
 1232 02c0 FFF7FEFF 		bl	adc_regular_channel_config
 1233              	.LVL95:
 138:Core/Src/app.c ****         app_state.display_update = APP_STATE_ENABLE;
 1234              		.loc 1 138 9 view .LVU214
 138:Core/Src/app.c ****         app_state.display_update = APP_STATE_ENABLE;
 1235              		.loc 1 138 35 is_stmt 0 view .LVU215
 1236 02c4 40F20003 		movw	r3, #:lower16:app_state
 1237 02c8 C0F20003 		movt	r3, #:upper16:app_state
 1238 02cc 1A78     		ldrb	r2, [r3]
 1239 02ce 0221     		movs	r1, #2
 1240 02d0 8A43     		bics	r2, r1
 1241 02d2 1A70     		strb	r2, [r3]
 139:Core/Src/app.c ****     }
 1242              		.loc 1 139 9 is_stmt 1 view .LVU216
 139:Core/Src/app.c ****     }
 1243              		.loc 1 139 34 is_stmt 0 view .LVU217
 1244 02d4 D2B2     		uxtb	r2, r2
 1245 02d6 0121     		movs	r1, #1
 1246 02d8 0A43     		orrs	r2, r1
 1247 02da 1A70     		strb	r2, [r3]
 1248 02dc 76E7     		b	.L37
 1249              	.L44:
 142:Core/Src/app.c ****         WaveformDisplay();
 1250              		.loc 1 142 9 is_stmt 1 view .LVU218
 142:Core/Src/app.c ****         WaveformDisplay();
 1251              		.loc 1 142 35 is_stmt 0 view .LVU219
 1252 02de 40F20003 		movw	r3, #:lower16:app_state
 1253 02e2 C0F20003 		movt	r3, #:upper16:app_state
 1254 02e6 0C21     		movs	r1, #12
 1255 02e8 8A43     		bics	r2, r1
 1256 02ea 1A70     		strb	r2, [r3]
 143:Core/Src/app.c ****     }
 1257              		.loc 1 143 9 is_stmt 1 view .LVU220
 1258 02ec FFF7FEFF 		bl	WaveformDisplay
 1259              	.LVL96:
 1260 02f0 76E7     		b	.L38
 1261              	.L45:
 146:Core/Src/app.c ****         AppStateDisplay();
 1262              		.loc 1 146 9 view .LVU221
 146:Core/Src/app.c ****         AppStateDisplay();
ARM GAS  D:\noval\Temp\ccMrHsGD.s 			page 31


 1263              		.loc 1 146 34 is_stmt 0 view .LVU222
 1264 02f2 40F20003 		movw	r3, #:lower16:app_state
 1265 02f6 C0F20003 		movt	r3, #:upper16:app_state
 1266 02fa 1A78     		ldrb	r2, [r3]
 1267 02fc 0121     		movs	r1, #1
 1268 02fe 8A43     		bics	r2, r1
 1269 0300 1A70     		strb	r2, [r3]
 147:Core/Src/app.c ****     }
 1270              		.loc 1 147 9 is_stmt 1 view .LVU223
 1271 0302 FFF7FEFF 		bl	AppStateDisplay
 1272              	.LVL97:
 149:Core/Src/app.c **** 
 1273              		.loc 1 149 1 is_stmt 0 view .LVU224
 1274 0306 73E7     		b	.L29
 1275              		.cfi_endproc
 1276              	.LFE64:
 1278              		.section	.rodata.__FUNCTION__.0,"a"
 1279              		.align	2
 1282              	__FUNCTION__.0:
 1283 0000 57617665 		.ascii	"WaveformDisplay\000"
 1283      666F726D 
 1283      44697370 
 1283      6C617900 
 1284              		.section	.rodata.__FUNCTION__.1,"a"
 1285              		.align	2
 1288              	__FUNCTION__.1:
 1289 0000 41707053 		.ascii	"AppStateDisplay\000"
 1289      74617465 
 1289      44697370 
 1289      6C617900 
 1290              		.section	.rodata.__FUNCTION__.2,"a"
 1291              		.align	2
 1294              	__FUNCTION__.2:
 1295 0000 41707053 		.ascii	"AppStart\000"
 1295      74617274 
 1295      00
 1296              		.section	.rodata.__FUNCTION__.3,"a"
 1297              		.align	2
 1300              	__FUNCTION__.3:
 1301 0000 41707049 		.ascii	"AppInit\000"
 1301      6E697400 
 1302              		.global	app_state
 1303              		.section	.bss.app_state,"aw",%nobits
 1304              		.align	2
 1307              	app_state:
 1308 0000 00       		.space	1
 1309              		.global	app_data
 1310              		.section	.bss.app_data,"aw",%nobits
 1311              		.align	2
 1314              	app_data:
 1315 0000 00000000 		.space	616
 1315      00000000 
 1315      00000000 
 1315      00000000 
 1315      00000000 
 1316              		.global	UI_MSG
 1317              		.section	.rodata.UI_MSG,"a"
ARM GAS  D:\noval\Temp\ccMrHsGD.s 			page 32


 1318              		.align	2
 1321              	UI_MSG:
 1322 0000 4F736369 		.ascii	"Oscilloscope\000"
 1322      6C6C6F73 
 1322      636F7065 
 1322      00
 1323 000d 00000000 		.space	19
 1323      00000000 
 1323      00000000 
 1323      00000000 
 1323      000000
 1324 0020 5670703A 		.ascii	"Vpp: 0.00V  F: 0.00kHz\000"
 1324      20302E30 
 1324      30562020 
 1324      463A2030 
 1324      2E30306B 
 1325 0037 00000000 		.space	9
 1325      00000000 
 1325      00
 1326 0040 50574D3A 		.ascii	"PWM:OFF   0.00Hz    0%\000"
 1326      4F464620 
 1326      2020302E 
 1326      3030487A 
 1326      20202020 
 1327 0057 00000000 		.space	9
 1327      00000000 
 1327      00
 1328              		.text
 1329              	.Letext0:
 1330              		.file 2 "D:/AppData/arm-gnu-toolchain-13.3.rel1-mingw-w64-i686-arm-none-eabi/arm-none-eabi/include
 1331              		.file 3 "D:/AppData/arm-gnu-toolchain-13.3.rel1-mingw-w64-i686-arm-none-eabi/arm-none-eabi/include
 1332              		.file 4 "Core/Inc/app.h"
 1333              		.file 5 "Core/Inc/log.h"
 1334              		.file 6 "Drivers/CMSIS/GD/GD32E23x/Include/gd32e23x.h"
 1335              		.file 7 "Drivers/GD32E23x/Include/gd32e23x_dma.h"
 1336              		.file 8 "Drivers/GD32E23x/Include/gd32e23x_exti.h"
 1337              		.file 9 "Drivers/GD32E23x/Include/gd32e23x_rcu.h"
 1338              		.file 10 "Drivers/UserDrivers/lcd.h"
 1339              		.file 11 "Drivers/GD32E23x/Include/gd32e23x_adc.h"
 1340              		.file 12 "Drivers/GD32E23x/Include/gd32e23x_gpio.h"
 1341              		.file 13 "Drivers/GD32E23x/Include/gd32e23x_timer.h"
 1342              		.file 14 "Core/Inc/peripheral.h"
 1343              		.file 15 "Core/Inc/systick.h"
 1344              		.file 16 "Drivers/GD32E23x/Include/gd32e23x_dbg.h"
 1345              		.file 17 "<built-in>"
ARM GAS  D:\noval\Temp\ccMrHsGD.s 			page 33

