Archive member included to satisfy reference by file (symbol)

D:/AppData/arm-gnu-toolchain-13.3.rel1-mingw-w64-i686-arm-none-eabi/bin/../lib/gcc/arm-none-eabi/13.3.1/thumb/v8-m.base/nofp\libc_nano.a(libc_a-exit.o)
                              D:/AppData/arm-gnu-toolchain-13.3.rel1-mingw-w64-i686-arm-none-eabi/bin/../lib/gcc/arm-none-eabi/13.3.1/thumb/v8-m.base/nofp/crt0.o (exit)
D:/AppData/arm-gnu-toolchain-13.3.rel1-mingw-w64-i686-arm-none-eabi/bin/../lib/gcc/arm-none-eabi/13.3.1/thumb/v8-m.base/nofp\libc_nano.a(libc_a-nano-vfprintf_float.o)
                              (_printf_float)
D:/AppData/arm-gnu-toolchain-13.3.rel1-mingw-w64-i686-arm-none-eabi/bin/../lib/gcc/arm-none-eabi/13.3.1/thumb/v8-m.base/nofp\libc_nano.a(libc_a-nano-vfprintf_i.o)
                              D:/AppData/arm-gnu-toolchain-13.3.rel1-mingw-w64-i686-arm-none-eabi/bin/../lib/gcc/arm-none-eabi/13.3.1/thumb/v8-m.base/nofp\libc_nano.a(libc_a-nano-vfprintf_float.o) (_printf_common)
D:/AppData/arm-gnu-toolchain-13.3.rel1-mingw-w64-i686-arm-none-eabi/bin/../lib/gcc/arm-none-eabi/13.3.1/thumb/v8-m.base/nofp\libc_nano.a(libc_a-nano-vfscanf_float.o)
                              (_scanf_float)
D:/AppData/arm-gnu-toolchain-13.3.rel1-mingw-w64-i686-arm-none-eabi/bin/../lib/gcc/arm-none-eabi/13.3.1/thumb/v8-m.base/nofp\libc_nano.a(libc_a-findfp.o)
                              D:/AppData/arm-gnu-toolchain-13.3.rel1-mingw-w64-i686-arm-none-eabi/bin/../lib/gcc/arm-none-eabi/13.3.1/thumb/v8-m.base/nofp\libc_nano.a(libc_a-exit.o) (__stdio_exit_handler)
D:/AppData/arm-gnu-toolchain-13.3.rel1-mingw-w64-i686-arm-none-eabi/bin/../lib/gcc/arm-none-eabi/13.3.1/thumb/v8-m.base/nofp\libc_nano.a(libc_a-fwalk.o)
                              D:/AppData/arm-gnu-toolchain-13.3.rel1-mingw-w64-i686-arm-none-eabi/bin/../lib/gcc/arm-none-eabi/13.3.1/thumb/v8-m.base/nofp\libc_nano.a(libc_a-findfp.o) (_fwalk_sglue)
D:/AppData/arm-gnu-toolchain-13.3.rel1-mingw-w64-i686-arm-none-eabi/bin/../lib/gcc/arm-none-eabi/13.3.1/thumb/v8-m.base/nofp\libc_nano.a(libc_a-sprintf.o)
                              D:/AppData/arm-gnu-toolchain-13.3.rel1-mingw-w64-i686-arm-none-eabi/bin/../lib/gcc/arm-none-eabi/13.3.1/thumb/v8-m.base/nofp\libc_nano.a(libc_a-nano-vfscanf_float.o) (sprintf)
D:/AppData/arm-gnu-toolchain-13.3.rel1-mingw-w64-i686-arm-none-eabi/bin/../lib/gcc/arm-none-eabi/13.3.1/thumb/v8-m.base/nofp\libc_nano.a(libc_a-stdio.o)
                              D:/AppData/arm-gnu-toolchain-13.3.rel1-mingw-w64-i686-arm-none-eabi/bin/../lib/gcc/arm-none-eabi/13.3.1/thumb/v8-m.base/nofp\libc_nano.a(libc_a-findfp.o) (__sread)
D:/AppData/arm-gnu-toolchain-13.3.rel1-mingw-w64-i686-arm-none-eabi/bin/../lib/gcc/arm-none-eabi/13.3.1/thumb/v8-m.base/nofp\libc_nano.a(libc_a-memset.o)
                              D:/AppData/arm-gnu-toolchain-13.3.rel1-mingw-w64-i686-arm-none-eabi/bin/../lib/gcc/arm-none-eabi/13.3.1/thumb/v8-m.base/nofp/crt0.o (memset)
D:/AppData/arm-gnu-toolchain-13.3.rel1-mingw-w64-i686-arm-none-eabi/bin/../lib/gcc/arm-none-eabi/13.3.1/thumb/v8-m.base/nofp\libc_nano.a(libc_a-localeconv.o)
                              D:/AppData/arm-gnu-toolchain-13.3.rel1-mingw-w64-i686-arm-none-eabi/bin/../lib/gcc/arm-none-eabi/13.3.1/thumb/v8-m.base/nofp\libc_nano.a(libc_a-nano-vfprintf_float.o) (_localeconv_r)
D:/AppData/arm-gnu-toolchain-13.3.rel1-mingw-w64-i686-arm-none-eabi/bin/../lib/gcc/arm-none-eabi/13.3.1/thumb/v8-m.base/nofp\libc_nano.a(libc_a-closer.o)
                              D:/AppData/arm-gnu-toolchain-13.3.rel1-mingw-w64-i686-arm-none-eabi/bin/../lib/gcc/arm-none-eabi/13.3.1/thumb/v8-m.base/nofp\libc_nano.a(libc_a-stdio.o) (_close_r)
D:/AppData/arm-gnu-toolchain-13.3.rel1-mingw-w64-i686-arm-none-eabi/bin/../lib/gcc/arm-none-eabi/13.3.1/thumb/v8-m.base/nofp\libc_nano.a(libc_a-reent.o)
                              build/syscalls.o (errno)
D:/AppData/arm-gnu-toolchain-13.3.rel1-mingw-w64-i686-arm-none-eabi/bin/../lib/gcc/arm-none-eabi/13.3.1/thumb/v8-m.base/nofp\libc_nano.a(libc_a-impure.o)
                              D:/AppData/arm-gnu-toolchain-13.3.rel1-mingw-w64-i686-arm-none-eabi/bin/../lib/gcc/arm-none-eabi/13.3.1/thumb/v8-m.base/nofp\libc_nano.a(libc_a-sprintf.o) (_impure_ptr)
D:/AppData/arm-gnu-toolchain-13.3.rel1-mingw-w64-i686-arm-none-eabi/bin/../lib/gcc/arm-none-eabi/13.3.1/thumb/v8-m.base/nofp\libc_nano.a(libc_a-lseekr.o)
                              D:/AppData/arm-gnu-toolchain-13.3.rel1-mingw-w64-i686-arm-none-eabi/bin/../lib/gcc/arm-none-eabi/13.3.1/thumb/v8-m.base/nofp\libc_nano.a(libc_a-stdio.o) (_lseek_r)
D:/AppData/arm-gnu-toolchain-13.3.rel1-mingw-w64-i686-arm-none-eabi/bin/../lib/gcc/arm-none-eabi/13.3.1/thumb/v8-m.base/nofp\libc_nano.a(libc_a-readr.o)
                              D:/AppData/arm-gnu-toolchain-13.3.rel1-mingw-w64-i686-arm-none-eabi/bin/../lib/gcc/arm-none-eabi/13.3.1/thumb/v8-m.base/nofp\libc_nano.a(libc_a-stdio.o) (_read_r)
D:/AppData/arm-gnu-toolchain-13.3.rel1-mingw-w64-i686-arm-none-eabi/bin/../lib/gcc/arm-none-eabi/13.3.1/thumb/v8-m.base/nofp\libc_nano.a(libc_a-writer.o)
                              D:/AppData/arm-gnu-toolchain-13.3.rel1-mingw-w64-i686-arm-none-eabi/bin/../lib/gcc/arm-none-eabi/13.3.1/thumb/v8-m.base/nofp\libc_nano.a(libc_a-stdio.o) (_write_r)
D:/AppData/arm-gnu-toolchain-13.3.rel1-mingw-w64-i686-arm-none-eabi/bin/../lib/gcc/arm-none-eabi/13.3.1/thumb/v8-m.base/nofp\libc_nano.a(libc_a-init.o)
                              D:/AppData/arm-gnu-toolchain-13.3.rel1-mingw-w64-i686-arm-none-eabi/bin/../lib/gcc/arm-none-eabi/13.3.1/thumb/v8-m.base/nofp/crt0.o (__libc_init_array)
D:/AppData/arm-gnu-toolchain-13.3.rel1-mingw-w64-i686-arm-none-eabi/bin/../lib/gcc/arm-none-eabi/13.3.1/thumb/v8-m.base/nofp\libc_nano.a(libc_a-lock.o)
                              D:/AppData/arm-gnu-toolchain-13.3.rel1-mingw-w64-i686-arm-none-eabi/bin/../lib/gcc/arm-none-eabi/13.3.1/thumb/v8-m.base/nofp\libc_nano.a(libc_a-findfp.o) (__retarget_lock_init_recursive)
D:/AppData/arm-gnu-toolchain-13.3.rel1-mingw-w64-i686-arm-none-eabi/bin/../lib/gcc/arm-none-eabi/13.3.1/thumb/v8-m.base/nofp\libc_nano.a(libc_a-memchr-stub.o)
                              D:/AppData/arm-gnu-toolchain-13.3.rel1-mingw-w64-i686-arm-none-eabi/bin/../lib/gcc/arm-none-eabi/13.3.1/thumb/v8-m.base/nofp\libc_nano.a(libc_a-nano-vfprintf_i.o) (memchr)
D:/AppData/arm-gnu-toolchain-13.3.rel1-mingw-w64-i686-arm-none-eabi/bin/../lib/gcc/arm-none-eabi/13.3.1/thumb/v8-m.base/nofp\libc_nano.a(libc_a-strlen.o)
                              D:/AppData/arm-gnu-toolchain-13.3.rel1-mingw-w64-i686-arm-none-eabi/bin/../lib/gcc/arm-none-eabi/13.3.1/thumb/v8-m.base/nofp\libc_nano.a(libc_a-nano-vfprintf_float.o) (strlen)
D:/AppData/arm-gnu-toolchain-13.3.rel1-mingw-w64-i686-arm-none-eabi/bin/../lib/gcc/arm-none-eabi/13.3.1/thumb/v8-m.base/nofp\libc_nano.a(libm_a-sf_nan.o)
                              D:/AppData/arm-gnu-toolchain-13.3.rel1-mingw-w64-i686-arm-none-eabi/bin/../lib/gcc/arm-none-eabi/13.3.1/thumb/v8-m.base/nofp\libc_nano.a(libc_a-nano-vfscanf_float.o) (nanf)
D:/AppData/arm-gnu-toolchain-13.3.rel1-mingw-w64-i686-arm-none-eabi/bin/../lib/gcc/arm-none-eabi/13.3.1/thumb/v8-m.base/nofp\libc_nano.a(libc_a-dtoa.o)
                              D:/AppData/arm-gnu-toolchain-13.3.rel1-mingw-w64-i686-arm-none-eabi/bin/../lib/gcc/arm-none-eabi/13.3.1/thumb/v8-m.base/nofp\libc_nano.a(libc_a-nano-vfprintf_float.o) (_dtoa_r)
D:/AppData/arm-gnu-toolchain-13.3.rel1-mingw-w64-i686-arm-none-eabi/bin/../lib/gcc/arm-none-eabi/13.3.1/thumb/v8-m.base/nofp\libc_nano.a(libc_a-freer.o)
                              D:/AppData/arm-gnu-toolchain-13.3.rel1-mingw-w64-i686-arm-none-eabi/bin/../lib/gcc/arm-none-eabi/13.3.1/thumb/v8-m.base/nofp\libc_nano.a(libc_a-reent.o) (_free_r)
D:/AppData/arm-gnu-toolchain-13.3.rel1-mingw-w64-i686-arm-none-eabi/bin/../lib/gcc/arm-none-eabi/13.3.1/thumb/v8-m.base/nofp\libc_nano.a(libc_a-malloc.o)
                              D:/AppData/arm-gnu-toolchain-13.3.rel1-mingw-w64-i686-arm-none-eabi/bin/../lib/gcc/arm-none-eabi/13.3.1/thumb/v8-m.base/nofp\libc_nano.a(libc_a-dtoa.o) (malloc)
D:/AppData/arm-gnu-toolchain-13.3.rel1-mingw-w64-i686-arm-none-eabi/bin/../lib/gcc/arm-none-eabi/13.3.1/thumb/v8-m.base/nofp\libc_nano.a(libc_a-mallocr.o)
                              D:/AppData/arm-gnu-toolchain-13.3.rel1-mingw-w64-i686-arm-none-eabi/bin/../lib/gcc/arm-none-eabi/13.3.1/thumb/v8-m.base/nofp\libc_nano.a(libc_a-findfp.o) (_malloc_r)
D:/AppData/arm-gnu-toolchain-13.3.rel1-mingw-w64-i686-arm-none-eabi/bin/../lib/gcc/arm-none-eabi/13.3.1/thumb/v8-m.base/nofp\libc_nano.a(libc_a-mlock.o)
                              D:/AppData/arm-gnu-toolchain-13.3.rel1-mingw-w64-i686-arm-none-eabi/bin/../lib/gcc/arm-none-eabi/13.3.1/thumb/v8-m.base/nofp\libc_nano.a(libc_a-freer.o) (__malloc_lock)
D:/AppData/arm-gnu-toolchain-13.3.rel1-mingw-w64-i686-arm-none-eabi/bin/../lib/gcc/arm-none-eabi/13.3.1/thumb/v8-m.base/nofp\libc_nano.a(libc_a-mprec.o)
                              D:/AppData/arm-gnu-toolchain-13.3.rel1-mingw-w64-i686-arm-none-eabi/bin/../lib/gcc/arm-none-eabi/13.3.1/thumb/v8-m.base/nofp\libc_nano.a(libc_a-dtoa.o) (_Balloc)
D:/AppData/arm-gnu-toolchain-13.3.rel1-mingw-w64-i686-arm-none-eabi/bin/../lib/gcc/arm-none-eabi/13.3.1/thumb/v8-m.base/nofp\libc_nano.a(libc_a-strtod.o)
                              D:/AppData/arm-gnu-toolchain-13.3.rel1-mingw-w64-i686-arm-none-eabi/bin/../lib/gcc/arm-none-eabi/13.3.1/thumb/v8-m.base/nofp\libc_nano.a(libc_a-nano-vfscanf_float.o) (_strtod_r)
D:/AppData/arm-gnu-toolchain-13.3.rel1-mingw-w64-i686-arm-none-eabi/bin/../lib/gcc/arm-none-eabi/13.3.1/thumb/v8-m.base/nofp\libc_nano.a(libc_a-strtol.o)
                              D:/AppData/arm-gnu-toolchain-13.3.rel1-mingw-w64-i686-arm-none-eabi/bin/../lib/gcc/arm-none-eabi/13.3.1/thumb/v8-m.base/nofp\libc_nano.a(libc_a-nano-vfscanf_float.o) (_strtol_r)
D:/AppData/arm-gnu-toolchain-13.3.rel1-mingw-w64-i686-arm-none-eabi/bin/../lib/gcc/arm-none-eabi/13.3.1/thumb/v8-m.base/nofp\libc_nano.a(libc_a-ctype_.o)
                              D:/AppData/arm-gnu-toolchain-13.3.rel1-mingw-w64-i686-arm-none-eabi/bin/../lib/gcc/arm-none-eabi/13.3.1/thumb/v8-m.base/nofp\libc_nano.a(libc_a-strtol.o) (_ctype_)
D:/AppData/arm-gnu-toolchain-13.3.rel1-mingw-w64-i686-arm-none-eabi/bin/../lib/gcc/arm-none-eabi/13.3.1/thumb/v8-m.base/nofp\libc_nano.a(libc_a-nano-svfprintf.o)
                              D:/AppData/arm-gnu-toolchain-13.3.rel1-mingw-w64-i686-arm-none-eabi/bin/../lib/gcc/arm-none-eabi/13.3.1/thumb/v8-m.base/nofp\libc_nano.a(libc_a-sprintf.o) (_svfprintf_r)
D:/AppData/arm-gnu-toolchain-13.3.rel1-mingw-w64-i686-arm-none-eabi/bin/../lib/gcc/arm-none-eabi/13.3.1/thumb/v8-m.base/nofp\libc_nano.a(libc_a-fflush.o)
                              D:/AppData/arm-gnu-toolchain-13.3.rel1-mingw-w64-i686-arm-none-eabi/bin/../lib/gcc/arm-none-eabi/13.3.1/thumb/v8-m.base/nofp\libc_nano.a(libc_a-findfp.o) (_fflush_r)
D:/AppData/arm-gnu-toolchain-13.3.rel1-mingw-w64-i686-arm-none-eabi/bin/../lib/gcc/arm-none-eabi/13.3.1/thumb/v8-m.base/nofp\libc_nano.a(libc_a-memmove.o)
                              D:/AppData/arm-gnu-toolchain-13.3.rel1-mingw-w64-i686-arm-none-eabi/bin/../lib/gcc/arm-none-eabi/13.3.1/thumb/v8-m.base/nofp\libc_nano.a(libc_a-nano-svfprintf.o) (memmove)
D:/AppData/arm-gnu-toolchain-13.3.rel1-mingw-w64-i686-arm-none-eabi/bin/../lib/gcc/arm-none-eabi/13.3.1/thumb/v8-m.base/nofp\libc_nano.a(libc_a-strncmp.o)
                              D:/AppData/arm-gnu-toolchain-13.3.rel1-mingw-w64-i686-arm-none-eabi/bin/../lib/gcc/arm-none-eabi/13.3.1/thumb/v8-m.base/nofp\libc_nano.a(libc_a-strtod.o) (strncmp)
D:/AppData/arm-gnu-toolchain-13.3.rel1-mingw-w64-i686-arm-none-eabi/bin/../lib/gcc/arm-none-eabi/13.3.1/thumb/v8-m.base/nofp\libc_nano.a(libc_a-locale.o)
                              D:/AppData/arm-gnu-toolchain-13.3.rel1-mingw-w64-i686-arm-none-eabi/bin/../lib/gcc/arm-none-eabi/13.3.1/thumb/v8-m.base/nofp\libc_nano.a(libc_a-localeconv.o) (__global_locale)
D:/AppData/arm-gnu-toolchain-13.3.rel1-mingw-w64-i686-arm-none-eabi/bin/../lib/gcc/arm-none-eabi/13.3.1/thumb/v8-m.base/nofp\libc_nano.a(libc_a-sbrkr.o)
                              D:/AppData/arm-gnu-toolchain-13.3.rel1-mingw-w64-i686-arm-none-eabi/bin/../lib/gcc/arm-none-eabi/13.3.1/thumb/v8-m.base/nofp\libc_nano.a(libc_a-mallocr.o) (_sbrk_r)
D:/AppData/arm-gnu-toolchain-13.3.rel1-mingw-w64-i686-arm-none-eabi/bin/../lib/gcc/arm-none-eabi/13.3.1/thumb/v8-m.base/nofp\libc_nano.a(libc_a-errno.o)
                              D:/AppData/arm-gnu-toolchain-13.3.rel1-mingw-w64-i686-arm-none-eabi/bin/../lib/gcc/arm-none-eabi/13.3.1/thumb/v8-m.base/nofp\libc_nano.a(libc_a-strtod.o) (__errno)
D:/AppData/arm-gnu-toolchain-13.3.rel1-mingw-w64-i686-arm-none-eabi/bin/../lib/gcc/arm-none-eabi/13.3.1/thumb/v8-m.base/nofp\libc_nano.a(libc_a-strcmp.o)
                              D:/AppData/arm-gnu-toolchain-13.3.rel1-mingw-w64-i686-arm-none-eabi/bin/../lib/gcc/arm-none-eabi/13.3.1/thumb/v8-m.base/nofp\libc_nano.a(libc_a-locale.o) (strcmp)
D:/AppData/arm-gnu-toolchain-13.3.rel1-mingw-w64-i686-arm-none-eabi/bin/../lib/gcc/arm-none-eabi/13.3.1/thumb/v8-m.base/nofp\libc_nano.a(libc_a-memcpy-stub.o)
                              D:/AppData/arm-gnu-toolchain-13.3.rel1-mingw-w64-i686-arm-none-eabi/bin/../lib/gcc/arm-none-eabi/13.3.1/thumb/v8-m.base/nofp\libc_nano.a(libc_a-dtoa.o) (memcpy)
D:/AppData/arm-gnu-toolchain-13.3.rel1-mingw-w64-i686-arm-none-eabi/bin/../lib/gcc/arm-none-eabi/13.3.1/thumb/v8-m.base/nofp\libc_nano.a(libm_a-s_nan.o)
                              D:/AppData/arm-gnu-toolchain-13.3.rel1-mingw-w64-i686-arm-none-eabi/bin/../lib/gcc/arm-none-eabi/13.3.1/thumb/v8-m.base/nofp\libc_nano.a(libc_a-strtod.o) (nan)
D:/AppData/arm-gnu-toolchain-13.3.rel1-mingw-w64-i686-arm-none-eabi/bin/../lib/gcc/arm-none-eabi/13.3.1/thumb/v8-m.base/nofp\libc_nano.a(libc_a-assert.o)
                              D:/AppData/arm-gnu-toolchain-13.3.rel1-mingw-w64-i686-arm-none-eabi/bin/../lib/gcc/arm-none-eabi/13.3.1/thumb/v8-m.base/nofp\libc_nano.a(libc_a-dtoa.o) (__assert_func)
D:/AppData/arm-gnu-toolchain-13.3.rel1-mingw-w64-i686-arm-none-eabi/bin/../lib/gcc/arm-none-eabi/13.3.1/thumb/v8-m.base/nofp\libc_nano.a(libc_a-callocr.o)
                              D:/AppData/arm-gnu-toolchain-13.3.rel1-mingw-w64-i686-arm-none-eabi/bin/../lib/gcc/arm-none-eabi/13.3.1/thumb/v8-m.base/nofp\libc_nano.a(libc_a-mprec.o) (_calloc_r)
D:/AppData/arm-gnu-toolchain-13.3.rel1-mingw-w64-i686-arm-none-eabi/bin/../lib/gcc/arm-none-eabi/13.3.1/thumb/v8-m.base/nofp\libc_nano.a(libc_a-gdtoa-gethex.o)
                              D:/AppData/arm-gnu-toolchain-13.3.rel1-mingw-w64-i686-arm-none-eabi/bin/../lib/gcc/arm-none-eabi/13.3.1/thumb/v8-m.base/nofp\libc_nano.a(libc_a-strtod.o) (__gethex)
D:/AppData/arm-gnu-toolchain-13.3.rel1-mingw-w64-i686-arm-none-eabi/bin/../lib/gcc/arm-none-eabi/13.3.1/thumb/v8-m.base/nofp\libc_nano.a(libc_a-gdtoa-hexnan.o)
                              D:/AppData/arm-gnu-toolchain-13.3.rel1-mingw-w64-i686-arm-none-eabi/bin/../lib/gcc/arm-none-eabi/13.3.1/thumb/v8-m.base/nofp\libc_nano.a(libc_a-strtod.o) (__match)
D:/AppData/arm-gnu-toolchain-13.3.rel1-mingw-w64-i686-arm-none-eabi/bin/../lib/gcc/arm-none-eabi/13.3.1/thumb/v8-m.base/nofp\libc_nano.a(libc_a-mbtowc_r.o)
                              D:/AppData/arm-gnu-toolchain-13.3.rel1-mingw-w64-i686-arm-none-eabi/bin/../lib/gcc/arm-none-eabi/13.3.1/thumb/v8-m.base/nofp\libc_nano.a(libc_a-locale.o) (__ascii_mbtowc)
D:/AppData/arm-gnu-toolchain-13.3.rel1-mingw-w64-i686-arm-none-eabi/bin/../lib/gcc/arm-none-eabi/13.3.1/thumb/v8-m.base/nofp\libc_nano.a(libc_a-reallocr.o)
                              D:/AppData/arm-gnu-toolchain-13.3.rel1-mingw-w64-i686-arm-none-eabi/bin/../lib/gcc/arm-none-eabi/13.3.1/thumb/v8-m.base/nofp\libc_nano.a(libc_a-nano-svfprintf.o) (_realloc_r)
D:/AppData/arm-gnu-toolchain-13.3.rel1-mingw-w64-i686-arm-none-eabi/bin/../lib/gcc/arm-none-eabi/13.3.1/thumb/v8-m.base/nofp\libc_nano.a(libc_a-wctomb_r.o)
                              D:/AppData/arm-gnu-toolchain-13.3.rel1-mingw-w64-i686-arm-none-eabi/bin/../lib/gcc/arm-none-eabi/13.3.1/thumb/v8-m.base/nofp\libc_nano.a(libc_a-locale.o) (__ascii_wctomb)
D:/AppData/arm-gnu-toolchain-13.3.rel1-mingw-w64-i686-arm-none-eabi/bin/../lib/gcc/arm-none-eabi/13.3.1/thumb/v8-m.base/nofp\libc_nano.a(libc_a-fprintf.o)
                              D:/AppData/arm-gnu-toolchain-13.3.rel1-mingw-w64-i686-arm-none-eabi/bin/../lib/gcc/arm-none-eabi/13.3.1/thumb/v8-m.base/nofp\libc_nano.a(libc_a-assert.o) (fiprintf)
D:/AppData/arm-gnu-toolchain-13.3.rel1-mingw-w64-i686-arm-none-eabi/bin/../lib/gcc/arm-none-eabi/13.3.1/thumb/v8-m.base/nofp\libc_nano.a(libc_a-abort.o)
                              D:/AppData/arm-gnu-toolchain-13.3.rel1-mingw-w64-i686-arm-none-eabi/bin/../lib/gcc/arm-none-eabi/13.3.1/thumb/v8-m.base/nofp\libc_nano.a(libc_a-assert.o) (abort)
D:/AppData/arm-gnu-toolchain-13.3.rel1-mingw-w64-i686-arm-none-eabi/bin/../lib/gcc/arm-none-eabi/13.3.1/thumb/v8-m.base/nofp\libc_nano.a(libc_a-msizer.o)
                              D:/AppData/arm-gnu-toolchain-13.3.rel1-mingw-w64-i686-arm-none-eabi/bin/../lib/gcc/arm-none-eabi/13.3.1/thumb/v8-m.base/nofp\libc_nano.a(libc_a-reallocr.o) (_malloc_usable_size_r)
D:/AppData/arm-gnu-toolchain-13.3.rel1-mingw-w64-i686-arm-none-eabi/bin/../lib/gcc/arm-none-eabi/13.3.1/thumb/v8-m.base/nofp\libc_nano.a(libc_a-nano-vfprintf.o)
                              D:/AppData/arm-gnu-toolchain-13.3.rel1-mingw-w64-i686-arm-none-eabi/bin/../lib/gcc/arm-none-eabi/13.3.1/thumb/v8-m.base/nofp\libc_nano.a(libc_a-fprintf.o) (_vfprintf_r)
D:/AppData/arm-gnu-toolchain-13.3.rel1-mingw-w64-i686-arm-none-eabi/bin/../lib/gcc/arm-none-eabi/13.3.1/thumb/v8-m.base/nofp\libc_nano.a(libc_a-fvwrite.o)
                              D:/AppData/arm-gnu-toolchain-13.3.rel1-mingw-w64-i686-arm-none-eabi/bin/../lib/gcc/arm-none-eabi/13.3.1/thumb/v8-m.base/nofp\libc_nano.a(libc_a-nano-vfprintf.o) (__sfvwrite_r)
D:/AppData/arm-gnu-toolchain-13.3.rel1-mingw-w64-i686-arm-none-eabi/bin/../lib/gcc/arm-none-eabi/13.3.1/thumb/v8-m.base/nofp\libc_nano.a(libc_a-wbuf.o)
                              D:/AppData/arm-gnu-toolchain-13.3.rel1-mingw-w64-i686-arm-none-eabi/bin/../lib/gcc/arm-none-eabi/13.3.1/thumb/v8-m.base/nofp\libc_nano.a(libc_a-nano-vfprintf.o) (__swbuf_r)
D:/AppData/arm-gnu-toolchain-13.3.rel1-mingw-w64-i686-arm-none-eabi/bin/../lib/gcc/arm-none-eabi/13.3.1/thumb/v8-m.base/nofp\libc_nano.a(libc_a-wsetup.o)
                              D:/AppData/arm-gnu-toolchain-13.3.rel1-mingw-w64-i686-arm-none-eabi/bin/../lib/gcc/arm-none-eabi/13.3.1/thumb/v8-m.base/nofp\libc_nano.a(libc_a-nano-vfprintf.o) (__swsetup_r)
D:/AppData/arm-gnu-toolchain-13.3.rel1-mingw-w64-i686-arm-none-eabi/bin/../lib/gcc/arm-none-eabi/13.3.1/thumb/v8-m.base/nofp\libc_nano.a(libc_a-signal.o)
                              D:/AppData/arm-gnu-toolchain-13.3.rel1-mingw-w64-i686-arm-none-eabi/bin/../lib/gcc/arm-none-eabi/13.3.1/thumb/v8-m.base/nofp\libc_nano.a(libc_a-abort.o) (raise)
D:/AppData/arm-gnu-toolchain-13.3.rel1-mingw-w64-i686-arm-none-eabi/bin/../lib/gcc/arm-none-eabi/13.3.1/thumb/v8-m.base/nofp\libc_nano.a(libc_a-signalr.o)
                              D:/AppData/arm-gnu-toolchain-13.3.rel1-mingw-w64-i686-arm-none-eabi/bin/../lib/gcc/arm-none-eabi/13.3.1/thumb/v8-m.base/nofp\libc_nano.a(libc_a-signal.o) (_kill_r)
D:/AppData/arm-gnu-toolchain-13.3.rel1-mingw-w64-i686-arm-none-eabi/bin/../lib/gcc/arm-none-eabi/13.3.1/thumb/v8-m.base/nofp\libc_nano.a(libc_a-makebuf.o)
                              D:/AppData/arm-gnu-toolchain-13.3.rel1-mingw-w64-i686-arm-none-eabi/bin/../lib/gcc/arm-none-eabi/13.3.1/thumb/v8-m.base/nofp\libc_nano.a(libc_a-wsetup.o) (__smakebuf_r)
D:/AppData/arm-gnu-toolchain-13.3.rel1-mingw-w64-i686-arm-none-eabi/bin/../lib/gcc/arm-none-eabi/13.3.1/thumb/v8-m.base/nofp\libc_nano.a(libc_a-fstatr.o)
                              D:/AppData/arm-gnu-toolchain-13.3.rel1-mingw-w64-i686-arm-none-eabi/bin/../lib/gcc/arm-none-eabi/13.3.1/thumb/v8-m.base/nofp\libc_nano.a(libc_a-makebuf.o) (_fstat_r)
D:/AppData/arm-gnu-toolchain-13.3.rel1-mingw-w64-i686-arm-none-eabi/bin/../lib/gcc/arm-none-eabi/13.3.1/thumb/v8-m.base/nofp\libc_nano.a(libc_a-isattyr.o)
                              D:/AppData/arm-gnu-toolchain-13.3.rel1-mingw-w64-i686-arm-none-eabi/bin/../lib/gcc/arm-none-eabi/13.3.1/thumb/v8-m.base/nofp\libc_nano.a(libc_a-makebuf.o) (_isatty_r)
D:/AppData/arm-gnu-toolchain-13.3.rel1-mingw-w64-i686-arm-none-eabi/bin/../lib/gcc/arm-none-eabi/13.3.1/thumb/v8-m.base/nofp\libgcc.a(_thumb1_case_uqi.o)
                              D:/AppData/arm-gnu-toolchain-13.3.rel1-mingw-w64-i686-arm-none-eabi/bin/../lib/gcc/arm-none-eabi/13.3.1/thumb/v8-m.base/nofp\libc_nano.a(libc_a-dtoa.o) (__gnu_thumb1_case_uqi)
D:/AppData/arm-gnu-toolchain-13.3.rel1-mingw-w64-i686-arm-none-eabi/bin/../lib/gcc/arm-none-eabi/13.3.1/thumb/v8-m.base/nofp\libgcc.a(_thumb1_case_shi.o)
                              D:/AppData/arm-gnu-toolchain-13.3.rel1-mingw-w64-i686-arm-none-eabi/bin/../lib/gcc/arm-none-eabi/13.3.1/thumb/v8-m.base/nofp\libc_nano.a(libc_a-nano-vfprintf_i.o) (__gnu_thumb1_case_shi)
D:/AppData/arm-gnu-toolchain-13.3.rel1-mingw-w64-i686-arm-none-eabi/bin/../lib/gcc/arm-none-eabi/13.3.1/thumb/v8-m.base/nofp\libgcc.a(_arm_cmpdf2.o)
                              D:/AppData/arm-gnu-toolchain-13.3.rel1-mingw-w64-i686-arm-none-eabi/bin/../lib/gcc/arm-none-eabi/13.3.1/thumb/v8-m.base/nofp\libc_nano.a(libc_a-nano-vfprintf_float.o) (__aeabi_dcmpeq)
D:/AppData/arm-gnu-toolchain-13.3.rel1-mingw-w64-i686-arm-none-eabi/bin/../lib/gcc/arm-none-eabi/13.3.1/thumb/v8-m.base/nofp\libgcc.a(_arm_cmpsf2.o)
                              D:/AppData/arm-gnu-toolchain-13.3.rel1-mingw-w64-i686-arm-none-eabi/bin/../lib/gcc/arm-none-eabi/13.3.1/thumb/v8-m.base/nofp\libc_nano.a(libc_a-strtod.o) (__aeabi_fcmple)
D:/AppData/arm-gnu-toolchain-13.3.rel1-mingw-w64-i686-arm-none-eabi/bin/../lib/gcc/arm-none-eabi/13.3.1/thumb/v8-m.base/nofp\libgcc.a(_fixunssfsi.o)
                              build/lcd.o (__aeabi_f2uiz)
D:/AppData/arm-gnu-toolchain-13.3.rel1-mingw-w64-i686-arm-none-eabi/bin/../lib/gcc/arm-none-eabi/13.3.1/thumb/v8-m.base/nofp\libgcc.a(_fixunsdfsi.o)
                              D:/AppData/arm-gnu-toolchain-13.3.rel1-mingw-w64-i686-arm-none-eabi/bin/../lib/gcc/arm-none-eabi/13.3.1/thumb/v8-m.base/nofp\libc_nano.a(libc_a-strtod.o) (__aeabi_d2uiz)
D:/AppData/arm-gnu-toolchain-13.3.rel1-mingw-w64-i686-arm-none-eabi/bin/../lib/gcc/arm-none-eabi/13.3.1/thumb/v8-m.base/nofp\libgcc.a(_fixdfdi.o)
                              D:/AppData/arm-gnu-toolchain-13.3.rel1-mingw-w64-i686-arm-none-eabi/bin/../lib/gcc/arm-none-eabi/13.3.1/thumb/v8-m.base/nofp\libc_nano.a(libc_a-strtod.o) (__aeabi_d2lz)
D:/AppData/arm-gnu-toolchain-13.3.rel1-mingw-w64-i686-arm-none-eabi/bin/../lib/gcc/arm-none-eabi/13.3.1/thumb/v8-m.base/nofp\libgcc.a(_fixunsdfdi.o)
                              D:/AppData/arm-gnu-toolchain-13.3.rel1-mingw-w64-i686-arm-none-eabi/bin/../lib/gcc/arm-none-eabi/13.3.1/thumb/v8-m.base/nofp\libgcc.a(_fixdfdi.o) (__aeabi_d2ulz)
D:/AppData/arm-gnu-toolchain-13.3.rel1-mingw-w64-i686-arm-none-eabi/bin/../lib/gcc/arm-none-eabi/13.3.1/thumb/v8-m.base/nofp\libgcc.a(_floatdidf.o)
                              D:/AppData/arm-gnu-toolchain-13.3.rel1-mingw-w64-i686-arm-none-eabi/bin/../lib/gcc/arm-none-eabi/13.3.1/thumb/v8-m.base/nofp\libc_nano.a(libc_a-strtod.o) (__aeabi_l2d)
D:/AppData/arm-gnu-toolchain-13.3.rel1-mingw-w64-i686-arm-none-eabi/bin/../lib/gcc/arm-none-eabi/13.3.1/thumb/v8-m.base/nofp\libgcc.a(divsf3.o)
                              build/app.o (__aeabi_fdiv)
D:/AppData/arm-gnu-toolchain-13.3.rel1-mingw-w64-i686-arm-none-eabi/bin/../lib/gcc/arm-none-eabi/13.3.1/thumb/v8-m.base/nofp\libgcc.a(eqsf2.o)
                              D:/AppData/arm-gnu-toolchain-13.3.rel1-mingw-w64-i686-arm-none-eabi/bin/../lib/gcc/arm-none-eabi/13.3.1/thumb/v8-m.base/nofp\libgcc.a(_arm_cmpsf2.o) (__eqsf2)
D:/AppData/arm-gnu-toolchain-13.3.rel1-mingw-w64-i686-arm-none-eabi/bin/../lib/gcc/arm-none-eabi/13.3.1/thumb/v8-m.base/nofp\libgcc.a(gesf2.o)
                              D:/AppData/arm-gnu-toolchain-13.3.rel1-mingw-w64-i686-arm-none-eabi/bin/../lib/gcc/arm-none-eabi/13.3.1/thumb/v8-m.base/nofp\libgcc.a(_arm_cmpsf2.o) (__gesf2)
D:/AppData/arm-gnu-toolchain-13.3.rel1-mingw-w64-i686-arm-none-eabi/bin/../lib/gcc/arm-none-eabi/13.3.1/thumb/v8-m.base/nofp\libgcc.a(lesf2.o)
                              D:/AppData/arm-gnu-toolchain-13.3.rel1-mingw-w64-i686-arm-none-eabi/bin/../lib/gcc/arm-none-eabi/13.3.1/thumb/v8-m.base/nofp\libgcc.a(_arm_cmpsf2.o) (__lesf2)
D:/AppData/arm-gnu-toolchain-13.3.rel1-mingw-w64-i686-arm-none-eabi/bin/../lib/gcc/arm-none-eabi/13.3.1/thumb/v8-m.base/nofp\libgcc.a(mulsf3.o)
                              build/app.o (__aeabi_fmul)
D:/AppData/arm-gnu-toolchain-13.3.rel1-mingw-w64-i686-arm-none-eabi/bin/../lib/gcc/arm-none-eabi/13.3.1/thumb/v8-m.base/nofp\libgcc.a(subsf3.o)
                              D:/AppData/arm-gnu-toolchain-13.3.rel1-mingw-w64-i686-arm-none-eabi/bin/../lib/gcc/arm-none-eabi/13.3.1/thumb/v8-m.base/nofp\libgcc.a(_fixunssfsi.o) (__aeabi_fsub)
D:/AppData/arm-gnu-toolchain-13.3.rel1-mingw-w64-i686-arm-none-eabi/bin/../lib/gcc/arm-none-eabi/13.3.1/thumb/v8-m.base/nofp\libgcc.a(unordsf2.o)
                              D:/AppData/arm-gnu-toolchain-13.3.rel1-mingw-w64-i686-arm-none-eabi/bin/../lib/gcc/arm-none-eabi/13.3.1/thumb/v8-m.base/nofp\libc_nano.a(libc_a-strtod.o) (__aeabi_fcmpun)
D:/AppData/arm-gnu-toolchain-13.3.rel1-mingw-w64-i686-arm-none-eabi/bin/../lib/gcc/arm-none-eabi/13.3.1/thumb/v8-m.base/nofp\libgcc.a(fixsfsi.o)
                              build/app.o (__aeabi_f2iz)
D:/AppData/arm-gnu-toolchain-13.3.rel1-mingw-w64-i686-arm-none-eabi/bin/../lib/gcc/arm-none-eabi/13.3.1/thumb/v8-m.base/nofp\libgcc.a(floatsisf.o)
                              build/app.o (__aeabi_i2f)
D:/AppData/arm-gnu-toolchain-13.3.rel1-mingw-w64-i686-arm-none-eabi/bin/../lib/gcc/arm-none-eabi/13.3.1/thumb/v8-m.base/nofp\libgcc.a(adddf3.o)
                              D:/AppData/arm-gnu-toolchain-13.3.rel1-mingw-w64-i686-arm-none-eabi/bin/../lib/gcc/arm-none-eabi/13.3.1/thumb/v8-m.base/nofp\libc_nano.a(libc_a-dtoa.o) (__aeabi_dadd)
D:/AppData/arm-gnu-toolchain-13.3.rel1-mingw-w64-i686-arm-none-eabi/bin/../lib/gcc/arm-none-eabi/13.3.1/thumb/v8-m.base/nofp\libgcc.a(divdf3.o)
                              D:/AppData/arm-gnu-toolchain-13.3.rel1-mingw-w64-i686-arm-none-eabi/bin/../lib/gcc/arm-none-eabi/13.3.1/thumb/v8-m.base/nofp\libc_nano.a(libc_a-dtoa.o) (__aeabi_ddiv)
D:/AppData/arm-gnu-toolchain-13.3.rel1-mingw-w64-i686-arm-none-eabi/bin/../lib/gcc/arm-none-eabi/13.3.1/thumb/v8-m.base/nofp\libgcc.a(eqdf2.o)
                              D:/AppData/arm-gnu-toolchain-13.3.rel1-mingw-w64-i686-arm-none-eabi/bin/../lib/gcc/arm-none-eabi/13.3.1/thumb/v8-m.base/nofp\libgcc.a(_arm_cmpdf2.o) (__eqdf2)
D:/AppData/arm-gnu-toolchain-13.3.rel1-mingw-w64-i686-arm-none-eabi/bin/../lib/gcc/arm-none-eabi/13.3.1/thumb/v8-m.base/nofp\libgcc.a(gedf2.o)
                              D:/AppData/arm-gnu-toolchain-13.3.rel1-mingw-w64-i686-arm-none-eabi/bin/../lib/gcc/arm-none-eabi/13.3.1/thumb/v8-m.base/nofp\libgcc.a(_arm_cmpdf2.o) (__gedf2)
D:/AppData/arm-gnu-toolchain-13.3.rel1-mingw-w64-i686-arm-none-eabi/bin/../lib/gcc/arm-none-eabi/13.3.1/thumb/v8-m.base/nofp\libgcc.a(ledf2.o)
                              D:/AppData/arm-gnu-toolchain-13.3.rel1-mingw-w64-i686-arm-none-eabi/bin/../lib/gcc/arm-none-eabi/13.3.1/thumb/v8-m.base/nofp\libgcc.a(_arm_cmpdf2.o) (__ledf2)
D:/AppData/arm-gnu-toolchain-13.3.rel1-mingw-w64-i686-arm-none-eabi/bin/../lib/gcc/arm-none-eabi/13.3.1/thumb/v8-m.base/nofp\libgcc.a(muldf3.o)
                              D:/AppData/arm-gnu-toolchain-13.3.rel1-mingw-w64-i686-arm-none-eabi/bin/../lib/gcc/arm-none-eabi/13.3.1/thumb/v8-m.base/nofp\libc_nano.a(libc_a-dtoa.o) (__aeabi_dmul)
D:/AppData/arm-gnu-toolchain-13.3.rel1-mingw-w64-i686-arm-none-eabi/bin/../lib/gcc/arm-none-eabi/13.3.1/thumb/v8-m.base/nofp\libgcc.a(subdf3.o)
                              D:/AppData/arm-gnu-toolchain-13.3.rel1-mingw-w64-i686-arm-none-eabi/bin/../lib/gcc/arm-none-eabi/13.3.1/thumb/v8-m.base/nofp\libc_nano.a(libc_a-dtoa.o) (__aeabi_dsub)
D:/AppData/arm-gnu-toolchain-13.3.rel1-mingw-w64-i686-arm-none-eabi/bin/../lib/gcc/arm-none-eabi/13.3.1/thumb/v8-m.base/nofp\libgcc.a(unorddf2.o)
                              D:/AppData/arm-gnu-toolchain-13.3.rel1-mingw-w64-i686-arm-none-eabi/bin/../lib/gcc/arm-none-eabi/13.3.1/thumb/v8-m.base/nofp\libc_nano.a(libc_a-nano-vfprintf_float.o) (__aeabi_dcmpun)
D:/AppData/arm-gnu-toolchain-13.3.rel1-mingw-w64-i686-arm-none-eabi/bin/../lib/gcc/arm-none-eabi/13.3.1/thumb/v8-m.base/nofp\libgcc.a(fixdfsi.o)
                              D:/AppData/arm-gnu-toolchain-13.3.rel1-mingw-w64-i686-arm-none-eabi/bin/../lib/gcc/arm-none-eabi/13.3.1/thumb/v8-m.base/nofp\libc_nano.a(libc_a-dtoa.o) (__aeabi_d2iz)
D:/AppData/arm-gnu-toolchain-13.3.rel1-mingw-w64-i686-arm-none-eabi/bin/../lib/gcc/arm-none-eabi/13.3.1/thumb/v8-m.base/nofp\libgcc.a(floatsidf.o)
                              D:/AppData/arm-gnu-toolchain-13.3.rel1-mingw-w64-i686-arm-none-eabi/bin/../lib/gcc/arm-none-eabi/13.3.1/thumb/v8-m.base/nofp\libc_nano.a(libc_a-dtoa.o) (__aeabi_i2d)
D:/AppData/arm-gnu-toolchain-13.3.rel1-mingw-w64-i686-arm-none-eabi/bin/../lib/gcc/arm-none-eabi/13.3.1/thumb/v8-m.base/nofp\libgcc.a(floatunsidf.o)
                              D:/AppData/arm-gnu-toolchain-13.3.rel1-mingw-w64-i686-arm-none-eabi/bin/../lib/gcc/arm-none-eabi/13.3.1/thumb/v8-m.base/nofp\libc_nano.a(libc_a-dtoa.o) (__aeabi_ui2d)
D:/AppData/arm-gnu-toolchain-13.3.rel1-mingw-w64-i686-arm-none-eabi/bin/../lib/gcc/arm-none-eabi/13.3.1/thumb/v8-m.base/nofp\libgcc.a(truncdfsf2.o)
                              D:/AppData/arm-gnu-toolchain-13.3.rel1-mingw-w64-i686-arm-none-eabi/bin/../lib/gcc/arm-none-eabi/13.3.1/thumb/v8-m.base/nofp\libc_nano.a(libc_a-nano-vfscanf_float.o) (__aeabi_d2f)
D:/AppData/arm-gnu-toolchain-13.3.rel1-mingw-w64-i686-arm-none-eabi/bin/../lib/gcc/arm-none-eabi/13.3.1/thumb/v8-m.base/nofp\libgcc.a(_clzsi2.o)
                              D:/AppData/arm-gnu-toolchain-13.3.rel1-mingw-w64-i686-arm-none-eabi/bin/../lib/gcc/arm-none-eabi/13.3.1/thumb/v8-m.base/nofp\libgcc.a(divsf3.o) (__clzsi2)

Discarded input sections

 .text          0x00000000        0x0 D:/AppData/arm-gnu-toolchain-13.3.rel1-mingw-w64-i686-arm-none-eabi/bin/../lib/gcc/arm-none-eabi/13.3.1/thumb/v8-m.base/nofp/crti.o
 .data          0x00000000        0x0 D:/AppData/arm-gnu-toolchain-13.3.rel1-mingw-w64-i686-arm-none-eabi/bin/../lib/gcc/arm-none-eabi/13.3.1/thumb/v8-m.base/nofp/crti.o
 .bss           0x00000000        0x0 D:/AppData/arm-gnu-toolchain-13.3.rel1-mingw-w64-i686-arm-none-eabi/bin/../lib/gcc/arm-none-eabi/13.3.1/thumb/v8-m.base/nofp/crti.o
 .text          0x00000000        0x0 D:/AppData/arm-gnu-toolchain-13.3.rel1-mingw-w64-i686-arm-none-eabi/bin/../lib/gcc/arm-none-eabi/13.3.1/thumb/v8-m.base/nofp/crtbegin.o
 .data          0x00000000        0x0 D:/AppData/arm-gnu-toolchain-13.3.rel1-mingw-w64-i686-arm-none-eabi/bin/../lib/gcc/arm-none-eabi/13.3.1/thumb/v8-m.base/nofp/crtbegin.o
 .bss           0x00000000        0x0 D:/AppData/arm-gnu-toolchain-13.3.rel1-mingw-w64-i686-arm-none-eabi/bin/../lib/gcc/arm-none-eabi/13.3.1/thumb/v8-m.base/nofp/crtbegin.o
 .rodata.all_implied_fbits
                0x00000000       0x24 D:/AppData/arm-gnu-toolchain-13.3.rel1-mingw-w64-i686-arm-none-eabi/bin/../lib/gcc/arm-none-eabi/13.3.1/thumb/v8-m.base/nofp/crtbegin.o
 .data.__dso_handle
                0x00000000        0x4 D:/AppData/arm-gnu-toolchain-13.3.rel1-mingw-w64-i686-arm-none-eabi/bin/../lib/gcc/arm-none-eabi/13.3.1/thumb/v8-m.base/nofp/crtbegin.o
 .text          0x00000000       0x80 D:/AppData/arm-gnu-toolchain-13.3.rel1-mingw-w64-i686-arm-none-eabi/bin/../lib/gcc/arm-none-eabi/13.3.1/thumb/v8-m.base/nofp/crt0.o
 .data          0x00000000        0x0 D:/AppData/arm-gnu-toolchain-13.3.rel1-mingw-w64-i686-arm-none-eabi/bin/../lib/gcc/arm-none-eabi/13.3.1/thumb/v8-m.base/nofp/crt0.o
 .bss           0x00000000        0x0 D:/AppData/arm-gnu-toolchain-13.3.rel1-mingw-w64-i686-arm-none-eabi/bin/../lib/gcc/arm-none-eabi/13.3.1/thumb/v8-m.base/nofp/crt0.o
 .ARM.extab     0x00000000        0x0 D:/AppData/arm-gnu-toolchain-13.3.rel1-mingw-w64-i686-arm-none-eabi/bin/../lib/gcc/arm-none-eabi/13.3.1/thumb/v8-m.base/nofp/crt0.o
 .ARM.exidx     0x00000000       0x10 D:/AppData/arm-gnu-toolchain-13.3.rel1-mingw-w64-i686-arm-none-eabi/bin/../lib/gcc/arm-none-eabi/13.3.1/thumb/v8-m.base/nofp/crt0.o
 .debug_line_str
                0x00000000       0xd7 D:/AppData/arm-gnu-toolchain-13.3.rel1-mingw-w64-i686-arm-none-eabi/bin/../lib/gcc/arm-none-eabi/13.3.1/thumb/v8-m.base/nofp/crt0.o
 .ARM.attributes
                0x00000000       0x20 D:/AppData/arm-gnu-toolchain-13.3.rel1-mingw-w64-i686-arm-none-eabi/bin/../lib/gcc/arm-none-eabi/13.3.1/thumb/v8-m.base/nofp/crt0.o
 .text          0x00000000        0x0 build/main.o
 .data          0x00000000        0x0 build/main.o
 .bss           0x00000000        0x0 build/main.o
 .text          0x00000000        0x0 build/systick.o
 .data          0x00000000        0x0 build/systick.o
 .bss           0x00000000        0x0 build/systick.o
 .text          0x00000000        0x0 build/gd32e23x_it.o
 .data          0x00000000        0x0 build/gd32e23x_it.o
 .bss           0x00000000        0x0 build/gd32e23x_it.o
 .text          0x00000000        0x0 build/log.o
 .data          0x00000000        0x0 build/log.o
 .bss           0x00000000        0x0 build/log.o
 .rodata.EM_LOGLEVELGet.str1.4
                0x00000000       0x30 build/log.o
 .text.EM_LOGLEVELGet
                0x00000000       0x4c build/log.o
 .rodata.EM_LOGLEVELGet
                0x00000000       0x14 build/log.o
 .text.savelog  0x00000000        0x2 build/log.o
 .text          0x00000000        0x0 build/app.o
 .data          0x00000000        0x0 build/app.o
 .bss           0x00000000        0x0 build/app.o
 .text          0x00000000        0x0 build/peripheral.o
 .data          0x00000000        0x0 build/peripheral.o
 .bss           0x00000000        0x0 build/peripheral.o
 .text          0x00000000        0x0 build/gd32e23x_adc.o
 .data          0x00000000        0x0 build/gd32e23x_adc.o
 .bss           0x00000000        0x0 build/gd32e23x_adc.o
 .text.adc_deinit
                0x00000000       0x14 build/gd32e23x_adc.o
 .text.adc_disable
                0x00000000       0x12 build/gd32e23x_adc.o
 .text.adc_dma_mode_disable
                0x00000000       0x18 build/gd32e23x_adc.o
 .text.adc_tempsensor_vrefint_enable
                0x00000000       0x14 build/gd32e23x_adc.o
 .text.adc_tempsensor_vrefint_disable
                0x00000000       0x18 build/gd32e23x_adc.o
 .text.adc_discontinuous_mode_config
                0x00000000       0x64 build/gd32e23x_adc.o
 .text.adc_inserted_channel_config
                0x00000000       0x70 build/gd32e23x_adc.o
 .text.adc_inserted_channel_offset_config
                0x00000000       0x2e build/gd32e23x_adc.o
 .text.adc_regular_data_read
                0x00000000        0xe build/gd32e23x_adc.o
 .text.adc_inserted_data_read
                0x00000000       0x4a build/gd32e23x_adc.o
 .text.adc_flag_get
                0x00000000       0x16 build/gd32e23x_adc.o
 .text.adc_flag_clear
                0x00000000       0x10 build/gd32e23x_adc.o
 .text.adc_interrupt_flag_get
                0x00000000       0x8e build/gd32e23x_adc.o
 .text.adc_interrupt_flag_clear
                0x00000000       0x10 build/gd32e23x_adc.o
 .text.adc_interrupt_enable
                0x00000000       0x3e build/gd32e23x_adc.o
 .text.adc_interrupt_disable
                0x00000000       0x3e build/gd32e23x_adc.o
 .text.adc_watchdog_single_channel_enable
                0x00000000       0x2c build/gd32e23x_adc.o
 .text.adc_watchdog_group_channel_enable
                0x00000000       0x5e build/gd32e23x_adc.o
 .text.adc_watchdog_disable
                0x00000000       0x18 build/gd32e23x_adc.o
 .text.adc_watchdog_threshold_config
                0x00000000       0x1e build/gd32e23x_adc.o
 .text.adc_resolution_config
                0x00000000       0x1c build/gd32e23x_adc.o
 .text.adc_oversample_mode_config
                0x00000000       0x4c build/gd32e23x_adc.o
 .text.adc_oversample_mode_enable
                0x00000000       0x12 build/gd32e23x_adc.o
 .text.adc_oversample_mode_disable
                0x00000000       0x12 build/gd32e23x_adc.o
 .text          0x00000000        0x0 build/gd32e23x_cmp.o
 .data          0x00000000        0x0 build/gd32e23x_cmp.o
 .bss           0x00000000        0x0 build/gd32e23x_cmp.o
 .text.cmp_deinit
                0x00000000       0x12 build/gd32e23x_cmp.o
 .text.cmp_mode_init
                0x00000000       0x20 build/gd32e23x_cmp.o
 .text.cmp_output_init
                0x00000000       0x34 build/gd32e23x_cmp.o
 .text.cmp_enable
                0x00000000       0x12 build/gd32e23x_cmp.o
 .text.cmp_disable
                0x00000000       0x12 build/gd32e23x_cmp.o
 .text.cmp_switch_enable
                0x00000000       0x10 build/gd32e23x_cmp.o
 .text.cmp_switch_disable
                0x00000000       0x10 build/gd32e23x_cmp.o
 .text.cmp_lock_enable
                0x00000000       0x14 build/gd32e23x_cmp.o
 .text.cmp_output_level_get
                0x00000000       0x18 build/gd32e23x_cmp.o
 .debug_info    0x00000000      0x29c build/gd32e23x_cmp.o
 .debug_abbrev  0x00000000      0x123 build/gd32e23x_cmp.o
 .debug_loc     0x00000000      0x173 build/gd32e23x_cmp.o
 .debug_aranges
                0x00000000       0x60 build/gd32e23x_cmp.o
 .debug_ranges  0x00000000       0x50 build/gd32e23x_cmp.o
 .debug_line    0x00000000      0x334 build/gd32e23x_cmp.o
 .debug_str     0x00000000      0x281 build/gd32e23x_cmp.o
 .comment       0x00000000       0x46 build/gd32e23x_cmp.o
 .debug_frame   0x00000000       0xac build/gd32e23x_cmp.o
 .ARM.attributes
                0x00000000       0x30 build/gd32e23x_cmp.o
 .text          0x00000000        0x0 build/gd32e23x_crc.o
 .data          0x00000000        0x0 build/gd32e23x_crc.o
 .bss           0x00000000        0x0 build/gd32e23x_crc.o
 .text.crc_deinit
                0x00000000       0x44 build/gd32e23x_crc.o
 .text.crc_reverse_output_data_enable
                0x00000000       0x18 build/gd32e23x_crc.o
 .text.crc_reverse_output_data_disable
                0x00000000       0x12 build/gd32e23x_crc.o
 .text.crc_data_register_reset
                0x00000000       0x12 build/gd32e23x_crc.o
 .text.crc_data_register_read
                0x00000000        0xc build/gd32e23x_crc.o
 .text.crc_free_data_register_read
                0x00000000        0xe build/gd32e23x_crc.o
 .text.crc_free_data_register_write
                0x00000000        0xc build/gd32e23x_crc.o
 .text.crc_init_data_register_write
                0x00000000        0xc build/gd32e23x_crc.o
 .text.crc_input_data_reverse_config
                0x00000000       0x18 build/gd32e23x_crc.o
 .text.crc_polynomial_size_set
                0x00000000       0x18 build/gd32e23x_crc.o
 .text.crc_polynomial_set
                0x00000000       0x12 build/gd32e23x_crc.o
 .text.crc_single_data_calculate
                0x00000000       0x38 build/gd32e23x_crc.o
 .text.crc_block_data_calculate
                0x00000000       0x5e build/gd32e23x_crc.o
 .debug_info    0x00000000      0x326 build/gd32e23x_crc.o
 .debug_abbrev  0x00000000      0x105 build/gd32e23x_crc.o
 .debug_loc     0x00000000      0x193 build/gd32e23x_crc.o
 .debug_aranges
                0x00000000       0x80 build/gd32e23x_crc.o
 .debug_ranges  0x00000000       0x70 build/gd32e23x_crc.o
 .debug_line    0x00000000      0x386 build/gd32e23x_crc.o
 .debug_str     0x00000000      0x364 build/gd32e23x_crc.o
 .comment       0x00000000       0x46 build/gd32e23x_crc.o
 .debug_frame   0x00000000       0xe8 build/gd32e23x_crc.o
 .ARM.attributes
                0x00000000       0x30 build/gd32e23x_crc.o
 .text          0x00000000        0x0 build/gd32e23x_dbg.o
 .data          0x00000000        0x0 build/gd32e23x_dbg.o
 .bss           0x00000000        0x0 build/gd32e23x_dbg.o
 .text.dbg_deinit
                0x00000000       0x18 build/gd32e23x_dbg.o
 .text.dbg_id_get
                0x00000000        0xc build/gd32e23x_dbg.o
 .text.dbg_low_power_enable
                0x00000000       0x10 build/gd32e23x_dbg.o
 .text.dbg_low_power_disable
                0x00000000       0x10 build/gd32e23x_dbg.o
 .text.dbg_periph_enable
                0x00000000       0x1c build/gd32e23x_dbg.o
 .text.dbg_periph_disable
                0x00000000       0x1c build/gd32e23x_dbg.o
 .debug_info    0x00000000      0x1d7 build/gd32e23x_dbg.o
 .debug_abbrev  0x00000000       0xce build/gd32e23x_dbg.o
 .debug_loc     0x00000000       0x56 build/gd32e23x_dbg.o
 .debug_aranges
                0x00000000       0x48 build/gd32e23x_dbg.o
 .debug_ranges  0x00000000       0x38 build/gd32e23x_dbg.o
 .debug_line    0x00000000      0x209 build/gd32e23x_dbg.o
 .debug_str     0x00000000      0x2cb build/gd32e23x_dbg.o
 .comment       0x00000000       0x46 build/gd32e23x_dbg.o
 .debug_frame   0x00000000       0x70 build/gd32e23x_dbg.o
 .ARM.attributes
                0x00000000       0x30 build/gd32e23x_dbg.o
 .text          0x00000000        0x0 build/gd32e23x_dma.o
 .data          0x00000000        0x0 build/gd32e23x_dma.o
 .bss           0x00000000        0x0 build/gd32e23x_dma.o
 .text.dma_circulation_disable
                0x00000000       0x1a build/gd32e23x_dma.o
 .text.dma_memory_to_memory_enable
                0x00000000       0x1c build/gd32e23x_dma.o
 .text.dma_memory_to_memory_disable
                0x00000000       0x20 build/gd32e23x_dma.o
 .text.dma_periph_address_config
                0x00000000       0x14 build/gd32e23x_dma.o
 .text.dma_memory_address_config
                0x00000000       0x14 build/gd32e23x_dma.o
 .text.dma_transfer_number_get
                0x00000000       0x14 build/gd32e23x_dma.o
 .text.dma_priority_config
                0x00000000       0x20 build/gd32e23x_dma.o
 .text.dma_memory_width_config
                0x00000000       0x20 build/gd32e23x_dma.o
 .text.dma_periph_width_config
                0x00000000       0x20 build/gd32e23x_dma.o
 .text.dma_memory_increase_enable
                0x00000000       0x1a build/gd32e23x_dma.o
 .text.dma_memory_increase_disable
                0x00000000       0x1a build/gd32e23x_dma.o
 .text.dma_periph_increase_enable
                0x00000000       0x1a build/gd32e23x_dma.o
 .text.dma_periph_increase_disable
                0x00000000       0x1a build/gd32e23x_dma.o
 .text.dma_transfer_direction_config
                0x00000000       0x36 build/gd32e23x_dma.o
 .text.dma_flag_get
                0x00000000       0x18 build/gd32e23x_dma.o
 .text.dma_flag_clear
                0x00000000       0x12 build/gd32e23x_dma.o
 .text.dma_interrupt_disable
                0x00000000       0x18 build/gd32e23x_dma.o
 .text          0x00000000        0x0 build/gd32e23x_exti.o
 .data          0x00000000        0x0 build/gd32e23x_exti.o
 .bss           0x00000000        0x0 build/gd32e23x_exti.o
 .text.exti_deinit
                0x00000000       0x3a build/gd32e23x_exti.o
 .text.exti_event_enable
                0x00000000       0x10 build/gd32e23x_exti.o
 .text.exti_event_disable
                0x00000000       0x10 build/gd32e23x_exti.o
 .text.exti_software_interrupt_enable
                0x00000000       0x10 build/gd32e23x_exti.o
 .text.exti_software_interrupt_disable
                0x00000000       0x10 build/gd32e23x_exti.o
 .text.exti_flag_get
                0x00000000       0x16 build/gd32e23x_exti.o
 .text.exti_flag_clear
                0x00000000        0xc build/gd32e23x_exti.o
 .text          0x00000000        0x0 build/gd32e23x_fmc.o
 .data          0x00000000        0x0 build/gd32e23x_fmc.o
 .bss           0x00000000        0x0 build/gd32e23x_fmc.o
 .text.fmc_unlock
                0x00000000       0x2c build/gd32e23x_fmc.o
 .text.fmc_lock
                0x00000000       0x12 build/gd32e23x_fmc.o
 .text.fmc_wscnt_set
                0x00000000       0x14 build/gd32e23x_fmc.o
 .text.fmc_prefetch_enable
                0x00000000       0x12 build/gd32e23x_fmc.o
 .text.fmc_prefetch_disable
                0x00000000       0x12 build/gd32e23x_fmc.o
 .text.ob_unlock
                0x00000000       0x3a build/gd32e23x_fmc.o
 .text.ob_lock  0x00000000       0x18 build/gd32e23x_fmc.o
 .text.ob_reset
                0x00000000       0x14 build/gd32e23x_fmc.o
 .text.option_byte_value_get
                0x00000000        0x4 build/gd32e23x_fmc.o
 .text.ob_user_get
                0x00000000       0x10 build/gd32e23x_fmc.o
 .text.ob_data_get
                0x00000000        0xe build/gd32e23x_fmc.o
 .text.ob_write_protection_get
                0x00000000        0xc build/gd32e23x_fmc.o
 .text.ob_obstat_plevel_get
                0x00000000       0x10 build/gd32e23x_fmc.o
 .text.fmc_interrupt_enable
                0x00000000       0x10 build/gd32e23x_fmc.o
 .text.fmc_interrupt_disable
                0x00000000       0x10 build/gd32e23x_fmc.o
 .text.fmc_flag_get
                0x00000000       0x16 build/gd32e23x_fmc.o
 .text.fmc_flag_clear
                0x00000000        0xc build/gd32e23x_fmc.o
 .text.fmc_interrupt_flag_get
                0x00000000       0x4c build/gd32e23x_fmc.o
 .text.fmc_interrupt_flag_clear
                0x00000000        0xc build/gd32e23x_fmc.o
 .text.fmc_state_get
                0x00000000       0x3a build/gd32e23x_fmc.o
 .text.fmc_ready_wait
                0x00000000       0x1c build/gd32e23x_fmc.o
 .text.fmc_page_erase
                0x00000000       0x42 build/gd32e23x_fmc.o
 .text.fmc_mass_erase
                0x00000000       0x36 build/gd32e23x_fmc.o
 .text.fmc_doubleword_program
                0x00000000       0x6c build/gd32e23x_fmc.o
 .text.fmc_word_program
                0x00000000       0x34 build/gd32e23x_fmc.o
 .text.ob_erase
                0x00000000       0xac build/gd32e23x_fmc.o
 .text.ob_write_protection_enable
                0x00000000       0x84 build/gd32e23x_fmc.o
 .text.ob_security_protection_config
                0x00000000       0xb0 build/gd32e23x_fmc.o
 .text.ob_user_write
                0x00000000       0xa6 build/gd32e23x_fmc.o
 .text.ob_data_program
                0x00000000       0x52 build/gd32e23x_fmc.o
 .debug_info    0x00000000      0x972 build/gd32e23x_fmc.o
 .debug_abbrev  0x00000000      0x1fa build/gd32e23x_fmc.o
 .debug_loc     0x00000000      0xacc build/gd32e23x_fmc.o
 .debug_aranges
                0x00000000      0x108 build/gd32e23x_fmc.o
 .debug_ranges  0x00000000       0xf8 build/gd32e23x_fmc.o
 .debug_line    0x00000000      0x9ce build/gd32e23x_fmc.o
 .debug_str     0x00000000      0x4d5 build/gd32e23x_fmc.o
 .comment       0x00000000       0x46 build/gd32e23x_fmc.o
 .debug_frame   0x00000000      0x268 build/gd32e23x_fmc.o
 .ARM.attributes
                0x00000000       0x30 build/gd32e23x_fmc.o
 .text          0x00000000        0x0 build/gd32e23x_fwdgt.o
 .data          0x00000000        0x0 build/gd32e23x_fwdgt.o
 .bss           0x00000000        0x0 build/gd32e23x_fwdgt.o
 .text.fwdgt_write_enable
                0x00000000       0x10 build/gd32e23x_fwdgt.o
 .text.fwdgt_write_disable
                0x00000000        0xe build/gd32e23x_fwdgt.o
 .text.fwdgt_enable
                0x00000000       0x10 build/gd32e23x_fwdgt.o
 .text.fwdgt_prescaler_value_config
                0x00000000       0x40 build/gd32e23x_fwdgt.o
 .text.fwdgt_reload_value_config
                0x00000000       0x46 build/gd32e23x_fwdgt.o
 .text.fwdgt_window_value_config
                0x00000000       0x46 build/gd32e23x_fwdgt.o
 .text.fwdgt_counter_reload
                0x00000000       0x10 build/gd32e23x_fwdgt.o
 .text.fwdgt_config
                0x00000000       0x84 build/gd32e23x_fwdgt.o
 .text.fwdgt_flag_get
                0x00000000       0x16 build/gd32e23x_fwdgt.o
 .debug_info    0x00000000      0x312 build/gd32e23x_fwdgt.o
 .debug_abbrev  0x00000000       0xde build/gd32e23x_fwdgt.o
 .debug_loc     0x00000000      0x41b build/gd32e23x_fwdgt.o
 .debug_aranges
                0x00000000       0x60 build/gd32e23x_fwdgt.o
 .debug_ranges  0x00000000       0x50 build/gd32e23x_fwdgt.o
 .debug_line    0x00000000      0x3c7 build/gd32e23x_fwdgt.o
 .debug_str     0x00000000      0x2e4 build/gd32e23x_fwdgt.o
 .comment       0x00000000       0x46 build/gd32e23x_fwdgt.o
 .debug_frame   0x00000000       0xa8 build/gd32e23x_fwdgt.o
 .ARM.attributes
                0x00000000       0x30 build/gd32e23x_fwdgt.o
 .text          0x00000000        0x0 build/gd32e23x_gpio.o
 .data          0x00000000        0x0 build/gd32e23x_gpio.o
 .bss           0x00000000        0x0 build/gd32e23x_gpio.o
 .text.gpio_deinit
                0x00000000       0x82 build/gd32e23x_gpio.o
 .text.gpio_bit_write
                0x00000000        0xa build/gd32e23x_gpio.o
 .text.gpio_port_write
                0x00000000        0x4 build/gd32e23x_gpio.o
 .text.gpio_input_port_get
                0x00000000        0x6 build/gd32e23x_gpio.o
 .text.gpio_output_bit_get
                0x00000000        0xe build/gd32e23x_gpio.o
 .text.gpio_output_port_get
                0x00000000        0x6 build/gd32e23x_gpio.o
 .text.gpio_pin_lock
                0x00000000       0x12 build/gd32e23x_gpio.o
 .text.gpio_bit_toggle
                0x00000000        0x4 build/gd32e23x_gpio.o
 .text.gpio_port_toggle
                0x00000000        0x8 build/gd32e23x_gpio.o
 .text          0x00000000        0x0 build/gd32e23x_i2c.o
 .data          0x00000000        0x0 build/gd32e23x_i2c.o
 .bss           0x00000000        0x0 build/gd32e23x_i2c.o
 .text.i2c_deinit
                0x00000000       0x3e build/gd32e23x_i2c.o
 .text.i2c_clock_config
                0x00000000      0x134 build/gd32e23x_i2c.o
 .text.i2c_mode_addr_config
                0x00000000       0x18 build/gd32e23x_i2c.o
 .text.i2c_smbus_type_config
                0x00000000       0x18 build/gd32e23x_i2c.o
 .text.i2c_ack_config
                0x00000000       0x10 build/gd32e23x_i2c.o
 .text.i2c_ackpos_config
                0x00000000       0x10 build/gd32e23x_i2c.o
 .text.i2c_master_addressing
                0x00000000       0x12 build/gd32e23x_i2c.o
 .text.i2c_dualaddr_enable
                0x00000000        0xc build/gd32e23x_i2c.o
 .text.i2c_dualaddr_disable
                0x00000000        0xa build/gd32e23x_i2c.o
 .text.i2c_enable
                0x00000000        0xa build/gd32e23x_i2c.o
 .text.i2c_disable
                0x00000000        0xa build/gd32e23x_i2c.o
 .text.i2c_start_on_bus
                0x00000000        0xc build/gd32e23x_i2c.o
 .text.i2c_stop_on_bus
                0x00000000        0xc build/gd32e23x_i2c.o
 .text.i2c_data_transmit
                0x00000000        0x4 build/gd32e23x_i2c.o
 .text.i2c_data_receive
                0x00000000        0x6 build/gd32e23x_i2c.o
 .text.i2c_dma_config
                0x00000000       0x10 build/gd32e23x_i2c.o
 .text.i2c_dma_last_transfer_config
                0x00000000       0x10 build/gd32e23x_i2c.o
 .text.i2c_stretch_scl_low_config
                0x00000000        0xc build/gd32e23x_i2c.o
 .text.i2c_slave_response_to_gcall_config
                0x00000000        0xc build/gd32e23x_i2c.o
 .text.i2c_software_reset_config
                0x00000000       0x10 build/gd32e23x_i2c.o
 .text.i2c_pec_config
                0x00000000        0xc build/gd32e23x_i2c.o
 .text.i2c_pec_transfer_config
                0x00000000       0x10 build/gd32e23x_i2c.o
 .text.i2c_pec_value_get
                0x00000000        0x8 build/gd32e23x_i2c.o
 .text.i2c_smbus_alert_config
                0x00000000       0x10 build/gd32e23x_i2c.o
 .text.i2c_smbus_arp_config
                0x00000000        0xc build/gd32e23x_i2c.o
 .text.i2c_sam_enable
                0x00000000        0xc build/gd32e23x_i2c.o
 .text.i2c_sam_disable
                0x00000000        0xc build/gd32e23x_i2c.o
 .text.i2c_sam_timeout_enable
                0x00000000        0xc build/gd32e23x_i2c.o
 .text.i2c_sam_timeout_disable
                0x00000000        0xc build/gd32e23x_i2c.o
 .text.i2c_flag_get
                0x00000000       0x18 build/gd32e23x_i2c.o
 .text.i2c_flag_clear
                0x00000000       0x22 build/gd32e23x_i2c.o
 .text.i2c_interrupt_enable
                0x00000000       0x14 build/gd32e23x_i2c.o
 .text.i2c_interrupt_disable
                0x00000000       0x14 build/gd32e23x_i2c.o
 .text.i2c_interrupt_flag_get
                0x00000000       0x6c build/gd32e23x_i2c.o
 .text.i2c_interrupt_flag_clear
                0x00000000       0x28 build/gd32e23x_i2c.o
 .debug_info    0x00000000      0xdd0 build/gd32e23x_i2c.o
 .debug_abbrev  0x00000000      0x240 build/gd32e23x_i2c.o
 .debug_loc     0x00000000      0x922 build/gd32e23x_i2c.o
 .debug_aranges
                0x00000000      0x130 build/gd32e23x_i2c.o
 .debug_ranges  0x00000000      0x120 build/gd32e23x_i2c.o
 .debug_line    0x00000000      0x920 build/gd32e23x_i2c.o
 .debug_str     0x00000000      0xa45 build/gd32e23x_i2c.o
 .comment       0x00000000       0x46 build/gd32e23x_i2c.o
 .debug_frame   0x00000000      0x274 build/gd32e23x_i2c.o
 .ARM.attributes
                0x00000000       0x30 build/gd32e23x_i2c.o
 .text          0x00000000        0x0 build/gd32e23x_misc.o
 .data          0x00000000        0x0 build/gd32e23x_misc.o
 .bss           0x00000000        0x0 build/gd32e23x_misc.o
 .text.__NVIC_DisableIRQ
                0x00000000       0x26 build/gd32e23x_misc.o
 .text.__NVIC_SystemReset
                0x00000000       0x1c build/gd32e23x_misc.o
 .text.nvic_irq_disable
                0x00000000        0xa build/gd32e23x_misc.o
 .text.nvic_system_reset
                0x00000000        0x6 build/gd32e23x_misc.o
 .text.system_lowpower_set
                0x00000000       0x10 build/gd32e23x_misc.o
 .text.system_lowpower_reset
                0x00000000       0x10 build/gd32e23x_misc.o
 .text.systick_clksource_set
                0x00000000       0x28 build/gd32e23x_misc.o
 .text          0x00000000        0x0 build/gd32e23x_pmu.o
 .data          0x00000000        0x0 build/gd32e23x_pmu.o
 .bss           0x00000000        0x0 build/gd32e23x_pmu.o
 .text.pmu_deinit
                0x00000000       0x14 build/gd32e23x_pmu.o
 .text.pmu_lvd_select
                0x00000000       0x28 build/gd32e23x_pmu.o
 .text.pmu_ldo_output_select
                0x00000000       0x1c build/gd32e23x_pmu.o
 .text.pmu_lvd_disable
                0x00000000       0x12 build/gd32e23x_pmu.o
 .text.pmu_to_sleepmode
                0x00000000       0x1c build/gd32e23x_pmu.o
 .text.pmu_to_deepsleepmode
                0x00000000       0x46 build/gd32e23x_pmu.o
 .text.pmu_to_standbymode
                0x00000000       0x84 build/gd32e23x_pmu.o
 .text.pmu_wakeup_pin_enable
                0x00000000       0x10 build/gd32e23x_pmu.o
 .text.pmu_wakeup_pin_disable
                0x00000000       0x10 build/gd32e23x_pmu.o
 .text.pmu_backup_write_enable
                0x00000000       0x14 build/gd32e23x_pmu.o
 .text.pmu_backup_write_disable
                0x00000000       0x18 build/gd32e23x_pmu.o
 .text.pmu_flag_get
                0x00000000       0x16 build/gd32e23x_pmu.o
 .text.pmu_flag_clear
                0x00000000       0x2a build/gd32e23x_pmu.o
 .debug_info    0x00000000      0x48d build/gd32e23x_pmu.o
 .debug_abbrev  0x00000000      0x223 build/gd32e23x_pmu.o
 .debug_loc     0x00000000      0x16d build/gd32e23x_pmu.o
 .debug_aranges
                0x00000000       0x80 build/gd32e23x_pmu.o
 .debug_ranges  0x00000000       0x70 build/gd32e23x_pmu.o
 .debug_line    0x00000000      0x3eb build/gd32e23x_pmu.o
 .debug_str     0x00000000      0x474 build/gd32e23x_pmu.o
 .comment       0x00000000       0x46 build/gd32e23x_pmu.o
 .debug_frame   0x00000000       0xf8 build/gd32e23x_pmu.o
 .ARM.attributes
                0x00000000       0x30 build/gd32e23x_pmu.o
 .text          0x00000000        0x0 build/gd32e23x_rcu.o
 .data          0x00000000        0x0 build/gd32e23x_rcu.o
 .bss           0x00000000        0x0 build/gd32e23x_rcu.o
 .text.rcu_deinit
                0x00000000       0xb4 build/gd32e23x_rcu.o
 .text.rcu_periph_clock_sleep_enable
                0x00000000       0x1c build/gd32e23x_rcu.o
 .text.rcu_periph_clock_sleep_disable
                0x00000000       0x1c build/gd32e23x_rcu.o
 .text.rcu_bkp_reset_enable
                0x00000000       0x14 build/gd32e23x_rcu.o
 .text.rcu_bkp_reset_disable
                0x00000000       0x18 build/gd32e23x_rcu.o
 .text.rcu_system_clock_source_config
                0x00000000       0x14 build/gd32e23x_rcu.o
 .text.rcu_system_clock_source_get
                0x00000000       0x10 build/gd32e23x_rcu.o
 .text.rcu_ahb_clock_config
                0x00000000       0x14 build/gd32e23x_rcu.o
 .text.rcu_apb1_clock_config
                0x00000000       0x18 build/gd32e23x_rcu.o
 .text.rcu_apb2_clock_config
                0x00000000       0x18 build/gd32e23x_rcu.o
 .text.rcu_ckout_config
                0x00000000       0x1c build/gd32e23x_rcu.o
 .text.rcu_pll_config
                0x00000000       0x22 build/gd32e23x_rcu.o
 .text.rcu_usart_clock_config
                0x00000000       0x18 build/gd32e23x_rcu.o
 .text.rcu_rtc_clock_config
                0x00000000       0x1c build/gd32e23x_rcu.o
 .text.rcu_hxtal_prediv_config
                0x00000000       0x14 build/gd32e23x_rcu.o
 .text.rcu_lxtal_drive_capability_config
                0x00000000       0x18 build/gd32e23x_rcu.o
 .text.rcu_osci_on
                0x00000000       0x1c build/gd32e23x_rcu.o
 .text.rcu_osci_off
                0x00000000       0x1c build/gd32e23x_rcu.o
 .text.rcu_osci_bypass_mode_enable
                0x00000000       0x48 build/gd32e23x_rcu.o
 .text.rcu_osci_bypass_mode_disable
                0x00000000       0x48 build/gd32e23x_rcu.o
 .text.rcu_hxtal_clock_monitor_enable
                0x00000000       0x14 build/gd32e23x_rcu.o
 .text.rcu_hxtal_clock_monitor_disable
                0x00000000       0x18 build/gd32e23x_rcu.o
 .text.rcu_irc8m_adjust_value_set
                0x00000000       0x16 build/gd32e23x_rcu.o
 .text.rcu_irc28m_adjust_value_set
                0x00000000       0x16 build/gd32e23x_rcu.o
 .text.rcu_voltage_key_unlock
                0x00000000       0x1e build/gd32e23x_rcu.o
 .text.rcu_deepsleep_voltage_set
                0x00000000       0x18 build/gd32e23x_rcu.o
 .text.rcu_clock_freq_get
                0x00000000      0x200 build/gd32e23x_rcu.o
 .rodata.rcu_clock_freq_get
                0x00000000       0x18 build/gd32e23x_rcu.o
 .text.rcu_flag_get
                0x00000000       0x20 build/gd32e23x_rcu.o
 .text.rcu_osci_stab_wait
                0x00000000      0x130 build/gd32e23x_rcu.o
 .text.rcu_all_reset_flag_clear
                0x00000000       0x14 build/gd32e23x_rcu.o
 .text.rcu_interrupt_flag_get
                0x00000000       0x20 build/gd32e23x_rcu.o
 .text.rcu_interrupt_flag_clear
                0x00000000       0x1c build/gd32e23x_rcu.o
 .text.rcu_interrupt_enable
                0x00000000       0x1c build/gd32e23x_rcu.o
 .text.rcu_interrupt_disable
                0x00000000       0x1c build/gd32e23x_rcu.o
 .rodata        0x00000000       0x18 build/gd32e23x_rcu.o
 .text          0x00000000        0x0 build/gd32e23x_rtc.o
 .data          0x00000000        0x0 build/gd32e23x_rtc.o
 .bss           0x00000000        0x0 build/gd32e23x_rtc.o
 .text.rtc_init_mode_enter
                0x00000000       0x46 build/gd32e23x_rtc.o
 .text.rtc_init_mode_exit
                0x00000000       0x12 build/gd32e23x_rtc.o
 .text.rtc_register_sync_wait
                0x00000000       0x6c build/gd32e23x_rtc.o
 .text.rtc_deinit
                0x00000000       0xa2 build/gd32e23x_rtc.o
 .text.rtc_init
                0x00000000       0xc6 build/gd32e23x_rtc.o
 .text.rtc_current_time_get
                0x00000000       0x78 build/gd32e23x_rtc.o
 .text.rtc_subsecond_get
                0x00000000       0x16 build/gd32e23x_rtc.o
 .text.rtc_alarm_config
                0x00000000       0x56 build/gd32e23x_rtc.o
 .text.rtc_alarm_subsecond_config
                0x00000000       0x22 build/gd32e23x_rtc.o
 .text.rtc_alarm_enable
                0x00000000       0x28 build/gd32e23x_rtc.o
 .text.rtc_alarm_disable
                0x00000000       0x60 build/gd32e23x_rtc.o
 .text.rtc_alarm_get
                0x00000000       0x42 build/gd32e23x_rtc.o
 .text.rtc_alarm_subsecond_get
                0x00000000       0x12 build/gd32e23x_rtc.o
 .text.rtc_timestamp_enable
                0x00000000       0x34 build/gd32e23x_rtc.o
 .text.rtc_timestamp_disable
                0x00000000       0x2c build/gd32e23x_rtc.o
 .text.rtc_timestamp_get
                0x00000000       0x4a build/gd32e23x_rtc.o
 .text.rtc_timestamp_subsecond_get
                0x00000000        0xc build/gd32e23x_rtc.o
 .text.rtc_tamper_enable
                0x00000000       0xd4 build/gd32e23x_rtc.o
 .text.rtc_tamper_disable
                0x00000000       0x10 build/gd32e23x_rtc.o
 .text.rtc_interrupt_enable
                0x00000000       0x3c build/gd32e23x_rtc.o
 .text.rtc_interrupt_disable
                0x00000000       0x3c build/gd32e23x_rtc.o
 .text.rtc_flag_get
                0x00000000       0x16 build/gd32e23x_rtc.o
 .text.rtc_flag_clear
                0x00000000       0x10 build/gd32e23x_rtc.o
 .text.rtc_alter_output_config
                0x00000000       0x58 build/gd32e23x_rtc.o
 .text.rtc_calibration_config
                0x00000000       0x58 build/gd32e23x_rtc.o
 .text.rtc_hour_adjust
                0x00000000       0x24 build/gd32e23x_rtc.o
 .text.rtc_second_adjust
                0x00000000       0x66 build/gd32e23x_rtc.o
 .text.rtc_bypass_shadow_enable
                0x00000000       0x26 build/gd32e23x_rtc.o
 .text.rtc_bypass_shadow_disable
                0x00000000       0x26 build/gd32e23x_rtc.o
 .text.rtc_refclock_detection_enable
                0x00000000       0x40 build/gd32e23x_rtc.o
 .text.rtc_refclock_detection_disable
                0x00000000       0x40 build/gd32e23x_rtc.o
 .debug_info    0x00000000      0xb78 build/gd32e23x_rtc.o
 .debug_abbrev  0x00000000      0x282 build/gd32e23x_rtc.o
 .debug_loc     0x00000000      0x9c2 build/gd32e23x_rtc.o
 .debug_aranges
                0x00000000      0x110 build/gd32e23x_rtc.o
 .debug_ranges  0x00000000      0x100 build/gd32e23x_rtc.o
 .debug_line    0x00000000      0xc3d build/gd32e23x_rtc.o
 .debug_str     0x00000000      0x7d1 build/gd32e23x_rtc.o
 .comment       0x00000000       0x46 build/gd32e23x_rtc.o
 .debug_frame   0x00000000      0x274 build/gd32e23x_rtc.o
 .ARM.attributes
                0x00000000       0x30 build/gd32e23x_rtc.o
 .text          0x00000000        0x0 build/gd32e23x_spi.o
 .data          0x00000000        0x0 build/gd32e23x_spi.o
 .bss           0x00000000        0x0 build/gd32e23x_spi.o
 .text.spi_disable
                0x00000000        0xa build/gd32e23x_spi.o
 .text.i2s_init
                0x00000000       0x1a build/gd32e23x_spi.o
 .text.i2s_psc_config
                0x00000000       0x78 build/gd32e23x_spi.o
 .text.i2s_enable
                0x00000000        0xc build/gd32e23x_spi.o
 .text.i2s_disable
                0x00000000       0x10 build/gd32e23x_spi.o
 .text.spi_nss_output_enable
                0x00000000        0xa build/gd32e23x_spi.o
 .text.spi_nss_output_disable
                0x00000000        0xa build/gd32e23x_spi.o
 .text.spi_nss_internal_high
                0x00000000        0xc build/gd32e23x_spi.o
 .text.spi_nss_internal_low
                0x00000000       0x10 build/gd32e23x_spi.o
 .text.spi_dma_enable
                0x00000000       0x16 build/gd32e23x_spi.o
 .text.spi_dma_disable
                0x00000000       0x16 build/gd32e23x_spi.o
 .text.spi_transmit_odd_config
                0x00000000       0x14 build/gd32e23x_spi.o
 .text.spi_receive_odd_config
                0x00000000       0x14 build/gd32e23x_spi.o
 .text.spi_i2s_data_frame_format_config
                0x00000000       0x50 build/gd32e23x_spi.o
 .text.spi_fifo_access_size_config
                0x00000000       0x14 build/gd32e23x_spi.o
 .text.spi_bidirectional_transfer_config
                0x00000000       0x24 build/gd32e23x_spi.o
 .text.spi_i2s_data_receive
                0x00000000       0x22 build/gd32e23x_spi.o
 .text.spi_i2s_format_error_clear
                0x00000000        0x6 build/gd32e23x_spi.o
 .text.spi_crc_polynomial_set
                0x00000000        0xe build/gd32e23x_spi.o
 .text.spi_crc_polynomial_get
                0x00000000        0x6 build/gd32e23x_spi.o
 .text.spi_crc_length_set
                0x00000000       0x14 build/gd32e23x_spi.o
 .text.spi_crc_on
                0x00000000        0xc build/gd32e23x_spi.o
 .text.spi_crc_off
                0x00000000       0x10 build/gd32e23x_spi.o
 .text.spi_crc_next
                0x00000000        0xc build/gd32e23x_spi.o
 .text.spi_crc_get
                0x00000000        0xe build/gd32e23x_spi.o
 .text.spi_crc_error_clear
                0x00000000        0x8 build/gd32e23x_spi.o
 .text.spi_ti_mode_enable
                0x00000000        0xa build/gd32e23x_spi.o
 .text.spi_ti_mode_disable
                0x00000000        0xa build/gd32e23x_spi.o
 .text.spi_nssp_mode_enable
                0x00000000        0xa build/gd32e23x_spi.o
 .text.spi_nssp_mode_disable
                0x00000000        0xa build/gd32e23x_spi.o
 .text.spi_quad_enable
                0x00000000        0xc build/gd32e23x_spi.o
 .text.spi_quad_disable
                0x00000000        0xc build/gd32e23x_spi.o
 .text.spi_quad_write_enable
                0x00000000        0xc build/gd32e23x_spi.o
 .text.spi_quad_read_enable
                0x00000000        0xc build/gd32e23x_spi.o
 .text.spi_quad_io23_output_enable
                0x00000000        0xc build/gd32e23x_spi.o
 .text.spi_quad_io23_output_disable
                0x00000000        0xc build/gd32e23x_spi.o
 .text.spi_i2s_interrupt_enable
                0x00000000        0x8 build/gd32e23x_spi.o
 .text.spi_i2s_interrupt_disable
                0x00000000        0x8 build/gd32e23x_spi.o
 .text.spi_i2s_interrupt_flag_get
                0x00000000       0x68 build/gd32e23x_spi.o
 .rodata.spi_i2s_interrupt_flag_get
                0x00000000       0x1c build/gd32e23x_spi.o
 .text          0x00000000        0x0 build/gd32e23x_syscfg.o
 .data          0x00000000        0x0 build/gd32e23x_syscfg.o
 .bss           0x00000000        0x0 build/gd32e23x_syscfg.o
 .text.syscfg_deinit
                0x00000000       0x14 build/gd32e23x_syscfg.o
 .text.syscfg_dma_remap_enable
                0x00000000        0xe build/gd32e23x_syscfg.o
 .text.syscfg_dma_remap_disable
                0x00000000        0xe build/gd32e23x_syscfg.o
 .text.syscfg_high_current_enable
                0x00000000       0x12 build/gd32e23x_syscfg.o
 .text.syscfg_high_current_disable
                0x00000000       0x14 build/gd32e23x_syscfg.o
 .text.syscfg_lock_config
                0x00000000        0xe build/gd32e23x_syscfg.o
 .text.irq_latency_set
                0x00000000       0x14 build/gd32e23x_syscfg.o
 .text.syscfg_flag_get
                0x00000000       0x14 build/gd32e23x_syscfg.o
 .text.syscfg_flag_clear
                0x00000000        0xe build/gd32e23x_syscfg.o
 .text          0x00000000        0x0 build/gd32e23x_timer.o
 .data          0x00000000        0x0 build/gd32e23x_timer.o
 .bss           0x00000000        0x0 build/gd32e23x_timer.o
 .text.timer_auto_reload_shadow_disable
                0x00000000        0xa build/gd32e23x_timer.o
 .text.timer_update_event_enable
                0x00000000        0xa build/gd32e23x_timer.o
 .text.timer_update_event_disable
                0x00000000        0xa build/gd32e23x_timer.o
 .text.timer_counter_alignment
                0x00000000       0x10 build/gd32e23x_timer.o
 .text.timer_counter_up_direction
                0x00000000        0xa build/gd32e23x_timer.o
 .text.timer_counter_down_direction
                0x00000000        0xa build/gd32e23x_timer.o
 .text.timer_prescaler_config
                0x00000000       0x10 build/gd32e23x_timer.o
 .text.timer_repetition_value_config
                0x00000000        0x4 build/gd32e23x_timer.o
 .text.timer_counter_read
                0x00000000        0x4 build/gd32e23x_timer.o
 .text.timer_prescaler_read
                0x00000000        0x6 build/gd32e23x_timer.o
 .text.timer_single_pulse_mode_config
                0x00000000       0x1a build/gd32e23x_timer.o
 .text.timer_update_source_config
                0x00000000       0x1a build/gd32e23x_timer.o
 .text.timer_ocpre_clear_source_config
                0x00000000       0x1a build/gd32e23x_timer.o
 .text.timer_interrupt_disable
                0x00000000        0x8 build/gd32e23x_timer.o
 .text.timer_flag_get
                0x00000000        0xe build/gd32e23x_timer.o
 .text.timer_flag_clear
                0x00000000        0x6 build/gd32e23x_timer.o
 .text.timer_dma_enable
                0x00000000        0x8 build/gd32e23x_timer.o
 .text.timer_dma_disable
                0x00000000        0x8 build/gd32e23x_timer.o
 .text.timer_channel_dma_request_source_select
                0x00000000       0x1a build/gd32e23x_timer.o
 .text.timer_dma_transfer_config
                0x00000000       0x18 build/gd32e23x_timer.o
 .text.timer_event_software_generate
                0x00000000        0x8 build/gd32e23x_timer.o
 .text.timer_break_struct_para_init
                0x00000000       0x12 build/gd32e23x_timer.o
 .text.timer_break_config
                0x00000000       0x24 build/gd32e23x_timer.o
 .text.timer_break_enable
                0x00000000        0xc build/gd32e23x_timer.o
 .text.timer_break_disable
                0x00000000       0x10 build/gd32e23x_timer.o
 .text.timer_automatic_output_enable
                0x00000000        0xc build/gd32e23x_timer.o
 .text.timer_automatic_output_disable
                0x00000000       0x10 build/gd32e23x_timer.o
 .text.timer_channel_control_shadow_config
                0x00000000       0x18 build/gd32e23x_timer.o
 .text.timer_channel_control_shadow_update_config
                0x00000000       0x1a build/gd32e23x_timer.o
 .text.timer_channel_output_fast_config
                0x00000000       0x58 build/gd32e23x_timer.o
 .text.timer_channel_output_clear_config
                0x00000000       0x58 build/gd32e23x_timer.o
 .text.timer_channel_output_polarity_config
                0x00000000       0x60 build/gd32e23x_timer.o
 .text.timer_channel_complementary_output_polarity_config
                0x00000000       0x60 build/gd32e23x_timer.o
 .text.timer_channel_output_state_config
                0x00000000       0x60 build/gd32e23x_timer.o
 .text.timer_channel_complementary_output_state_config
                0x00000000       0x44 build/gd32e23x_timer.o
 .text.timer_channel_input_struct_para_init
                0x00000000        0xe build/gd32e23x_timer.o
 .text.timer_input_pwm_capture_config
                0x00000000      0x158 build/gd32e23x_timer.o
 .text.timer_hall_mode_config
                0x00000000       0x1a build/gd32e23x_timer.o
 .text.timer_input_trigger_source_select
                0x00000000       0x10 build/gd32e23x_timer.o
 .text.timer_master_output_trigger_source_select
                0x00000000       0x10 build/gd32e23x_timer.o
 .text.timer_slave_mode_select
                0x00000000       0x10 build/gd32e23x_timer.o
 .text.timer_master_slave_mode_config
                0x00000000       0x1a build/gd32e23x_timer.o
 .text.timer_external_trigger_config
                0x00000000       0x20 build/gd32e23x_timer.o
 .text.timer_quadrature_decoder_mode_config
                0x00000000       0x44 build/gd32e23x_timer.o
 .text.timer_internal_clock_config
                0x00000000        0xa build/gd32e23x_timer.o
 .text.timer_internal_trigger_as_external_clock_config
                0x00000000       0x18 build/gd32e23x_timer.o
 .text.timer_external_trigger_as_external_clock_config
                0x00000000       0xa4 build/gd32e23x_timer.o
 .text.timer_external_clock_mode0_config
                0x00000000       0x18 build/gd32e23x_timer.o
 .text.timer_external_clock_mode1_config
                0x00000000       0x14 build/gd32e23x_timer.o
 .text.timer_external_clock_mode1_disable
                0x00000000       0x10 build/gd32e23x_timer.o
 .text.timer_channel_remap_config
                0x00000000        0x4 build/gd32e23x_timer.o
 .text.timer_write_chxval_register_config
                0x00000000       0x1e build/gd32e23x_timer.o
 .text.timer_output_value_selection_config
                0x00000000       0x1e build/gd32e23x_timer.o
 .text          0x00000000        0x0 build/gd32e23x_usart.o
 .data          0x00000000        0x0 build/gd32e23x_usart.o
 .bss           0x00000000        0x0 build/gd32e23x_usart.o
 .text.usart_deinit
                0x00000000       0x3e build/gd32e23x_usart.o
 .text.usart_baudrate_set
                0x00000000       0x64 build/gd32e23x_usart.o
 .text.usart_parity_config
                0x00000000       0x1c build/gd32e23x_usart.o
 .text.usart_word_length_set
                0x00000000       0x1c build/gd32e23x_usart.o
 .text.usart_stop_bit_set
                0x00000000       0x1c build/gd32e23x_usart.o
 .text.usart_enable
                0x00000000        0xa build/gd32e23x_usart.o
 .text.usart_disable
                0x00000000        0xa build/gd32e23x_usart.o
 .text.usart_transmit_config
                0x00000000       0x10 build/gd32e23x_usart.o
 .text.usart_receive_config
                0x00000000       0x10 build/gd32e23x_usart.o
 .text.usart_data_first_config
                0x00000000       0x24 build/gd32e23x_usart.o
 .text.usart_invert_config
                0x00000000       0x80 build/gd32e23x_usart.o
 .rodata.usart_invert_config
                0x00000000       0x20 build/gd32e23x_usart.o
 .text.usart_overrun_enable
                0x00000000       0x18 build/gd32e23x_usart.o
 .text.usart_overrun_disable
                0x00000000       0x14 build/gd32e23x_usart.o
 .text.usart_oversample_config
                0x00000000       0x1c build/gd32e23x_usart.o
 .text.usart_sample_bit_config
                0x00000000       0x1c build/gd32e23x_usart.o
 .text.usart_receiver_timeout_enable
                0x00000000        0xc build/gd32e23x_usart.o
 .text.usart_receiver_timeout_disable
                0x00000000       0x10 build/gd32e23x_usart.o
 .text.usart_receiver_timeout_threshold_config
                0x00000000       0x10 build/gd32e23x_usart.o
 .text.usart_data_transmit
                0x00000000        0xa build/gd32e23x_usart.o
 .text.usart_data_receive
                0x00000000        0xa build/gd32e23x_usart.o
 .text.usart_address_config
                0x00000000       0x1a build/gd32e23x_usart.o
 .text.usart_address_detection_mode_config
                0x00000000       0x1a build/gd32e23x_usart.o
 .text.usart_mute_mode_enable
                0x00000000        0xc build/gd32e23x_usart.o
 .text.usart_mute_mode_disable
                0x00000000       0x10 build/gd32e23x_usart.o
 .text.usart_mute_mode_wakeup_config
                0x00000000       0x1c build/gd32e23x_usart.o
 .text.usart_lin_mode_enable
                0x00000000       0x14 build/gd32e23x_usart.o
 .text.usart_lin_mode_disable
                0x00000000       0x18 build/gd32e23x_usart.o
 .text.usart_lin_break_detection_length_config
                0x00000000       0x1a build/gd32e23x_usart.o
 .text.usart_halfduplex_enable
                0x00000000       0x12 build/gd32e23x_usart.o
 .text.usart_halfduplex_disable
                0x00000000       0x12 build/gd32e23x_usart.o
 .text.usart_clock_enable
                0x00000000       0x14 build/gd32e23x_usart.o
 .text.usart_clock_disable
                0x00000000       0x18 build/gd32e23x_usart.o
 .text.usart_synchronous_clock_config
                0x00000000       0x3c build/gd32e23x_usart.o
 .text.usart_guard_time_config
                0x00000000       0x24 build/gd32e23x_usart.o
 .text.usart_smartcard_mode_enable
                0x00000000       0x12 build/gd32e23x_usart.o
 .text.usart_smartcard_mode_disable
                0x00000000       0x12 build/gd32e23x_usart.o
 .text.usart_smartcard_mode_nack_enable
                0x00000000       0x12 build/gd32e23x_usart.o
 .text.usart_smartcard_mode_nack_disable
                0x00000000       0x12 build/gd32e23x_usart.o
 .text.usart_smartcard_mode_early_nack_enable
                0x00000000        0xc build/gd32e23x_usart.o
 .text.usart_smartcard_mode_early_nack_disable
                0x00000000        0xc build/gd32e23x_usart.o
 .text.usart_smartcard_autoretry_config
                0x00000000       0x24 build/gd32e23x_usart.o
 .text.usart_block_length_config
                0x00000000       0x12 build/gd32e23x_usart.o
 .text.usart_irda_mode_enable
                0x00000000       0x12 build/gd32e23x_usart.o
 .text.usart_irda_mode_disable
                0x00000000       0x12 build/gd32e23x_usart.o
 .text.usart_prescaler_config
                0x00000000       0x18 build/gd32e23x_usart.o
 .text.usart_irda_lowpower_config
                0x00000000       0x1a build/gd32e23x_usart.o
 .text.usart_hardware_flow_rts_config
                0x00000000       0x1c build/gd32e23x_usart.o
 .text.usart_hardware_flow_cts_config
                0x00000000       0x1c build/gd32e23x_usart.o
 .text.usart_hardware_flow_coherence_config
                0x00000000       0x14 build/gd32e23x_usart.o
 .text.usart_rs485_driver_enable
                0x00000000       0x14 build/gd32e23x_usart.o
 .text.usart_rs485_driver_disable
                0x00000000       0x18 build/gd32e23x_usart.o
 .text.usart_driver_assertime_config
                0x00000000       0x24 build/gd32e23x_usart.o
 .text.usart_driver_deassertime_config
                0x00000000       0x24 build/gd32e23x_usart.o
 .text.usart_depolarity_config
                0x00000000       0x24 build/gd32e23x_usart.o
 .text.usart_dma_receive_config
                0x00000000       0x10 build/gd32e23x_usart.o
 .text.usart_dma_transmit_config
                0x00000000       0x10 build/gd32e23x_usart.o
 .text.usart_reception_error_dma_disable
                0x00000000       0x14 build/gd32e23x_usart.o
 .text.usart_reception_error_dma_enable
                0x00000000       0x18 build/gd32e23x_usart.o
 .text.usart_wakeup_enable
                0x00000000        0xa build/gd32e23x_usart.o
 .text.usart_wakeup_disable
                0x00000000        0xa build/gd32e23x_usart.o
 .text.usart_wakeup_mode_config
                0x00000000       0x24 build/gd32e23x_usart.o
 .text.usart_receive_fifo_enable
                0x00000000        0xe build/gd32e23x_usart.o
 .text.usart_receive_fifo_disable
                0x00000000       0x10 build/gd32e23x_usart.o
 .text.usart_receive_fifo_counter_number
                0x00000000        0xc build/gd32e23x_usart.o
 .text.usart_flag_get
                0x00000000       0x18 build/gd32e23x_usart.o
 .text.usart_flag_clear
                0x00000000       0x10 build/gd32e23x_usart.o
 .text.usart_interrupt_enable
                0x00000000       0x14 build/gd32e23x_usart.o
 .text.usart_interrupt_disable
                0x00000000       0x14 build/gd32e23x_usart.o
 .text.usart_command_enable
                0x00000000        0x8 build/gd32e23x_usart.o
 .text.usart_interrupt_flag_get
                0x00000000       0x3a build/gd32e23x_usart.o
 .text.usart_interrupt_flag_clear
                0x00000000       0x30 build/gd32e23x_usart.o
 .debug_info    0x00000000     0x141e build/gd32e23x_usart.o
 .debug_abbrev  0x00000000      0x248 build/gd32e23x_usart.o
 .debug_loc     0x00000000      0x8ee build/gd32e23x_usart.o
 .debug_aranges
                0x00000000      0x250 build/gd32e23x_usart.o
 .debug_ranges  0x00000000      0x240 build/gd32e23x_usart.o
 .debug_line    0x00000000      0xd3b build/gd32e23x_usart.o
 .debug_str     0x00000000      0xfe7 build/gd32e23x_usart.o
 .comment       0x00000000       0x46 build/gd32e23x_usart.o
 .debug_frame   0x00000000      0x4ac build/gd32e23x_usart.o
 .ARM.attributes
                0x00000000       0x30 build/gd32e23x_usart.o
 .text          0x00000000        0x0 build/gd32e23x_wwdgt.o
 .data          0x00000000        0x0 build/gd32e23x_wwdgt.o
 .bss           0x00000000        0x0 build/gd32e23x_wwdgt.o
 .text.wwdgt_deinit
                0x00000000       0x14 build/gd32e23x_wwdgt.o
 .text.wwdgt_enable
                0x00000000       0x12 build/gd32e23x_wwdgt.o
 .text.wwdgt_counter_update
                0x00000000       0x10 build/gd32e23x_wwdgt.o
 .text.wwdgt_config
                0x00000000       0x1e build/gd32e23x_wwdgt.o
 .text.wwdgt_flag_get
                0x00000000       0x16 build/gd32e23x_wwdgt.o
 .text.wwdgt_flag_clear
                0x00000000       0x12 build/gd32e23x_wwdgt.o
 .text.wwdgt_interrupt_enable
                0x00000000       0x14 build/gd32e23x_wwdgt.o
 .debug_info    0x00000000      0x2b7 build/gd32e23x_wwdgt.o
 .debug_abbrev  0x00000000      0x15c build/gd32e23x_wwdgt.o
 .debug_loc     0x00000000       0x76 build/gd32e23x_wwdgt.o
 .debug_aranges
                0x00000000       0x50 build/gd32e23x_wwdgt.o
 .debug_ranges  0x00000000       0x40 build/gd32e23x_wwdgt.o
 .debug_line    0x00000000      0x263 build/gd32e23x_wwdgt.o
 .debug_str     0x00000000      0x3a0 build/gd32e23x_wwdgt.o
 .comment       0x00000000       0x46 build/gd32e23x_wwdgt.o
 .debug_frame   0x00000000       0x88 build/gd32e23x_wwdgt.o
 .ARM.attributes
                0x00000000       0x30 build/gd32e23x_wwdgt.o
 .text          0x00000000        0x0 build/syscalls.o
 .data          0x00000000        0x0 build/syscalls.o
 .bss           0x00000000        0x0 build/syscalls.o
 .text._gettimeofday
                0x00000000        0xc build/syscalls.o
 .text.initialise_monitor_handles
                0x00000000        0x2 build/syscalls.o
 .text._open    0x00000000        0xa build/syscalls.o
 .text._wait    0x00000000       0x12 build/syscalls.o
 .text._unlink  0x00000000       0x12 build/syscalls.o
 .text._times   0x00000000        0x6 build/syscalls.o
 .text._stat    0x00000000        0xa build/syscalls.o
 .text._link    0x00000000       0x12 build/syscalls.o
 .text._fork    0x00000000       0x12 build/syscalls.o
 .text._execve  0x00000000       0x12 build/syscalls.o
 .text          0x00000000        0x0 build/system_gd32e23x.o
 .data          0x00000000        0x0 build/system_gd32e23x.o
 .bss           0x00000000        0x0 build/system_gd32e23x.o
 .text.SystemCoreClockUpdate
                0x00000000      0x10a build/system_gd32e23x.o
 .rodata        0x00000000       0x10 build/system_gd32e23x.o
 .text          0x00000000        0x0 build/lcd.o
 .data          0x00000000        0x0 build/lcd.o
 .bss           0x00000000        0x0 build/lcd.o
 .text.LCD_Draw_Rectangle
                0x00000000       0x56 build/lcd.o
 .text.Draw_Circle
                0x00000000       0xda build/lcd.o
 .text          0x00000000       0x14 build/startup_gd32e23x.o
 .data          0x00000000        0x0 build/startup_gd32e23x.o
 .bss           0x00000000        0x0 build/startup_gd32e23x.o
 .text          0x00000000        0x0 D:/AppData/arm-gnu-toolchain-13.3.rel1-mingw-w64-i686-arm-none-eabi/bin/../lib/gcc/arm-none-eabi/13.3.1/thumb/v8-m.base/nofp\libc_nano.a(libc_a-exit.o)
 .data          0x00000000        0x0 D:/AppData/arm-gnu-toolchain-13.3.rel1-mingw-w64-i686-arm-none-eabi/bin/../lib/gcc/arm-none-eabi/13.3.1/thumb/v8-m.base/nofp\libc_nano.a(libc_a-exit.o)
 .bss           0x00000000        0x0 D:/AppData/arm-gnu-toolchain-13.3.rel1-mingw-w64-i686-arm-none-eabi/bin/../lib/gcc/arm-none-eabi/13.3.1/thumb/v8-m.base/nofp\libc_nano.a(libc_a-exit.o)
 .text.exit     0x00000000       0x24 D:/AppData/arm-gnu-toolchain-13.3.rel1-mingw-w64-i686-arm-none-eabi/bin/../lib/gcc/arm-none-eabi/13.3.1/thumb/v8-m.base/nofp\libc_nano.a(libc_a-exit.o)
 .debug_frame   0x00000000       0x28 D:/AppData/arm-gnu-toolchain-13.3.rel1-mingw-w64-i686-arm-none-eabi/bin/../lib/gcc/arm-none-eabi/13.3.1/thumb/v8-m.base/nofp\libc_nano.a(libc_a-exit.o)
 .ARM.attributes
                0x00000000       0x30 D:/AppData/arm-gnu-toolchain-13.3.rel1-mingw-w64-i686-arm-none-eabi/bin/../lib/gcc/arm-none-eabi/13.3.1/thumb/v8-m.base/nofp\libc_nano.a(libc_a-exit.o)
 .text          0x00000000        0x0 D:/AppData/arm-gnu-toolchain-13.3.rel1-mingw-w64-i686-arm-none-eabi/bin/../lib/gcc/arm-none-eabi/13.3.1/thumb/v8-m.base/nofp\libc_nano.a(libc_a-nano-vfprintf_float.o)
 .data          0x00000000        0x0 D:/AppData/arm-gnu-toolchain-13.3.rel1-mingw-w64-i686-arm-none-eabi/bin/../lib/gcc/arm-none-eabi/13.3.1/thumb/v8-m.base/nofp\libc_nano.a(libc_a-nano-vfprintf_float.o)
 .bss           0x00000000        0x0 D:/AppData/arm-gnu-toolchain-13.3.rel1-mingw-w64-i686-arm-none-eabi/bin/../lib/gcc/arm-none-eabi/13.3.1/thumb/v8-m.base/nofp\libc_nano.a(libc_a-nano-vfprintf_float.o)
 .text          0x00000000        0x0 D:/AppData/arm-gnu-toolchain-13.3.rel1-mingw-w64-i686-arm-none-eabi/bin/../lib/gcc/arm-none-eabi/13.3.1/thumb/v8-m.base/nofp\libc_nano.a(libc_a-nano-vfprintf_i.o)
 .data          0x00000000        0x0 D:/AppData/arm-gnu-toolchain-13.3.rel1-mingw-w64-i686-arm-none-eabi/bin/../lib/gcc/arm-none-eabi/13.3.1/thumb/v8-m.base/nofp\libc_nano.a(libc_a-nano-vfprintf_i.o)
 .bss           0x00000000        0x0 D:/AppData/arm-gnu-toolchain-13.3.rel1-mingw-w64-i686-arm-none-eabi/bin/../lib/gcc/arm-none-eabi/13.3.1/thumb/v8-m.base/nofp\libc_nano.a(libc_a-nano-vfprintf_i.o)
 .text          0x00000000        0x0 D:/AppData/arm-gnu-toolchain-13.3.rel1-mingw-w64-i686-arm-none-eabi/bin/../lib/gcc/arm-none-eabi/13.3.1/thumb/v8-m.base/nofp\libc_nano.a(libc_a-nano-vfscanf_float.o)
 .data          0x00000000        0x0 D:/AppData/arm-gnu-toolchain-13.3.rel1-mingw-w64-i686-arm-none-eabi/bin/../lib/gcc/arm-none-eabi/13.3.1/thumb/v8-m.base/nofp\libc_nano.a(libc_a-nano-vfscanf_float.o)
 .bss           0x00000000        0x0 D:/AppData/arm-gnu-toolchain-13.3.rel1-mingw-w64-i686-arm-none-eabi/bin/../lib/gcc/arm-none-eabi/13.3.1/thumb/v8-m.base/nofp\libc_nano.a(libc_a-nano-vfscanf_float.o)
 .text          0x00000000        0x0 D:/AppData/arm-gnu-toolchain-13.3.rel1-mingw-w64-i686-arm-none-eabi/bin/../lib/gcc/arm-none-eabi/13.3.1/thumb/v8-m.base/nofp\libc_nano.a(libc_a-findfp.o)
 .data          0x00000000        0x0 D:/AppData/arm-gnu-toolchain-13.3.rel1-mingw-w64-i686-arm-none-eabi/bin/../lib/gcc/arm-none-eabi/13.3.1/thumb/v8-m.base/nofp\libc_nano.a(libc_a-findfp.o)
 .bss           0x00000000        0x0 D:/AppData/arm-gnu-toolchain-13.3.rel1-mingw-w64-i686-arm-none-eabi/bin/../lib/gcc/arm-none-eabi/13.3.1/thumb/v8-m.base/nofp\libc_nano.a(libc_a-findfp.o)
 .text.__fp_lock
                0x00000000       0x18 D:/AppData/arm-gnu-toolchain-13.3.rel1-mingw-w64-i686-arm-none-eabi/bin/../lib/gcc/arm-none-eabi/13.3.1/thumb/v8-m.base/nofp\libc_nano.a(libc_a-findfp.o)
 .text.__fp_unlock
                0x00000000       0x18 D:/AppData/arm-gnu-toolchain-13.3.rel1-mingw-w64-i686-arm-none-eabi/bin/../lib/gcc/arm-none-eabi/13.3.1/thumb/v8-m.base/nofp\libc_nano.a(libc_a-findfp.o)
 .text.__sfp    0x00000000       0xa4 D:/AppData/arm-gnu-toolchain-13.3.rel1-mingw-w64-i686-arm-none-eabi/bin/../lib/gcc/arm-none-eabi/13.3.1/thumb/v8-m.base/nofp\libc_nano.a(libc_a-findfp.o)
 .text.__fp_lock_all
                0x00000000       0x1c D:/AppData/arm-gnu-toolchain-13.3.rel1-mingw-w64-i686-arm-none-eabi/bin/../lib/gcc/arm-none-eabi/13.3.1/thumb/v8-m.base/nofp\libc_nano.a(libc_a-findfp.o)
 .text.__fp_unlock_all
                0x00000000       0x1c D:/AppData/arm-gnu-toolchain-13.3.rel1-mingw-w64-i686-arm-none-eabi/bin/../lib/gcc/arm-none-eabi/13.3.1/thumb/v8-m.base/nofp\libc_nano.a(libc_a-findfp.o)
 .text          0x00000000        0x0 D:/AppData/arm-gnu-toolchain-13.3.rel1-mingw-w64-i686-arm-none-eabi/bin/../lib/gcc/arm-none-eabi/13.3.1/thumb/v8-m.base/nofp\libc_nano.a(libc_a-fwalk.o)
 .data          0x00000000        0x0 D:/AppData/arm-gnu-toolchain-13.3.rel1-mingw-w64-i686-arm-none-eabi/bin/../lib/gcc/arm-none-eabi/13.3.1/thumb/v8-m.base/nofp\libc_nano.a(libc_a-fwalk.o)
 .bss           0x00000000        0x0 D:/AppData/arm-gnu-toolchain-13.3.rel1-mingw-w64-i686-arm-none-eabi/bin/../lib/gcc/arm-none-eabi/13.3.1/thumb/v8-m.base/nofp\libc_nano.a(libc_a-fwalk.o)
 .text          0x00000000        0x0 D:/AppData/arm-gnu-toolchain-13.3.rel1-mingw-w64-i686-arm-none-eabi/bin/../lib/gcc/arm-none-eabi/13.3.1/thumb/v8-m.base/nofp\libc_nano.a(libc_a-sprintf.o)
 .data          0x00000000        0x0 D:/AppData/arm-gnu-toolchain-13.3.rel1-mingw-w64-i686-arm-none-eabi/bin/../lib/gcc/arm-none-eabi/13.3.1/thumb/v8-m.base/nofp\libc_nano.a(libc_a-sprintf.o)
 .bss           0x00000000        0x0 D:/AppData/arm-gnu-toolchain-13.3.rel1-mingw-w64-i686-arm-none-eabi/bin/../lib/gcc/arm-none-eabi/13.3.1/thumb/v8-m.base/nofp\libc_nano.a(libc_a-sprintf.o)
 .text._sprintf_r
                0x00000000       0x3c D:/AppData/arm-gnu-toolchain-13.3.rel1-mingw-w64-i686-arm-none-eabi/bin/../lib/gcc/arm-none-eabi/13.3.1/thumb/v8-m.base/nofp\libc_nano.a(libc_a-sprintf.o)
 .text          0x00000000        0x0 D:/AppData/arm-gnu-toolchain-13.3.rel1-mingw-w64-i686-arm-none-eabi/bin/../lib/gcc/arm-none-eabi/13.3.1/thumb/v8-m.base/nofp\libc_nano.a(libc_a-stdio.o)
 .data          0x00000000        0x0 D:/AppData/arm-gnu-toolchain-13.3.rel1-mingw-w64-i686-arm-none-eabi/bin/../lib/gcc/arm-none-eabi/13.3.1/thumb/v8-m.base/nofp\libc_nano.a(libc_a-stdio.o)
 .bss           0x00000000        0x0 D:/AppData/arm-gnu-toolchain-13.3.rel1-mingw-w64-i686-arm-none-eabi/bin/../lib/gcc/arm-none-eabi/13.3.1/thumb/v8-m.base/nofp\libc_nano.a(libc_a-stdio.o)
 .text.__seofread
                0x00000000        0x4 D:/AppData/arm-gnu-toolchain-13.3.rel1-mingw-w64-i686-arm-none-eabi/bin/../lib/gcc/arm-none-eabi/13.3.1/thumb/v8-m.base/nofp\libc_nano.a(libc_a-stdio.o)
 .text          0x00000000        0x0 D:/AppData/arm-gnu-toolchain-13.3.rel1-mingw-w64-i686-arm-none-eabi/bin/../lib/gcc/arm-none-eabi/13.3.1/thumb/v8-m.base/nofp\libc_nano.a(libc_a-memset.o)
 .data          0x00000000        0x0 D:/AppData/arm-gnu-toolchain-13.3.rel1-mingw-w64-i686-arm-none-eabi/bin/../lib/gcc/arm-none-eabi/13.3.1/thumb/v8-m.base/nofp\libc_nano.a(libc_a-memset.o)
 .bss           0x00000000        0x0 D:/AppData/arm-gnu-toolchain-13.3.rel1-mingw-w64-i686-arm-none-eabi/bin/../lib/gcc/arm-none-eabi/13.3.1/thumb/v8-m.base/nofp\libc_nano.a(libc_a-memset.o)
 .text          0x00000000        0x0 D:/AppData/arm-gnu-toolchain-13.3.rel1-mingw-w64-i686-arm-none-eabi/bin/../lib/gcc/arm-none-eabi/13.3.1/thumb/v8-m.base/nofp\libc_nano.a(libc_a-localeconv.o)
 .data          0x00000000        0x0 D:/AppData/arm-gnu-toolchain-13.3.rel1-mingw-w64-i686-arm-none-eabi/bin/../lib/gcc/arm-none-eabi/13.3.1/thumb/v8-m.base/nofp\libc_nano.a(libc_a-localeconv.o)
 .bss           0x00000000        0x0 D:/AppData/arm-gnu-toolchain-13.3.rel1-mingw-w64-i686-arm-none-eabi/bin/../lib/gcc/arm-none-eabi/13.3.1/thumb/v8-m.base/nofp\libc_nano.a(libc_a-localeconv.o)
 .text.__localeconv_l
                0x00000000        0x4 D:/AppData/arm-gnu-toolchain-13.3.rel1-mingw-w64-i686-arm-none-eabi/bin/../lib/gcc/arm-none-eabi/13.3.1/thumb/v8-m.base/nofp\libc_nano.a(libc_a-localeconv.o)
 .text.localeconv
                0x00000000        0x8 D:/AppData/arm-gnu-toolchain-13.3.rel1-mingw-w64-i686-arm-none-eabi/bin/../lib/gcc/arm-none-eabi/13.3.1/thumb/v8-m.base/nofp\libc_nano.a(libc_a-localeconv.o)
 .text          0x00000000        0x0 D:/AppData/arm-gnu-toolchain-13.3.rel1-mingw-w64-i686-arm-none-eabi/bin/../lib/gcc/arm-none-eabi/13.3.1/thumb/v8-m.base/nofp\libc_nano.a(libc_a-closer.o)
 .data          0x00000000        0x0 D:/AppData/arm-gnu-toolchain-13.3.rel1-mingw-w64-i686-arm-none-eabi/bin/../lib/gcc/arm-none-eabi/13.3.1/thumb/v8-m.base/nofp\libc_nano.a(libc_a-closer.o)
 .bss           0x00000000        0x0 D:/AppData/arm-gnu-toolchain-13.3.rel1-mingw-w64-i686-arm-none-eabi/bin/../lib/gcc/arm-none-eabi/13.3.1/thumb/v8-m.base/nofp\libc_nano.a(libc_a-closer.o)
 .text          0x00000000        0x0 D:/AppData/arm-gnu-toolchain-13.3.rel1-mingw-w64-i686-arm-none-eabi/bin/../lib/gcc/arm-none-eabi/13.3.1/thumb/v8-m.base/nofp\libc_nano.a(libc_a-reent.o)
 .data          0x00000000        0x0 D:/AppData/arm-gnu-toolchain-13.3.rel1-mingw-w64-i686-arm-none-eabi/bin/../lib/gcc/arm-none-eabi/13.3.1/thumb/v8-m.base/nofp\libc_nano.a(libc_a-reent.o)
 .bss           0x00000000        0x0 D:/AppData/arm-gnu-toolchain-13.3.rel1-mingw-w64-i686-arm-none-eabi/bin/../lib/gcc/arm-none-eabi/13.3.1/thumb/v8-m.base/nofp\libc_nano.a(libc_a-reent.o)
 .text._reclaim_reent
                0x00000000       0xb8 D:/AppData/arm-gnu-toolchain-13.3.rel1-mingw-w64-i686-arm-none-eabi/bin/../lib/gcc/arm-none-eabi/13.3.1/thumb/v8-m.base/nofp\libc_nano.a(libc_a-reent.o)
 .text          0x00000000        0x0 D:/AppData/arm-gnu-toolchain-13.3.rel1-mingw-w64-i686-arm-none-eabi/bin/../lib/gcc/arm-none-eabi/13.3.1/thumb/v8-m.base/nofp\libc_nano.a(libc_a-impure.o)
 .data          0x00000000        0x0 D:/AppData/arm-gnu-toolchain-13.3.rel1-mingw-w64-i686-arm-none-eabi/bin/../lib/gcc/arm-none-eabi/13.3.1/thumb/v8-m.base/nofp\libc_nano.a(libc_a-impure.o)
 .bss           0x00000000        0x0 D:/AppData/arm-gnu-toolchain-13.3.rel1-mingw-w64-i686-arm-none-eabi/bin/../lib/gcc/arm-none-eabi/13.3.1/thumb/v8-m.base/nofp\libc_nano.a(libc_a-impure.o)
 .text          0x00000000        0x0 D:/AppData/arm-gnu-toolchain-13.3.rel1-mingw-w64-i686-arm-none-eabi/bin/../lib/gcc/arm-none-eabi/13.3.1/thumb/v8-m.base/nofp\libc_nano.a(libc_a-lseekr.o)
 .data          0x00000000        0x0 D:/AppData/arm-gnu-toolchain-13.3.rel1-mingw-w64-i686-arm-none-eabi/bin/../lib/gcc/arm-none-eabi/13.3.1/thumb/v8-m.base/nofp\libc_nano.a(libc_a-lseekr.o)
 .bss           0x00000000        0x0 D:/AppData/arm-gnu-toolchain-13.3.rel1-mingw-w64-i686-arm-none-eabi/bin/../lib/gcc/arm-none-eabi/13.3.1/thumb/v8-m.base/nofp\libc_nano.a(libc_a-lseekr.o)
 .text          0x00000000        0x0 D:/AppData/arm-gnu-toolchain-13.3.rel1-mingw-w64-i686-arm-none-eabi/bin/../lib/gcc/arm-none-eabi/13.3.1/thumb/v8-m.base/nofp\libc_nano.a(libc_a-readr.o)
 .data          0x00000000        0x0 D:/AppData/arm-gnu-toolchain-13.3.rel1-mingw-w64-i686-arm-none-eabi/bin/../lib/gcc/arm-none-eabi/13.3.1/thumb/v8-m.base/nofp\libc_nano.a(libc_a-readr.o)
 .bss           0x00000000        0x0 D:/AppData/arm-gnu-toolchain-13.3.rel1-mingw-w64-i686-arm-none-eabi/bin/../lib/gcc/arm-none-eabi/13.3.1/thumb/v8-m.base/nofp\libc_nano.a(libc_a-readr.o)
 .text          0x00000000        0x0 D:/AppData/arm-gnu-toolchain-13.3.rel1-mingw-w64-i686-arm-none-eabi/bin/../lib/gcc/arm-none-eabi/13.3.1/thumb/v8-m.base/nofp\libc_nano.a(libc_a-writer.o)
 .data          0x00000000        0x0 D:/AppData/arm-gnu-toolchain-13.3.rel1-mingw-w64-i686-arm-none-eabi/bin/../lib/gcc/arm-none-eabi/13.3.1/thumb/v8-m.base/nofp\libc_nano.a(libc_a-writer.o)
 .bss           0x00000000        0x0 D:/AppData/arm-gnu-toolchain-13.3.rel1-mingw-w64-i686-arm-none-eabi/bin/../lib/gcc/arm-none-eabi/13.3.1/thumb/v8-m.base/nofp\libc_nano.a(libc_a-writer.o)
 .text          0x00000000        0x0 D:/AppData/arm-gnu-toolchain-13.3.rel1-mingw-w64-i686-arm-none-eabi/bin/../lib/gcc/arm-none-eabi/13.3.1/thumb/v8-m.base/nofp\libc_nano.a(libc_a-init.o)
 .data          0x00000000        0x0 D:/AppData/arm-gnu-toolchain-13.3.rel1-mingw-w64-i686-arm-none-eabi/bin/../lib/gcc/arm-none-eabi/13.3.1/thumb/v8-m.base/nofp\libc_nano.a(libc_a-init.o)
 .bss           0x00000000        0x0 D:/AppData/arm-gnu-toolchain-13.3.rel1-mingw-w64-i686-arm-none-eabi/bin/../lib/gcc/arm-none-eabi/13.3.1/thumb/v8-m.base/nofp\libc_nano.a(libc_a-init.o)
 .text          0x00000000        0x0 D:/AppData/arm-gnu-toolchain-13.3.rel1-mingw-w64-i686-arm-none-eabi/bin/../lib/gcc/arm-none-eabi/13.3.1/thumb/v8-m.base/nofp\libc_nano.a(libc_a-lock.o)
 .data          0x00000000        0x0 D:/AppData/arm-gnu-toolchain-13.3.rel1-mingw-w64-i686-arm-none-eabi/bin/../lib/gcc/arm-none-eabi/13.3.1/thumb/v8-m.base/nofp\libc_nano.a(libc_a-lock.o)
 .bss           0x00000000        0x0 D:/AppData/arm-gnu-toolchain-13.3.rel1-mingw-w64-i686-arm-none-eabi/bin/../lib/gcc/arm-none-eabi/13.3.1/thumb/v8-m.base/nofp\libc_nano.a(libc_a-lock.o)
 .text.__retarget_lock_init
                0x00000000        0x2 D:/AppData/arm-gnu-toolchain-13.3.rel1-mingw-w64-i686-arm-none-eabi/bin/../lib/gcc/arm-none-eabi/13.3.1/thumb/v8-m.base/nofp\libc_nano.a(libc_a-lock.o)
 .text.__retarget_lock_close
                0x00000000        0x2 D:/AppData/arm-gnu-toolchain-13.3.rel1-mingw-w64-i686-arm-none-eabi/bin/../lib/gcc/arm-none-eabi/13.3.1/thumb/v8-m.base/nofp\libc_nano.a(libc_a-lock.o)
 .text.__retarget_lock_close_recursive
                0x00000000        0x2 D:/AppData/arm-gnu-toolchain-13.3.rel1-mingw-w64-i686-arm-none-eabi/bin/../lib/gcc/arm-none-eabi/13.3.1/thumb/v8-m.base/nofp\libc_nano.a(libc_a-lock.o)
 .text.__retarget_lock_acquire
                0x00000000        0x2 D:/AppData/arm-gnu-toolchain-13.3.rel1-mingw-w64-i686-arm-none-eabi/bin/../lib/gcc/arm-none-eabi/13.3.1/thumb/v8-m.base/nofp\libc_nano.a(libc_a-lock.o)
 .text.__retarget_lock_try_acquire
                0x00000000        0x4 D:/AppData/arm-gnu-toolchain-13.3.rel1-mingw-w64-i686-arm-none-eabi/bin/../lib/gcc/arm-none-eabi/13.3.1/thumb/v8-m.base/nofp\libc_nano.a(libc_a-lock.o)
 .text.__retarget_lock_try_acquire_recursive
                0x00000000        0x4 D:/AppData/arm-gnu-toolchain-13.3.rel1-mingw-w64-i686-arm-none-eabi/bin/../lib/gcc/arm-none-eabi/13.3.1/thumb/v8-m.base/nofp\libc_nano.a(libc_a-lock.o)
 .text.__retarget_lock_release
                0x00000000        0x2 D:/AppData/arm-gnu-toolchain-13.3.rel1-mingw-w64-i686-arm-none-eabi/bin/../lib/gcc/arm-none-eabi/13.3.1/thumb/v8-m.base/nofp\libc_nano.a(libc_a-lock.o)
 .bss.__lock___arc4random_mutex
                0x00000000        0x1 D:/AppData/arm-gnu-toolchain-13.3.rel1-mingw-w64-i686-arm-none-eabi/bin/../lib/gcc/arm-none-eabi/13.3.1/thumb/v8-m.base/nofp\libc_nano.a(libc_a-lock.o)
 .bss.__lock___dd_hash_mutex
                0x00000000        0x1 D:/AppData/arm-gnu-toolchain-13.3.rel1-mingw-w64-i686-arm-none-eabi/bin/../lib/gcc/arm-none-eabi/13.3.1/thumb/v8-m.base/nofp\libc_nano.a(libc_a-lock.o)
 .bss.__lock___tz_mutex
                0x00000000        0x1 D:/AppData/arm-gnu-toolchain-13.3.rel1-mingw-w64-i686-arm-none-eabi/bin/../lib/gcc/arm-none-eabi/13.3.1/thumb/v8-m.base/nofp\libc_nano.a(libc_a-lock.o)
 .bss.__lock___env_recursive_mutex
                0x00000000        0x1 D:/AppData/arm-gnu-toolchain-13.3.rel1-mingw-w64-i686-arm-none-eabi/bin/../lib/gcc/arm-none-eabi/13.3.1/thumb/v8-m.base/nofp\libc_nano.a(libc_a-lock.o)
 .bss.__lock___at_quick_exit_mutex
                0x00000000        0x1 D:/AppData/arm-gnu-toolchain-13.3.rel1-mingw-w64-i686-arm-none-eabi/bin/../lib/gcc/arm-none-eabi/13.3.1/thumb/v8-m.base/nofp\libc_nano.a(libc_a-lock.o)
 .bss.__lock___atexit_recursive_mutex
                0x00000000        0x1 D:/AppData/arm-gnu-toolchain-13.3.rel1-mingw-w64-i686-arm-none-eabi/bin/../lib/gcc/arm-none-eabi/13.3.1/thumb/v8-m.base/nofp\libc_nano.a(libc_a-lock.o)
 .text          0x00000000        0x0 D:/AppData/arm-gnu-toolchain-13.3.rel1-mingw-w64-i686-arm-none-eabi/bin/../lib/gcc/arm-none-eabi/13.3.1/thumb/v8-m.base/nofp\libc_nano.a(libc_a-memchr-stub.o)
 .data          0x00000000        0x0 D:/AppData/arm-gnu-toolchain-13.3.rel1-mingw-w64-i686-arm-none-eabi/bin/../lib/gcc/arm-none-eabi/13.3.1/thumb/v8-m.base/nofp\libc_nano.a(libc_a-memchr-stub.o)
 .bss           0x00000000        0x0 D:/AppData/arm-gnu-toolchain-13.3.rel1-mingw-w64-i686-arm-none-eabi/bin/../lib/gcc/arm-none-eabi/13.3.1/thumb/v8-m.base/nofp\libc_nano.a(libc_a-memchr-stub.o)
 .data          0x00000000        0x0 D:/AppData/arm-gnu-toolchain-13.3.rel1-mingw-w64-i686-arm-none-eabi/bin/../lib/gcc/arm-none-eabi/13.3.1/thumb/v8-m.base/nofp\libc_nano.a(libc_a-strlen.o)
 .bss           0x00000000        0x0 D:/AppData/arm-gnu-toolchain-13.3.rel1-mingw-w64-i686-arm-none-eabi/bin/../lib/gcc/arm-none-eabi/13.3.1/thumb/v8-m.base/nofp\libc_nano.a(libc_a-strlen.o)
 .text          0x00000000        0x0 D:/AppData/arm-gnu-toolchain-13.3.rel1-mingw-w64-i686-arm-none-eabi/bin/../lib/gcc/arm-none-eabi/13.3.1/thumb/v8-m.base/nofp\libc_nano.a(libm_a-sf_nan.o)
 .data          0x00000000        0x0 D:/AppData/arm-gnu-toolchain-13.3.rel1-mingw-w64-i686-arm-none-eabi/bin/../lib/gcc/arm-none-eabi/13.3.1/thumb/v8-m.base/nofp\libc_nano.a(libm_a-sf_nan.o)
 .bss           0x00000000        0x0 D:/AppData/arm-gnu-toolchain-13.3.rel1-mingw-w64-i686-arm-none-eabi/bin/../lib/gcc/arm-none-eabi/13.3.1/thumb/v8-m.base/nofp\libc_nano.a(libm_a-sf_nan.o)
 .text          0x00000000        0x0 D:/AppData/arm-gnu-toolchain-13.3.rel1-mingw-w64-i686-arm-none-eabi/bin/../lib/gcc/arm-none-eabi/13.3.1/thumb/v8-m.base/nofp\libc_nano.a(libc_a-dtoa.o)
 .data          0x00000000        0x0 D:/AppData/arm-gnu-toolchain-13.3.rel1-mingw-w64-i686-arm-none-eabi/bin/../lib/gcc/arm-none-eabi/13.3.1/thumb/v8-m.base/nofp\libc_nano.a(libc_a-dtoa.o)
 .bss           0x00000000        0x0 D:/AppData/arm-gnu-toolchain-13.3.rel1-mingw-w64-i686-arm-none-eabi/bin/../lib/gcc/arm-none-eabi/13.3.1/thumb/v8-m.base/nofp\libc_nano.a(libc_a-dtoa.o)
 .text          0x00000000        0x0 D:/AppData/arm-gnu-toolchain-13.3.rel1-mingw-w64-i686-arm-none-eabi/bin/../lib/gcc/arm-none-eabi/13.3.1/thumb/v8-m.base/nofp\libc_nano.a(libc_a-freer.o)
 .data          0x00000000        0x0 D:/AppData/arm-gnu-toolchain-13.3.rel1-mingw-w64-i686-arm-none-eabi/bin/../lib/gcc/arm-none-eabi/13.3.1/thumb/v8-m.base/nofp\libc_nano.a(libc_a-freer.o)
 .bss           0x00000000        0x0 D:/AppData/arm-gnu-toolchain-13.3.rel1-mingw-w64-i686-arm-none-eabi/bin/../lib/gcc/arm-none-eabi/13.3.1/thumb/v8-m.base/nofp\libc_nano.a(libc_a-freer.o)
 .text          0x00000000        0x0 D:/AppData/arm-gnu-toolchain-13.3.rel1-mingw-w64-i686-arm-none-eabi/bin/../lib/gcc/arm-none-eabi/13.3.1/thumb/v8-m.base/nofp\libc_nano.a(libc_a-malloc.o)
 .data          0x00000000        0x0 D:/AppData/arm-gnu-toolchain-13.3.rel1-mingw-w64-i686-arm-none-eabi/bin/../lib/gcc/arm-none-eabi/13.3.1/thumb/v8-m.base/nofp\libc_nano.a(libc_a-malloc.o)
 .bss           0x00000000        0x0 D:/AppData/arm-gnu-toolchain-13.3.rel1-mingw-w64-i686-arm-none-eabi/bin/../lib/gcc/arm-none-eabi/13.3.1/thumb/v8-m.base/nofp\libc_nano.a(libc_a-malloc.o)
 .text.free     0x00000000       0x14 D:/AppData/arm-gnu-toolchain-13.3.rel1-mingw-w64-i686-arm-none-eabi/bin/../lib/gcc/arm-none-eabi/13.3.1/thumb/v8-m.base/nofp\libc_nano.a(libc_a-malloc.o)
 .text          0x00000000        0x0 D:/AppData/arm-gnu-toolchain-13.3.rel1-mingw-w64-i686-arm-none-eabi/bin/../lib/gcc/arm-none-eabi/13.3.1/thumb/v8-m.base/nofp\libc_nano.a(libc_a-mallocr.o)
 .data          0x00000000        0x0 D:/AppData/arm-gnu-toolchain-13.3.rel1-mingw-w64-i686-arm-none-eabi/bin/../lib/gcc/arm-none-eabi/13.3.1/thumb/v8-m.base/nofp\libc_nano.a(libc_a-mallocr.o)
 .bss           0x00000000        0x0 D:/AppData/arm-gnu-toolchain-13.3.rel1-mingw-w64-i686-arm-none-eabi/bin/../lib/gcc/arm-none-eabi/13.3.1/thumb/v8-m.base/nofp\libc_nano.a(libc_a-mallocr.o)
 .text          0x00000000        0x0 D:/AppData/arm-gnu-toolchain-13.3.rel1-mingw-w64-i686-arm-none-eabi/bin/../lib/gcc/arm-none-eabi/13.3.1/thumb/v8-m.base/nofp\libc_nano.a(libc_a-mlock.o)
 .data          0x00000000        0x0 D:/AppData/arm-gnu-toolchain-13.3.rel1-mingw-w64-i686-arm-none-eabi/bin/../lib/gcc/arm-none-eabi/13.3.1/thumb/v8-m.base/nofp\libc_nano.a(libc_a-mlock.o)
 .bss           0x00000000        0x0 D:/AppData/arm-gnu-toolchain-13.3.rel1-mingw-w64-i686-arm-none-eabi/bin/../lib/gcc/arm-none-eabi/13.3.1/thumb/v8-m.base/nofp\libc_nano.a(libc_a-mlock.o)
 .text          0x00000000        0x0 D:/AppData/arm-gnu-toolchain-13.3.rel1-mingw-w64-i686-arm-none-eabi/bin/../lib/gcc/arm-none-eabi/13.3.1/thumb/v8-m.base/nofp\libc_nano.a(libc_a-mprec.o)
 .data          0x00000000        0x0 D:/AppData/arm-gnu-toolchain-13.3.rel1-mingw-w64-i686-arm-none-eabi/bin/../lib/gcc/arm-none-eabi/13.3.1/thumb/v8-m.base/nofp\libc_nano.a(libc_a-mprec.o)
 .bss           0x00000000        0x0 D:/AppData/arm-gnu-toolchain-13.3.rel1-mingw-w64-i686-arm-none-eabi/bin/../lib/gcc/arm-none-eabi/13.3.1/thumb/v8-m.base/nofp\libc_nano.a(libc_a-mprec.o)
 .text._mprec_log10
                0x00000000       0x34 D:/AppData/arm-gnu-toolchain-13.3.rel1-mingw-w64-i686-arm-none-eabi/bin/../lib/gcc/arm-none-eabi/13.3.1/thumb/v8-m.base/nofp\libc_nano.a(libc_a-mprec.o)
 .rodata.__mprec_tinytens
                0x00000000       0x28 D:/AppData/arm-gnu-toolchain-13.3.rel1-mingw-w64-i686-arm-none-eabi/bin/../lib/gcc/arm-none-eabi/13.3.1/thumb/v8-m.base/nofp\libc_nano.a(libc_a-mprec.o)
 .text          0x00000000        0x0 D:/AppData/arm-gnu-toolchain-13.3.rel1-mingw-w64-i686-arm-none-eabi/bin/../lib/gcc/arm-none-eabi/13.3.1/thumb/v8-m.base/nofp\libc_nano.a(libc_a-strtod.o)
 .data          0x00000000        0x0 D:/AppData/arm-gnu-toolchain-13.3.rel1-mingw-w64-i686-arm-none-eabi/bin/../lib/gcc/arm-none-eabi/13.3.1/thumb/v8-m.base/nofp\libc_nano.a(libc_a-strtod.o)
 .bss           0x00000000        0x0 D:/AppData/arm-gnu-toolchain-13.3.rel1-mingw-w64-i686-arm-none-eabi/bin/../lib/gcc/arm-none-eabi/13.3.1/thumb/v8-m.base/nofp\libc_nano.a(libc_a-strtod.o)
 .text.strtod_l
                0x00000000       0x18 D:/AppData/arm-gnu-toolchain-13.3.rel1-mingw-w64-i686-arm-none-eabi/bin/../lib/gcc/arm-none-eabi/13.3.1/thumb/v8-m.base/nofp\libc_nano.a(libc_a-strtod.o)
 .text.strtod   0x00000000       0x1c D:/AppData/arm-gnu-toolchain-13.3.rel1-mingw-w64-i686-arm-none-eabi/bin/../lib/gcc/arm-none-eabi/13.3.1/thumb/v8-m.base/nofp\libc_nano.a(libc_a-strtod.o)
 .text.strtof_l
                0x00000000       0xa4 D:/AppData/arm-gnu-toolchain-13.3.rel1-mingw-w64-i686-arm-none-eabi/bin/../lib/gcc/arm-none-eabi/13.3.1/thumb/v8-m.base/nofp\libc_nano.a(libc_a-strtod.o)
 .text.strtof   0x00000000       0xb8 D:/AppData/arm-gnu-toolchain-13.3.rel1-mingw-w64-i686-arm-none-eabi/bin/../lib/gcc/arm-none-eabi/13.3.1/thumb/v8-m.base/nofp\libc_nano.a(libc_a-strtod.o)
 .text          0x00000000        0x0 D:/AppData/arm-gnu-toolchain-13.3.rel1-mingw-w64-i686-arm-none-eabi/bin/../lib/gcc/arm-none-eabi/13.3.1/thumb/v8-m.base/nofp\libc_nano.a(libc_a-strtol.o)
 .data          0x00000000        0x0 D:/AppData/arm-gnu-toolchain-13.3.rel1-mingw-w64-i686-arm-none-eabi/bin/../lib/gcc/arm-none-eabi/13.3.1/thumb/v8-m.base/nofp\libc_nano.a(libc_a-strtol.o)
 .bss           0x00000000        0x0 D:/AppData/arm-gnu-toolchain-13.3.rel1-mingw-w64-i686-arm-none-eabi/bin/../lib/gcc/arm-none-eabi/13.3.1/thumb/v8-m.base/nofp\libc_nano.a(libc_a-strtol.o)
 .text.strtol_l
                0x00000000       0x18 D:/AppData/arm-gnu-toolchain-13.3.rel1-mingw-w64-i686-arm-none-eabi/bin/../lib/gcc/arm-none-eabi/13.3.1/thumb/v8-m.base/nofp\libc_nano.a(libc_a-strtol.o)
 .text.strtol   0x00000000       0x18 D:/AppData/arm-gnu-toolchain-13.3.rel1-mingw-w64-i686-arm-none-eabi/bin/../lib/gcc/arm-none-eabi/13.3.1/thumb/v8-m.base/nofp\libc_nano.a(libc_a-strtol.o)
 .text          0x00000000        0x0 D:/AppData/arm-gnu-toolchain-13.3.rel1-mingw-w64-i686-arm-none-eabi/bin/../lib/gcc/arm-none-eabi/13.3.1/thumb/v8-m.base/nofp\libc_nano.a(libc_a-ctype_.o)
 .data          0x00000000        0x0 D:/AppData/arm-gnu-toolchain-13.3.rel1-mingw-w64-i686-arm-none-eabi/bin/../lib/gcc/arm-none-eabi/13.3.1/thumb/v8-m.base/nofp\libc_nano.a(libc_a-ctype_.o)
 .bss           0x00000000        0x0 D:/AppData/arm-gnu-toolchain-13.3.rel1-mingw-w64-i686-arm-none-eabi/bin/../lib/gcc/arm-none-eabi/13.3.1/thumb/v8-m.base/nofp\libc_nano.a(libc_a-ctype_.o)
 .text          0x00000000        0x0 D:/AppData/arm-gnu-toolchain-13.3.rel1-mingw-w64-i686-arm-none-eabi/bin/../lib/gcc/arm-none-eabi/13.3.1/thumb/v8-m.base/nofp\libc_nano.a(libc_a-nano-svfprintf.o)
 .data          0x00000000        0x0 D:/AppData/arm-gnu-toolchain-13.3.rel1-mingw-w64-i686-arm-none-eabi/bin/../lib/gcc/arm-none-eabi/13.3.1/thumb/v8-m.base/nofp\libc_nano.a(libc_a-nano-svfprintf.o)
 .bss           0x00000000        0x0 D:/AppData/arm-gnu-toolchain-13.3.rel1-mingw-w64-i686-arm-none-eabi/bin/../lib/gcc/arm-none-eabi/13.3.1/thumb/v8-m.base/nofp\libc_nano.a(libc_a-nano-svfprintf.o)
 .text.__ssprint_r
                0x00000000      0x104 D:/AppData/arm-gnu-toolchain-13.3.rel1-mingw-w64-i686-arm-none-eabi/bin/../lib/gcc/arm-none-eabi/13.3.1/thumb/v8-m.base/nofp\libc_nano.a(libc_a-nano-svfprintf.o)
 .text          0x00000000        0x0 D:/AppData/arm-gnu-toolchain-13.3.rel1-mingw-w64-i686-arm-none-eabi/bin/../lib/gcc/arm-none-eabi/13.3.1/thumb/v8-m.base/nofp\libc_nano.a(libc_a-fflush.o)
 .data          0x00000000        0x0 D:/AppData/arm-gnu-toolchain-13.3.rel1-mingw-w64-i686-arm-none-eabi/bin/../lib/gcc/arm-none-eabi/13.3.1/thumb/v8-m.base/nofp\libc_nano.a(libc_a-fflush.o)
 .bss           0x00000000        0x0 D:/AppData/arm-gnu-toolchain-13.3.rel1-mingw-w64-i686-arm-none-eabi/bin/../lib/gcc/arm-none-eabi/13.3.1/thumb/v8-m.base/nofp\libc_nano.a(libc_a-fflush.o)
 .text.fflush   0x00000000       0x2c D:/AppData/arm-gnu-toolchain-13.3.rel1-mingw-w64-i686-arm-none-eabi/bin/../lib/gcc/arm-none-eabi/13.3.1/thumb/v8-m.base/nofp\libc_nano.a(libc_a-fflush.o)
 .text          0x00000000        0x0 D:/AppData/arm-gnu-toolchain-13.3.rel1-mingw-w64-i686-arm-none-eabi/bin/../lib/gcc/arm-none-eabi/13.3.1/thumb/v8-m.base/nofp\libc_nano.a(libc_a-memmove.o)
 .data          0x00000000        0x0 D:/AppData/arm-gnu-toolchain-13.3.rel1-mingw-w64-i686-arm-none-eabi/bin/../lib/gcc/arm-none-eabi/13.3.1/thumb/v8-m.base/nofp\libc_nano.a(libc_a-memmove.o)
 .bss           0x00000000        0x0 D:/AppData/arm-gnu-toolchain-13.3.rel1-mingw-w64-i686-arm-none-eabi/bin/../lib/gcc/arm-none-eabi/13.3.1/thumb/v8-m.base/nofp\libc_nano.a(libc_a-memmove.o)
 .text          0x00000000        0x0 D:/AppData/arm-gnu-toolchain-13.3.rel1-mingw-w64-i686-arm-none-eabi/bin/../lib/gcc/arm-none-eabi/13.3.1/thumb/v8-m.base/nofp\libc_nano.a(libc_a-strncmp.o)
 .data          0x00000000        0x0 D:/AppData/arm-gnu-toolchain-13.3.rel1-mingw-w64-i686-arm-none-eabi/bin/../lib/gcc/arm-none-eabi/13.3.1/thumb/v8-m.base/nofp\libc_nano.a(libc_a-strncmp.o)
 .bss           0x00000000        0x0 D:/AppData/arm-gnu-toolchain-13.3.rel1-mingw-w64-i686-arm-none-eabi/bin/../lib/gcc/arm-none-eabi/13.3.1/thumb/v8-m.base/nofp\libc_nano.a(libc_a-strncmp.o)
 .text          0x00000000        0x0 D:/AppData/arm-gnu-toolchain-13.3.rel1-mingw-w64-i686-arm-none-eabi/bin/../lib/gcc/arm-none-eabi/13.3.1/thumb/v8-m.base/nofp\libc_nano.a(libc_a-locale.o)
 .data          0x00000000        0x0 D:/AppData/arm-gnu-toolchain-13.3.rel1-mingw-w64-i686-arm-none-eabi/bin/../lib/gcc/arm-none-eabi/13.3.1/thumb/v8-m.base/nofp\libc_nano.a(libc_a-locale.o)
 .bss           0x00000000        0x0 D:/AppData/arm-gnu-toolchain-13.3.rel1-mingw-w64-i686-arm-none-eabi/bin/../lib/gcc/arm-none-eabi/13.3.1/thumb/v8-m.base/nofp\libc_nano.a(libc_a-locale.o)
 .text._setlocale_r
                0x00000000       0x3c D:/AppData/arm-gnu-toolchain-13.3.rel1-mingw-w64-i686-arm-none-eabi/bin/../lib/gcc/arm-none-eabi/13.3.1/thumb/v8-m.base/nofp\libc_nano.a(libc_a-locale.o)
 .text.__locale_mb_cur_max
                0x00000000       0x10 D:/AppData/arm-gnu-toolchain-13.3.rel1-mingw-w64-i686-arm-none-eabi/bin/../lib/gcc/arm-none-eabi/13.3.1/thumb/v8-m.base/nofp\libc_nano.a(libc_a-locale.o)
 .text.setlocale
                0x00000000       0x14 D:/AppData/arm-gnu-toolchain-13.3.rel1-mingw-w64-i686-arm-none-eabi/bin/../lib/gcc/arm-none-eabi/13.3.1/thumb/v8-m.base/nofp\libc_nano.a(libc_a-locale.o)
 .bss._PathLocale
                0x00000000        0x4 D:/AppData/arm-gnu-toolchain-13.3.rel1-mingw-w64-i686-arm-none-eabi/bin/../lib/gcc/arm-none-eabi/13.3.1/thumb/v8-m.base/nofp\libc_nano.a(libc_a-locale.o)
 .text          0x00000000        0x0 D:/AppData/arm-gnu-toolchain-13.3.rel1-mingw-w64-i686-arm-none-eabi/bin/../lib/gcc/arm-none-eabi/13.3.1/thumb/v8-m.base/nofp\libc_nano.a(libc_a-sbrkr.o)
 .data          0x00000000        0x0 D:/AppData/arm-gnu-toolchain-13.3.rel1-mingw-w64-i686-arm-none-eabi/bin/../lib/gcc/arm-none-eabi/13.3.1/thumb/v8-m.base/nofp\libc_nano.a(libc_a-sbrkr.o)
 .bss           0x00000000        0x0 D:/AppData/arm-gnu-toolchain-13.3.rel1-mingw-w64-i686-arm-none-eabi/bin/../lib/gcc/arm-none-eabi/13.3.1/thumb/v8-m.base/nofp\libc_nano.a(libc_a-sbrkr.o)
 .text          0x00000000        0x0 D:/AppData/arm-gnu-toolchain-13.3.rel1-mingw-w64-i686-arm-none-eabi/bin/../lib/gcc/arm-none-eabi/13.3.1/thumb/v8-m.base/nofp\libc_nano.a(libc_a-errno.o)
 .data          0x00000000        0x0 D:/AppData/arm-gnu-toolchain-13.3.rel1-mingw-w64-i686-arm-none-eabi/bin/../lib/gcc/arm-none-eabi/13.3.1/thumb/v8-m.base/nofp\libc_nano.a(libc_a-errno.o)
 .bss           0x00000000        0x0 D:/AppData/arm-gnu-toolchain-13.3.rel1-mingw-w64-i686-arm-none-eabi/bin/../lib/gcc/arm-none-eabi/13.3.1/thumb/v8-m.base/nofp\libc_nano.a(libc_a-errno.o)
 .text          0x00000000       0x14 D:/AppData/arm-gnu-toolchain-13.3.rel1-mingw-w64-i686-arm-none-eabi/bin/../lib/gcc/arm-none-eabi/13.3.1/thumb/v8-m.base/nofp\libc_nano.a(libc_a-strcmp.o)
 .data          0x00000000        0x0 D:/AppData/arm-gnu-toolchain-13.3.rel1-mingw-w64-i686-arm-none-eabi/bin/../lib/gcc/arm-none-eabi/13.3.1/thumb/v8-m.base/nofp\libc_nano.a(libc_a-strcmp.o)
 .bss           0x00000000        0x0 D:/AppData/arm-gnu-toolchain-13.3.rel1-mingw-w64-i686-arm-none-eabi/bin/../lib/gcc/arm-none-eabi/13.3.1/thumb/v8-m.base/nofp\libc_nano.a(libc_a-strcmp.o)
 .debug_line_str
                0x00000000       0xe9 D:/AppData/arm-gnu-toolchain-13.3.rel1-mingw-w64-i686-arm-none-eabi/bin/../lib/gcc/arm-none-eabi/13.3.1/thumb/v8-m.base/nofp\libc_nano.a(libc_a-strcmp.o)
 .debug_frame   0x00000000       0x20 D:/AppData/arm-gnu-toolchain-13.3.rel1-mingw-w64-i686-arm-none-eabi/bin/../lib/gcc/arm-none-eabi/13.3.1/thumb/v8-m.base/nofp\libc_nano.a(libc_a-strcmp.o)
 .ARM.attributes
                0x00000000       0x1c D:/AppData/arm-gnu-toolchain-13.3.rel1-mingw-w64-i686-arm-none-eabi/bin/../lib/gcc/arm-none-eabi/13.3.1/thumb/v8-m.base/nofp\libc_nano.a(libc_a-strcmp.o)
 .text          0x00000000        0x0 D:/AppData/arm-gnu-toolchain-13.3.rel1-mingw-w64-i686-arm-none-eabi/bin/../lib/gcc/arm-none-eabi/13.3.1/thumb/v8-m.base/nofp\libc_nano.a(libc_a-memcpy-stub.o)
 .data          0x00000000        0x0 D:/AppData/arm-gnu-toolchain-13.3.rel1-mingw-w64-i686-arm-none-eabi/bin/../lib/gcc/arm-none-eabi/13.3.1/thumb/v8-m.base/nofp\libc_nano.a(libc_a-memcpy-stub.o)
 .bss           0x00000000        0x0 D:/AppData/arm-gnu-toolchain-13.3.rel1-mingw-w64-i686-arm-none-eabi/bin/../lib/gcc/arm-none-eabi/13.3.1/thumb/v8-m.base/nofp\libc_nano.a(libc_a-memcpy-stub.o)
 .text          0x00000000        0x0 D:/AppData/arm-gnu-toolchain-13.3.rel1-mingw-w64-i686-arm-none-eabi/bin/../lib/gcc/arm-none-eabi/13.3.1/thumb/v8-m.base/nofp\libc_nano.a(libm_a-s_nan.o)
 .data          0x00000000        0x0 D:/AppData/arm-gnu-toolchain-13.3.rel1-mingw-w64-i686-arm-none-eabi/bin/../lib/gcc/arm-none-eabi/13.3.1/thumb/v8-m.base/nofp\libc_nano.a(libm_a-s_nan.o)
 .bss           0x00000000        0x0 D:/AppData/arm-gnu-toolchain-13.3.rel1-mingw-w64-i686-arm-none-eabi/bin/../lib/gcc/arm-none-eabi/13.3.1/thumb/v8-m.base/nofp\libc_nano.a(libm_a-s_nan.o)
 .text          0x00000000        0x0 D:/AppData/arm-gnu-toolchain-13.3.rel1-mingw-w64-i686-arm-none-eabi/bin/../lib/gcc/arm-none-eabi/13.3.1/thumb/v8-m.base/nofp\libc_nano.a(libc_a-assert.o)
 .data          0x00000000        0x0 D:/AppData/arm-gnu-toolchain-13.3.rel1-mingw-w64-i686-arm-none-eabi/bin/../lib/gcc/arm-none-eabi/13.3.1/thumb/v8-m.base/nofp\libc_nano.a(libc_a-assert.o)
 .bss           0x00000000        0x0 D:/AppData/arm-gnu-toolchain-13.3.rel1-mingw-w64-i686-arm-none-eabi/bin/../lib/gcc/arm-none-eabi/13.3.1/thumb/v8-m.base/nofp\libc_nano.a(libc_a-assert.o)
 .text.__assert
                0x00000000        0xa D:/AppData/arm-gnu-toolchain-13.3.rel1-mingw-w64-i686-arm-none-eabi/bin/../lib/gcc/arm-none-eabi/13.3.1/thumb/v8-m.base/nofp\libc_nano.a(libc_a-assert.o)
 .text          0x00000000        0x0 D:/AppData/arm-gnu-toolchain-13.3.rel1-mingw-w64-i686-arm-none-eabi/bin/../lib/gcc/arm-none-eabi/13.3.1/thumb/v8-m.base/nofp\libc_nano.a(libc_a-callocr.o)
 .data          0x00000000        0x0 D:/AppData/arm-gnu-toolchain-13.3.rel1-mingw-w64-i686-arm-none-eabi/bin/../lib/gcc/arm-none-eabi/13.3.1/thumb/v8-m.base/nofp\libc_nano.a(libc_a-callocr.o)
 .bss           0x00000000        0x0 D:/AppData/arm-gnu-toolchain-13.3.rel1-mingw-w64-i686-arm-none-eabi/bin/../lib/gcc/arm-none-eabi/13.3.1/thumb/v8-m.base/nofp\libc_nano.a(libc_a-callocr.o)
 .text          0x00000000        0x0 D:/AppData/arm-gnu-toolchain-13.3.rel1-mingw-w64-i686-arm-none-eabi/bin/../lib/gcc/arm-none-eabi/13.3.1/thumb/v8-m.base/nofp\libc_nano.a(libc_a-gdtoa-gethex.o)
 .data          0x00000000        0x0 D:/AppData/arm-gnu-toolchain-13.3.rel1-mingw-w64-i686-arm-none-eabi/bin/../lib/gcc/arm-none-eabi/13.3.1/thumb/v8-m.base/nofp\libc_nano.a(libc_a-gdtoa-gethex.o)
 .bss           0x00000000        0x0 D:/AppData/arm-gnu-toolchain-13.3.rel1-mingw-w64-i686-arm-none-eabi/bin/../lib/gcc/arm-none-eabi/13.3.1/thumb/v8-m.base/nofp\libc_nano.a(libc_a-gdtoa-gethex.o)
 .text          0x00000000        0x0 D:/AppData/arm-gnu-toolchain-13.3.rel1-mingw-w64-i686-arm-none-eabi/bin/../lib/gcc/arm-none-eabi/13.3.1/thumb/v8-m.base/nofp\libc_nano.a(libc_a-gdtoa-hexnan.o)
 .data          0x00000000        0x0 D:/AppData/arm-gnu-toolchain-13.3.rel1-mingw-w64-i686-arm-none-eabi/bin/../lib/gcc/arm-none-eabi/13.3.1/thumb/v8-m.base/nofp\libc_nano.a(libc_a-gdtoa-hexnan.o)
 .bss           0x00000000        0x0 D:/AppData/arm-gnu-toolchain-13.3.rel1-mingw-w64-i686-arm-none-eabi/bin/../lib/gcc/arm-none-eabi/13.3.1/thumb/v8-m.base/nofp\libc_nano.a(libc_a-gdtoa-hexnan.o)
 .text          0x00000000        0x0 D:/AppData/arm-gnu-toolchain-13.3.rel1-mingw-w64-i686-arm-none-eabi/bin/../lib/gcc/arm-none-eabi/13.3.1/thumb/v8-m.base/nofp\libc_nano.a(libc_a-mbtowc_r.o)
 .data          0x00000000        0x0 D:/AppData/arm-gnu-toolchain-13.3.rel1-mingw-w64-i686-arm-none-eabi/bin/../lib/gcc/arm-none-eabi/13.3.1/thumb/v8-m.base/nofp\libc_nano.a(libc_a-mbtowc_r.o)
 .bss           0x00000000        0x0 D:/AppData/arm-gnu-toolchain-13.3.rel1-mingw-w64-i686-arm-none-eabi/bin/../lib/gcc/arm-none-eabi/13.3.1/thumb/v8-m.base/nofp\libc_nano.a(libc_a-mbtowc_r.o)
 .text._mbtowc_r
                0x00000000       0x14 D:/AppData/arm-gnu-toolchain-13.3.rel1-mingw-w64-i686-arm-none-eabi/bin/../lib/gcc/arm-none-eabi/13.3.1/thumb/v8-m.base/nofp\libc_nano.a(libc_a-mbtowc_r.o)
 .text          0x00000000        0x0 D:/AppData/arm-gnu-toolchain-13.3.rel1-mingw-w64-i686-arm-none-eabi/bin/../lib/gcc/arm-none-eabi/13.3.1/thumb/v8-m.base/nofp\libc_nano.a(libc_a-reallocr.o)
 .data          0x00000000        0x0 D:/AppData/arm-gnu-toolchain-13.3.rel1-mingw-w64-i686-arm-none-eabi/bin/../lib/gcc/arm-none-eabi/13.3.1/thumb/v8-m.base/nofp\libc_nano.a(libc_a-reallocr.o)
 .bss           0x00000000        0x0 D:/AppData/arm-gnu-toolchain-13.3.rel1-mingw-w64-i686-arm-none-eabi/bin/../lib/gcc/arm-none-eabi/13.3.1/thumb/v8-m.base/nofp\libc_nano.a(libc_a-reallocr.o)
 .text          0x00000000        0x0 D:/AppData/arm-gnu-toolchain-13.3.rel1-mingw-w64-i686-arm-none-eabi/bin/../lib/gcc/arm-none-eabi/13.3.1/thumb/v8-m.base/nofp\libc_nano.a(libc_a-wctomb_r.o)
 .data          0x00000000        0x0 D:/AppData/arm-gnu-toolchain-13.3.rel1-mingw-w64-i686-arm-none-eabi/bin/../lib/gcc/arm-none-eabi/13.3.1/thumb/v8-m.base/nofp\libc_nano.a(libc_a-wctomb_r.o)
 .bss           0x00000000        0x0 D:/AppData/arm-gnu-toolchain-13.3.rel1-mingw-w64-i686-arm-none-eabi/bin/../lib/gcc/arm-none-eabi/13.3.1/thumb/v8-m.base/nofp\libc_nano.a(libc_a-wctomb_r.o)
 .text._wctomb_r
                0x00000000       0x10 D:/AppData/arm-gnu-toolchain-13.3.rel1-mingw-w64-i686-arm-none-eabi/bin/../lib/gcc/arm-none-eabi/13.3.1/thumb/v8-m.base/nofp\libc_nano.a(libc_a-wctomb_r.o)
 .text          0x00000000        0x0 D:/AppData/arm-gnu-toolchain-13.3.rel1-mingw-w64-i686-arm-none-eabi/bin/../lib/gcc/arm-none-eabi/13.3.1/thumb/v8-m.base/nofp\libc_nano.a(libc_a-fprintf.o)
 .data          0x00000000        0x0 D:/AppData/arm-gnu-toolchain-13.3.rel1-mingw-w64-i686-arm-none-eabi/bin/../lib/gcc/arm-none-eabi/13.3.1/thumb/v8-m.base/nofp\libc_nano.a(libc_a-fprintf.o)
 .bss           0x00000000        0x0 D:/AppData/arm-gnu-toolchain-13.3.rel1-mingw-w64-i686-arm-none-eabi/bin/../lib/gcc/arm-none-eabi/13.3.1/thumb/v8-m.base/nofp\libc_nano.a(libc_a-fprintf.o)
 .text._fprintf_r
                0x00000000       0x16 D:/AppData/arm-gnu-toolchain-13.3.rel1-mingw-w64-i686-arm-none-eabi/bin/../lib/gcc/arm-none-eabi/13.3.1/thumb/v8-m.base/nofp\libc_nano.a(libc_a-fprintf.o)
 .text          0x00000000        0x0 D:/AppData/arm-gnu-toolchain-13.3.rel1-mingw-w64-i686-arm-none-eabi/bin/../lib/gcc/arm-none-eabi/13.3.1/thumb/v8-m.base/nofp\libc_nano.a(libc_a-abort.o)
 .data          0x00000000        0x0 D:/AppData/arm-gnu-toolchain-13.3.rel1-mingw-w64-i686-arm-none-eabi/bin/../lib/gcc/arm-none-eabi/13.3.1/thumb/v8-m.base/nofp\libc_nano.a(libc_a-abort.o)
 .bss           0x00000000        0x0 D:/AppData/arm-gnu-toolchain-13.3.rel1-mingw-w64-i686-arm-none-eabi/bin/../lib/gcc/arm-none-eabi/13.3.1/thumb/v8-m.base/nofp\libc_nano.a(libc_a-abort.o)
 .text          0x00000000        0x0 D:/AppData/arm-gnu-toolchain-13.3.rel1-mingw-w64-i686-arm-none-eabi/bin/../lib/gcc/arm-none-eabi/13.3.1/thumb/v8-m.base/nofp\libc_nano.a(libc_a-msizer.o)
 .data          0x00000000        0x0 D:/AppData/arm-gnu-toolchain-13.3.rel1-mingw-w64-i686-arm-none-eabi/bin/../lib/gcc/arm-none-eabi/13.3.1/thumb/v8-m.base/nofp\libc_nano.a(libc_a-msizer.o)
 .bss           0x00000000        0x0 D:/AppData/arm-gnu-toolchain-13.3.rel1-mingw-w64-i686-arm-none-eabi/bin/../lib/gcc/arm-none-eabi/13.3.1/thumb/v8-m.base/nofp\libc_nano.a(libc_a-msizer.o)
 .text          0x00000000        0x0 D:/AppData/arm-gnu-toolchain-13.3.rel1-mingw-w64-i686-arm-none-eabi/bin/../lib/gcc/arm-none-eabi/13.3.1/thumb/v8-m.base/nofp\libc_nano.a(libc_a-nano-vfprintf.o)
 .data          0x00000000        0x0 D:/AppData/arm-gnu-toolchain-13.3.rel1-mingw-w64-i686-arm-none-eabi/bin/../lib/gcc/arm-none-eabi/13.3.1/thumb/v8-m.base/nofp\libc_nano.a(libc_a-nano-vfprintf.o)
 .bss           0x00000000        0x0 D:/AppData/arm-gnu-toolchain-13.3.rel1-mingw-w64-i686-arm-none-eabi/bin/../lib/gcc/arm-none-eabi/13.3.1/thumb/v8-m.base/nofp\libc_nano.a(libc_a-nano-vfprintf.o)
 .text.__sprint_r
                0x00000000       0x1e D:/AppData/arm-gnu-toolchain-13.3.rel1-mingw-w64-i686-arm-none-eabi/bin/../lib/gcc/arm-none-eabi/13.3.1/thumb/v8-m.base/nofp\libc_nano.a(libc_a-nano-vfprintf.o)
 .text.vfprintf
                0x00000000       0x18 D:/AppData/arm-gnu-toolchain-13.3.rel1-mingw-w64-i686-arm-none-eabi/bin/../lib/gcc/arm-none-eabi/13.3.1/thumb/v8-m.base/nofp\libc_nano.a(libc_a-nano-vfprintf.o)
 .text          0x00000000        0x0 D:/AppData/arm-gnu-toolchain-13.3.rel1-mingw-w64-i686-arm-none-eabi/bin/../lib/gcc/arm-none-eabi/13.3.1/thumb/v8-m.base/nofp\libc_nano.a(libc_a-fvwrite.o)
 .data          0x00000000        0x0 D:/AppData/arm-gnu-toolchain-13.3.rel1-mingw-w64-i686-arm-none-eabi/bin/../lib/gcc/arm-none-eabi/13.3.1/thumb/v8-m.base/nofp\libc_nano.a(libc_a-fvwrite.o)
 .bss           0x00000000        0x0 D:/AppData/arm-gnu-toolchain-13.3.rel1-mingw-w64-i686-arm-none-eabi/bin/../lib/gcc/arm-none-eabi/13.3.1/thumb/v8-m.base/nofp\libc_nano.a(libc_a-fvwrite.o)
 .text.__sfvwrite_r
                0x00000000      0x2b0 D:/AppData/arm-gnu-toolchain-13.3.rel1-mingw-w64-i686-arm-none-eabi/bin/../lib/gcc/arm-none-eabi/13.3.1/thumb/v8-m.base/nofp\libc_nano.a(libc_a-fvwrite.o)
 .debug_frame   0x00000000       0x30 D:/AppData/arm-gnu-toolchain-13.3.rel1-mingw-w64-i686-arm-none-eabi/bin/../lib/gcc/arm-none-eabi/13.3.1/thumb/v8-m.base/nofp\libc_nano.a(libc_a-fvwrite.o)
 .ARM.attributes
                0x00000000       0x30 D:/AppData/arm-gnu-toolchain-13.3.rel1-mingw-w64-i686-arm-none-eabi/bin/../lib/gcc/arm-none-eabi/13.3.1/thumb/v8-m.base/nofp\libc_nano.a(libc_a-fvwrite.o)
 .text          0x00000000        0x0 D:/AppData/arm-gnu-toolchain-13.3.rel1-mingw-w64-i686-arm-none-eabi/bin/../lib/gcc/arm-none-eabi/13.3.1/thumb/v8-m.base/nofp\libc_nano.a(libc_a-wbuf.o)
 .data          0x00000000        0x0 D:/AppData/arm-gnu-toolchain-13.3.rel1-mingw-w64-i686-arm-none-eabi/bin/../lib/gcc/arm-none-eabi/13.3.1/thumb/v8-m.base/nofp\libc_nano.a(libc_a-wbuf.o)
 .bss           0x00000000        0x0 D:/AppData/arm-gnu-toolchain-13.3.rel1-mingw-w64-i686-arm-none-eabi/bin/../lib/gcc/arm-none-eabi/13.3.1/thumb/v8-m.base/nofp\libc_nano.a(libc_a-wbuf.o)
 .text.__swbuf  0x00000000       0x14 D:/AppData/arm-gnu-toolchain-13.3.rel1-mingw-w64-i686-arm-none-eabi/bin/../lib/gcc/arm-none-eabi/13.3.1/thumb/v8-m.base/nofp\libc_nano.a(libc_a-wbuf.o)
 .text          0x00000000        0x0 D:/AppData/arm-gnu-toolchain-13.3.rel1-mingw-w64-i686-arm-none-eabi/bin/../lib/gcc/arm-none-eabi/13.3.1/thumb/v8-m.base/nofp\libc_nano.a(libc_a-wsetup.o)
 .data          0x00000000        0x0 D:/AppData/arm-gnu-toolchain-13.3.rel1-mingw-w64-i686-arm-none-eabi/bin/../lib/gcc/arm-none-eabi/13.3.1/thumb/v8-m.base/nofp\libc_nano.a(libc_a-wsetup.o)
 .bss           0x00000000        0x0 D:/AppData/arm-gnu-toolchain-13.3.rel1-mingw-w64-i686-arm-none-eabi/bin/../lib/gcc/arm-none-eabi/13.3.1/thumb/v8-m.base/nofp\libc_nano.a(libc_a-wsetup.o)
 .text          0x00000000        0x0 D:/AppData/arm-gnu-toolchain-13.3.rel1-mingw-w64-i686-arm-none-eabi/bin/../lib/gcc/arm-none-eabi/13.3.1/thumb/v8-m.base/nofp\libc_nano.a(libc_a-signal.o)
 .data          0x00000000        0x0 D:/AppData/arm-gnu-toolchain-13.3.rel1-mingw-w64-i686-arm-none-eabi/bin/../lib/gcc/arm-none-eabi/13.3.1/thumb/v8-m.base/nofp\libc_nano.a(libc_a-signal.o)
 .bss           0x00000000        0x0 D:/AppData/arm-gnu-toolchain-13.3.rel1-mingw-w64-i686-arm-none-eabi/bin/../lib/gcc/arm-none-eabi/13.3.1/thumb/v8-m.base/nofp\libc_nano.a(libc_a-signal.o)
 .text._init_signal_r
                0x00000000       0x26 D:/AppData/arm-gnu-toolchain-13.3.rel1-mingw-w64-i686-arm-none-eabi/bin/../lib/gcc/arm-none-eabi/13.3.1/thumb/v8-m.base/nofp\libc_nano.a(libc_a-signal.o)
 .text._signal_r
                0x00000000       0x30 D:/AppData/arm-gnu-toolchain-13.3.rel1-mingw-w64-i686-arm-none-eabi/bin/../lib/gcc/arm-none-eabi/13.3.1/thumb/v8-m.base/nofp\libc_nano.a(libc_a-signal.o)
 .text.__sigtramp_r
                0x00000000       0x44 D:/AppData/arm-gnu-toolchain-13.3.rel1-mingw-w64-i686-arm-none-eabi/bin/../lib/gcc/arm-none-eabi/13.3.1/thumb/v8-m.base/nofp\libc_nano.a(libc_a-signal.o)
 .text.signal   0x00000000       0x14 D:/AppData/arm-gnu-toolchain-13.3.rel1-mingw-w64-i686-arm-none-eabi/bin/../lib/gcc/arm-none-eabi/13.3.1/thumb/v8-m.base/nofp\libc_nano.a(libc_a-signal.o)
 .text._init_signal
                0x00000000       0x10 D:/AppData/arm-gnu-toolchain-13.3.rel1-mingw-w64-i686-arm-none-eabi/bin/../lib/gcc/arm-none-eabi/13.3.1/thumb/v8-m.base/nofp\libc_nano.a(libc_a-signal.o)
 .text.__sigtramp
                0x00000000       0x14 D:/AppData/arm-gnu-toolchain-13.3.rel1-mingw-w64-i686-arm-none-eabi/bin/../lib/gcc/arm-none-eabi/13.3.1/thumb/v8-m.base/nofp\libc_nano.a(libc_a-signal.o)
 .text          0x00000000        0x0 D:/AppData/arm-gnu-toolchain-13.3.rel1-mingw-w64-i686-arm-none-eabi/bin/../lib/gcc/arm-none-eabi/13.3.1/thumb/v8-m.base/nofp\libc_nano.a(libc_a-signalr.o)
 .data          0x00000000        0x0 D:/AppData/arm-gnu-toolchain-13.3.rel1-mingw-w64-i686-arm-none-eabi/bin/../lib/gcc/arm-none-eabi/13.3.1/thumb/v8-m.base/nofp\libc_nano.a(libc_a-signalr.o)
 .bss           0x00000000        0x0 D:/AppData/arm-gnu-toolchain-13.3.rel1-mingw-w64-i686-arm-none-eabi/bin/../lib/gcc/arm-none-eabi/13.3.1/thumb/v8-m.base/nofp\libc_nano.a(libc_a-signalr.o)
 .text          0x00000000        0x0 D:/AppData/arm-gnu-toolchain-13.3.rel1-mingw-w64-i686-arm-none-eabi/bin/../lib/gcc/arm-none-eabi/13.3.1/thumb/v8-m.base/nofp\libc_nano.a(libc_a-makebuf.o)
 .data          0x00000000        0x0 D:/AppData/arm-gnu-toolchain-13.3.rel1-mingw-w64-i686-arm-none-eabi/bin/../lib/gcc/arm-none-eabi/13.3.1/thumb/v8-m.base/nofp\libc_nano.a(libc_a-makebuf.o)
 .bss           0x00000000        0x0 D:/AppData/arm-gnu-toolchain-13.3.rel1-mingw-w64-i686-arm-none-eabi/bin/../lib/gcc/arm-none-eabi/13.3.1/thumb/v8-m.base/nofp\libc_nano.a(libc_a-makebuf.o)
 .text          0x00000000        0x0 D:/AppData/arm-gnu-toolchain-13.3.rel1-mingw-w64-i686-arm-none-eabi/bin/../lib/gcc/arm-none-eabi/13.3.1/thumb/v8-m.base/nofp\libc_nano.a(libc_a-fstatr.o)
 .data          0x00000000        0x0 D:/AppData/arm-gnu-toolchain-13.3.rel1-mingw-w64-i686-arm-none-eabi/bin/../lib/gcc/arm-none-eabi/13.3.1/thumb/v8-m.base/nofp\libc_nano.a(libc_a-fstatr.o)
 .bss           0x00000000        0x0 D:/AppData/arm-gnu-toolchain-13.3.rel1-mingw-w64-i686-arm-none-eabi/bin/../lib/gcc/arm-none-eabi/13.3.1/thumb/v8-m.base/nofp\libc_nano.a(libc_a-fstatr.o)
 .text          0x00000000        0x0 D:/AppData/arm-gnu-toolchain-13.3.rel1-mingw-w64-i686-arm-none-eabi/bin/../lib/gcc/arm-none-eabi/13.3.1/thumb/v8-m.base/nofp\libc_nano.a(libc_a-isattyr.o)
 .data          0x00000000        0x0 D:/AppData/arm-gnu-toolchain-13.3.rel1-mingw-w64-i686-arm-none-eabi/bin/../lib/gcc/arm-none-eabi/13.3.1/thumb/v8-m.base/nofp\libc_nano.a(libc_a-isattyr.o)
 .bss           0x00000000        0x0 D:/AppData/arm-gnu-toolchain-13.3.rel1-mingw-w64-i686-arm-none-eabi/bin/../lib/gcc/arm-none-eabi/13.3.1/thumb/v8-m.base/nofp\libc_nano.a(libc_a-isattyr.o)
 .data          0x00000000        0x0 D:/AppData/arm-gnu-toolchain-13.3.rel1-mingw-w64-i686-arm-none-eabi/bin/../lib/gcc/arm-none-eabi/13.3.1/thumb/v8-m.base/nofp\libgcc.a(_thumb1_case_uqi.o)
 .bss           0x00000000        0x0 D:/AppData/arm-gnu-toolchain-13.3.rel1-mingw-w64-i686-arm-none-eabi/bin/../lib/gcc/arm-none-eabi/13.3.1/thumb/v8-m.base/nofp\libgcc.a(_thumb1_case_uqi.o)
 .data          0x00000000        0x0 D:/AppData/arm-gnu-toolchain-13.3.rel1-mingw-w64-i686-arm-none-eabi/bin/../lib/gcc/arm-none-eabi/13.3.1/thumb/v8-m.base/nofp\libgcc.a(_thumb1_case_shi.o)
 .bss           0x00000000        0x0 D:/AppData/arm-gnu-toolchain-13.3.rel1-mingw-w64-i686-arm-none-eabi/bin/../lib/gcc/arm-none-eabi/13.3.1/thumb/v8-m.base/nofp\libgcc.a(_thumb1_case_shi.o)
 .data          0x00000000        0x0 D:/AppData/arm-gnu-toolchain-13.3.rel1-mingw-w64-i686-arm-none-eabi/bin/../lib/gcc/arm-none-eabi/13.3.1/thumb/v8-m.base/nofp\libgcc.a(_arm_cmpdf2.o)
 .bss           0x00000000        0x0 D:/AppData/arm-gnu-toolchain-13.3.rel1-mingw-w64-i686-arm-none-eabi/bin/../lib/gcc/arm-none-eabi/13.3.1/thumb/v8-m.base/nofp\libgcc.a(_arm_cmpdf2.o)
 .data          0x00000000        0x0 D:/AppData/arm-gnu-toolchain-13.3.rel1-mingw-w64-i686-arm-none-eabi/bin/../lib/gcc/arm-none-eabi/13.3.1/thumb/v8-m.base/nofp\libgcc.a(_arm_cmpsf2.o)
 .bss           0x00000000        0x0 D:/AppData/arm-gnu-toolchain-13.3.rel1-mingw-w64-i686-arm-none-eabi/bin/../lib/gcc/arm-none-eabi/13.3.1/thumb/v8-m.base/nofp\libgcc.a(_arm_cmpsf2.o)
 .text          0x00000000        0x0 D:/AppData/arm-gnu-toolchain-13.3.rel1-mingw-w64-i686-arm-none-eabi/bin/../lib/gcc/arm-none-eabi/13.3.1/thumb/v8-m.base/nofp\libgcc.a(_fixunssfsi.o)
 .data          0x00000000        0x0 D:/AppData/arm-gnu-toolchain-13.3.rel1-mingw-w64-i686-arm-none-eabi/bin/../lib/gcc/arm-none-eabi/13.3.1/thumb/v8-m.base/nofp\libgcc.a(_fixunssfsi.o)
 .bss           0x00000000        0x0 D:/AppData/arm-gnu-toolchain-13.3.rel1-mingw-w64-i686-arm-none-eabi/bin/../lib/gcc/arm-none-eabi/13.3.1/thumb/v8-m.base/nofp\libgcc.a(_fixunssfsi.o)
 .text          0x00000000        0x0 D:/AppData/arm-gnu-toolchain-13.3.rel1-mingw-w64-i686-arm-none-eabi/bin/../lib/gcc/arm-none-eabi/13.3.1/thumb/v8-m.base/nofp\libgcc.a(_fixunsdfsi.o)
 .data          0x00000000        0x0 D:/AppData/arm-gnu-toolchain-13.3.rel1-mingw-w64-i686-arm-none-eabi/bin/../lib/gcc/arm-none-eabi/13.3.1/thumb/v8-m.base/nofp\libgcc.a(_fixunsdfsi.o)
 .bss           0x00000000        0x0 D:/AppData/arm-gnu-toolchain-13.3.rel1-mingw-w64-i686-arm-none-eabi/bin/../lib/gcc/arm-none-eabi/13.3.1/thumb/v8-m.base/nofp\libgcc.a(_fixunsdfsi.o)
 .text          0x00000000        0x0 D:/AppData/arm-gnu-toolchain-13.3.rel1-mingw-w64-i686-arm-none-eabi/bin/../lib/gcc/arm-none-eabi/13.3.1/thumb/v8-m.base/nofp\libgcc.a(_fixdfdi.o)
 .data          0x00000000        0x0 D:/AppData/arm-gnu-toolchain-13.3.rel1-mingw-w64-i686-arm-none-eabi/bin/../lib/gcc/arm-none-eabi/13.3.1/thumb/v8-m.base/nofp\libgcc.a(_fixdfdi.o)
 .bss           0x00000000        0x0 D:/AppData/arm-gnu-toolchain-13.3.rel1-mingw-w64-i686-arm-none-eabi/bin/../lib/gcc/arm-none-eabi/13.3.1/thumb/v8-m.base/nofp\libgcc.a(_fixdfdi.o)
 .text          0x00000000        0x0 D:/AppData/arm-gnu-toolchain-13.3.rel1-mingw-w64-i686-arm-none-eabi/bin/../lib/gcc/arm-none-eabi/13.3.1/thumb/v8-m.base/nofp\libgcc.a(_fixunsdfdi.o)
 .data          0x00000000        0x0 D:/AppData/arm-gnu-toolchain-13.3.rel1-mingw-w64-i686-arm-none-eabi/bin/../lib/gcc/arm-none-eabi/13.3.1/thumb/v8-m.base/nofp\libgcc.a(_fixunsdfdi.o)
 .bss           0x00000000        0x0 D:/AppData/arm-gnu-toolchain-13.3.rel1-mingw-w64-i686-arm-none-eabi/bin/../lib/gcc/arm-none-eabi/13.3.1/thumb/v8-m.base/nofp\libgcc.a(_fixunsdfdi.o)
 .text          0x00000000        0x0 D:/AppData/arm-gnu-toolchain-13.3.rel1-mingw-w64-i686-arm-none-eabi/bin/../lib/gcc/arm-none-eabi/13.3.1/thumb/v8-m.base/nofp\libgcc.a(_floatdidf.o)
 .data          0x00000000        0x0 D:/AppData/arm-gnu-toolchain-13.3.rel1-mingw-w64-i686-arm-none-eabi/bin/../lib/gcc/arm-none-eabi/13.3.1/thumb/v8-m.base/nofp\libgcc.a(_floatdidf.o)
 .bss           0x00000000        0x0 D:/AppData/arm-gnu-toolchain-13.3.rel1-mingw-w64-i686-arm-none-eabi/bin/../lib/gcc/arm-none-eabi/13.3.1/thumb/v8-m.base/nofp\libgcc.a(_floatdidf.o)
 .text          0x00000000        0x0 D:/AppData/arm-gnu-toolchain-13.3.rel1-mingw-w64-i686-arm-none-eabi/bin/../lib/gcc/arm-none-eabi/13.3.1/thumb/v8-m.base/nofp\libgcc.a(divsf3.o)
 .data          0x00000000        0x0 D:/AppData/arm-gnu-toolchain-13.3.rel1-mingw-w64-i686-arm-none-eabi/bin/../lib/gcc/arm-none-eabi/13.3.1/thumb/v8-m.base/nofp\libgcc.a(divsf3.o)
 .bss           0x00000000        0x0 D:/AppData/arm-gnu-toolchain-13.3.rel1-mingw-w64-i686-arm-none-eabi/bin/../lib/gcc/arm-none-eabi/13.3.1/thumb/v8-m.base/nofp\libgcc.a(divsf3.o)
 .text          0x00000000        0x0 D:/AppData/arm-gnu-toolchain-13.3.rel1-mingw-w64-i686-arm-none-eabi/bin/../lib/gcc/arm-none-eabi/13.3.1/thumb/v8-m.base/nofp\libgcc.a(eqsf2.o)
 .data          0x00000000        0x0 D:/AppData/arm-gnu-toolchain-13.3.rel1-mingw-w64-i686-arm-none-eabi/bin/../lib/gcc/arm-none-eabi/13.3.1/thumb/v8-m.base/nofp\libgcc.a(eqsf2.o)
 .bss           0x00000000        0x0 D:/AppData/arm-gnu-toolchain-13.3.rel1-mingw-w64-i686-arm-none-eabi/bin/../lib/gcc/arm-none-eabi/13.3.1/thumb/v8-m.base/nofp\libgcc.a(eqsf2.o)
 .text          0x00000000        0x0 D:/AppData/arm-gnu-toolchain-13.3.rel1-mingw-w64-i686-arm-none-eabi/bin/../lib/gcc/arm-none-eabi/13.3.1/thumb/v8-m.base/nofp\libgcc.a(gesf2.o)
 .data          0x00000000        0x0 D:/AppData/arm-gnu-toolchain-13.3.rel1-mingw-w64-i686-arm-none-eabi/bin/../lib/gcc/arm-none-eabi/13.3.1/thumb/v8-m.base/nofp\libgcc.a(gesf2.o)
 .bss           0x00000000        0x0 D:/AppData/arm-gnu-toolchain-13.3.rel1-mingw-w64-i686-arm-none-eabi/bin/../lib/gcc/arm-none-eabi/13.3.1/thumb/v8-m.base/nofp\libgcc.a(gesf2.o)
 .text          0x00000000        0x0 D:/AppData/arm-gnu-toolchain-13.3.rel1-mingw-w64-i686-arm-none-eabi/bin/../lib/gcc/arm-none-eabi/13.3.1/thumb/v8-m.base/nofp\libgcc.a(lesf2.o)
 .data          0x00000000        0x0 D:/AppData/arm-gnu-toolchain-13.3.rel1-mingw-w64-i686-arm-none-eabi/bin/../lib/gcc/arm-none-eabi/13.3.1/thumb/v8-m.base/nofp\libgcc.a(lesf2.o)
 .bss           0x00000000        0x0 D:/AppData/arm-gnu-toolchain-13.3.rel1-mingw-w64-i686-arm-none-eabi/bin/../lib/gcc/arm-none-eabi/13.3.1/thumb/v8-m.base/nofp\libgcc.a(lesf2.o)
 .text          0x00000000        0x0 D:/AppData/arm-gnu-toolchain-13.3.rel1-mingw-w64-i686-arm-none-eabi/bin/../lib/gcc/arm-none-eabi/13.3.1/thumb/v8-m.base/nofp\libgcc.a(mulsf3.o)
 .data          0x00000000        0x0 D:/AppData/arm-gnu-toolchain-13.3.rel1-mingw-w64-i686-arm-none-eabi/bin/../lib/gcc/arm-none-eabi/13.3.1/thumb/v8-m.base/nofp\libgcc.a(mulsf3.o)
 .bss           0x00000000        0x0 D:/AppData/arm-gnu-toolchain-13.3.rel1-mingw-w64-i686-arm-none-eabi/bin/../lib/gcc/arm-none-eabi/13.3.1/thumb/v8-m.base/nofp\libgcc.a(mulsf3.o)
 .text          0x00000000        0x0 D:/AppData/arm-gnu-toolchain-13.3.rel1-mingw-w64-i686-arm-none-eabi/bin/../lib/gcc/arm-none-eabi/13.3.1/thumb/v8-m.base/nofp\libgcc.a(subsf3.o)
 .data          0x00000000        0x0 D:/AppData/arm-gnu-toolchain-13.3.rel1-mingw-w64-i686-arm-none-eabi/bin/../lib/gcc/arm-none-eabi/13.3.1/thumb/v8-m.base/nofp\libgcc.a(subsf3.o)
 .bss           0x00000000        0x0 D:/AppData/arm-gnu-toolchain-13.3.rel1-mingw-w64-i686-arm-none-eabi/bin/../lib/gcc/arm-none-eabi/13.3.1/thumb/v8-m.base/nofp\libgcc.a(subsf3.o)
 .text          0x00000000        0x0 D:/AppData/arm-gnu-toolchain-13.3.rel1-mingw-w64-i686-arm-none-eabi/bin/../lib/gcc/arm-none-eabi/13.3.1/thumb/v8-m.base/nofp\libgcc.a(unordsf2.o)
 .data          0x00000000        0x0 D:/AppData/arm-gnu-toolchain-13.3.rel1-mingw-w64-i686-arm-none-eabi/bin/../lib/gcc/arm-none-eabi/13.3.1/thumb/v8-m.base/nofp\libgcc.a(unordsf2.o)
 .bss           0x00000000        0x0 D:/AppData/arm-gnu-toolchain-13.3.rel1-mingw-w64-i686-arm-none-eabi/bin/../lib/gcc/arm-none-eabi/13.3.1/thumb/v8-m.base/nofp\libgcc.a(unordsf2.o)
 .text.__aeabi_fcmpun
                0x00000000       0x2c D:/AppData/arm-gnu-toolchain-13.3.rel1-mingw-w64-i686-arm-none-eabi/bin/../lib/gcc/arm-none-eabi/13.3.1/thumb/v8-m.base/nofp\libgcc.a(unordsf2.o)
 .debug_frame   0x00000000       0x20 D:/AppData/arm-gnu-toolchain-13.3.rel1-mingw-w64-i686-arm-none-eabi/bin/../lib/gcc/arm-none-eabi/13.3.1/thumb/v8-m.base/nofp\libgcc.a(unordsf2.o)
 .ARM.attributes
                0x00000000       0x30 D:/AppData/arm-gnu-toolchain-13.3.rel1-mingw-w64-i686-arm-none-eabi/bin/../lib/gcc/arm-none-eabi/13.3.1/thumb/v8-m.base/nofp\libgcc.a(unordsf2.o)
 .text          0x00000000        0x0 D:/AppData/arm-gnu-toolchain-13.3.rel1-mingw-w64-i686-arm-none-eabi/bin/../lib/gcc/arm-none-eabi/13.3.1/thumb/v8-m.base/nofp\libgcc.a(fixsfsi.o)
 .data          0x00000000        0x0 D:/AppData/arm-gnu-toolchain-13.3.rel1-mingw-w64-i686-arm-none-eabi/bin/../lib/gcc/arm-none-eabi/13.3.1/thumb/v8-m.base/nofp\libgcc.a(fixsfsi.o)
 .bss           0x00000000        0x0 D:/AppData/arm-gnu-toolchain-13.3.rel1-mingw-w64-i686-arm-none-eabi/bin/../lib/gcc/arm-none-eabi/13.3.1/thumb/v8-m.base/nofp\libgcc.a(fixsfsi.o)
 .text          0x00000000        0x0 D:/AppData/arm-gnu-toolchain-13.3.rel1-mingw-w64-i686-arm-none-eabi/bin/../lib/gcc/arm-none-eabi/13.3.1/thumb/v8-m.base/nofp\libgcc.a(floatsisf.o)
 .data          0x00000000        0x0 D:/AppData/arm-gnu-toolchain-13.3.rel1-mingw-w64-i686-arm-none-eabi/bin/../lib/gcc/arm-none-eabi/13.3.1/thumb/v8-m.base/nofp\libgcc.a(floatsisf.o)
 .bss           0x00000000        0x0 D:/AppData/arm-gnu-toolchain-13.3.rel1-mingw-w64-i686-arm-none-eabi/bin/../lib/gcc/arm-none-eabi/13.3.1/thumb/v8-m.base/nofp\libgcc.a(floatsisf.o)
 .text          0x00000000        0x0 D:/AppData/arm-gnu-toolchain-13.3.rel1-mingw-w64-i686-arm-none-eabi/bin/../lib/gcc/arm-none-eabi/13.3.1/thumb/v8-m.base/nofp\libgcc.a(adddf3.o)
 .data          0x00000000        0x0 D:/AppData/arm-gnu-toolchain-13.3.rel1-mingw-w64-i686-arm-none-eabi/bin/../lib/gcc/arm-none-eabi/13.3.1/thumb/v8-m.base/nofp\libgcc.a(adddf3.o)
 .bss           0x00000000        0x0 D:/AppData/arm-gnu-toolchain-13.3.rel1-mingw-w64-i686-arm-none-eabi/bin/../lib/gcc/arm-none-eabi/13.3.1/thumb/v8-m.base/nofp\libgcc.a(adddf3.o)
 .text          0x00000000        0x0 D:/AppData/arm-gnu-toolchain-13.3.rel1-mingw-w64-i686-arm-none-eabi/bin/../lib/gcc/arm-none-eabi/13.3.1/thumb/v8-m.base/nofp\libgcc.a(divdf3.o)
 .data          0x00000000        0x0 D:/AppData/arm-gnu-toolchain-13.3.rel1-mingw-w64-i686-arm-none-eabi/bin/../lib/gcc/arm-none-eabi/13.3.1/thumb/v8-m.base/nofp\libgcc.a(divdf3.o)
 .bss           0x00000000        0x0 D:/AppData/arm-gnu-toolchain-13.3.rel1-mingw-w64-i686-arm-none-eabi/bin/../lib/gcc/arm-none-eabi/13.3.1/thumb/v8-m.base/nofp\libgcc.a(divdf3.o)
 .text          0x00000000        0x0 D:/AppData/arm-gnu-toolchain-13.3.rel1-mingw-w64-i686-arm-none-eabi/bin/../lib/gcc/arm-none-eabi/13.3.1/thumb/v8-m.base/nofp\libgcc.a(eqdf2.o)
 .data          0x00000000        0x0 D:/AppData/arm-gnu-toolchain-13.3.rel1-mingw-w64-i686-arm-none-eabi/bin/../lib/gcc/arm-none-eabi/13.3.1/thumb/v8-m.base/nofp\libgcc.a(eqdf2.o)
 .bss           0x00000000        0x0 D:/AppData/arm-gnu-toolchain-13.3.rel1-mingw-w64-i686-arm-none-eabi/bin/../lib/gcc/arm-none-eabi/13.3.1/thumb/v8-m.base/nofp\libgcc.a(eqdf2.o)
 .text          0x00000000        0x0 D:/AppData/arm-gnu-toolchain-13.3.rel1-mingw-w64-i686-arm-none-eabi/bin/../lib/gcc/arm-none-eabi/13.3.1/thumb/v8-m.base/nofp\libgcc.a(gedf2.o)
 .data          0x00000000        0x0 D:/AppData/arm-gnu-toolchain-13.3.rel1-mingw-w64-i686-arm-none-eabi/bin/../lib/gcc/arm-none-eabi/13.3.1/thumb/v8-m.base/nofp\libgcc.a(gedf2.o)
 .bss           0x00000000        0x0 D:/AppData/arm-gnu-toolchain-13.3.rel1-mingw-w64-i686-arm-none-eabi/bin/../lib/gcc/arm-none-eabi/13.3.1/thumb/v8-m.base/nofp\libgcc.a(gedf2.o)
 .text          0x00000000        0x0 D:/AppData/arm-gnu-toolchain-13.3.rel1-mingw-w64-i686-arm-none-eabi/bin/../lib/gcc/arm-none-eabi/13.3.1/thumb/v8-m.base/nofp\libgcc.a(ledf2.o)
 .data          0x00000000        0x0 D:/AppData/arm-gnu-toolchain-13.3.rel1-mingw-w64-i686-arm-none-eabi/bin/../lib/gcc/arm-none-eabi/13.3.1/thumb/v8-m.base/nofp\libgcc.a(ledf2.o)
 .bss           0x00000000        0x0 D:/AppData/arm-gnu-toolchain-13.3.rel1-mingw-w64-i686-arm-none-eabi/bin/../lib/gcc/arm-none-eabi/13.3.1/thumb/v8-m.base/nofp\libgcc.a(ledf2.o)
 .text          0x00000000        0x0 D:/AppData/arm-gnu-toolchain-13.3.rel1-mingw-w64-i686-arm-none-eabi/bin/../lib/gcc/arm-none-eabi/13.3.1/thumb/v8-m.base/nofp\libgcc.a(muldf3.o)
 .data          0x00000000        0x0 D:/AppData/arm-gnu-toolchain-13.3.rel1-mingw-w64-i686-arm-none-eabi/bin/../lib/gcc/arm-none-eabi/13.3.1/thumb/v8-m.base/nofp\libgcc.a(muldf3.o)
 .bss           0x00000000        0x0 D:/AppData/arm-gnu-toolchain-13.3.rel1-mingw-w64-i686-arm-none-eabi/bin/../lib/gcc/arm-none-eabi/13.3.1/thumb/v8-m.base/nofp\libgcc.a(muldf3.o)
 .text          0x00000000        0x0 D:/AppData/arm-gnu-toolchain-13.3.rel1-mingw-w64-i686-arm-none-eabi/bin/../lib/gcc/arm-none-eabi/13.3.1/thumb/v8-m.base/nofp\libgcc.a(subdf3.o)
 .data          0x00000000        0x0 D:/AppData/arm-gnu-toolchain-13.3.rel1-mingw-w64-i686-arm-none-eabi/bin/../lib/gcc/arm-none-eabi/13.3.1/thumb/v8-m.base/nofp\libgcc.a(subdf3.o)
 .bss           0x00000000        0x0 D:/AppData/arm-gnu-toolchain-13.3.rel1-mingw-w64-i686-arm-none-eabi/bin/../lib/gcc/arm-none-eabi/13.3.1/thumb/v8-m.base/nofp\libgcc.a(subdf3.o)
 .text          0x00000000        0x0 D:/AppData/arm-gnu-toolchain-13.3.rel1-mingw-w64-i686-arm-none-eabi/bin/../lib/gcc/arm-none-eabi/13.3.1/thumb/v8-m.base/nofp\libgcc.a(unorddf2.o)
 .data          0x00000000        0x0 D:/AppData/arm-gnu-toolchain-13.3.rel1-mingw-w64-i686-arm-none-eabi/bin/../lib/gcc/arm-none-eabi/13.3.1/thumb/v8-m.base/nofp\libgcc.a(unorddf2.o)
 .bss           0x00000000        0x0 D:/AppData/arm-gnu-toolchain-13.3.rel1-mingw-w64-i686-arm-none-eabi/bin/../lib/gcc/arm-none-eabi/13.3.1/thumb/v8-m.base/nofp\libgcc.a(unorddf2.o)
 .text          0x00000000        0x0 D:/AppData/arm-gnu-toolchain-13.3.rel1-mingw-w64-i686-arm-none-eabi/bin/../lib/gcc/arm-none-eabi/13.3.1/thumb/v8-m.base/nofp\libgcc.a(fixdfsi.o)
 .data          0x00000000        0x0 D:/AppData/arm-gnu-toolchain-13.3.rel1-mingw-w64-i686-arm-none-eabi/bin/../lib/gcc/arm-none-eabi/13.3.1/thumb/v8-m.base/nofp\libgcc.a(fixdfsi.o)
 .bss           0x00000000        0x0 D:/AppData/arm-gnu-toolchain-13.3.rel1-mingw-w64-i686-arm-none-eabi/bin/../lib/gcc/arm-none-eabi/13.3.1/thumb/v8-m.base/nofp\libgcc.a(fixdfsi.o)
 .text          0x00000000        0x0 D:/AppData/arm-gnu-toolchain-13.3.rel1-mingw-w64-i686-arm-none-eabi/bin/../lib/gcc/arm-none-eabi/13.3.1/thumb/v8-m.base/nofp\libgcc.a(floatsidf.o)
 .data          0x00000000        0x0 D:/AppData/arm-gnu-toolchain-13.3.rel1-mingw-w64-i686-arm-none-eabi/bin/../lib/gcc/arm-none-eabi/13.3.1/thumb/v8-m.base/nofp\libgcc.a(floatsidf.o)
 .bss           0x00000000        0x0 D:/AppData/arm-gnu-toolchain-13.3.rel1-mingw-w64-i686-arm-none-eabi/bin/../lib/gcc/arm-none-eabi/13.3.1/thumb/v8-m.base/nofp\libgcc.a(floatsidf.o)
 .text          0x00000000        0x0 D:/AppData/arm-gnu-toolchain-13.3.rel1-mingw-w64-i686-arm-none-eabi/bin/../lib/gcc/arm-none-eabi/13.3.1/thumb/v8-m.base/nofp\libgcc.a(floatunsidf.o)
 .data          0x00000000        0x0 D:/AppData/arm-gnu-toolchain-13.3.rel1-mingw-w64-i686-arm-none-eabi/bin/../lib/gcc/arm-none-eabi/13.3.1/thumb/v8-m.base/nofp\libgcc.a(floatunsidf.o)
 .bss           0x00000000        0x0 D:/AppData/arm-gnu-toolchain-13.3.rel1-mingw-w64-i686-arm-none-eabi/bin/../lib/gcc/arm-none-eabi/13.3.1/thumb/v8-m.base/nofp\libgcc.a(floatunsidf.o)
 .text          0x00000000        0x0 D:/AppData/arm-gnu-toolchain-13.3.rel1-mingw-w64-i686-arm-none-eabi/bin/../lib/gcc/arm-none-eabi/13.3.1/thumb/v8-m.base/nofp\libgcc.a(truncdfsf2.o)
 .data          0x00000000        0x0 D:/AppData/arm-gnu-toolchain-13.3.rel1-mingw-w64-i686-arm-none-eabi/bin/../lib/gcc/arm-none-eabi/13.3.1/thumb/v8-m.base/nofp\libgcc.a(truncdfsf2.o)
 .bss           0x00000000        0x0 D:/AppData/arm-gnu-toolchain-13.3.rel1-mingw-w64-i686-arm-none-eabi/bin/../lib/gcc/arm-none-eabi/13.3.1/thumb/v8-m.base/nofp\libgcc.a(truncdfsf2.o)
 .data          0x00000000        0x0 D:/AppData/arm-gnu-toolchain-13.3.rel1-mingw-w64-i686-arm-none-eabi/bin/../lib/gcc/arm-none-eabi/13.3.1/thumb/v8-m.base/nofp\libgcc.a(_clzsi2.o)
 .bss           0x00000000        0x0 D:/AppData/arm-gnu-toolchain-13.3.rel1-mingw-w64-i686-arm-none-eabi/bin/../lib/gcc/arm-none-eabi/13.3.1/thumb/v8-m.base/nofp\libgcc.a(_clzsi2.o)
 .text          0x00000000        0x0 D:/AppData/arm-gnu-toolchain-13.3.rel1-mingw-w64-i686-arm-none-eabi/bin/../lib/gcc/arm-none-eabi/13.3.1/thumb/v8-m.base/nofp/crtend.o
 .data          0x00000000        0x0 D:/AppData/arm-gnu-toolchain-13.3.rel1-mingw-w64-i686-arm-none-eabi/bin/../lib/gcc/arm-none-eabi/13.3.1/thumb/v8-m.base/nofp/crtend.o
 .bss           0x00000000        0x0 D:/AppData/arm-gnu-toolchain-13.3.rel1-mingw-w64-i686-arm-none-eabi/bin/../lib/gcc/arm-none-eabi/13.3.1/thumb/v8-m.base/nofp/crtend.o
 .rodata.all_implied_fbits
                0x00000000       0x24 D:/AppData/arm-gnu-toolchain-13.3.rel1-mingw-w64-i686-arm-none-eabi/bin/../lib/gcc/arm-none-eabi/13.3.1/thumb/v8-m.base/nofp/crtend.o
 .eh_frame      0x00000000        0x4 D:/AppData/arm-gnu-toolchain-13.3.rel1-mingw-w64-i686-arm-none-eabi/bin/../lib/gcc/arm-none-eabi/13.3.1/thumb/v8-m.base/nofp/crtend.o
 .text          0x00000000        0x0 D:/AppData/arm-gnu-toolchain-13.3.rel1-mingw-w64-i686-arm-none-eabi/bin/../lib/gcc/arm-none-eabi/13.3.1/thumb/v8-m.base/nofp/crtn.o
 .data          0x00000000        0x0 D:/AppData/arm-gnu-toolchain-13.3.rel1-mingw-w64-i686-arm-none-eabi/bin/../lib/gcc/arm-none-eabi/13.3.1/thumb/v8-m.base/nofp/crtn.o
 .bss           0x00000000        0x0 D:/AppData/arm-gnu-toolchain-13.3.rel1-mingw-w64-i686-arm-none-eabi/bin/../lib/gcc/arm-none-eabi/13.3.1/thumb/v8-m.base/nofp/crtn.o

Memory Configuration

Name             Origin             Length             Attributes
FLASH            0x08000000         0x00010000         xr
RAM              0x20000000         0x00002000         xrw
*default*        0x00000000         0xffffffff

Linker script and memory map

LOAD D:/AppData/arm-gnu-toolchain-13.3.rel1-mingw-w64-i686-arm-none-eabi/bin/../lib/gcc/arm-none-eabi/13.3.1/thumb/v8-m.base/nofp/crti.o
LOAD D:/AppData/arm-gnu-toolchain-13.3.rel1-mingw-w64-i686-arm-none-eabi/bin/../lib/gcc/arm-none-eabi/13.3.1/thumb/v8-m.base/nofp/crtbegin.o
LOAD D:/AppData/arm-gnu-toolchain-13.3.rel1-mingw-w64-i686-arm-none-eabi/bin/../lib/gcc/arm-none-eabi/13.3.1/thumb/v8-m.base/nofp/crt0.o
LOAD build/main.o
LOAD build/systick.o
LOAD build/gd32e23x_it.o
LOAD build/log.o
LOAD build/app.o
LOAD build/peripheral.o
LOAD build/gd32e23x_adc.o
LOAD build/gd32e23x_cmp.o
LOAD build/gd32e23x_crc.o
LOAD build/gd32e23x_dbg.o
LOAD build/gd32e23x_dma.o
LOAD build/gd32e23x_exti.o
LOAD build/gd32e23x_fmc.o
LOAD build/gd32e23x_fwdgt.o
LOAD build/gd32e23x_gpio.o
LOAD build/gd32e23x_i2c.o
LOAD build/gd32e23x_misc.o
LOAD build/gd32e23x_pmu.o
LOAD build/gd32e23x_rcu.o
LOAD build/gd32e23x_rtc.o
LOAD build/gd32e23x_spi.o
LOAD build/gd32e23x_syscfg.o
LOAD build/gd32e23x_timer.o
LOAD build/gd32e23x_usart.o
LOAD build/gd32e23x_wwdgt.o
LOAD build/syscalls.o
LOAD build/system_gd32e23x.o
LOAD build/lcd.o
LOAD build/startup_gd32e23x.o
LOAD D:/AppData/arm-gnu-toolchain-13.3.rel1-mingw-w64-i686-arm-none-eabi/bin/../lib/gcc/arm-none-eabi/13.3.1/thumb/v8-m.base/nofp\libc_nano.a
LOAD D:/AppData/arm-gnu-toolchain-13.3.rel1-mingw-w64-i686-arm-none-eabi/bin/../lib/gcc/arm-none-eabi/13.3.1/thumb/v8-m.base/nofp\libm.a
LOAD D:/AppData/arm-gnu-toolchain-13.3.rel1-mingw-w64-i686-arm-none-eabi/bin/../lib/gcc/arm-none-eabi/13.3.1/thumb/v8-m.base/nofp\libnosys.a
START GROUP
LOAD D:/AppData/arm-gnu-toolchain-13.3.rel1-mingw-w64-i686-arm-none-eabi/bin/../lib/gcc/arm-none-eabi/13.3.1/thumb/v8-m.base/nofp\libgcc.a
LOAD D:/AppData/arm-gnu-toolchain-13.3.rel1-mingw-w64-i686-arm-none-eabi/bin/../lib/gcc/arm-none-eabi/13.3.1/thumb/v8-m.base/nofp\libc_nano.a
END GROUP
START GROUP
LOAD D:/AppData/arm-gnu-toolchain-13.3.rel1-mingw-w64-i686-arm-none-eabi/bin/../lib/gcc/arm-none-eabi/13.3.1/thumb/v8-m.base/nofp\libgcc.a
LOAD D:/AppData/arm-gnu-toolchain-13.3.rel1-mingw-w64-i686-arm-none-eabi/bin/../lib/gcc/arm-none-eabi/13.3.1/thumb/v8-m.base/nofp\libc_nano.a
END GROUP
LOAD D:/AppData/arm-gnu-toolchain-13.3.rel1-mingw-w64-i686-arm-none-eabi/bin/../lib/gcc/arm-none-eabi/13.3.1/thumb/v8-m.base/nofp/crtend.o
LOAD D:/AppData/arm-gnu-toolchain-13.3.rel1-mingw-w64-i686-arm-none-eabi/bin/../lib/gcc/arm-none-eabi/13.3.1/thumb/v8-m.base/nofp/crtn.o
                0x00001800                        __stack_size = DEFINED (__stack_size)?__stack_size:0x1800

.vectors        0x08000000       0xcc
                0x08000000                        . = ALIGN (0x4)
 *(.vectors)
 .vectors       0x08000000       0xcc build/startup_gd32e23x.o
                0x08000000                __gVectors
                0x080000cc                        . = ALIGN (0x4)
                0x080000cc                        __Vectors_End = .
                0x080000cc                        __Vectors_Size = (__Vectors_End - __gVectors)

.text           0x080000cc     0xa248
                0x080000cc                        . = ALIGN (0x4)
 *(.text)
 .text          0x080000cc        0xe D:/AppData/arm-gnu-toolchain-13.3.rel1-mingw-w64-i686-arm-none-eabi/bin/../lib/gcc/arm-none-eabi/13.3.1/thumb/v8-m.base/nofp\libc_nano.a(libc_a-strlen.o)
                0x080000cc                strlen
 *fill*         0x080000da        0x2 
 .text          0x080000dc       0x14 D:/AppData/arm-gnu-toolchain-13.3.rel1-mingw-w64-i686-arm-none-eabi/bin/../lib/gcc/arm-none-eabi/13.3.1/thumb/v8-m.base/nofp\libgcc.a(_thumb1_case_uqi.o)
                0x080000dc                __gnu_thumb1_case_uqi
 .text          0x080000f0       0x14 D:/AppData/arm-gnu-toolchain-13.3.rel1-mingw-w64-i686-arm-none-eabi/bin/../lib/gcc/arm-none-eabi/13.3.1/thumb/v8-m.base/nofp\libgcc.a(_thumb1_case_shi.o)
                0x080000f0                __gnu_thumb1_case_shi
 .text          0x08000104       0x7c D:/AppData/arm-gnu-toolchain-13.3.rel1-mingw-w64-i686-arm-none-eabi/bin/../lib/gcc/arm-none-eabi/13.3.1/thumb/v8-m.base/nofp\libgcc.a(_arm_cmpdf2.o)
                0x08000104                __aeabi_cdrcmple
                0x08000114                __aeabi_cdcmple
                0x08000114                __aeabi_cdcmpeq
                0x08000124                __aeabi_dcmpeq
                0x08000130                __aeabi_dcmplt
                0x08000144                __aeabi_dcmple
                0x08000158                __aeabi_dcmpgt
                0x0800016c                __aeabi_dcmpge
 .text          0x08000180       0x74 D:/AppData/arm-gnu-toolchain-13.3.rel1-mingw-w64-i686-arm-none-eabi/bin/../lib/gcc/arm-none-eabi/13.3.1/thumb/v8-m.base/nofp\libgcc.a(_arm_cmpsf2.o)
                0x08000180                __aeabi_cfrcmple
                0x08000188                __aeabi_cfcmpeq
                0x08000188                __aeabi_cfcmple
                0x08000198                __aeabi_fcmpeq
                0x080001a4                __aeabi_fcmplt
                0x080001b8                __aeabi_fcmple
                0x080001cc                __aeabi_fcmpgt
                0x080001e0                __aeabi_fcmpge
 .text          0x080001f4       0x3c D:/AppData/arm-gnu-toolchain-13.3.rel1-mingw-w64-i686-arm-none-eabi/bin/../lib/gcc/arm-none-eabi/13.3.1/thumb/v8-m.base/nofp\libgcc.a(_clzsi2.o)
                0x080001f4                __clzsi2
 *(.text*)
 .text.deregister_tm_clones
                0x08000230       0x24 D:/AppData/arm-gnu-toolchain-13.3.rel1-mingw-w64-i686-arm-none-eabi/bin/../lib/gcc/arm-none-eabi/13.3.1/thumb/v8-m.base/nofp/crtbegin.o
 .text.register_tm_clones
                0x08000254       0x2c D:/AppData/arm-gnu-toolchain-13.3.rel1-mingw-w64-i686-arm-none-eabi/bin/../lib/gcc/arm-none-eabi/13.3.1/thumb/v8-m.base/nofp/crtbegin.o
 .text.__do_global_dtors_aux
                0x08000280       0x30 D:/AppData/arm-gnu-toolchain-13.3.rel1-mingw-w64-i686-arm-none-eabi/bin/../lib/gcc/arm-none-eabi/13.3.1/thumb/v8-m.base/nofp/crtbegin.o
 .text.frame_dummy
                0x080002b0       0x28 D:/AppData/arm-gnu-toolchain-13.3.rel1-mingw-w64-i686-arm-none-eabi/bin/../lib/gcc/arm-none-eabi/13.3.1/thumb/v8-m.base/nofp/crtbegin.o
 .text.main     0x080002d8       0x10 build/main.o
                0x080002d8                main
 .text.SysTick_Config
                0x080002e8       0x3a build/systick.o
 .text.systick_config
                0x08000322       0x2e build/systick.o
                0x08000322                systick_config
 .text.delay_1ms
                0x08000350       0x1a build/systick.o
                0x08000350                delay_1ms
 .text.delay_decrement
                0x0800036a       0x1c build/systick.o
                0x0800036a                delay_decrement
 .text.NMI_Handler
                0x08000386        0x2 build/gd32e23x_it.o
                0x08000386                NMI_Handler
 .text.HardFault_Handler
                0x08000388        0x2 build/gd32e23x_it.o
                0x08000388                HardFault_Handler
 .text.SVC_Handler
                0x0800038a        0x2 build/gd32e23x_it.o
                0x0800038a                SVC_Handler
 .text.PendSV_Handler
                0x0800038c        0x2 build/gd32e23x_it.o
                0x0800038c                PendSV_Handler
 .text.SysTick_Handler
                0x0800038e        0x8 build/gd32e23x_it.o
                0x0800038e                SysTick_Handler
 *fill*         0x08000396        0x2 
 .text.EXTI4_15_IRQHandler
                0x08000398      0x28c build/gd32e23x_it.o
                0x08000398                EXTI4_15_IRQHandler
 .text.DMA_Channel0_IRQHandler
                0x08000624       0x36 build/gd32e23x_it.o
                0x08000624                DMA_Channel0_IRQHandler
 .text.TIMER15_IRQHandler
                0x0800065a       0x58 build/gd32e23x_it.o
                0x0800065a                TIMER15_IRQHandler
 .text.TIMER2_IRQHandler
                0x080006b2       0xba build/gd32e23x_it.o
                0x080006b2                TIMER2_IRQHandler
 .text.EM_LOG   0x0800076c        0x6 build/log.o
                0x0800076c                EM_LOG
 .text.AppInterface
                0x08000772       0xbe build/app.o
                0x08000772                AppInterface
 .text.AppStateDisplay
                0x08000830      0x1c0 build/app.o
                0x08000830                AppStateDisplay
 .text.WaveformDisplay
                0x080009f0      0x148 build/app.o
                0x080009f0                WaveformDisplay
 .text.AppInit  0x08000b38       0x8e build/app.o
                0x08000b38                AppInit
 .text.AppStart
                0x08000bc6      0x308 build/app.o
                0x08000bc6                AppStart
 .text.RCUConfig
                0x08000ece       0x42 build/peripheral.o
                0x08000ece                RCUConfig
 .text.GPIOConfig
                0x08000f10      0x124 build/peripheral.o
                0x08000f10                GPIOConfig
 .text.GPIO13_14InterruptEnable
                0x08001034       0x4c build/peripheral.o
                0x08001034                GPIO13_14InterruptEnable
 .text.Timer14Config
                0x08001080       0x9e build/peripheral.o
                0x08001080                Timer14Config
 .text.TIMConfig
                0x0800111e       0xcc build/peripheral.o
                0x0800111e                TIMConfig
 .text.ADCConfig
                0x080011ea       0x62 build/peripheral.o
                0x080011ea                ADCConfig
 .text.DMAConfig
                0x0800124c       0x74 build/peripheral.o
                0x0800124c                DMAConfig
 .text.SPIConfig
                0x080012c0       0x48 build/peripheral.o
                0x080012c0                SPIConfig
 .text.adc_enable
                0x08001308       0x20 build/gd32e23x_adc.o
                0x08001308                adc_enable
 .text.adc_calibration_enable
                0x08001328       0x3e build/gd32e23x_adc.o
                0x08001328                adc_calibration_enable
 .text.adc_dma_mode_enable
                0x08001366       0x14 build/gd32e23x_adc.o
                0x08001366                adc_dma_mode_enable
 *fill*         0x0800137a        0x2 
 .text.adc_special_function_config
                0x0800137c       0x8c build/gd32e23x_adc.o
                0x0800137c                adc_special_function_config
 .text.adc_data_alignment_config
                0x08001408       0x2c build/gd32e23x_adc.o
                0x08001408                adc_data_alignment_config
 .text.adc_channel_length_config
                0x08001434       0x54 build/gd32e23x_adc.o
                0x08001434                adc_channel_length_config
 .text.adc_regular_channel_config
                0x08001488       0xb2 build/gd32e23x_adc.o
                0x08001488                adc_regular_channel_config
 *fill*         0x0800153a        0x2 
 .text.adc_external_trigger_config
                0x0800153c       0x64 build/gd32e23x_adc.o
                0x0800153c                adc_external_trigger_config
 .text.adc_external_trigger_source_config
                0x080015a0       0x40 build/gd32e23x_adc.o
                0x080015a0                adc_external_trigger_source_config
 .text.adc_software_trigger_enable
                0x080015e0       0x2e build/gd32e23x_adc.o
                0x080015e0                adc_software_trigger_enable
 .text.dma_deinit
                0x0800160e       0x4e build/gd32e23x_dma.o
                0x0800160e                dma_deinit
 .text.dma_struct_para_init
                0x0800165c       0x16 build/gd32e23x_dma.o
                0x0800165c                dma_struct_para_init
 .text.dma_circulation_enable
                0x08001672       0x1a build/gd32e23x_dma.o
                0x08001672                dma_circulation_enable
 .text.dma_channel_enable
                0x0800168c       0x1a build/gd32e23x_dma.o
                0x0800168c                dma_channel_enable
 .text.dma_channel_disable
                0x080016a6       0x1a build/gd32e23x_dma.o
                0x080016a6                dma_channel_disable
 .text.dma_init
                0x080016c0       0xa4 build/gd32e23x_dma.o
                0x080016c0                dma_init
 .text.dma_transfer_number_config
                0x08001764       0x1a build/gd32e23x_dma.o
                0x08001764                dma_transfer_number_config
 .text.dma_interrupt_flag_get
                0x0800177e       0x8a build/gd32e23x_dma.o
                0x0800177e                dma_interrupt_flag_get
 .text.dma_interrupt_flag_clear
                0x08001808       0x12 build/gd32e23x_dma.o
                0x08001808                dma_interrupt_flag_clear
 .text.dma_interrupt_enable
                0x0800181a       0x18 build/gd32e23x_dma.o
                0x0800181a                dma_interrupt_enable
 .text.exti_init
                0x08001832       0xc4 build/gd32e23x_exti.o
                0x08001832                exti_init
 .text.exti_interrupt_enable
                0x080018f6       0x10 build/gd32e23x_exti.o
                0x080018f6                exti_interrupt_enable
 .text.exti_interrupt_disable
                0x08001906       0x10 build/gd32e23x_exti.o
                0x08001906                exti_interrupt_disable
 .text.exti_interrupt_flag_get
                0x08001916       0x16 build/gd32e23x_exti.o
                0x08001916                exti_interrupt_flag_get
 .text.exti_interrupt_flag_clear
                0x0800192c        0xc build/gd32e23x_exti.o
                0x0800192c                exti_interrupt_flag_clear
 .text.gpio_mode_set
                0x08001938       0x4e build/gd32e23x_gpio.o
                0x08001938                gpio_mode_set
 .text.gpio_output_options_set
                0x08001986       0x3e build/gd32e23x_gpio.o
                0x08001986                gpio_output_options_set
 .text.gpio_bit_set
                0x080019c4        0x4 build/gd32e23x_gpio.o
                0x080019c4                gpio_bit_set
 .text.gpio_bit_reset
                0x080019c8        0x4 build/gd32e23x_gpio.o
                0x080019c8                gpio_bit_reset
 .text.gpio_input_bit_get
                0x080019cc        0xe build/gd32e23x_gpio.o
                0x080019cc                gpio_input_bit_get
 .text.gpio_af_set
                0x080019da       0x58 build/gd32e23x_gpio.o
                0x080019da                gpio_af_set
 .text.__NVIC_SetPriority
                0x08001a32       0x62 build/gd32e23x_misc.o
 .text.nvic_irq_enable
                0x08001a94       0x28 build/gd32e23x_misc.o
                0x08001a94                nvic_irq_enable
 .text.nvic_vector_table_set
                0x08001abc       0x1c build/gd32e23x_misc.o
                0x08001abc                nvic_vector_table_set
 .text.rcu_periph_clock_enable
                0x08001ad8       0x1c build/gd32e23x_rcu.o
                0x08001ad8                rcu_periph_clock_enable
 .text.rcu_periph_clock_disable
                0x08001af4       0x1c build/gd32e23x_rcu.o
                0x08001af4                rcu_periph_clock_disable
 .text.rcu_periph_reset_enable
                0x08001b10       0x1c build/gd32e23x_rcu.o
                0x08001b10                rcu_periph_reset_enable
 .text.rcu_periph_reset_disable
                0x08001b2c       0x1c build/gd32e23x_rcu.o
                0x08001b2c                rcu_periph_reset_disable
 .text.rcu_adc_clock_config
                0x08001b48      0x1c4 build/gd32e23x_rcu.o
                0x08001b48                rcu_adc_clock_config
 .text.spi_i2s_deinit
                0x08001d0c       0x3e build/gd32e23x_spi.o
                0x08001d0c                spi_i2s_deinit
 .text.spi_struct_para_init
                0x08001d4a       0x16 build/gd32e23x_spi.o
                0x08001d4a                spi_struct_para_init
 .text.spi_init
                0x08001d60       0x90 build/gd32e23x_spi.o
                0x08001d60                spi_init
 .text.spi_enable
                0x08001df0        0xa build/gd32e23x_spi.o
                0x08001df0                spi_enable
 .text.spi_i2s_data_transmit
                0x08001dfa       0x1e build/gd32e23x_spi.o
                0x08001dfa                spi_i2s_data_transmit
 .text.spi_i2s_flag_get
                0x08001e18       0x32 build/gd32e23x_spi.o
                0x08001e18                spi_i2s_flag_get
 .text.syscfg_exti_line_config
                0x08001e4a       0x70 build/gd32e23x_syscfg.o
                0x08001e4a                syscfg_exti_line_config
 .text.timer_deinit
                0x08001eba       0xe0 build/gd32e23x_timer.o
                0x08001eba                timer_deinit
 .text.timer_struct_para_init
                0x08001f9a       0x14 build/gd32e23x_timer.o
                0x08001f9a                timer_struct_para_init
 *fill*         0x08001fae        0x2 
 .text.timer_init
                0x08001fb0       0xd4 build/gd32e23x_timer.o
                0x08001fb0                timer_init
 .text.timer_enable
                0x08002084        0xa build/gd32e23x_timer.o
                0x08002084                timer_enable
 .text.timer_disable
                0x0800208e        0xa build/gd32e23x_timer.o
                0x0800208e                timer_disable
 .text.timer_auto_reload_shadow_enable
                0x08002098        0xa build/gd32e23x_timer.o
                0x08002098                timer_auto_reload_shadow_enable
 .text.timer_autoreload_value_config
                0x080020a2        0x4 build/gd32e23x_timer.o
                0x080020a2                timer_autoreload_value_config
 .text.timer_counter_value_config
                0x080020a6        0x4 build/gd32e23x_timer.o
                0x080020a6                timer_counter_value_config
 .text.timer_interrupt_enable
                0x080020aa        0x8 build/gd32e23x_timer.o
                0x080020aa                timer_interrupt_enable
 .text.timer_interrupt_flag_get
                0x080020b2       0x18 build/gd32e23x_timer.o
                0x080020b2                timer_interrupt_flag_get
 .text.timer_interrupt_flag_clear
                0x080020ca        0x6 build/gd32e23x_timer.o
                0x080020ca                timer_interrupt_flag_clear
 .text.timer_primary_output_config
                0x080020d0       0x20 build/gd32e23x_timer.o
                0x080020d0                timer_primary_output_config
 .text.timer_channel_output_struct_para_init
                0x080020f0       0x10 build/gd32e23x_timer.o
                0x080020f0                timer_channel_output_struct_para_init
 .text.timer_channel_output_config
                0x08002100      0x248 build/gd32e23x_timer.o
                0x08002100                timer_channel_output_config
 .text.timer_channel_output_mode_config
                0x08002348       0x58 build/gd32e23x_timer.o
                0x08002348                timer_channel_output_mode_config
 .text.timer_channel_output_pulse_value_config
                0x080023a0       0x20 build/gd32e23x_timer.o
                0x080023a0                timer_channel_output_pulse_value_config
 .text.timer_channel_output_shadow_config
                0x080023c0       0x58 build/gd32e23x_timer.o
                0x080023c0                timer_channel_output_shadow_config
 .text.timer_channel_input_capture_prescaler_config
                0x08002418       0x58 build/gd32e23x_timer.o
                0x08002418                timer_channel_input_capture_prescaler_config
 .text.timer_input_capture_config
                0x08002470      0x150 build/gd32e23x_timer.o
                0x08002470                timer_input_capture_config
 .text.timer_channel_capture_value_register_read
                0x080025c0       0x28 build/gd32e23x_timer.o
                0x080025c0                timer_channel_capture_value_register_read
 .text._sbrk    0x080025e8       0x3e build/syscalls.o
                0x080025e8                _sbrk
 .text._getpid  0x08002626        0x4 build/syscalls.o
                0x08002626                _getpid
 .text._kill    0x0800262a       0x12 build/syscalls.o
                0x0800262a                _kill
 .text._exit    0x0800263c        0xc build/syscalls.o
                0x0800263c                _exit
 .text._write   0x08002648       0x1c build/syscalls.o
                0x08002648                _write
 .text._close   0x08002664        0x6 build/syscalls.o
                0x08002664                _close
 .text._fstat   0x0800266a        0xa build/syscalls.o
                0x0800266a                _fstat
 .text._isatty  0x08002674        0x4 build/syscalls.o
                0x08002674                _isatty
 .text._lseek   0x08002678        0x4 build/syscalls.o
                0x08002678                _lseek
 .text._read    0x0800267c       0x1c build/syscalls.o
                0x0800267c                _read
 .text.system_clock_72m_hxtal
                0x08002698       0xc8 build/system_gd32e23x.o
 .text.system_clock_config
                0x08002760        0x8 build/system_gd32e23x.o
 .text.SystemInit
                0x08002768      0x10c build/system_gd32e23x.o
                0x08002768                SystemInit
 .text.LCD_Write_Data8
                0x08002874       0x42 build/lcd.o
 .text.LCD_Write_Data
                0x080028b6       0x12 build/lcd.o
 .text.LCD_Write_Cmd
                0x080028c8       0x56 build/lcd.o
 .text.LCD_Display_Position
                0x0800291e       0x36 build/lcd.o
 .text.LCD_Init
                0x08002954      0x1fa build/lcd.o
                0x08002954                LCD_Init
 .text.LCD_Fill
                0x08002b4e       0x46 build/lcd.o
                0x08002b4e                LCD_Fill
 .text.LCD_Draw_Point
                0x08002b94       0x14 build/lcd.o
                0x08002b94                LCD_Draw_Point
 .text.LCD_Draw_Line
                0x08002ba8       0xae build/lcd.o
                0x08002ba8                LCD_Draw_Line
 .text.LCD_Show_Char
                0x08002c56      0x16e build/lcd.o
                0x08002c56                LCD_Show_Char
 .text.LCD_Show_String
                0x08002dc4       0x54 build/lcd.o
                0x08002dc4                LCD_Show_String
 .text.LCD_Draw_Curve
                0x08002e18       0xe0 build/lcd.o
                0x08002e18                LCD_Draw_Curve
 .text.mypow    0x08002ef8       0x14 build/lcd.o
                0x08002ef8                mypow
 .text.LCD_ShowFloatNum1
                0x08002f0c       0xce build/lcd.o
                0x08002f0c                LCD_ShowFloatNum1
 .text.LCD_ShowIntNum
                0x08002fda       0xc4 build/lcd.o
                0x08002fda                LCD_ShowIntNum
 *fill*         0x0800309e        0x2 
 .text.Reset_Handler
                0x080030a0       0x50 build/startup_gd32e23x.o
                0x080030a0                Reset_Handler
 .text.Default_Handler
                0x080030f0        0x2 build/startup_gd32e23x.o
                0x080030f0                TIMER5_IRQHandler
                0x080030f0                LVD_IRQHandler
                0x080030f0                I2C0_EV_IRQHandler
                0x080030f0                ADC_CMP_IRQHandler
                0x080030f0                SPI1_IRQHandler
                0x080030f0                TAMPER_IRQHandler
                0x080030f0                DMA_Channel3_4_IRQHandler
                0x080030f0                TIMER14_IRQHandler
                0x080030f0                TIMER16_IRQHandler
                0x080030f0                EXTI2_3_IRQHandler
                0x080030f0                I2C0_ER_IRQHandler
                0x080030f0                RTC_IRQHandler
                0x080030f0                USART0_IRQHandler
                0x080030f0                TIMER13_IRQHandler
                0x080030f0                I2C1_EV_IRQHandler
                0x080030f0                Default_Handler
                0x080030f0                WWDGT_IRQHandler
                0x080030f0                TIMER0_BRK_UP_TRG_COM_IRQHandler
                0x080030f0                EXTI0_1_IRQHandler
                0x080030f0                DMA_Channel1_2_IRQHandler
                0x080030f0                RCU_IRQHandler
                0x080030f0                TIMER0_Channel_IRQHandler
                0x080030f0                SPI0_IRQHandler
                0x080030f0                USART1_IRQHandler
                0x080030f0                I2C1_ER_IRQHandler
                0x080030f0                FMC_IRQHandler
 .text.__cvt    0x080030f2       0xc8 D:/AppData/arm-gnu-toolchain-13.3.rel1-mingw-w64-i686-arm-none-eabi/bin/../lib/gcc/arm-none-eabi/13.3.1/thumb/v8-m.base/nofp\libc_nano.a(libc_a-nano-vfprintf_float.o)
                0x080030f2                __cvt
 .text.__exponent
                0x080031ba       0x6e D:/AppData/arm-gnu-toolchain-13.3.rel1-mingw-w64-i686-arm-none-eabi/bin/../lib/gcc/arm-none-eabi/13.3.1/thumb/v8-m.base/nofp\libc_nano.a(libc_a-nano-vfprintf_float.o)
                0x080031ba                __exponent
 .text._printf_float
                0x08003228      0x470 D:/AppData/arm-gnu-toolchain-13.3.rel1-mingw-w64-i686-arm-none-eabi/bin/../lib/gcc/arm-none-eabi/13.3.1/thumb/v8-m.base/nofp\libc_nano.a(libc_a-nano-vfprintf_float.o)
                0x08003228                _printf_float
 .text._printf_common
                0x08003698       0xdc D:/AppData/arm-gnu-toolchain-13.3.rel1-mingw-w64-i686-arm-none-eabi/bin/../lib/gcc/arm-none-eabi/13.3.1/thumb/v8-m.base/nofp\libc_nano.a(libc_a-nano-vfprintf_i.o)
                0x08003698                _printf_common
 .text._printf_i
                0x08003774      0x20c D:/AppData/arm-gnu-toolchain-13.3.rel1-mingw-w64-i686-arm-none-eabi/bin/../lib/gcc/arm-none-eabi/13.3.1/thumb/v8-m.base/nofp\libc_nano.a(libc_a-nano-vfprintf_i.o)
                0x08003774                _printf_i
 .text._scanf_float
                0x08003980      0x408 D:/AppData/arm-gnu-toolchain-13.3.rel1-mingw-w64-i686-arm-none-eabi/bin/../lib/gcc/arm-none-eabi/13.3.1/thumb/v8-m.base/nofp\libc_nano.a(libc_a-nano-vfscanf_float.o)
                0x08003980                _scanf_float
 .text.std      0x08003d88       0x6c D:/AppData/arm-gnu-toolchain-13.3.rel1-mingw-w64-i686-arm-none-eabi/bin/../lib/gcc/arm-none-eabi/13.3.1/thumb/v8-m.base/nofp\libc_nano.a(libc_a-findfp.o)
 .text.stdio_exit_handler
                0x08003df4       0x1c D:/AppData/arm-gnu-toolchain-13.3.rel1-mingw-w64-i686-arm-none-eabi/bin/../lib/gcc/arm-none-eabi/13.3.1/thumb/v8-m.base/nofp\libc_nano.a(libc_a-findfp.o)
 .text.cleanup_stdio
                0x08003e10       0x3c D:/AppData/arm-gnu-toolchain-13.3.rel1-mingw-w64-i686-arm-none-eabi/bin/../lib/gcc/arm-none-eabi/13.3.1/thumb/v8-m.base/nofp\libc_nano.a(libc_a-findfp.o)
 .text.global_stdio_init.part.0
                0x08003e4c       0x3c D:/AppData/arm-gnu-toolchain-13.3.rel1-mingw-w64-i686-arm-none-eabi/bin/../lib/gcc/arm-none-eabi/13.3.1/thumb/v8-m.base/nofp\libc_nano.a(libc_a-findfp.o)
 .text.__sfp_lock_acquire
                0x08003e88       0x10 D:/AppData/arm-gnu-toolchain-13.3.rel1-mingw-w64-i686-arm-none-eabi/bin/../lib/gcc/arm-none-eabi/13.3.1/thumb/v8-m.base/nofp\libc_nano.a(libc_a-findfp.o)
                0x08003e88                __sfp_lock_acquire
 .text.__sfp_lock_release
                0x08003e98       0x10 D:/AppData/arm-gnu-toolchain-13.3.rel1-mingw-w64-i686-arm-none-eabi/bin/../lib/gcc/arm-none-eabi/13.3.1/thumb/v8-m.base/nofp\libc_nano.a(libc_a-findfp.o)
                0x08003e98                __sfp_lock_release
 .text.__sinit  0x08003ea8       0x2c D:/AppData/arm-gnu-toolchain-13.3.rel1-mingw-w64-i686-arm-none-eabi/bin/../lib/gcc/arm-none-eabi/13.3.1/thumb/v8-m.base/nofp\libc_nano.a(libc_a-findfp.o)
                0x08003ea8                __sinit
 .text._fwalk_sglue
                0x08003ed4       0x38 D:/AppData/arm-gnu-toolchain-13.3.rel1-mingw-w64-i686-arm-none-eabi/bin/../lib/gcc/arm-none-eabi/13.3.1/thumb/v8-m.base/nofp\libc_nano.a(libc_a-fwalk.o)
                0x08003ed4                _fwalk_sglue
 .text.sprintf  0x08003f0c       0x44 D:/AppData/arm-gnu-toolchain-13.3.rel1-mingw-w64-i686-arm-none-eabi/bin/../lib/gcc/arm-none-eabi/13.3.1/thumb/v8-m.base/nofp\libc_nano.a(libc_a-sprintf.o)
                0x08003f0c                siprintf
                0x08003f0c                sprintf
 .text.__sread  0x08003f50       0x28 D:/AppData/arm-gnu-toolchain-13.3.rel1-mingw-w64-i686-arm-none-eabi/bin/../lib/gcc/arm-none-eabi/13.3.1/thumb/v8-m.base/nofp\libc_nano.a(libc_a-stdio.o)
                0x08003f50                __sread
 .text.__swrite
                0x08003f78       0x38 D:/AppData/arm-gnu-toolchain-13.3.rel1-mingw-w64-i686-arm-none-eabi/bin/../lib/gcc/arm-none-eabi/13.3.1/thumb/v8-m.base/nofp\libc_nano.a(libc_a-stdio.o)
                0x08003f78                __swrite
 .text.__sseek  0x08003fb0       0x2c D:/AppData/arm-gnu-toolchain-13.3.rel1-mingw-w64-i686-arm-none-eabi/bin/../lib/gcc/arm-none-eabi/13.3.1/thumb/v8-m.base/nofp\libc_nano.a(libc_a-stdio.o)
                0x08003fb0                __sseek
 .text.__sclose
                0x08003fdc        0xc D:/AppData/arm-gnu-toolchain-13.3.rel1-mingw-w64-i686-arm-none-eabi/bin/../lib/gcc/arm-none-eabi/13.3.1/thumb/v8-m.base/nofp\libc_nano.a(libc_a-stdio.o)
                0x08003fdc                __sclose
 .text.memset   0x08003fe8       0x10 D:/AppData/arm-gnu-toolchain-13.3.rel1-mingw-w64-i686-arm-none-eabi/bin/../lib/gcc/arm-none-eabi/13.3.1/thumb/v8-m.base/nofp\libc_nano.a(libc_a-memset.o)
                0x08003fe8                memset
 .text._localeconv_r
                0x08003ff8        0x8 D:/AppData/arm-gnu-toolchain-13.3.rel1-mingw-w64-i686-arm-none-eabi/bin/../lib/gcc/arm-none-eabi/13.3.1/thumb/v8-m.base/nofp\libc_nano.a(libc_a-localeconv.o)
                0x08003ff8                _localeconv_r
 .text._close_r
                0x08004000       0x20 D:/AppData/arm-gnu-toolchain-13.3.rel1-mingw-w64-i686-arm-none-eabi/bin/../lib/gcc/arm-none-eabi/13.3.1/thumb/v8-m.base/nofp\libc_nano.a(libc_a-closer.o)
                0x08004000                _close_r
 .text._lseek_r
                0x08004020       0x24 D:/AppData/arm-gnu-toolchain-13.3.rel1-mingw-w64-i686-arm-none-eabi/bin/../lib/gcc/arm-none-eabi/13.3.1/thumb/v8-m.base/nofp\libc_nano.a(libc_a-lseekr.o)
                0x08004020                _lseek_r
 .text._read_r  0x08004044       0x24 D:/AppData/arm-gnu-toolchain-13.3.rel1-mingw-w64-i686-arm-none-eabi/bin/../lib/gcc/arm-none-eabi/13.3.1/thumb/v8-m.base/nofp\libc_nano.a(libc_a-readr.o)
                0x08004044                _read_r
 .text._write_r
                0x08004068       0x24 D:/AppData/arm-gnu-toolchain-13.3.rel1-mingw-w64-i686-arm-none-eabi/bin/../lib/gcc/arm-none-eabi/13.3.1/thumb/v8-m.base/nofp\libc_nano.a(libc_a-writer.o)
                0x08004068                _write_r
 .text.__libc_init_array
                0x0800408c       0x50 D:/AppData/arm-gnu-toolchain-13.3.rel1-mingw-w64-i686-arm-none-eabi/bin/../lib/gcc/arm-none-eabi/13.3.1/thumb/v8-m.base/nofp\libc_nano.a(libc_a-init.o)
                0x0800408c                __libc_init_array
 .text.__retarget_lock_init_recursive
                0x080040dc        0x2 D:/AppData/arm-gnu-toolchain-13.3.rel1-mingw-w64-i686-arm-none-eabi/bin/../lib/gcc/arm-none-eabi/13.3.1/thumb/v8-m.base/nofp\libc_nano.a(libc_a-lock.o)
                0x080040dc                __retarget_lock_init_recursive
 .text.__retarget_lock_acquire_recursive
                0x080040de        0x2 D:/AppData/arm-gnu-toolchain-13.3.rel1-mingw-w64-i686-arm-none-eabi/bin/../lib/gcc/arm-none-eabi/13.3.1/thumb/v8-m.base/nofp\libc_nano.a(libc_a-lock.o)
                0x080040de                __retarget_lock_acquire_recursive
 .text.__retarget_lock_release_recursive
                0x080040e0        0x2 D:/AppData/arm-gnu-toolchain-13.3.rel1-mingw-w64-i686-arm-none-eabi/bin/../lib/gcc/arm-none-eabi/13.3.1/thumb/v8-m.base/nofp\libc_nano.a(libc_a-lock.o)
                0x080040e0                __retarget_lock_release_recursive
 .text.memchr   0x080040e2       0x16 D:/AppData/arm-gnu-toolchain-13.3.rel1-mingw-w64-i686-arm-none-eabi/bin/../lib/gcc/arm-none-eabi/13.3.1/thumb/v8-m.base/nofp\libc_nano.a(libc_a-memchr-stub.o)
                0x080040e2                memchr
 .text.nanf     0x080040f8        0x8 D:/AppData/arm-gnu-toolchain-13.3.rel1-mingw-w64-i686-arm-none-eabi/bin/../lib/gcc/arm-none-eabi/13.3.1/thumb/v8-m.base/nofp\libc_nano.a(libm_a-sf_nan.o)
                0x080040f8                nanf
 .text.quorem   0x08004100      0x10e D:/AppData/arm-gnu-toolchain-13.3.rel1-mingw-w64-i686-arm-none-eabi/bin/../lib/gcc/arm-none-eabi/13.3.1/thumb/v8-m.base/nofp\libc_nano.a(libc_a-dtoa.o)
 *fill*         0x0800420e        0x2 
 .text._dtoa_r  0x08004210      0xbac D:/AppData/arm-gnu-toolchain-13.3.rel1-mingw-w64-i686-arm-none-eabi/bin/../lib/gcc/arm-none-eabi/13.3.1/thumb/v8-m.base/nofp\libc_nano.a(libc_a-dtoa.o)
                0x08004210                _dtoa_r
 .text._free_r  0x08004dbc       0x90 D:/AppData/arm-gnu-toolchain-13.3.rel1-mingw-w64-i686-arm-none-eabi/bin/../lib/gcc/arm-none-eabi/13.3.1/thumb/v8-m.base/nofp\libc_nano.a(libc_a-freer.o)
                0x08004dbc                _free_r
 .text.malloc   0x08004e4c       0x14 D:/AppData/arm-gnu-toolchain-13.3.rel1-mingw-w64-i686-arm-none-eabi/bin/../lib/gcc/arm-none-eabi/13.3.1/thumb/v8-m.base/nofp\libc_nano.a(libc_a-malloc.o)
                0x08004e4c                malloc
 .text.sbrk_aligned
                0x08004e60       0x44 D:/AppData/arm-gnu-toolchain-13.3.rel1-mingw-w64-i686-arm-none-eabi/bin/../lib/gcc/arm-none-eabi/13.3.1/thumb/v8-m.base/nofp\libc_nano.a(libc_a-mallocr.o)
 .text._malloc_r
                0x08004ea4      0x100 D:/AppData/arm-gnu-toolchain-13.3.rel1-mingw-w64-i686-arm-none-eabi/bin/../lib/gcc/arm-none-eabi/13.3.1/thumb/v8-m.base/nofp\libc_nano.a(libc_a-mallocr.o)
                0x08004ea4                _malloc_r
 .text.__malloc_lock
                0x08004fa4       0x10 D:/AppData/arm-gnu-toolchain-13.3.rel1-mingw-w64-i686-arm-none-eabi/bin/../lib/gcc/arm-none-eabi/13.3.1/thumb/v8-m.base/nofp\libc_nano.a(libc_a-mlock.o)
                0x08004fa4                __malloc_lock
 .text.__malloc_unlock
                0x08004fb4       0x10 D:/AppData/arm-gnu-toolchain-13.3.rel1-mingw-w64-i686-arm-none-eabi/bin/../lib/gcc/arm-none-eabi/13.3.1/thumb/v8-m.base/nofp\libc_nano.a(libc_a-mlock.o)
                0x08004fb4                __malloc_unlock
 .text._Balloc  0x08004fc4       0x80 D:/AppData/arm-gnu-toolchain-13.3.rel1-mingw-w64-i686-arm-none-eabi/bin/../lib/gcc/arm-none-eabi/13.3.1/thumb/v8-m.base/nofp\libc_nano.a(libc_a-mprec.o)
                0x08004fc4                _Balloc
 .text._Bfree   0x08005044       0x44 D:/AppData/arm-gnu-toolchain-13.3.rel1-mingw-w64-i686-arm-none-eabi/bin/../lib/gcc/arm-none-eabi/13.3.1/thumb/v8-m.base/nofp\libc_nano.a(libc_a-mprec.o)
                0x08005044                _Bfree
 .text.__multadd
                0x08005088       0x84 D:/AppData/arm-gnu-toolchain-13.3.rel1-mingw-w64-i686-arm-none-eabi/bin/../lib/gcc/arm-none-eabi/13.3.1/thumb/v8-m.base/nofp\libc_nano.a(libc_a-mprec.o)
                0x08005088                __multadd
 .text.__s2b    0x0800510c       0x98 D:/AppData/arm-gnu-toolchain-13.3.rel1-mingw-w64-i686-arm-none-eabi/bin/../lib/gcc/arm-none-eabi/13.3.1/thumb/v8-m.base/nofp\libc_nano.a(libc_a-mprec.o)
                0x0800510c                __s2b
 .text.__hi0bits
                0x080051a4       0x42 D:/AppData/arm-gnu-toolchain-13.3.rel1-mingw-w64-i686-arm-none-eabi/bin/../lib/gcc/arm-none-eabi/13.3.1/thumb/v8-m.base/nofp\libc_nano.a(libc_a-mprec.o)
                0x080051a4                __hi0bits
 .text.__lo0bits
                0x080051e6       0x5a D:/AppData/arm-gnu-toolchain-13.3.rel1-mingw-w64-i686-arm-none-eabi/bin/../lib/gcc/arm-none-eabi/13.3.1/thumb/v8-m.base/nofp\libc_nano.a(libc_a-mprec.o)
                0x080051e6                __lo0bits
 .text.__i2b    0x08005240       0x2c D:/AppData/arm-gnu-toolchain-13.3.rel1-mingw-w64-i686-arm-none-eabi/bin/../lib/gcc/arm-none-eabi/13.3.1/thumb/v8-m.base/nofp\libc_nano.a(libc_a-mprec.o)
                0x08005240                __i2b
 .text.__multiply
                0x0800526c      0x150 D:/AppData/arm-gnu-toolchain-13.3.rel1-mingw-w64-i686-arm-none-eabi/bin/../lib/gcc/arm-none-eabi/13.3.1/thumb/v8-m.base/nofp\libc_nano.a(libc_a-mprec.o)
                0x0800526c                __multiply
 .text.__pow5mult
                0x080053bc       0xb0 D:/AppData/arm-gnu-toolchain-13.3.rel1-mingw-w64-i686-arm-none-eabi/bin/../lib/gcc/arm-none-eabi/13.3.1/thumb/v8-m.base/nofp\libc_nano.a(libc_a-mprec.o)
                0x080053bc                __pow5mult
 .text.__lshift
                0x0800546c       0xd4 D:/AppData/arm-gnu-toolchain-13.3.rel1-mingw-w64-i686-arm-none-eabi/bin/../lib/gcc/arm-none-eabi/13.3.1/thumb/v8-m.base/nofp\libc_nano.a(libc_a-mprec.o)
                0x0800546c                __lshift
 .text.__mcmp   0x08005540       0x36 D:/AppData/arm-gnu-toolchain-13.3.rel1-mingw-w64-i686-arm-none-eabi/bin/../lib/gcc/arm-none-eabi/13.3.1/thumb/v8-m.base/nofp\libc_nano.a(libc_a-mprec.o)
                0x08005540                __mcmp
 *fill*         0x08005576        0x2 
 .text.__mdiff  0x08005578      0x12c D:/AppData/arm-gnu-toolchain-13.3.rel1-mingw-w64-i686-arm-none-eabi/bin/../lib/gcc/arm-none-eabi/13.3.1/thumb/v8-m.base/nofp\libc_nano.a(libc_a-mprec.o)
                0x08005578                __mdiff
 .text.__ulp    0x080056a4       0x40 D:/AppData/arm-gnu-toolchain-13.3.rel1-mingw-w64-i686-arm-none-eabi/bin/../lib/gcc/arm-none-eabi/13.3.1/thumb/v8-m.base/nofp\libc_nano.a(libc_a-mprec.o)
                0x080056a4                __ulp
 .text.__b2d    0x080056e4       0x98 D:/AppData/arm-gnu-toolchain-13.3.rel1-mingw-w64-i686-arm-none-eabi/bin/../lib/gcc/arm-none-eabi/13.3.1/thumb/v8-m.base/nofp\libc_nano.a(libc_a-mprec.o)
                0x080056e4                __b2d
 .text.__d2b    0x0800577c       0xb8 D:/AppData/arm-gnu-toolchain-13.3.rel1-mingw-w64-i686-arm-none-eabi/bin/../lib/gcc/arm-none-eabi/13.3.1/thumb/v8-m.base/nofp\libc_nano.a(libc_a-mprec.o)
                0x0800577c                __d2b
 .text.__ratio  0x08005834       0x54 D:/AppData/arm-gnu-toolchain-13.3.rel1-mingw-w64-i686-arm-none-eabi/bin/../lib/gcc/arm-none-eabi/13.3.1/thumb/v8-m.base/nofp\libc_nano.a(libc_a-mprec.o)
                0x08005834                __ratio
 .text.__copybits
                0x08005888       0x42 D:/AppData/arm-gnu-toolchain-13.3.rel1-mingw-w64-i686-arm-none-eabi/bin/../lib/gcc/arm-none-eabi/13.3.1/thumb/v8-m.base/nofp\libc_nano.a(libc_a-mprec.o)
                0x08005888                __copybits
 .text.__any_on
                0x080058ca       0x46 D:/AppData/arm-gnu-toolchain-13.3.rel1-mingw-w64-i686-arm-none-eabi/bin/../lib/gcc/arm-none-eabi/13.3.1/thumb/v8-m.base/nofp\libc_nano.a(libc_a-mprec.o)
                0x080058ca                __any_on
 .text.sulp     0x08005910       0x30 D:/AppData/arm-gnu-toolchain-13.3.rel1-mingw-w64-i686-arm-none-eabi/bin/../lib/gcc/arm-none-eabi/13.3.1/thumb/v8-m.base/nofp\libc_nano.a(libc_a-strtod.o)
 .text._strtod_l
                0x08005940      0xbd4 D:/AppData/arm-gnu-toolchain-13.3.rel1-mingw-w64-i686-arm-none-eabi/bin/../lib/gcc/arm-none-eabi/13.3.1/thumb/v8-m.base/nofp\libc_nano.a(libc_a-strtod.o)
                0x08005940                _strtod_l
 .text._strtod_r
                0x08006514       0x10 D:/AppData/arm-gnu-toolchain-13.3.rel1-mingw-w64-i686-arm-none-eabi/bin/../lib/gcc/arm-none-eabi/13.3.1/thumb/v8-m.base/nofp\libc_nano.a(libc_a-strtod.o)
                0x08006514                _strtod_r
 .text._strtol_l.isra.0
                0x08006524      0x128 D:/AppData/arm-gnu-toolchain-13.3.rel1-mingw-w64-i686-arm-none-eabi/bin/../lib/gcc/arm-none-eabi/13.3.1/thumb/v8-m.base/nofp\libc_nano.a(libc_a-strtol.o)
 .text._strtol_r
                0x0800664c        0x8 D:/AppData/arm-gnu-toolchain-13.3.rel1-mingw-w64-i686-arm-none-eabi/bin/../lib/gcc/arm-none-eabi/13.3.1/thumb/v8-m.base/nofp\libc_nano.a(libc_a-strtol.o)
                0x0800664c                _strtol_r
 .text.__ssputs_r
                0x08006654       0xc4 D:/AppData/arm-gnu-toolchain-13.3.rel1-mingw-w64-i686-arm-none-eabi/bin/../lib/gcc/arm-none-eabi/13.3.1/thumb/v8-m.base/nofp\libc_nano.a(libc_a-nano-svfprintf.o)
                0x08006654                __ssputs_r
 .text._svfprintf_r
                0x08006718      0x1f8 D:/AppData/arm-gnu-toolchain-13.3.rel1-mingw-w64-i686-arm-none-eabi/bin/../lib/gcc/arm-none-eabi/13.3.1/thumb/v8-m.base/nofp\libc_nano.a(libc_a-nano-svfprintf.o)
                0x08006718                _svfiprintf_r
                0x08006718                _svfprintf_r
 .text.__sflush_r
                0x08006910      0x104 D:/AppData/arm-gnu-toolchain-13.3.rel1-mingw-w64-i686-arm-none-eabi/bin/../lib/gcc/arm-none-eabi/13.3.1/thumb/v8-m.base/nofp\libc_nano.a(libc_a-fflush.o)
                0x08006910                __sflush_r
 .text._fflush_r
                0x08006a14       0x50 D:/AppData/arm-gnu-toolchain-13.3.rel1-mingw-w64-i686-arm-none-eabi/bin/../lib/gcc/arm-none-eabi/13.3.1/thumb/v8-m.base/nofp\libc_nano.a(libc_a-fflush.o)
                0x08006a14                _fflush_r
 .text.memmove  0x08006a64       0x24 D:/AppData/arm-gnu-toolchain-13.3.rel1-mingw-w64-i686-arm-none-eabi/bin/../lib/gcc/arm-none-eabi/13.3.1/thumb/v8-m.base/nofp\libc_nano.a(libc_a-memmove.o)
                0x08006a64                memmove
 .text.strncmp  0x08006a88       0x22 D:/AppData/arm-gnu-toolchain-13.3.rel1-mingw-w64-i686-arm-none-eabi/bin/../lib/gcc/arm-none-eabi/13.3.1/thumb/v8-m.base/nofp\libc_nano.a(libc_a-strncmp.o)
                0x08006a88                strncmp
 *fill*         0x08006aaa        0x2 
 .text._sbrk_r  0x08006aac       0x20 D:/AppData/arm-gnu-toolchain-13.3.rel1-mingw-w64-i686-arm-none-eabi/bin/../lib/gcc/arm-none-eabi/13.3.1/thumb/v8-m.base/nofp\libc_nano.a(libc_a-sbrkr.o)
                0x08006aac                _sbrk_r
 .text.__errno  0x08006acc        0xc D:/AppData/arm-gnu-toolchain-13.3.rel1-mingw-w64-i686-arm-none-eabi/bin/../lib/gcc/arm-none-eabi/13.3.1/thumb/v8-m.base/nofp\libc_nano.a(libc_a-errno.o)
                0x08006acc                __errno
 .text.memcpy   0x08006ad8       0x12 D:/AppData/arm-gnu-toolchain-13.3.rel1-mingw-w64-i686-arm-none-eabi/bin/../lib/gcc/arm-none-eabi/13.3.1/thumb/v8-m.base/nofp\libc_nano.a(libc_a-memcpy-stub.o)
                0x08006ad8                memcpy
 *fill*         0x08006aea        0x2 
 .text.nan      0x08006aec        0xc D:/AppData/arm-gnu-toolchain-13.3.rel1-mingw-w64-i686-arm-none-eabi/bin/../lib/gcc/arm-none-eabi/13.3.1/thumb/v8-m.base/nofp\libc_nano.a(libm_a-s_nan.o)
                0x08006aec                nan
 .text.__assert_func
                0x08006af8       0x3c D:/AppData/arm-gnu-toolchain-13.3.rel1-mingw-w64-i686-arm-none-eabi/bin/../lib/gcc/arm-none-eabi/13.3.1/thumb/v8-m.base/nofp\libc_nano.a(libc_a-assert.o)
                0x08006af8                __assert_func
 .text._calloc_r
                0x08006b34       0x54 D:/AppData/arm-gnu-toolchain-13.3.rel1-mingw-w64-i686-arm-none-eabi/bin/../lib/gcc/arm-none-eabi/13.3.1/thumb/v8-m.base/nofp\libc_nano.a(libc_a-callocr.o)
                0x08006b34                _calloc_r
 .text.rshift   0x08006b88       0xa4 D:/AppData/arm-gnu-toolchain-13.3.rel1-mingw-w64-i686-arm-none-eabi/bin/../lib/gcc/arm-none-eabi/13.3.1/thumb/v8-m.base/nofp\libc_nano.a(libc_a-gdtoa-gethex.o)
 .text.__hexdig_fun
                0x08006c2c       0x2a D:/AppData/arm-gnu-toolchain-13.3.rel1-mingw-w64-i686-arm-none-eabi/bin/../lib/gcc/arm-none-eabi/13.3.1/thumb/v8-m.base/nofp\libc_nano.a(libc_a-gdtoa-gethex.o)
                0x08006c2c                __hexdig_fun
 *fill*         0x08006c56        0x2 
 .text.__gethex
                0x08006c58      0x430 D:/AppData/arm-gnu-toolchain-13.3.rel1-mingw-w64-i686-arm-none-eabi/bin/../lib/gcc/arm-none-eabi/13.3.1/thumb/v8-m.base/nofp\libc_nano.a(libc_a-gdtoa-gethex.o)
                0x08006c58                __gethex
 .text.L_shift  0x08007088       0x24 D:/AppData/arm-gnu-toolchain-13.3.rel1-mingw-w64-i686-arm-none-eabi/bin/../lib/gcc/arm-none-eabi/13.3.1/thumb/v8-m.base/nofp\libc_nano.a(libc_a-gdtoa-hexnan.o)
 .text.__match  0x080070ac       0x26 D:/AppData/arm-gnu-toolchain-13.3.rel1-mingw-w64-i686-arm-none-eabi/bin/../lib/gcc/arm-none-eabi/13.3.1/thumb/v8-m.base/nofp\libc_nano.a(libc_a-gdtoa-hexnan.o)
                0x080070ac                __match
 .text.__hexnan
                0x080070d2      0x14c D:/AppData/arm-gnu-toolchain-13.3.rel1-mingw-w64-i686-arm-none-eabi/bin/../lib/gcc/arm-none-eabi/13.3.1/thumb/v8-m.base/nofp\libc_nano.a(libc_a-gdtoa-hexnan.o)
                0x080070d2                __hexnan
 .text.__ascii_mbtowc
                0x0800721e       0x20 D:/AppData/arm-gnu-toolchain-13.3.rel1-mingw-w64-i686-arm-none-eabi/bin/../lib/gcc/arm-none-eabi/13.3.1/thumb/v8-m.base/nofp\libc_nano.a(libc_a-mbtowc_r.o)
                0x0800721e                __ascii_mbtowc
 .text._realloc_r
                0x0800723e       0x5a D:/AppData/arm-gnu-toolchain-13.3.rel1-mingw-w64-i686-arm-none-eabi/bin/../lib/gcc/arm-none-eabi/13.3.1/thumb/v8-m.base/nofp\libc_nano.a(libc_a-reallocr.o)
                0x0800723e                _realloc_r
 .text.__ascii_wctomb
                0x08007298       0x1a D:/AppData/arm-gnu-toolchain-13.3.rel1-mingw-w64-i686-arm-none-eabi/bin/../lib/gcc/arm-none-eabi/13.3.1/thumb/v8-m.base/nofp\libc_nano.a(libc_a-wctomb_r.o)
                0x08007298                __ascii_wctomb
 *fill*         0x080072b2        0x2 
 .text.fprintf  0x080072b4       0x20 D:/AppData/arm-gnu-toolchain-13.3.rel1-mingw-w64-i686-arm-none-eabi/bin/../lib/gcc/arm-none-eabi/13.3.1/thumb/v8-m.base/nofp\libc_nano.a(libc_a-fprintf.o)
                0x080072b4                fiprintf
                0x080072b4                fprintf
 .text.abort    0x080072d4        0xe D:/AppData/arm-gnu-toolchain-13.3.rel1-mingw-w64-i686-arm-none-eabi/bin/../lib/gcc/arm-none-eabi/13.3.1/thumb/v8-m.base/nofp\libc_nano.a(libc_a-abort.o)
                0x080072d4                abort
 .text._malloc_usable_size_r
                0x080072e2       0x10 D:/AppData/arm-gnu-toolchain-13.3.rel1-mingw-w64-i686-arm-none-eabi/bin/../lib/gcc/arm-none-eabi/13.3.1/thumb/v8-m.base/nofp\libc_nano.a(libc_a-msizer.o)
                0x080072e2                _malloc_usable_size_r
 .text.__sfputc_r
                0x080072f2       0x2a D:/AppData/arm-gnu-toolchain-13.3.rel1-mingw-w64-i686-arm-none-eabi/bin/../lib/gcc/arm-none-eabi/13.3.1/thumb/v8-m.base/nofp\libc_nano.a(libc_a-nano-vfprintf.o)
 .text.__sfputs_r
                0x0800731c       0x24 D:/AppData/arm-gnu-toolchain-13.3.rel1-mingw-w64-i686-arm-none-eabi/bin/../lib/gcc/arm-none-eabi/13.3.1/thumb/v8-m.base/nofp\libc_nano.a(libc_a-nano-vfprintf.o)
                0x0800731c                __sfputs_r
 .text._vfprintf_r
                0x08007340      0x22c D:/AppData/arm-gnu-toolchain-13.3.rel1-mingw-w64-i686-arm-none-eabi/bin/../lib/gcc/arm-none-eabi/13.3.1/thumb/v8-m.base/nofp\libc_nano.a(libc_a-nano-vfprintf.o)
                0x08007340                _vfprintf_r
                0x08007340                _vfiprintf_r
 .text.__swbuf_r
                0x0800756c       0x7c D:/AppData/arm-gnu-toolchain-13.3.rel1-mingw-w64-i686-arm-none-eabi/bin/../lib/gcc/arm-none-eabi/13.3.1/thumb/v8-m.base/nofp\libc_nano.a(libc_a-wbuf.o)
                0x0800756c                __swbuf_r
 .text.__swsetup_r
                0x080075e8       0xb0 D:/AppData/arm-gnu-toolchain-13.3.rel1-mingw-w64-i686-arm-none-eabi/bin/../lib/gcc/arm-none-eabi/13.3.1/thumb/v8-m.base/nofp\libc_nano.a(libc_a-wsetup.o)
                0x080075e8                __swsetup_r
 .text._raise_r
                0x08007698       0x4e D:/AppData/arm-gnu-toolchain-13.3.rel1-mingw-w64-i686-arm-none-eabi/bin/../lib/gcc/arm-none-eabi/13.3.1/thumb/v8-m.base/nofp\libc_nano.a(libc_a-signal.o)
                0x08007698                _raise_r
 *fill*         0x080076e6        0x2 
 .text.raise    0x080076e8       0x14 D:/AppData/arm-gnu-toolchain-13.3.rel1-mingw-w64-i686-arm-none-eabi/bin/../lib/gcc/arm-none-eabi/13.3.1/thumb/v8-m.base/nofp\libc_nano.a(libc_a-signal.o)
                0x080076e8                raise
 .text._kill_r  0x080076fc       0x24 D:/AppData/arm-gnu-toolchain-13.3.rel1-mingw-w64-i686-arm-none-eabi/bin/../lib/gcc/arm-none-eabi/13.3.1/thumb/v8-m.base/nofp\libc_nano.a(libc_a-signalr.o)
                0x080076fc                _kill_r
 .text._getpid_r
                0x08007720        0x8 D:/AppData/arm-gnu-toolchain-13.3.rel1-mingw-w64-i686-arm-none-eabi/bin/../lib/gcc/arm-none-eabi/13.3.1/thumb/v8-m.base/nofp\libc_nano.a(libc_a-signalr.o)
                0x08007720                _getpid_r
 .text.__swhatbuf_r
                0x08007728       0x54 D:/AppData/arm-gnu-toolchain-13.3.rel1-mingw-w64-i686-arm-none-eabi/bin/../lib/gcc/arm-none-eabi/13.3.1/thumb/v8-m.base/nofp\libc_nano.a(libc_a-makebuf.o)
                0x08007728                __swhatbuf_r
 .text.__smakebuf_r
                0x0800777c       0x7c D:/AppData/arm-gnu-toolchain-13.3.rel1-mingw-w64-i686-arm-none-eabi/bin/../lib/gcc/arm-none-eabi/13.3.1/thumb/v8-m.base/nofp\libc_nano.a(libc_a-makebuf.o)
                0x0800777c                __smakebuf_r
 .text._fstat_r
                0x080077f8       0x24 D:/AppData/arm-gnu-toolchain-13.3.rel1-mingw-w64-i686-arm-none-eabi/bin/../lib/gcc/arm-none-eabi/13.3.1/thumb/v8-m.base/nofp\libc_nano.a(libc_a-fstatr.o)
                0x080077f8                _fstat_r
 .text._isatty_r
                0x0800781c       0x20 D:/AppData/arm-gnu-toolchain-13.3.rel1-mingw-w64-i686-arm-none-eabi/bin/../lib/gcc/arm-none-eabi/13.3.1/thumb/v8-m.base/nofp\libc_nano.a(libc_a-isattyr.o)
                0x0800781c                _isatty_r
 .text.__fixunssfsi
                0x0800783c       0x30 D:/AppData/arm-gnu-toolchain-13.3.rel1-mingw-w64-i686-arm-none-eabi/bin/../lib/gcc/arm-none-eabi/13.3.1/thumb/v8-m.base/nofp\libgcc.a(_fixunssfsi.o)
                0x0800783c                __fixunssfsi
                0x0800783c                __aeabi_f2uiz
 .text.__fixunsdfsi
                0x0800786c       0x3c D:/AppData/arm-gnu-toolchain-13.3.rel1-mingw-w64-i686-arm-none-eabi/bin/../lib/gcc/arm-none-eabi/13.3.1/thumb/v8-m.base/nofp\libgcc.a(_fixunsdfsi.o)
                0x0800786c                __aeabi_d2uiz
                0x0800786c                __fixunsdfsi
 .text.__fixdfdi
                0x080078a8       0x38 D:/AppData/arm-gnu-toolchain-13.3.rel1-mingw-w64-i686-arm-none-eabi/bin/../lib/gcc/arm-none-eabi/13.3.1/thumb/v8-m.base/nofp\libgcc.a(_fixdfdi.o)
                0x080078a8                __fixdfdi
                0x080078a8                __aeabi_d2lz
 .text.__fixunsdfdi
                0x080078e0       0x3c D:/AppData/arm-gnu-toolchain-13.3.rel1-mingw-w64-i686-arm-none-eabi/bin/../lib/gcc/arm-none-eabi/13.3.1/thumb/v8-m.base/nofp\libgcc.a(_fixunsdfdi.o)
                0x080078e0                __fixunsdfdi
                0x080078e0                __aeabi_d2ulz
 .text.__floatdidf
                0x0800791c       0x2c D:/AppData/arm-gnu-toolchain-13.3.rel1-mingw-w64-i686-arm-none-eabi/bin/../lib/gcc/arm-none-eabi/13.3.1/thumb/v8-m.base/nofp\libgcc.a(_floatdidf.o)
                0x0800791c                __aeabi_l2d
                0x0800791c                __floatdidf
 .text.__aeabi_fdiv
                0x08007948      0x224 D:/AppData/arm-gnu-toolchain-13.3.rel1-mingw-w64-i686-arm-none-eabi/bin/../lib/gcc/arm-none-eabi/13.3.1/thumb/v8-m.base/nofp\libgcc.a(divsf3.o)
                0x08007948                __aeabi_fdiv
 .text.__eqsf2  0x08007b6c       0x50 D:/AppData/arm-gnu-toolchain-13.3.rel1-mingw-w64-i686-arm-none-eabi/bin/../lib/gcc/arm-none-eabi/13.3.1/thumb/v8-m.base/nofp\libgcc.a(eqsf2.o)
                0x08007b6c                __eqsf2
                0x08007b6c                __nesf2
 .text.__gesf2  0x08007bbc       0x84 D:/AppData/arm-gnu-toolchain-13.3.rel1-mingw-w64-i686-arm-none-eabi/bin/../lib/gcc/arm-none-eabi/13.3.1/thumb/v8-m.base/nofp\libgcc.a(gesf2.o)
                0x08007bbc                __gesf2
                0x08007bbc                __gtsf2
 .text.__lesf2  0x08007c40       0x80 D:/AppData/arm-gnu-toolchain-13.3.rel1-mingw-w64-i686-arm-none-eabi/bin/../lib/gcc/arm-none-eabi/13.3.1/thumb/v8-m.base/nofp\libgcc.a(lesf2.o)
                0x08007c40                __ltsf2
                0x08007c40                __lesf2
 .text.__aeabi_fmul
                0x08007cc0      0x280 D:/AppData/arm-gnu-toolchain-13.3.rel1-mingw-w64-i686-arm-none-eabi/bin/../lib/gcc/arm-none-eabi/13.3.1/thumb/v8-m.base/nofp\libgcc.a(mulsf3.o)
                0x08007cc0                __aeabi_fmul
 .text.__aeabi_fsub
                0x08007f40      0x388 D:/AppData/arm-gnu-toolchain-13.3.rel1-mingw-w64-i686-arm-none-eabi/bin/../lib/gcc/arm-none-eabi/13.3.1/thumb/v8-m.base/nofp\libgcc.a(subsf3.o)
                0x08007f40                __aeabi_fsub
 .text.__aeabi_f2iz
                0x080082c8       0x40 D:/AppData/arm-gnu-toolchain-13.3.rel1-mingw-w64-i686-arm-none-eabi/bin/../lib/gcc/arm-none-eabi/13.3.1/thumb/v8-m.base/nofp\libgcc.a(fixsfsi.o)
                0x080082c8                __aeabi_f2iz
 .text.__aeabi_i2f
                0x08008308       0x90 D:/AppData/arm-gnu-toolchain-13.3.rel1-mingw-w64-i686-arm-none-eabi/bin/../lib/gcc/arm-none-eabi/13.3.1/thumb/v8-m.base/nofp\libgcc.a(floatsisf.o)
                0x08008308                __aeabi_i2f
 .text.__aeabi_dadd
                0x08008398      0x704 D:/AppData/arm-gnu-toolchain-13.3.rel1-mingw-w64-i686-arm-none-eabi/bin/../lib/gcc/arm-none-eabi/13.3.1/thumb/v8-m.base/nofp\libgcc.a(adddf3.o)
                0x08008398                __aeabi_dadd
 .text.__aeabi_ddiv
                0x08008a9c      0x678 D:/AppData/arm-gnu-toolchain-13.3.rel1-mingw-w64-i686-arm-none-eabi/bin/../lib/gcc/arm-none-eabi/13.3.1/thumb/v8-m.base/nofp\libgcc.a(divdf3.o)
                0x08008a9c                __aeabi_ddiv
 .text.__eqdf2  0x08009114       0x88 D:/AppData/arm-gnu-toolchain-13.3.rel1-mingw-w64-i686-arm-none-eabi/bin/../lib/gcc/arm-none-eabi/13.3.1/thumb/v8-m.base/nofp\libgcc.a(eqdf2.o)
                0x08009114                __nedf2
                0x08009114                __eqdf2
 .text.__gedf2  0x0800919c       0xdc D:/AppData/arm-gnu-toolchain-13.3.rel1-mingw-w64-i686-arm-none-eabi/bin/../lib/gcc/arm-none-eabi/13.3.1/thumb/v8-m.base/nofp\libgcc.a(gedf2.o)
                0x0800919c                __gedf2
                0x0800919c                __gtdf2
 .text.__ledf2  0x08009278       0xdc D:/AppData/arm-gnu-toolchain-13.3.rel1-mingw-w64-i686-arm-none-eabi/bin/../lib/gcc/arm-none-eabi/13.3.1/thumb/v8-m.base/nofp\libgcc.a(ledf2.o)
                0x08009278                __ledf2
                0x08009278                __ltdf2
 .text.__aeabi_dmul
                0x08009354      0x5b4 D:/AppData/arm-gnu-toolchain-13.3.rel1-mingw-w64-i686-arm-none-eabi/bin/../lib/gcc/arm-none-eabi/13.3.1/thumb/v8-m.base/nofp\libgcc.a(muldf3.o)
                0x08009354                __aeabi_dmul
 .text.__aeabi_dsub
                0x08009908      0x7a4 D:/AppData/arm-gnu-toolchain-13.3.rel1-mingw-w64-i686-arm-none-eabi/bin/../lib/gcc/arm-none-eabi/13.3.1/thumb/v8-m.base/nofp\libgcc.a(subdf3.o)
                0x08009908                __aeabi_dsub
 .text.__aeabi_dcmpun
                0x0800a0ac       0x38 D:/AppData/arm-gnu-toolchain-13.3.rel1-mingw-w64-i686-arm-none-eabi/bin/../lib/gcc/arm-none-eabi/13.3.1/thumb/v8-m.base/nofp\libgcc.a(unorddf2.o)
                0x0800a0ac                __aeabi_dcmpun
 .text.__aeabi_d2iz
                0x0800a0e4       0x70 D:/AppData/arm-gnu-toolchain-13.3.rel1-mingw-w64-i686-arm-none-eabi/bin/../lib/gcc/arm-none-eabi/13.3.1/thumb/v8-m.base/nofp\libgcc.a(fixdfsi.o)
                0x0800a0e4                __aeabi_d2iz
 .text.__aeabi_i2d
                0x0800a154       0x58 D:/AppData/arm-gnu-toolchain-13.3.rel1-mingw-w64-i686-arm-none-eabi/bin/../lib/gcc/arm-none-eabi/13.3.1/thumb/v8-m.base/nofp\libgcc.a(floatsidf.o)
                0x0800a154                __aeabi_i2d
 .text.__aeabi_ui2d
                0x0800a1ac       0x48 D:/AppData/arm-gnu-toolchain-13.3.rel1-mingw-w64-i686-arm-none-eabi/bin/../lib/gcc/arm-none-eabi/13.3.1/thumb/v8-m.base/nofp\libgcc.a(floatunsidf.o)
                0x0800a1ac                __aeabi_ui2d
 .text.__aeabi_d2f
                0x0800a1f4      0x108 D:/AppData/arm-gnu-toolchain-13.3.rel1-mingw-w64-i686-arm-none-eabi/bin/../lib/gcc/arm-none-eabi/13.3.1/thumb/v8-m.base/nofp\libgcc.a(truncdfsf2.o)
                0x0800a1f4                __aeabi_d2f
 *(.glue_7)
 .glue_7        0x0800a2fc        0x0 linker stubs
 *(.glue_7t)
 .glue_7t       0x0800a2fc        0x0 linker stubs
 *(.eh_frame)
 .eh_frame      0x0800a2fc        0x0 D:/AppData/arm-gnu-toolchain-13.3.rel1-mingw-w64-i686-arm-none-eabi/bin/../lib/gcc/arm-none-eabi/13.3.1/thumb/v8-m.base/nofp/crtbegin.o
 *(.init)
 .init          0x0800a2fc        0x4 D:/AppData/arm-gnu-toolchain-13.3.rel1-mingw-w64-i686-arm-none-eabi/bin/../lib/gcc/arm-none-eabi/13.3.1/thumb/v8-m.base/nofp/crti.o
                0x0800a2fc                _init
 .init          0x0800a300        0x8 D:/AppData/arm-gnu-toolchain-13.3.rel1-mingw-w64-i686-arm-none-eabi/bin/../lib/gcc/arm-none-eabi/13.3.1/thumb/v8-m.base/nofp/crtn.o
 *(.fini)
 .fini          0x0800a308        0x4 D:/AppData/arm-gnu-toolchain-13.3.rel1-mingw-w64-i686-arm-none-eabi/bin/../lib/gcc/arm-none-eabi/13.3.1/thumb/v8-m.base/nofp/crti.o
                0x0800a308                _fini
 .fini          0x0800a30c        0x8 D:/AppData/arm-gnu-toolchain-13.3.rel1-mingw-w64-i686-arm-none-eabi/bin/../lib/gcc/arm-none-eabi/13.3.1/thumb/v8-m.base/nofp/crtn.o
                0x0800a314                        . = ALIGN (0x4)
                0x0800a314                        _etext = .

.vfp11_veneer   0x0800a314        0x0
 .vfp11_veneer  0x0800a314        0x0 linker stubs

.v4_bx          0x0800a314        0x0
 .v4_bx         0x0800a314        0x0 linker stubs

.iplt           0x0800a314        0x0
 .iplt          0x0800a314        0x0 D:/AppData/arm-gnu-toolchain-13.3.rel1-mingw-w64-i686-arm-none-eabi/bin/../lib/gcc/arm-none-eabi/13.3.1/thumb/v8-m.base/nofp/crtbegin.o

.rodata         0x0800a318     0x3b88
                0x0800a318                        . = ALIGN (0x4)
 *(.rodata)
 *(.rodata*)
 .rodata.EXTI4_15_IRQHandler
                0x0800a318       0x28 build/gd32e23x_it.o
 .rodata.DMA_Channel0_IRQHandler.str1.4
                0x0800a340      0x19b build/gd32e23x_it.o
                                  0xf (size before relaxing)
 .rodata.TIMER2_IRQHandler.str1.4
                0x0800a4db       0x12 build/gd32e23x_it.o
 *fill*         0x0800a4db        0x1 
 .rodata.__FUNCTION__.2
                0x0800a4dc       0x12 build/gd32e23x_it.o
 *fill*         0x0800a4ee        0x2 
 .rodata.__FUNCTION__.3
                0x0800a4f0       0x18 build/gd32e23x_it.o
 .rodata.AppInterface.str1.4
                0x0800a508        0x6 build/app.o
 .rodata.AppStateDisplay.str1.4
                0x0800a508       0x4a build/app.o
 .rodata.WaveformDisplay.str1.4
                0x0800a508       0x23 build/app.o
 .rodata.AppInit.str1.4
                0x0800a508        0xb build/app.o
 .rodata.AppStart.str1.4
                0x0800a508       0xef build/app.o
 .rodata.__FUNCTION__.0
                0x0800a508       0x10 build/app.o
 .rodata.__FUNCTION__.1
                0x0800a518       0x10 build/app.o
 .rodata.__FUNCTION__.2
                0x0800a528        0x9 build/app.o
 *fill*         0x0800a531        0x3 
 .rodata.__FUNCTION__.3
                0x0800a534        0x8 build/app.o
 .rodata.UI_MSG
                0x0800a53c       0x60 build/app.o
                0x0800a53c                UI_MSG
 .rodata.rcu_adc_clock_config
                0x0800a59c       0x28 build/gd32e23x_rcu.o
 .rodata.ascii_3216
                0x0800a5c4     0x17c0 build/lcd.o
                0x0800a5c4                ascii_3216
 .rodata.ascii_2412
                0x0800bd84     0x11d0 build/lcd.o
                0x0800bd84                ascii_2412
 .rodata.ascii_1608
                0x0800cf54      0x5f0 build/lcd.o
                0x0800cf54                ascii_1608
 .rodata.ascii_1206
                0x0800d544      0x474 build/lcd.o
                0x0800d544                ascii_1206
 .rodata._printf_float.str1.1
                0x0800d9b8      0x1d9 D:/AppData/arm-gnu-toolchain-13.3.rel1-mingw-w64-i686-arm-none-eabi/bin/../lib/gcc/arm-none-eabi/13.3.1/thumb/v8-m.base/nofp\libc_nano.a(libc_a-nano-vfprintf_float.o)
                                 0x12 (size before relaxing)
 .rodata._printf_i.str1.1
                0x0800db91       0x22 D:/AppData/arm-gnu-toolchain-13.3.rel1-mingw-w64-i686-arm-none-eabi/bin/../lib/gcc/arm-none-eabi/13.3.1/thumb/v8-m.base/nofp\libc_nano.a(libc_a-nano-vfprintf_i.o)
 .rodata._scanf_float.str1.1
                0x0800db91        0x6 D:/AppData/arm-gnu-toolchain-13.3.rel1-mingw-w64-i686-arm-none-eabi/bin/../lib/gcc/arm-none-eabi/13.3.1/thumb/v8-m.base/nofp\libc_nano.a(libc_a-nano-vfscanf_float.o)
 .rodata._dtoa_r.str1.1
                0x0800db91       0x90 D:/AppData/arm-gnu-toolchain-13.3.rel1-mingw-w64-i686-arm-none-eabi/bin/../lib/gcc/arm-none-eabi/13.3.1/thumb/v8-m.base/nofp\libc_nano.a(libc_a-dtoa.o)
 .rodata._Balloc.str1.1
                0x0800db91       0x71 D:/AppData/arm-gnu-toolchain-13.3.rel1-mingw-w64-i686-arm-none-eabi/bin/../lib/gcc/arm-none-eabi/13.3.1/thumb/v8-m.base/nofp\libc_nano.a(libc_a-mprec.o)
 .rodata.__multadd.str1.1
                0x0800db91       0x11 D:/AppData/arm-gnu-toolchain-13.3.rel1-mingw-w64-i686-arm-none-eabi/bin/../lib/gcc/arm-none-eabi/13.3.1/thumb/v8-m.base/nofp\libc_nano.a(libc_a-mprec.o)
 *fill*         0x0800db91        0x3 
 .rodata.p05.0  0x0800db94        0xc D:/AppData/arm-gnu-toolchain-13.3.rel1-mingw-w64-i686-arm-none-eabi/bin/../lib/gcc/arm-none-eabi/13.3.1/thumb/v8-m.base/nofp\libc_nano.a(libc_a-mprec.o)
 .rodata.__mprec_bigtens
                0x0800dba0       0x28 D:/AppData/arm-gnu-toolchain-13.3.rel1-mingw-w64-i686-arm-none-eabi/bin/../lib/gcc/arm-none-eabi/13.3.1/thumb/v8-m.base/nofp\libc_nano.a(libc_a-mprec.o)
                0x0800dba0                __mprec_bigtens
 .rodata.__mprec_tens
                0x0800dbc8       0xc8 D:/AppData/arm-gnu-toolchain-13.3.rel1-mingw-w64-i686-arm-none-eabi/bin/../lib/gcc/arm-none-eabi/13.3.1/thumb/v8-m.base/nofp\libc_nano.a(libc_a-mprec.o)
                0x0800dbc8                __mprec_tens
 .rodata._strtod_l.str1.1
                0x0800dc90        0xf D:/AppData/arm-gnu-toolchain-13.3.rel1-mingw-w64-i686-arm-none-eabi/bin/../lib/gcc/arm-none-eabi/13.3.1/thumb/v8-m.base/nofp\libc_nano.a(libc_a-strtod.o)
 .rodata.fpinan.0
                0x0800dc90       0x14 D:/AppData/arm-gnu-toolchain-13.3.rel1-mingw-w64-i686-arm-none-eabi/bin/../lib/gcc/arm-none-eabi/13.3.1/thumb/v8-m.base/nofp\libc_nano.a(libc_a-strtod.o)
 .rodata.fpi.1  0x0800dca4       0x14 D:/AppData/arm-gnu-toolchain-13.3.rel1-mingw-w64-i686-arm-none-eabi/bin/../lib/gcc/arm-none-eabi/13.3.1/thumb/v8-m.base/nofp\libc_nano.a(libc_a-strtod.o)
 .rodata.tinytens
                0x0800dcb8       0x28 D:/AppData/arm-gnu-toolchain-13.3.rel1-mingw-w64-i686-arm-none-eabi/bin/../lib/gcc/arm-none-eabi/13.3.1/thumb/v8-m.base/nofp\libc_nano.a(libc_a-strtod.o)
 .rodata._ctype_
                0x0800dce0      0x101 D:/AppData/arm-gnu-toolchain-13.3.rel1-mingw-w64-i686-arm-none-eabi/bin/../lib/gcc/arm-none-eabi/13.3.1/thumb/v8-m.base/nofp\libc_nano.a(libc_a-ctype_.o)
                0x0800dce0                _ctype_
 .rodata._svfprintf_r.str1.1
                0x0800dde1       0x11 D:/AppData/arm-gnu-toolchain-13.3.rel1-mingw-w64-i686-arm-none-eabi/bin/../lib/gcc/arm-none-eabi/13.3.1/thumb/v8-m.base/nofp\libc_nano.a(libc_a-nano-svfprintf.o)
 .rodata._setlocale_r.str1.1
                0x0800dde1        0x9 D:/AppData/arm-gnu-toolchain-13.3.rel1-mingw-w64-i686-arm-none-eabi/bin/../lib/gcc/arm-none-eabi/13.3.1/thumb/v8-m.base/nofp\libc_nano.a(libc_a-locale.o)
 .rodata.str1.1
                0x0800dde1        0x2 D:/AppData/arm-gnu-toolchain-13.3.rel1-mingw-w64-i686-arm-none-eabi/bin/../lib/gcc/arm-none-eabi/13.3.1/thumb/v8-m.base/nofp\libc_nano.a(libc_a-locale.o)
 .rodata.__assert_func.str1.1
                0x0800dde1       0x3d D:/AppData/arm-gnu-toolchain-13.3.rel1-mingw-w64-i686-arm-none-eabi/bin/../lib/gcc/arm-none-eabi/13.3.1/thumb/v8-m.base/nofp\libc_nano.a(libc_a-assert.o)
 .rodata.__gethex.str1.1
                0x0800dde1       0x74 D:/AppData/arm-gnu-toolchain-13.3.rel1-mingw-w64-i686-arm-none-eabi/bin/../lib/gcc/arm-none-eabi/13.3.1/thumb/v8-m.base/nofp\libc_nano.a(libc_a-gdtoa-gethex.o)
 .rodata._vfprintf_r.str1.1
                0x0800dde1       0x11 D:/AppData/arm-gnu-toolchain-13.3.rel1-mingw-w64-i686-arm-none-eabi/bin/../lib/gcc/arm-none-eabi/13.3.1/thumb/v8-m.base/nofp\libc_nano.a(libc_a-nano-vfprintf.o)
 *fill*         0x0800dde1        0x3 
 .rodata.__aeabi_fdiv
                0x0800dde4       0x7c D:/AppData/arm-gnu-toolchain-13.3.rel1-mingw-w64-i686-arm-none-eabi/bin/../lib/gcc/arm-none-eabi/13.3.1/thumb/v8-m.base/nofp\libgcc.a(divsf3.o)
 .rodata.__aeabi_ddiv
                0x0800de60       0x40 D:/AppData/arm-gnu-toolchain-13.3.rel1-mingw-w64-i686-arm-none-eabi/bin/../lib/gcc/arm-none-eabi/13.3.1/thumb/v8-m.base/nofp\libgcc.a(divdf3.o)
                0x0800dea0                        . = ALIGN (0x4)

.rel.dyn        0x0800dea0        0x0
 .rel.iplt      0x0800dea0        0x0 D:/AppData/arm-gnu-toolchain-13.3.rel1-mingw-w64-i686-arm-none-eabi/bin/../lib/gcc/arm-none-eabi/13.3.1/thumb/v8-m.base/nofp/crtbegin.o

.ARM.extab
 *(.ARM.extab* .gnu.linkonce.armextab.*)

.ARM            0x0800dea0        0x0
                0x0800dea0                        __exidx_start = .
 *(.ARM.exidx*)
                0x0800dea0                        __exidx_end = .

.ARM.attributes
                0x0800dea0       0x2c
 *(.ARM.attributes)
 .ARM.attributes
                0x0800dea0       0x22 D:/AppData/arm-gnu-toolchain-13.3.rel1-mingw-w64-i686-arm-none-eabi/bin/../lib/gcc/arm-none-eabi/13.3.1/thumb/v8-m.base/nofp/crti.o
 .ARM.attributes
                0x0800dec2       0x30 D:/AppData/arm-gnu-toolchain-13.3.rel1-mingw-w64-i686-arm-none-eabi/bin/../lib/gcc/arm-none-eabi/13.3.1/thumb/v8-m.base/nofp/crtbegin.o
 .ARM.attributes
                0x0800def2       0x30 build/main.o
 .ARM.attributes
                0x0800df22       0x30 build/systick.o
 .ARM.attributes
                0x0800df52       0x30 build/gd32e23x_it.o
 .ARM.attributes
                0x0800df82       0x30 build/log.o
 .ARM.attributes
                0x0800dfb2       0x30 build/app.o
 .ARM.attributes
                0x0800dfe2       0x30 build/peripheral.o
 .ARM.attributes
                0x0800e012       0x30 build/gd32e23x_adc.o
 .ARM.attributes
                0x0800e042       0x30 build/gd32e23x_dma.o
 .ARM.attributes
                0x0800e072       0x30 build/gd32e23x_exti.o
 .ARM.attributes
                0x0800e0a2       0x30 build/gd32e23x_gpio.o
 .ARM.attributes
                0x0800e0d2       0x30 build/gd32e23x_misc.o
 .ARM.attributes
                0x0800e102       0x30 build/gd32e23x_rcu.o
 .ARM.attributes
                0x0800e132       0x30 build/gd32e23x_spi.o
 .ARM.attributes
                0x0800e162       0x30 build/gd32e23x_syscfg.o
 .ARM.attributes
                0x0800e192       0x30 build/gd32e23x_timer.o
 .ARM.attributes
                0x0800e1c2       0x30 build/syscalls.o
 .ARM.attributes
                0x0800e1f2       0x30 build/system_gd32e23x.o
 .ARM.attributes
                0x0800e222       0x30 build/lcd.o
 .ARM.attributes
                0x0800e252       0x22 build/startup_gd32e23x.o
 .ARM.attributes
                0x0800e274       0x30 D:/AppData/arm-gnu-toolchain-13.3.rel1-mingw-w64-i686-arm-none-eabi/bin/../lib/gcc/arm-none-eabi/13.3.1/thumb/v8-m.base/nofp\libc_nano.a(libc_a-nano-vfprintf_float.o)
 .ARM.attributes
                0x0800e2a4       0x30 D:/AppData/arm-gnu-toolchain-13.3.rel1-mingw-w64-i686-arm-none-eabi/bin/../lib/gcc/arm-none-eabi/13.3.1/thumb/v8-m.base/nofp\libc_nano.a(libc_a-nano-vfprintf_i.o)
 .ARM.attributes
                0x0800e2d4       0x30 D:/AppData/arm-gnu-toolchain-13.3.rel1-mingw-w64-i686-arm-none-eabi/bin/../lib/gcc/arm-none-eabi/13.3.1/thumb/v8-m.base/nofp\libc_nano.a(libc_a-nano-vfscanf_float.o)
 .ARM.attributes
                0x0800e304       0x30 D:/AppData/arm-gnu-toolchain-13.3.rel1-mingw-w64-i686-arm-none-eabi/bin/../lib/gcc/arm-none-eabi/13.3.1/thumb/v8-m.base/nofp\libc_nano.a(libc_a-findfp.o)
 .ARM.attributes
                0x0800e334       0x30 D:/AppData/arm-gnu-toolchain-13.3.rel1-mingw-w64-i686-arm-none-eabi/bin/../lib/gcc/arm-none-eabi/13.3.1/thumb/v8-m.base/nofp\libc_nano.a(libc_a-fwalk.o)
 .ARM.attributes
                0x0800e364       0x30 D:/AppData/arm-gnu-toolchain-13.3.rel1-mingw-w64-i686-arm-none-eabi/bin/../lib/gcc/arm-none-eabi/13.3.1/thumb/v8-m.base/nofp\libc_nano.a(libc_a-sprintf.o)
 .ARM.attributes
                0x0800e394       0x30 D:/AppData/arm-gnu-toolchain-13.3.rel1-mingw-w64-i686-arm-none-eabi/bin/../lib/gcc/arm-none-eabi/13.3.1/thumb/v8-m.base/nofp\libc_nano.a(libc_a-stdio.o)
 .ARM.attributes
                0x0800e3c4       0x30 D:/AppData/arm-gnu-toolchain-13.3.rel1-mingw-w64-i686-arm-none-eabi/bin/../lib/gcc/arm-none-eabi/13.3.1/thumb/v8-m.base/nofp\libc_nano.a(libc_a-memset.o)
 .ARM.attributes
                0x0800e3f4       0x30 D:/AppData/arm-gnu-toolchain-13.3.rel1-mingw-w64-i686-arm-none-eabi/bin/../lib/gcc/arm-none-eabi/13.3.1/thumb/v8-m.base/nofp\libc_nano.a(libc_a-localeconv.o)
 .ARM.attributes
                0x0800e424       0x30 D:/AppData/arm-gnu-toolchain-13.3.rel1-mingw-w64-i686-arm-none-eabi/bin/../lib/gcc/arm-none-eabi/13.3.1/thumb/v8-m.base/nofp\libc_nano.a(libc_a-closer.o)
 .ARM.attributes
                0x0800e454       0x30 D:/AppData/arm-gnu-toolchain-13.3.rel1-mingw-w64-i686-arm-none-eabi/bin/../lib/gcc/arm-none-eabi/13.3.1/thumb/v8-m.base/nofp\libc_nano.a(libc_a-reent.o)
 .ARM.attributes
                0x0800e484       0x30 D:/AppData/arm-gnu-toolchain-13.3.rel1-mingw-w64-i686-arm-none-eabi/bin/../lib/gcc/arm-none-eabi/13.3.1/thumb/v8-m.base/nofp\libc_nano.a(libc_a-impure.o)
 .ARM.attributes
                0x0800e4b4       0x30 D:/AppData/arm-gnu-toolchain-13.3.rel1-mingw-w64-i686-arm-none-eabi/bin/../lib/gcc/arm-none-eabi/13.3.1/thumb/v8-m.base/nofp\libc_nano.a(libc_a-lseekr.o)
 .ARM.attributes
                0x0800e4e4       0x30 D:/AppData/arm-gnu-toolchain-13.3.rel1-mingw-w64-i686-arm-none-eabi/bin/../lib/gcc/arm-none-eabi/13.3.1/thumb/v8-m.base/nofp\libc_nano.a(libc_a-readr.o)
 .ARM.attributes
                0x0800e514       0x30 D:/AppData/arm-gnu-toolchain-13.3.rel1-mingw-w64-i686-arm-none-eabi/bin/../lib/gcc/arm-none-eabi/13.3.1/thumb/v8-m.base/nofp\libc_nano.a(libc_a-writer.o)
 .ARM.attributes
                0x0800e544       0x30 D:/AppData/arm-gnu-toolchain-13.3.rel1-mingw-w64-i686-arm-none-eabi/bin/../lib/gcc/arm-none-eabi/13.3.1/thumb/v8-m.base/nofp\libc_nano.a(libc_a-init.o)
 .ARM.attributes
                0x0800e574       0x30 D:/AppData/arm-gnu-toolchain-13.3.rel1-mingw-w64-i686-arm-none-eabi/bin/../lib/gcc/arm-none-eabi/13.3.1/thumb/v8-m.base/nofp\libc_nano.a(libc_a-lock.o)
 .ARM.attributes
                0x0800e5a4       0x30 D:/AppData/arm-gnu-toolchain-13.3.rel1-mingw-w64-i686-arm-none-eabi/bin/../lib/gcc/arm-none-eabi/13.3.1/thumb/v8-m.base/nofp\libc_nano.a(libc_a-memchr-stub.o)
 .ARM.attributes
                0x0800e5d4       0x1c D:/AppData/arm-gnu-toolchain-13.3.rel1-mingw-w64-i686-arm-none-eabi/bin/../lib/gcc/arm-none-eabi/13.3.1/thumb/v8-m.base/nofp\libc_nano.a(libc_a-strlen.o)
 .ARM.attributes
                0x0800e5f0       0x30 D:/AppData/arm-gnu-toolchain-13.3.rel1-mingw-w64-i686-arm-none-eabi/bin/../lib/gcc/arm-none-eabi/13.3.1/thumb/v8-m.base/nofp\libc_nano.a(libm_a-sf_nan.o)
 .ARM.attributes
                0x0800e620       0x30 D:/AppData/arm-gnu-toolchain-13.3.rel1-mingw-w64-i686-arm-none-eabi/bin/../lib/gcc/arm-none-eabi/13.3.1/thumb/v8-m.base/nofp\libc_nano.a(libc_a-dtoa.o)
 .ARM.attributes
                0x0800e650       0x30 D:/AppData/arm-gnu-toolchain-13.3.rel1-mingw-w64-i686-arm-none-eabi/bin/../lib/gcc/arm-none-eabi/13.3.1/thumb/v8-m.base/nofp\libc_nano.a(libc_a-freer.o)
 .ARM.attributes
                0x0800e680       0x30 D:/AppData/arm-gnu-toolchain-13.3.rel1-mingw-w64-i686-arm-none-eabi/bin/../lib/gcc/arm-none-eabi/13.3.1/thumb/v8-m.base/nofp\libc_nano.a(libc_a-malloc.o)
 .ARM.attributes
                0x0800e6b0       0x30 D:/AppData/arm-gnu-toolchain-13.3.rel1-mingw-w64-i686-arm-none-eabi/bin/../lib/gcc/arm-none-eabi/13.3.1/thumb/v8-m.base/nofp\libc_nano.a(libc_a-mallocr.o)
 .ARM.attributes
                0x0800e6e0       0x30 D:/AppData/arm-gnu-toolchain-13.3.rel1-mingw-w64-i686-arm-none-eabi/bin/../lib/gcc/arm-none-eabi/13.3.1/thumb/v8-m.base/nofp\libc_nano.a(libc_a-mlock.o)
 .ARM.attributes
                0x0800e710       0x30 D:/AppData/arm-gnu-toolchain-13.3.rel1-mingw-w64-i686-arm-none-eabi/bin/../lib/gcc/arm-none-eabi/13.3.1/thumb/v8-m.base/nofp\libc_nano.a(libc_a-mprec.o)
 .ARM.attributes
                0x0800e740       0x30 D:/AppData/arm-gnu-toolchain-13.3.rel1-mingw-w64-i686-arm-none-eabi/bin/../lib/gcc/arm-none-eabi/13.3.1/thumb/v8-m.base/nofp\libc_nano.a(libc_a-strtod.o)
 .ARM.attributes
                0x0800e770       0x30 D:/AppData/arm-gnu-toolchain-13.3.rel1-mingw-w64-i686-arm-none-eabi/bin/../lib/gcc/arm-none-eabi/13.3.1/thumb/v8-m.base/nofp\libc_nano.a(libc_a-strtol.o)
 .ARM.attributes
                0x0800e7a0       0x30 D:/AppData/arm-gnu-toolchain-13.3.rel1-mingw-w64-i686-arm-none-eabi/bin/../lib/gcc/arm-none-eabi/13.3.1/thumb/v8-m.base/nofp\libc_nano.a(libc_a-ctype_.o)
 .ARM.attributes
                0x0800e7d0       0x30 D:/AppData/arm-gnu-toolchain-13.3.rel1-mingw-w64-i686-arm-none-eabi/bin/../lib/gcc/arm-none-eabi/13.3.1/thumb/v8-m.base/nofp\libc_nano.a(libc_a-nano-svfprintf.o)
 .ARM.attributes
                0x0800e800       0x30 D:/AppData/arm-gnu-toolchain-13.3.rel1-mingw-w64-i686-arm-none-eabi/bin/../lib/gcc/arm-none-eabi/13.3.1/thumb/v8-m.base/nofp\libc_nano.a(libc_a-fflush.o)
 .ARM.attributes
                0x0800e830       0x30 D:/AppData/arm-gnu-toolchain-13.3.rel1-mingw-w64-i686-arm-none-eabi/bin/../lib/gcc/arm-none-eabi/13.3.1/thumb/v8-m.base/nofp\libc_nano.a(libc_a-memmove.o)
 .ARM.attributes
                0x0800e860       0x30 D:/AppData/arm-gnu-toolchain-13.3.rel1-mingw-w64-i686-arm-none-eabi/bin/../lib/gcc/arm-none-eabi/13.3.1/thumb/v8-m.base/nofp\libc_nano.a(libc_a-strncmp.o)
 .ARM.attributes
                0x0800e890       0x30 D:/AppData/arm-gnu-toolchain-13.3.rel1-mingw-w64-i686-arm-none-eabi/bin/../lib/gcc/arm-none-eabi/13.3.1/thumb/v8-m.base/nofp\libc_nano.a(libc_a-locale.o)
 .ARM.attributes
                0x0800e8c0       0x30 D:/AppData/arm-gnu-toolchain-13.3.rel1-mingw-w64-i686-arm-none-eabi/bin/../lib/gcc/arm-none-eabi/13.3.1/thumb/v8-m.base/nofp\libc_nano.a(libc_a-sbrkr.o)
 .ARM.attributes
                0x0800e8f0       0x30 D:/AppData/arm-gnu-toolchain-13.3.rel1-mingw-w64-i686-arm-none-eabi/bin/../lib/gcc/arm-none-eabi/13.3.1/thumb/v8-m.base/nofp\libc_nano.a(libc_a-errno.o)
 .ARM.attributes
                0x0800e920       0x30 D:/AppData/arm-gnu-toolchain-13.3.rel1-mingw-w64-i686-arm-none-eabi/bin/../lib/gcc/arm-none-eabi/13.3.1/thumb/v8-m.base/nofp\libc_nano.a(libc_a-memcpy-stub.o)
 .ARM.attributes
                0x0800e950       0x30 D:/AppData/arm-gnu-toolchain-13.3.rel1-mingw-w64-i686-arm-none-eabi/bin/../lib/gcc/arm-none-eabi/13.3.1/thumb/v8-m.base/nofp\libc_nano.a(libm_a-s_nan.o)
 .ARM.attributes
                0x0800e980       0x30 D:/AppData/arm-gnu-toolchain-13.3.rel1-mingw-w64-i686-arm-none-eabi/bin/../lib/gcc/arm-none-eabi/13.3.1/thumb/v8-m.base/nofp\libc_nano.a(libc_a-assert.o)
 .ARM.attributes
                0x0800e9b0       0x30 D:/AppData/arm-gnu-toolchain-13.3.rel1-mingw-w64-i686-arm-none-eabi/bin/../lib/gcc/arm-none-eabi/13.3.1/thumb/v8-m.base/nofp\libc_nano.a(libc_a-callocr.o)
 .ARM.attributes
                0x0800e9e0       0x30 D:/AppData/arm-gnu-toolchain-13.3.rel1-mingw-w64-i686-arm-none-eabi/bin/../lib/gcc/arm-none-eabi/13.3.1/thumb/v8-m.base/nofp\libc_nano.a(libc_a-gdtoa-gethex.o)
 .ARM.attributes
                0x0800ea10       0x30 D:/AppData/arm-gnu-toolchain-13.3.rel1-mingw-w64-i686-arm-none-eabi/bin/../lib/gcc/arm-none-eabi/13.3.1/thumb/v8-m.base/nofp\libc_nano.a(libc_a-gdtoa-hexnan.o)
 .ARM.attributes
                0x0800ea40       0x30 D:/AppData/arm-gnu-toolchain-13.3.rel1-mingw-w64-i686-arm-none-eabi/bin/../lib/gcc/arm-none-eabi/13.3.1/thumb/v8-m.base/nofp\libc_nano.a(libc_a-mbtowc_r.o)
 .ARM.attributes
                0x0800ea70       0x30 D:/AppData/arm-gnu-toolchain-13.3.rel1-mingw-w64-i686-arm-none-eabi/bin/../lib/gcc/arm-none-eabi/13.3.1/thumb/v8-m.base/nofp\libc_nano.a(libc_a-reallocr.o)
 .ARM.attributes
                0x0800eaa0       0x30 D:/AppData/arm-gnu-toolchain-13.3.rel1-mingw-w64-i686-arm-none-eabi/bin/../lib/gcc/arm-none-eabi/13.3.1/thumb/v8-m.base/nofp\libc_nano.a(libc_a-wctomb_r.o)
 .ARM.attributes
                0x0800ead0       0x30 D:/AppData/arm-gnu-toolchain-13.3.rel1-mingw-w64-i686-arm-none-eabi/bin/../lib/gcc/arm-none-eabi/13.3.1/thumb/v8-m.base/nofp\libc_nano.a(libc_a-fprintf.o)
 .ARM.attributes
                0x0800eb00       0x30 D:/AppData/arm-gnu-toolchain-13.3.rel1-mingw-w64-i686-arm-none-eabi/bin/../lib/gcc/arm-none-eabi/13.3.1/thumb/v8-m.base/nofp\libc_nano.a(libc_a-abort.o)
 .ARM.attributes
                0x0800eb30       0x30 D:/AppData/arm-gnu-toolchain-13.3.rel1-mingw-w64-i686-arm-none-eabi/bin/../lib/gcc/arm-none-eabi/13.3.1/thumb/v8-m.base/nofp\libc_nano.a(libc_a-msizer.o)
 .ARM.attributes
                0x0800eb60       0x30 D:/AppData/arm-gnu-toolchain-13.3.rel1-mingw-w64-i686-arm-none-eabi/bin/../lib/gcc/arm-none-eabi/13.3.1/thumb/v8-m.base/nofp\libc_nano.a(libc_a-nano-vfprintf.o)
 .ARM.attributes
                0x0800eb90       0x30 D:/AppData/arm-gnu-toolchain-13.3.rel1-mingw-w64-i686-arm-none-eabi/bin/../lib/gcc/arm-none-eabi/13.3.1/thumb/v8-m.base/nofp\libc_nano.a(libc_a-wbuf.o)
 .ARM.attributes
                0x0800ebc0       0x30 D:/AppData/arm-gnu-toolchain-13.3.rel1-mingw-w64-i686-arm-none-eabi/bin/../lib/gcc/arm-none-eabi/13.3.1/thumb/v8-m.base/nofp\libc_nano.a(libc_a-wsetup.o)
 .ARM.attributes
                0x0800ebf0       0x30 D:/AppData/arm-gnu-toolchain-13.3.rel1-mingw-w64-i686-arm-none-eabi/bin/../lib/gcc/arm-none-eabi/13.3.1/thumb/v8-m.base/nofp\libc_nano.a(libc_a-signal.o)
 .ARM.attributes
                0x0800ec20       0x30 D:/AppData/arm-gnu-toolchain-13.3.rel1-mingw-w64-i686-arm-none-eabi/bin/../lib/gcc/arm-none-eabi/13.3.1/thumb/v8-m.base/nofp\libc_nano.a(libc_a-signalr.o)
 .ARM.attributes
                0x0800ec50       0x30 D:/AppData/arm-gnu-toolchain-13.3.rel1-mingw-w64-i686-arm-none-eabi/bin/../lib/gcc/arm-none-eabi/13.3.1/thumb/v8-m.base/nofp\libc_nano.a(libc_a-makebuf.o)
 .ARM.attributes
                0x0800ec80       0x30 D:/AppData/arm-gnu-toolchain-13.3.rel1-mingw-w64-i686-arm-none-eabi/bin/../lib/gcc/arm-none-eabi/13.3.1/thumb/v8-m.base/nofp\libc_nano.a(libc_a-fstatr.o)
 .ARM.attributes
                0x0800ecb0       0x30 D:/AppData/arm-gnu-toolchain-13.3.rel1-mingw-w64-i686-arm-none-eabi/bin/../lib/gcc/arm-none-eabi/13.3.1/thumb/v8-m.base/nofp\libc_nano.a(libc_a-isattyr.o)
 .ARM.attributes
                0x0800ece0       0x22 D:/AppData/arm-gnu-toolchain-13.3.rel1-mingw-w64-i686-arm-none-eabi/bin/../lib/gcc/arm-none-eabi/13.3.1/thumb/v8-m.base/nofp\libgcc.a(_thumb1_case_uqi.o)
 .ARM.attributes
                0x0800ed02       0x22 D:/AppData/arm-gnu-toolchain-13.3.rel1-mingw-w64-i686-arm-none-eabi/bin/../lib/gcc/arm-none-eabi/13.3.1/thumb/v8-m.base/nofp\libgcc.a(_thumb1_case_shi.o)
 .ARM.attributes
                0x0800ed24       0x22 D:/AppData/arm-gnu-toolchain-13.3.rel1-mingw-w64-i686-arm-none-eabi/bin/../lib/gcc/arm-none-eabi/13.3.1/thumb/v8-m.base/nofp\libgcc.a(_arm_cmpdf2.o)
 .ARM.attributes
                0x0800ed46       0x22 D:/AppData/arm-gnu-toolchain-13.3.rel1-mingw-w64-i686-arm-none-eabi/bin/../lib/gcc/arm-none-eabi/13.3.1/thumb/v8-m.base/nofp\libgcc.a(_arm_cmpsf2.o)
 .ARM.attributes
                0x0800ed68       0x30 D:/AppData/arm-gnu-toolchain-13.3.rel1-mingw-w64-i686-arm-none-eabi/bin/../lib/gcc/arm-none-eabi/13.3.1/thumb/v8-m.base/nofp\libgcc.a(_fixunssfsi.o)
 .ARM.attributes
                0x0800ed98       0x30 D:/AppData/arm-gnu-toolchain-13.3.rel1-mingw-w64-i686-arm-none-eabi/bin/../lib/gcc/arm-none-eabi/13.3.1/thumb/v8-m.base/nofp\libgcc.a(_fixunsdfsi.o)
 .ARM.attributes
                0x0800edc8       0x30 D:/AppData/arm-gnu-toolchain-13.3.rel1-mingw-w64-i686-arm-none-eabi/bin/../lib/gcc/arm-none-eabi/13.3.1/thumb/v8-m.base/nofp\libgcc.a(_fixdfdi.o)
 .ARM.attributes
                0x0800edf8       0x30 D:/AppData/arm-gnu-toolchain-13.3.rel1-mingw-w64-i686-arm-none-eabi/bin/../lib/gcc/arm-none-eabi/13.3.1/thumb/v8-m.base/nofp\libgcc.a(_fixunsdfdi.o)
 .ARM.attributes
                0x0800ee28       0x30 D:/AppData/arm-gnu-toolchain-13.3.rel1-mingw-w64-i686-arm-none-eabi/bin/../lib/gcc/arm-none-eabi/13.3.1/thumb/v8-m.base/nofp\libgcc.a(_floatdidf.o)
 .ARM.attributes
                0x0800ee58       0x30 D:/AppData/arm-gnu-toolchain-13.3.rel1-mingw-w64-i686-arm-none-eabi/bin/../lib/gcc/arm-none-eabi/13.3.1/thumb/v8-m.base/nofp\libgcc.a(divsf3.o)
 .ARM.attributes
                0x0800ee88       0x30 D:/AppData/arm-gnu-toolchain-13.3.rel1-mingw-w64-i686-arm-none-eabi/bin/../lib/gcc/arm-none-eabi/13.3.1/thumb/v8-m.base/nofp\libgcc.a(eqsf2.o)
 .ARM.attributes
                0x0800eeb8       0x30 D:/AppData/arm-gnu-toolchain-13.3.rel1-mingw-w64-i686-arm-none-eabi/bin/../lib/gcc/arm-none-eabi/13.3.1/thumb/v8-m.base/nofp\libgcc.a(gesf2.o)
 .ARM.attributes
                0x0800eee8       0x30 D:/AppData/arm-gnu-toolchain-13.3.rel1-mingw-w64-i686-arm-none-eabi/bin/../lib/gcc/arm-none-eabi/13.3.1/thumb/v8-m.base/nofp\libgcc.a(lesf2.o)
 .ARM.attributes
                0x0800ef18       0x30 D:/AppData/arm-gnu-toolchain-13.3.rel1-mingw-w64-i686-arm-none-eabi/bin/../lib/gcc/arm-none-eabi/13.3.1/thumb/v8-m.base/nofp\libgcc.a(mulsf3.o)
 .ARM.attributes
                0x0800ef48       0x30 D:/AppData/arm-gnu-toolchain-13.3.rel1-mingw-w64-i686-arm-none-eabi/bin/../lib/gcc/arm-none-eabi/13.3.1/thumb/v8-m.base/nofp\libgcc.a(subsf3.o)
 .ARM.attributes
                0x0800ef78       0x30 D:/AppData/arm-gnu-toolchain-13.3.rel1-mingw-w64-i686-arm-none-eabi/bin/../lib/gcc/arm-none-eabi/13.3.1/thumb/v8-m.base/nofp\libgcc.a(fixsfsi.o)
 .ARM.attributes
                0x0800efa8       0x30 D:/AppData/arm-gnu-toolchain-13.3.rel1-mingw-w64-i686-arm-none-eabi/bin/../lib/gcc/arm-none-eabi/13.3.1/thumb/v8-m.base/nofp\libgcc.a(floatsisf.o)
 .ARM.attributes
                0x0800efd8       0x30 D:/AppData/arm-gnu-toolchain-13.3.rel1-mingw-w64-i686-arm-none-eabi/bin/../lib/gcc/arm-none-eabi/13.3.1/thumb/v8-m.base/nofp\libgcc.a(adddf3.o)
 .ARM.attributes
                0x0800f008       0x30 D:/AppData/arm-gnu-toolchain-13.3.rel1-mingw-w64-i686-arm-none-eabi/bin/../lib/gcc/arm-none-eabi/13.3.1/thumb/v8-m.base/nofp\libgcc.a(divdf3.o)
 .ARM.attributes
                0x0800f038       0x30 D:/AppData/arm-gnu-toolchain-13.3.rel1-mingw-w64-i686-arm-none-eabi/bin/../lib/gcc/arm-none-eabi/13.3.1/thumb/v8-m.base/nofp\libgcc.a(eqdf2.o)
 .ARM.attributes
                0x0800f068       0x30 D:/AppData/arm-gnu-toolchain-13.3.rel1-mingw-w64-i686-arm-none-eabi/bin/../lib/gcc/arm-none-eabi/13.3.1/thumb/v8-m.base/nofp\libgcc.a(gedf2.o)
 .ARM.attributes
                0x0800f098       0x30 D:/AppData/arm-gnu-toolchain-13.3.rel1-mingw-w64-i686-arm-none-eabi/bin/../lib/gcc/arm-none-eabi/13.3.1/thumb/v8-m.base/nofp\libgcc.a(ledf2.o)
 .ARM.attributes
                0x0800f0c8       0x30 D:/AppData/arm-gnu-toolchain-13.3.rel1-mingw-w64-i686-arm-none-eabi/bin/../lib/gcc/arm-none-eabi/13.3.1/thumb/v8-m.base/nofp\libgcc.a(muldf3.o)
 .ARM.attributes
                0x0800f0f8       0x30 D:/AppData/arm-gnu-toolchain-13.3.rel1-mingw-w64-i686-arm-none-eabi/bin/../lib/gcc/arm-none-eabi/13.3.1/thumb/v8-m.base/nofp\libgcc.a(subdf3.o)
 .ARM.attributes
                0x0800f128       0x30 D:/AppData/arm-gnu-toolchain-13.3.rel1-mingw-w64-i686-arm-none-eabi/bin/../lib/gcc/arm-none-eabi/13.3.1/thumb/v8-m.base/nofp\libgcc.a(unorddf2.o)
 .ARM.attributes
                0x0800f158       0x30 D:/AppData/arm-gnu-toolchain-13.3.rel1-mingw-w64-i686-arm-none-eabi/bin/../lib/gcc/arm-none-eabi/13.3.1/thumb/v8-m.base/nofp\libgcc.a(fixdfsi.o)
 .ARM.attributes
                0x0800f188       0x30 D:/AppData/arm-gnu-toolchain-13.3.rel1-mingw-w64-i686-arm-none-eabi/bin/../lib/gcc/arm-none-eabi/13.3.1/thumb/v8-m.base/nofp\libgcc.a(floatsidf.o)
 .ARM.attributes
                0x0800f1b8       0x30 D:/AppData/arm-gnu-toolchain-13.3.rel1-mingw-w64-i686-arm-none-eabi/bin/../lib/gcc/arm-none-eabi/13.3.1/thumb/v8-m.base/nofp\libgcc.a(floatunsidf.o)
 .ARM.attributes
                0x0800f1e8       0x30 D:/AppData/arm-gnu-toolchain-13.3.rel1-mingw-w64-i686-arm-none-eabi/bin/../lib/gcc/arm-none-eabi/13.3.1/thumb/v8-m.base/nofp\libgcc.a(truncdfsf2.o)
 .ARM.attributes
                0x0800f218       0x22 D:/AppData/arm-gnu-toolchain-13.3.rel1-mingw-w64-i686-arm-none-eabi/bin/../lib/gcc/arm-none-eabi/13.3.1/thumb/v8-m.base/nofp\libgcc.a(_clzsi2.o)
 .ARM.attributes
                0x0800f23a       0x30 D:/AppData/arm-gnu-toolchain-13.3.rel1-mingw-w64-i686-arm-none-eabi/bin/../lib/gcc/arm-none-eabi/13.3.1/thumb/v8-m.base/nofp/crtend.o
 .ARM.attributes
                0x0800f26a       0x22 D:/AppData/arm-gnu-toolchain-13.3.rel1-mingw-w64-i686-arm-none-eabi/bin/../lib/gcc/arm-none-eabi/13.3.1/thumb/v8-m.base/nofp/crtn.o

.preinit_array  0x0800dea0        0x0
                0x0800dea0                        PROVIDE (__preinit_array_start = .)
 *(.preinit_array*)
                0x0800dea0                        PROVIDE (__preinit_array_end = .)

.init_array     0x0800dea0        0x4
                0x0800dea0                        PROVIDE (__init_array_start = .)
 *(SORT_BY_NAME(.init_array.*))
 *(.init_array*)
 .init_array    0x0800dea0        0x4 D:/AppData/arm-gnu-toolchain-13.3.rel1-mingw-w64-i686-arm-none-eabi/bin/../lib/gcc/arm-none-eabi/13.3.1/thumb/v8-m.base/nofp/crtbegin.o
                0x0800dea4                        PROVIDE (__init_array_end = .)

.fini_array     0x0800dea4        0x4
                [!provide]                        PROVIDE (__fini_array_start = .)
 *(.fini_array*)
 .fini_array    0x0800dea4        0x4 D:/AppData/arm-gnu-toolchain-13.3.rel1-mingw-w64-i686-arm-none-eabi/bin/../lib/gcc/arm-none-eabi/13.3.1/thumb/v8-m.base/nofp/crtbegin.o
 *(SORT_BY_NAME(.fini_array.*))
                [!provide]                        PROVIDE (__fini_array_end = .)
                0x0800dea8                        _sidata = LOADADDR (.data)

.data           0x20000000      0x1d4 load address 0x0800dea8
                0x20000000                        . = ALIGN (0x4)
                0x20000000                        _sdata = .
 *(.data)
 *(.data*)
 .data.curbrk.0
                0x20000000        0x4 build/syscalls.o
 .data.SystemCoreClock
                0x20000004        0x4 build/system_gd32e23x.o
                0x20000004                SystemCoreClock
 .data.first_point.2
                0x20000008        0x1 build/lcd.o
 *fill*         0x20000009        0x3 
 .data.__sglue  0x2000000c        0xc D:/AppData/arm-gnu-toolchain-13.3.rel1-mingw-w64-i686-arm-none-eabi/bin/../lib/gcc/arm-none-eabi/13.3.1/thumb/v8-m.base/nofp\libc_nano.a(libc_a-findfp.o)
                0x2000000c                __sglue
 .data._impure_ptr
                0x20000018        0x4 D:/AppData/arm-gnu-toolchain-13.3.rel1-mingw-w64-i686-arm-none-eabi/bin/../lib/gcc/arm-none-eabi/13.3.1/thumb/v8-m.base/nofp\libc_nano.a(libc_a-impure.o)
                0x20000018                _impure_ptr
 .data._impure_data
                0x2000001c       0x4c D:/AppData/arm-gnu-toolchain-13.3.rel1-mingw-w64-i686-arm-none-eabi/bin/../lib/gcc/arm-none-eabi/13.3.1/thumb/v8-m.base/nofp\libc_nano.a(libc_a-impure.o)
                0x2000001c                _impure_data
 .data.__global_locale
                0x20000068      0x16c D:/AppData/arm-gnu-toolchain-13.3.rel1-mingw-w64-i686-arm-none-eabi/bin/../lib/gcc/arm-none-eabi/13.3.1/thumb/v8-m.base/nofp\libc_nano.a(libc_a-locale.o)
                0x20000068                __global_locale
                0x200001d4                        . = ALIGN (0x4)
                0x200001d4                        _edata = .

.tm_clone_table
                0x200001d4        0x0 load address 0x0800e07c
 .tm_clone_table
                0x200001d4        0x0 D:/AppData/arm-gnu-toolchain-13.3.rel1-mingw-w64-i686-arm-none-eabi/bin/../lib/gcc/arm-none-eabi/13.3.1/thumb/v8-m.base/nofp/crtbegin.o
 .tm_clone_table
                0x200001d4        0x0 D:/AppData/arm-gnu-toolchain-13.3.rel1-mingw-w64-i686-arm-none-eabi/bin/../lib/gcc/arm-none-eabi/13.3.1/thumb/v8-m.base/nofp/crtend.o

.igot.plt       0x200001d4        0x0 load address 0x0800e07c
 .igot.plt      0x200001d4        0x0 D:/AppData/arm-gnu-toolchain-13.3.rel1-mingw-w64-i686-arm-none-eabi/bin/../lib/gcc/arm-none-eabi/13.3.1/thumb/v8-m.base/nofp/crtbegin.o
                0x200001d4                        . = ALIGN (0x4)

.bss            0x200001d4      0x3e4 load address 0x0800e07c
                0x200001d4                        _sbss = .
                0x200001d4                        __bss_start__ = _sbss
 *(.bss)
 *(.bss*)
 .bss.completed.1
                0x200001d4        0x1 D:/AppData/arm-gnu-toolchain-13.3.rel1-mingw-w64-i686-arm-none-eabi/bin/../lib/gcc/arm-none-eabi/13.3.1/thumb/v8-m.base/nofp/crtbegin.o
 *fill*         0x200001d5        0x3 
 .bss.object.0  0x200001d8       0x18 D:/AppData/arm-gnu-toolchain-13.3.rel1-mingw-w64-i686-arm-none-eabi/bin/../lib/gcc/arm-none-eabi/13.3.1/thumb/v8-m.base/nofp/crtbegin.o
 .bss.delay     0x200001f0        0x4 build/systick.o
 .bss.buf.0     0x200001f4        0x4 build/gd32e23x_it.o
 .bss.value.1   0x200001f8        0x4 build/gd32e23x_it.o
 .bss.app_state
                0x200001fc        0x1 build/app.o
                0x200001fc                app_state
 *fill*         0x200001fd        0x3 
 .bss.app_data  0x20000200      0x268 build/app.o
                0x20000200                app_data
 .bss.lastY.0   0x20000468        0x2 build/lcd.o
 .bss.lastX.1   0x2000046a        0x2 build/lcd.o
 .bss.__sf      0x2000046c      0x138 D:/AppData/arm-gnu-toolchain-13.3.rel1-mingw-w64-i686-arm-none-eabi/bin/../lib/gcc/arm-none-eabi/13.3.1/thumb/v8-m.base/nofp\libc_nano.a(libc_a-findfp.o)
                0x2000046c                __sf
 .bss.__stdio_exit_handler
                0x200005a4        0x4 D:/AppData/arm-gnu-toolchain-13.3.rel1-mingw-w64-i686-arm-none-eabi/bin/../lib/gcc/arm-none-eabi/13.3.1/thumb/v8-m.base/nofp\libc_nano.a(libc_a-findfp.o)
                0x200005a4                __stdio_exit_handler
 .bss.errno     0x200005a8        0x4 D:/AppData/arm-gnu-toolchain-13.3.rel1-mingw-w64-i686-arm-none-eabi/bin/../lib/gcc/arm-none-eabi/13.3.1/thumb/v8-m.base/nofp\libc_nano.a(libc_a-reent.o)
                0x200005a8                errno
 .bss.__lock___malloc_recursive_mutex
                0x200005ac        0x1 D:/AppData/arm-gnu-toolchain-13.3.rel1-mingw-w64-i686-arm-none-eabi/bin/../lib/gcc/arm-none-eabi/13.3.1/thumb/v8-m.base/nofp\libc_nano.a(libc_a-lock.o)
                0x200005ac                __lock___malloc_recursive_mutex
 .bss.__lock___sfp_recursive_mutex
                0x200005ad        0x1 D:/AppData/arm-gnu-toolchain-13.3.rel1-mingw-w64-i686-arm-none-eabi/bin/../lib/gcc/arm-none-eabi/13.3.1/thumb/v8-m.base/nofp\libc_nano.a(libc_a-lock.o)
                0x200005ad                __lock___sfp_recursive_mutex
 *fill*         0x200005ae        0x2 
 .bss.__malloc_sbrk_start
                0x200005b0        0x4 D:/AppData/arm-gnu-toolchain-13.3.rel1-mingw-w64-i686-arm-none-eabi/bin/../lib/gcc/arm-none-eabi/13.3.1/thumb/v8-m.base/nofp\libc_nano.a(libc_a-mallocr.o)
                0x200005b0                __malloc_sbrk_start
 .bss.__malloc_free_list
                0x200005b4        0x4 D:/AppData/arm-gnu-toolchain-13.3.rel1-mingw-w64-i686-arm-none-eabi/bin/../lib/gcc/arm-none-eabi/13.3.1/thumb/v8-m.base/nofp\libc_nano.a(libc_a-mallocr.o)
                0x200005b4                __malloc_free_list
 *(COMMON)
                0x200005b8                        . = ALIGN (0x4)
                0x200005b8                        _ebss = .
                0x200005b8                        __bss_end__ = _ebss
                0x200005b8                        . = ALIGN (0x8)
                [!provide]                        PROVIDE (end = _ebss)
                0x200005b8                        PROVIDE (_end = _ebss)

.stack          0x20000800     0x1800 load address 0x200005b8
                0x20000800                        PROVIDE (_heap_end = .)
                0x00001800                        . = __stack_size
 *fill*         0x20000800     0x1800 
                0x20002000                        PROVIDE (_sp = .)
START GROUP
LOAD D:/AppData/arm-gnu-toolchain-13.3.rel1-mingw-w64-i686-arm-none-eabi/bin/../lib/gcc/arm-none-eabi/13.3.1/thumb/v8-m.base/nofp\libgcc.a
LOAD D:/AppData/arm-gnu-toolchain-13.3.rel1-mingw-w64-i686-arm-none-eabi/bin/../lib/gcc/arm-none-eabi/13.3.1/thumb/v8-m.base/nofp\libc.a
LOAD D:/AppData/arm-gnu-toolchain-13.3.rel1-mingw-w64-i686-arm-none-eabi/bin/../lib/gcc/arm-none-eabi/13.3.1/thumb/v8-m.base/nofp\libm.a
LOAD D:/AppData/arm-gnu-toolchain-13.3.rel1-mingw-w64-i686-arm-none-eabi/bin/../lib/gcc/arm-none-eabi/13.3.1/thumb/v8-m.base/nofp\libnosys.a
END GROUP
OUTPUT(build/demo_gd32.elf elf32-littlearm)
LOAD linker stubs

.debug_info     0x00000000     0xba10
 .debug_info    0x00000000       0xc8 build/main.o
 .debug_info    0x000000c8      0x591 build/systick.o
 .debug_info    0x00000659      0x834 build/gd32e23x_it.o
 .debug_info    0x00000e8d      0x184 build/log.o
 .debug_info    0x00001011     0x127e build/app.o
 .debug_info    0x0000228f     0x16b1 build/peripheral.o
 .debug_info    0x00003940      0x90b build/gd32e23x_adc.o
 .debug_info    0x0000424b      0x7ee build/gd32e23x_dma.o
 .debug_info    0x00004a39      0x40e build/gd32e23x_exti.o
 .debug_info    0x00004e47      0x6cc build/gd32e23x_gpio.o
 .debug_info    0x00005513      0x6c7 build/gd32e23x_misc.o
 .debug_info    0x00005bda      0xf17 build/gd32e23x_rcu.o
 .debug_info    0x00006af1      0xdd0 build/gd32e23x_spi.o
 .debug_info    0x000078c1      0x392 build/gd32e23x_syscfg.o
 .debug_info    0x00007c53     0x188e build/gd32e23x_timer.o
 .debug_info    0x000094e1      0x8e7 build/syscalls.o
 .debug_info    0x00009dc8      0x2fc build/system_gd32e23x.o
 .debug_info    0x0000a0c4     0x191c build/lcd.o
 .debug_info    0x0000b9e0       0x30 build/startup_gd32e23x.o

.debug_abbrev   0x00000000     0x228b
 .debug_abbrev  0x00000000       0x66 build/main.o
 .debug_abbrev  0x00000066      0x200 build/systick.o
 .debug_abbrev  0x00000266      0x21d build/gd32e23x_it.o
 .debug_abbrev  0x00000483       0xe7 build/log.o
 .debug_abbrev  0x0000056a      0x277 build/app.o
 .debug_abbrev  0x000007e1      0x24f build/peripheral.o
 .debug_abbrev  0x00000a30      0x235 build/gd32e23x_adc.o
 .debug_abbrev  0x00000c65      0x1b2 build/gd32e23x_dma.o
 .debug_abbrev  0x00000e17      0x107 build/gd32e23x_exti.o
 .debug_abbrev  0x00000f1e      0x261 build/gd32e23x_gpio.o
 .debug_abbrev  0x0000117f      0x21b build/gd32e23x_misc.o
 .debug_abbrev  0x0000139a      0x23f build/gd32e23x_rcu.o
 .debug_abbrev  0x000015d9      0x28d build/gd32e23x_spi.o
 .debug_abbrev  0x00001866      0x186 build/gd32e23x_syscfg.o
 .debug_abbrev  0x000019ec      0x22e build/gd32e23x_timer.o
 .debug_abbrev  0x00001c1a      0x200 build/syscalls.o
 .debug_abbrev  0x00001e1a      0x1bf build/system_gd32e23x.o
 .debug_abbrev  0x00001fd9      0x295 build/lcd.o
 .debug_abbrev  0x0000226e       0x1d build/startup_gd32e23x.o

.debug_loc      0x00000000     0x6e1c
 .debug_loc     0x00000000       0x20 build/main.o
 .debug_loc     0x00000020       0xc6 build/systick.o
 .debug_loc     0x000000e6       0xa0 build/gd32e23x_it.o
 .debug_loc     0x00000186       0x6e build/log.o
 .debug_loc     0x000001f4      0x18c build/app.o
 .debug_loc     0x00000380      0x130 build/peripheral.o
 .debug_loc     0x000004b0      0xb11 build/gd32e23x_adc.o
 .debug_loc     0x00000fc1      0x5af build/gd32e23x_dma.o
 .debug_loc     0x00001570      0x17b build/gd32e23x_exti.o
 .debug_loc     0x000016eb      0x487 build/gd32e23x_gpio.o
 .debug_loc     0x00001b72      0x22f build/gd32e23x_misc.o
 .debug_loc     0x00001da1      0xed0 build/gd32e23x_rcu.o
 .debug_loc     0x00002c71      0x9dd build/gd32e23x_spi.o
 .debug_loc     0x0000364e      0x1d6 build/gd32e23x_syscfg.o
 .debug_loc     0x00003824     0x1769 build/gd32e23x_timer.o
 .debug_loc     0x00004f8d      0x4a4 build/syscalls.o
 .debug_loc     0x00005431      0x2e4 build/system_gd32e23x.o
 .debug_loc     0x00005715     0x1707 build/lcd.o

.debug_aranges  0x00000000      0xc50
 .debug_aranges
                0x00000000       0x20 build/main.o
 .debug_aranges
                0x00000020       0x38 build/systick.o
 .debug_aranges
                0x00000058       0x60 build/gd32e23x_it.o
 .debug_aranges
                0x000000b8       0x30 build/log.o
 .debug_aranges
                0x000000e8       0x40 build/app.o
 .debug_aranges
                0x00000128       0x58 build/peripheral.o
 .debug_aranges
                0x00000180      0x128 build/gd32e23x_adc.o
 .debug_aranges
                0x000002a8       0xf0 build/gd32e23x_dma.o
 .debug_aranges
                0x00000398       0x78 build/gd32e23x_exti.o
 .debug_aranges
                0x00000410       0x90 build/gd32e23x_gpio.o
 .debug_aranges
                0x000004a0       0x68 build/gd32e23x_misc.o
 .debug_aranges
                0x00000508      0x150 build/gd32e23x_rcu.o
 .debug_aranges
                0x00000658      0x180 build/gd32e23x_spi.o
 .debug_aranges
                0x000007d8       0x68 build/gd32e23x_syscfg.o
 .debug_aranges
                0x00000840      0x260 build/gd32e23x_timer.o
 .debug_aranges
                0x00000aa0       0xb8 build/syscalls.o
 .debug_aranges
                0x00000b58       0x38 build/system_gd32e23x.o
 .debug_aranges
                0x00000b90       0x98 build/lcd.o
 .debug_aranges
                0x00000c28       0x28 build/startup_gd32e23x.o

.debug_ranges   0x00000000      0xb40
 .debug_ranges  0x00000000       0x10 build/main.o
 .debug_ranges  0x00000010       0x28 build/systick.o
 .debug_ranges  0x00000038       0x50 build/gd32e23x_it.o
 .debug_ranges  0x00000088       0x20 build/log.o
 .debug_ranges  0x000000a8       0x30 build/app.o
 .debug_ranges  0x000000d8       0x48 build/peripheral.o
 .debug_ranges  0x00000120      0x118 build/gd32e23x_adc.o
 .debug_ranges  0x00000238       0xe0 build/gd32e23x_dma.o
 .debug_ranges  0x00000318       0x68 build/gd32e23x_exti.o
 .debug_ranges  0x00000380       0x80 build/gd32e23x_gpio.o
 .debug_ranges  0x00000400       0x58 build/gd32e23x_misc.o
 .debug_ranges  0x00000458      0x140 build/gd32e23x_rcu.o
 .debug_ranges  0x00000598      0x170 build/gd32e23x_spi.o
 .debug_ranges  0x00000708       0x58 build/gd32e23x_syscfg.o
 .debug_ranges  0x00000760      0x250 build/gd32e23x_timer.o
 .debug_ranges  0x000009b0       0xa8 build/syscalls.o
 .debug_ranges  0x00000a58       0x28 build/system_gd32e23x.o
 .debug_ranges  0x00000a80       0xa0 build/lcd.o
 .debug_ranges  0x00000b20       0x20 build/startup_gd32e23x.o

.debug_line     0x00000000     0x74e0
 .debug_line    0x00000000       0x71 build/main.o
 .debug_line    0x00000071      0x2b6 build/systick.o
 .debug_line    0x00000327      0x4f2 build/gd32e23x_it.o
 .debug_line    0x00000819       0xb2 build/log.o
 .debug_line    0x000008cb      0x563 build/app.o
 .debug_line    0x00000e2e      0x4aa build/peripheral.o
 .debug_line    0x000012d8      0xa9c build/gd32e23x_adc.o
 .debug_line    0x00001d74      0x691 build/gd32e23x_dma.o
 .debug_line    0x00002405      0x384 build/gd32e23x_exti.o
 .debug_line    0x00002789      0x547 build/gd32e23x_gpio.o
 .debug_line    0x00002cd0      0x3b0 build/gd32e23x_misc.o
 .debug_line    0x00003080      0xc4a build/gd32e23x_rcu.o
 .debug_line    0x00003cca      0xad3 build/gd32e23x_spi.o
 .debug_line    0x0000479d      0x33a build/gd32e23x_syscfg.o
 .debug_line    0x00004ad7     0x1766 build/gd32e23x_timer.o
 .debug_line    0x0000623d      0x4a5 build/syscalls.o
 .debug_line    0x000066e2      0x465 build/system_gd32e23x.o
 .debug_line    0x00006b47      0x928 build/lcd.o
 .debug_line    0x0000746f       0x71 build/startup_gd32e23x.o

.debug_str      0x00000000     0x38af
 .debug_str     0x00000000     0x38af build/main.o
                                0x17b (size before relaxing)
 .debug_str     0x000038af      0x523 build/systick.o
 .debug_str     0x000038af      0x60a build/gd32e23x_it.o
 .debug_str     0x000038af      0x1d3 build/log.o
 .debug_str     0x000038af      0x8a0 build/app.o
 .debug_str     0x000038af      0xe07 build/peripheral.o
 .debug_str     0x000038af      0x777 build/gd32e23x_adc.o
 .debug_str     0x000038af      0x517 build/gd32e23x_dma.o
 .debug_str     0x000038af      0x402 build/gd32e23x_exti.o
 .debug_str     0x000038af      0x47b build/gd32e23x_gpio.o
 .debug_str     0x000038af      0x561 build/gd32e23x_misc.o
 .debug_str     0x000038af      0xdc5 build/gd32e23x_rcu.o
 .debug_str     0x000038af      0x829 build/gd32e23x_spi.o
 .debug_str     0x000038af      0x441 build/gd32e23x_syscfg.o
 .debug_str     0x000038af      0xee0 build/gd32e23x_timer.o
 .debug_str     0x000038af      0x450 build/syscalls.o
 .debug_str     0x000038af      0x30c build/system_gd32e23x.o
 .debug_str     0x000038af      0x4a6 build/lcd.o
 .debug_str     0x000038af       0x5d build/startup_gd32e23x.o

.comment        0x00000000       0x45
 .comment       0x00000000       0x45 build/main.o
                                 0x46 (size before relaxing)
 .comment       0x00000045       0x46 build/systick.o
 .comment       0x00000045       0x46 build/gd32e23x_it.o
 .comment       0x00000045       0x46 build/log.o
 .comment       0x00000045       0x46 build/app.o
 .comment       0x00000045       0x46 build/peripheral.o
 .comment       0x00000045       0x46 build/gd32e23x_adc.o
 .comment       0x00000045       0x46 build/gd32e23x_dma.o
 .comment       0x00000045       0x46 build/gd32e23x_exti.o
 .comment       0x00000045       0x46 build/gd32e23x_gpio.o
 .comment       0x00000045       0x46 build/gd32e23x_misc.o
 .comment       0x00000045       0x46 build/gd32e23x_rcu.o
 .comment       0x00000045       0x46 build/gd32e23x_spi.o
 .comment       0x00000045       0x46 build/gd32e23x_syscfg.o
 .comment       0x00000045       0x46 build/gd32e23x_timer.o
 .comment       0x00000045       0x46 build/syscalls.o
 .comment       0x00000045       0x46 build/system_gd32e23x.o
 .comment       0x00000045       0x46 build/lcd.o

.debug_frame    0x00000000     0x308c
 .debug_frame   0x00000000       0x28 build/main.o
 .debug_frame   0x00000028       0x58 build/systick.o
 .debug_frame   0x00000080       0xc8 build/gd32e23x_it.o
 .debug_frame   0x00000148       0x44 build/log.o
 .debug_frame   0x0000018c       0xa4 build/app.o
 .debug_frame   0x00000230       0xec build/peripheral.o
 .debug_frame   0x0000031c      0x260 build/gd32e23x_adc.o
 .debug_frame   0x0000057c      0x1d4 build/gd32e23x_dma.o
 .debug_frame   0x00000750       0xdc build/gd32e23x_exti.o
 .debug_frame   0x0000082c      0x138 build/gd32e23x_gpio.o
 .debug_frame   0x00000964       0xd8 build/gd32e23x_misc.o
 .debug_frame   0x00000a3c      0x2a8 build/gd32e23x_rcu.o
 .debug_frame   0x00000ce4      0x310 build/gd32e23x_spi.o
 .debug_frame   0x00000ff4       0xb8 build/gd32e23x_syscfg.o
 .debug_frame   0x000010ac      0x518 build/gd32e23x_timer.o
 .debug_frame   0x000015c4      0x174 build/syscalls.o
 .debug_frame   0x00001738       0x6c build/system_gd32e23x.o
 .debug_frame   0x000017a4      0x234 build/lcd.o
 .debug_frame   0x000019d8       0x74 D:/AppData/arm-gnu-toolchain-13.3.rel1-mingw-w64-i686-arm-none-eabi/bin/../lib/gcc/arm-none-eabi/13.3.1/thumb/v8-m.base/nofp\libc_nano.a(libc_a-nano-vfprintf_float.o)
 .debug_frame   0x00001a4c       0x54 D:/AppData/arm-gnu-toolchain-13.3.rel1-mingw-w64-i686-arm-none-eabi/bin/../lib/gcc/arm-none-eabi/13.3.1/thumb/v8-m.base/nofp\libc_nano.a(libc_a-nano-vfprintf_i.o)
 .debug_frame   0x00001aa0       0x30 D:/AppData/arm-gnu-toolchain-13.3.rel1-mingw-w64-i686-arm-none-eabi/bin/../lib/gcc/arm-none-eabi/13.3.1/thumb/v8-m.base/nofp\libc_nano.a(libc_a-nano-vfscanf_float.o)
 .debug_frame   0x00001ad0      0x138 D:/AppData/arm-gnu-toolchain-13.3.rel1-mingw-w64-i686-arm-none-eabi/bin/../lib/gcc/arm-none-eabi/13.3.1/thumb/v8-m.base/nofp\libc_nano.a(libc_a-findfp.o)
 .debug_frame   0x00001c08       0x34 D:/AppData/arm-gnu-toolchain-13.3.rel1-mingw-w64-i686-arm-none-eabi/bin/../lib/gcc/arm-none-eabi/13.3.1/thumb/v8-m.base/nofp\libc_nano.a(libc_a-fwalk.o)
 .debug_frame   0x00001c3c       0x50 D:/AppData/arm-gnu-toolchain-13.3.rel1-mingw-w64-i686-arm-none-eabi/bin/../lib/gcc/arm-none-eabi/13.3.1/thumb/v8-m.base/nofp\libc_nano.a(libc_a-sprintf.o)
 .debug_frame   0x00001c8c       0x90 D:/AppData/arm-gnu-toolchain-13.3.rel1-mingw-w64-i686-arm-none-eabi/bin/../lib/gcc/arm-none-eabi/13.3.1/thumb/v8-m.base/nofp\libc_nano.a(libc_a-stdio.o)
 .debug_frame   0x00001d1c       0x20 D:/AppData/arm-gnu-toolchain-13.3.rel1-mingw-w64-i686-arm-none-eabi/bin/../lib/gcc/arm-none-eabi/13.3.1/thumb/v8-m.base/nofp\libc_nano.a(libc_a-memset.o)
 .debug_frame   0x00001d3c       0x40 D:/AppData/arm-gnu-toolchain-13.3.rel1-mingw-w64-i686-arm-none-eabi/bin/../lib/gcc/arm-none-eabi/13.3.1/thumb/v8-m.base/nofp\libc_nano.a(libc_a-localeconv.o)
 .debug_frame   0x00001d7c       0x2c D:/AppData/arm-gnu-toolchain-13.3.rel1-mingw-w64-i686-arm-none-eabi/bin/../lib/gcc/arm-none-eabi/13.3.1/thumb/v8-m.base/nofp\libc_nano.a(libc_a-closer.o)
 .debug_frame   0x00001da8       0x2c D:/AppData/arm-gnu-toolchain-13.3.rel1-mingw-w64-i686-arm-none-eabi/bin/../lib/gcc/arm-none-eabi/13.3.1/thumb/v8-m.base/nofp\libc_nano.a(libc_a-reent.o)
 .debug_frame   0x00001dd4       0x2c D:/AppData/arm-gnu-toolchain-13.3.rel1-mingw-w64-i686-arm-none-eabi/bin/../lib/gcc/arm-none-eabi/13.3.1/thumb/v8-m.base/nofp\libc_nano.a(libc_a-lseekr.o)
 .debug_frame   0x00001e00       0x2c D:/AppData/arm-gnu-toolchain-13.3.rel1-mingw-w64-i686-arm-none-eabi/bin/../lib/gcc/arm-none-eabi/13.3.1/thumb/v8-m.base/nofp\libc_nano.a(libc_a-readr.o)
 .debug_frame   0x00001e2c       0x2c D:/AppData/arm-gnu-toolchain-13.3.rel1-mingw-w64-i686-arm-none-eabi/bin/../lib/gcc/arm-none-eabi/13.3.1/thumb/v8-m.base/nofp\libc_nano.a(libc_a-writer.o)
 .debug_frame   0x00001e58       0x2c D:/AppData/arm-gnu-toolchain-13.3.rel1-mingw-w64-i686-arm-none-eabi/bin/../lib/gcc/arm-none-eabi/13.3.1/thumb/v8-m.base/nofp\libc_nano.a(libc_a-init.o)
 .debug_frame   0x00001e84       0xb0 D:/AppData/arm-gnu-toolchain-13.3.rel1-mingw-w64-i686-arm-none-eabi/bin/../lib/gcc/arm-none-eabi/13.3.1/thumb/v8-m.base/nofp\libc_nano.a(libc_a-lock.o)
 .debug_frame   0x00001f34       0x20 D:/AppData/arm-gnu-toolchain-13.3.rel1-mingw-w64-i686-arm-none-eabi/bin/../lib/gcc/arm-none-eabi/13.3.1/thumb/v8-m.base/nofp\libc_nano.a(libc_a-memchr-stub.o)
 .debug_frame   0x00001f54       0x20 D:/AppData/arm-gnu-toolchain-13.3.rel1-mingw-w64-i686-arm-none-eabi/bin/../lib/gcc/arm-none-eabi/13.3.1/thumb/v8-m.base/nofp\libc_nano.a(libm_a-sf_nan.o)
 .debug_frame   0x00001f74       0x54 D:/AppData/arm-gnu-toolchain-13.3.rel1-mingw-w64-i686-arm-none-eabi/bin/../lib/gcc/arm-none-eabi/13.3.1/thumb/v8-m.base/nofp\libc_nano.a(libc_a-dtoa.o)
 .debug_frame   0x00001fc8       0x2c D:/AppData/arm-gnu-toolchain-13.3.rel1-mingw-w64-i686-arm-none-eabi/bin/../lib/gcc/arm-none-eabi/13.3.1/thumb/v8-m.base/nofp\libc_nano.a(libc_a-freer.o)
 .debug_frame   0x00001ff4       0x40 D:/AppData/arm-gnu-toolchain-13.3.rel1-mingw-w64-i686-arm-none-eabi/bin/../lib/gcc/arm-none-eabi/13.3.1/thumb/v8-m.base/nofp\libc_nano.a(libc_a-malloc.o)
 .debug_frame   0x00002034       0x50 D:/AppData/arm-gnu-toolchain-13.3.rel1-mingw-w64-i686-arm-none-eabi/bin/../lib/gcc/arm-none-eabi/13.3.1/thumb/v8-m.base/nofp\libc_nano.a(libc_a-mallocr.o)
 .debug_frame   0x00002084       0x40 D:/AppData/arm-gnu-toolchain-13.3.rel1-mingw-w64-i686-arm-none-eabi/bin/../lib/gcc/arm-none-eabi/13.3.1/thumb/v8-m.base/nofp\libc_nano.a(libc_a-mlock.o)
 .debug_frame   0x000020c4      0x234 D:/AppData/arm-gnu-toolchain-13.3.rel1-mingw-w64-i686-arm-none-eabi/bin/../lib/gcc/arm-none-eabi/13.3.1/thumb/v8-m.base/nofp\libc_nano.a(libc_a-mprec.o)
 .debug_frame   0x000022f8       0xe0 D:/AppData/arm-gnu-toolchain-13.3.rel1-mingw-w64-i686-arm-none-eabi/bin/../lib/gcc/arm-none-eabi/13.3.1/thumb/v8-m.base/nofp\libc_nano.a(libc_a-strtod.o)
 .debug_frame   0x000023d8       0x78 D:/AppData/arm-gnu-toolchain-13.3.rel1-mingw-w64-i686-arm-none-eabi/bin/../lib/gcc/arm-none-eabi/13.3.1/thumb/v8-m.base/nofp\libc_nano.a(libc_a-strtol.o)
 .debug_frame   0x00002450       0x74 D:/AppData/arm-gnu-toolchain-13.3.rel1-mingw-w64-i686-arm-none-eabi/bin/../lib/gcc/arm-none-eabi/13.3.1/thumb/v8-m.base/nofp\libc_nano.a(libc_a-nano-svfprintf.o)
 .debug_frame   0x000024c4       0x68 D:/AppData/arm-gnu-toolchain-13.3.rel1-mingw-w64-i686-arm-none-eabi/bin/../lib/gcc/arm-none-eabi/13.3.1/thumb/v8-m.base/nofp\libc_nano.a(libc_a-fflush.o)
 .debug_frame   0x0000252c       0x28 D:/AppData/arm-gnu-toolchain-13.3.rel1-mingw-w64-i686-arm-none-eabi/bin/../lib/gcc/arm-none-eabi/13.3.1/thumb/v8-m.base/nofp\libc_nano.a(libc_a-memmove.o)
 .debug_frame   0x00002554       0x2c D:/AppData/arm-gnu-toolchain-13.3.rel1-mingw-w64-i686-arm-none-eabi/bin/../lib/gcc/arm-none-eabi/13.3.1/thumb/v8-m.base/nofp\libc_nano.a(libc_a-strncmp.o)
 .debug_frame   0x00002580       0x50 D:/AppData/arm-gnu-toolchain-13.3.rel1-mingw-w64-i686-arm-none-eabi/bin/../lib/gcc/arm-none-eabi/13.3.1/thumb/v8-m.base/nofp\libc_nano.a(libc_a-locale.o)
 .debug_frame   0x000025d0       0x2c D:/AppData/arm-gnu-toolchain-13.3.rel1-mingw-w64-i686-arm-none-eabi/bin/../lib/gcc/arm-none-eabi/13.3.1/thumb/v8-m.base/nofp\libc_nano.a(libc_a-sbrkr.o)
 .debug_frame   0x000025fc       0x20 D:/AppData/arm-gnu-toolchain-13.3.rel1-mingw-w64-i686-arm-none-eabi/bin/../lib/gcc/arm-none-eabi/13.3.1/thumb/v8-m.base/nofp\libc_nano.a(libc_a-errno.o)
 .debug_frame   0x0000261c       0x28 D:/AppData/arm-gnu-toolchain-13.3.rel1-mingw-w64-i686-arm-none-eabi/bin/../lib/gcc/arm-none-eabi/13.3.1/thumb/v8-m.base/nofp\libc_nano.a(libc_a-memcpy-stub.o)
 .debug_frame   0x00002644       0x20 D:/AppData/arm-gnu-toolchain-13.3.rel1-mingw-w64-i686-arm-none-eabi/bin/../lib/gcc/arm-none-eabi/13.3.1/thumb/v8-m.base/nofp\libc_nano.a(libm_a-s_nan.o)
 .debug_frame   0x00002664       0x44 D:/AppData/arm-gnu-toolchain-13.3.rel1-mingw-w64-i686-arm-none-eabi/bin/../lib/gcc/arm-none-eabi/13.3.1/thumb/v8-m.base/nofp\libc_nano.a(libc_a-assert.o)
 .debug_frame   0x000026a8       0x2c D:/AppData/arm-gnu-toolchain-13.3.rel1-mingw-w64-i686-arm-none-eabi/bin/../lib/gcc/arm-none-eabi/13.3.1/thumb/v8-m.base/nofp\libc_nano.a(libc_a-callocr.o)
 .debug_frame   0x000026d4       0x60 D:/AppData/arm-gnu-toolchain-13.3.rel1-mingw-w64-i686-arm-none-eabi/bin/../lib/gcc/arm-none-eabi/13.3.1/thumb/v8-m.base/nofp\libc_nano.a(libc_a-gdtoa-gethex.o)
 .debug_frame   0x00002734       0x68 D:/AppData/arm-gnu-toolchain-13.3.rel1-mingw-w64-i686-arm-none-eabi/bin/../lib/gcc/arm-none-eabi/13.3.1/thumb/v8-m.base/nofp\libc_nano.a(libc_a-gdtoa-hexnan.o)
 .debug_frame   0x0000279c       0x44 D:/AppData/arm-gnu-toolchain-13.3.rel1-mingw-w64-i686-arm-none-eabi/bin/../lib/gcc/arm-none-eabi/13.3.1/thumb/v8-m.base/nofp\libc_nano.a(libc_a-mbtowc_r.o)
 .debug_frame   0x000027e0       0x34 D:/AppData/arm-gnu-toolchain-13.3.rel1-mingw-w64-i686-arm-none-eabi/bin/../lib/gcc/arm-none-eabi/13.3.1/thumb/v8-m.base/nofp\libc_nano.a(libc_a-reallocr.o)
 .debug_frame   0x00002814       0x38 D:/AppData/arm-gnu-toolchain-13.3.rel1-mingw-w64-i686-arm-none-eabi/bin/../lib/gcc/arm-none-eabi/13.3.1/thumb/v8-m.base/nofp\libc_nano.a(libc_a-wctomb_r.o)
 .debug_frame   0x0000284c       0x4c D:/AppData/arm-gnu-toolchain-13.3.rel1-mingw-w64-i686-arm-none-eabi/bin/../lib/gcc/arm-none-eabi/13.3.1/thumb/v8-m.base/nofp\libc_nano.a(libc_a-fprintf.o)
 .debug_frame   0x00002898       0x28 D:/AppData/arm-gnu-toolchain-13.3.rel1-mingw-w64-i686-arm-none-eabi/bin/../lib/gcc/arm-none-eabi/13.3.1/thumb/v8-m.base/nofp\libc_nano.a(libc_a-abort.o)
 .debug_frame   0x000028c0       0x20 D:/AppData/arm-gnu-toolchain-13.3.rel1-mingw-w64-i686-arm-none-eabi/bin/../lib/gcc/arm-none-eabi/13.3.1/thumb/v8-m.base/nofp\libc_nano.a(libc_a-msizer.o)
 .debug_frame   0x000028e0       0x9c D:/AppData/arm-gnu-toolchain-13.3.rel1-mingw-w64-i686-arm-none-eabi/bin/../lib/gcc/arm-none-eabi/13.3.1/thumb/v8-m.base/nofp\libc_nano.a(libc_a-nano-vfprintf.o)
 .debug_frame   0x0000297c       0x48 D:/AppData/arm-gnu-toolchain-13.3.rel1-mingw-w64-i686-arm-none-eabi/bin/../lib/gcc/arm-none-eabi/13.3.1/thumb/v8-m.base/nofp\libc_nano.a(libc_a-wbuf.o)
 .debug_frame   0x000029c4       0x2c D:/AppData/arm-gnu-toolchain-13.3.rel1-mingw-w64-i686-arm-none-eabi/bin/../lib/gcc/arm-none-eabi/13.3.1/thumb/v8-m.base/nofp\libc_nano.a(libc_a-wsetup.o)
 .debug_frame   0x000029f0       0xe0 D:/AppData/arm-gnu-toolchain-13.3.rel1-mingw-w64-i686-arm-none-eabi/bin/../lib/gcc/arm-none-eabi/13.3.1/thumb/v8-m.base/nofp\libc_nano.a(libc_a-signal.o)
 .debug_frame   0x00002ad0       0x44 D:/AppData/arm-gnu-toolchain-13.3.rel1-mingw-w64-i686-arm-none-eabi/bin/../lib/gcc/arm-none-eabi/13.3.1/thumb/v8-m.base/nofp\libc_nano.a(libc_a-signalr.o)
 .debug_frame   0x00002b14       0x50 D:/AppData/arm-gnu-toolchain-13.3.rel1-mingw-w64-i686-arm-none-eabi/bin/../lib/gcc/arm-none-eabi/13.3.1/thumb/v8-m.base/nofp\libc_nano.a(libc_a-makebuf.o)
 .debug_frame   0x00002b64       0x2c D:/AppData/arm-gnu-toolchain-13.3.rel1-mingw-w64-i686-arm-none-eabi/bin/../lib/gcc/arm-none-eabi/13.3.1/thumb/v8-m.base/nofp\libc_nano.a(libc_a-fstatr.o)
 .debug_frame   0x00002b90       0x2c D:/AppData/arm-gnu-toolchain-13.3.rel1-mingw-w64-i686-arm-none-eabi/bin/../lib/gcc/arm-none-eabi/13.3.1/thumb/v8-m.base/nofp\libc_nano.a(libc_a-isattyr.o)
 .debug_frame   0x00002bbc       0x28 D:/AppData/arm-gnu-toolchain-13.3.rel1-mingw-w64-i686-arm-none-eabi/bin/../lib/gcc/arm-none-eabi/13.3.1/thumb/v8-m.base/nofp\libgcc.a(_fixunssfsi.o)
 .debug_frame   0x00002be4       0x2c D:/AppData/arm-gnu-toolchain-13.3.rel1-mingw-w64-i686-arm-none-eabi/bin/../lib/gcc/arm-none-eabi/13.3.1/thumb/v8-m.base/nofp\libgcc.a(_fixunsdfsi.o)
 .debug_frame   0x00002c10       0x2c D:/AppData/arm-gnu-toolchain-13.3.rel1-mingw-w64-i686-arm-none-eabi/bin/../lib/gcc/arm-none-eabi/13.3.1/thumb/v8-m.base/nofp\libgcc.a(_fixdfdi.o)
 .debug_frame   0x00002c3c       0x2c D:/AppData/arm-gnu-toolchain-13.3.rel1-mingw-w64-i686-arm-none-eabi/bin/../lib/gcc/arm-none-eabi/13.3.1/thumb/v8-m.base/nofp\libgcc.a(_fixunsdfdi.o)
 .debug_frame   0x00002c68       0x2c D:/AppData/arm-gnu-toolchain-13.3.rel1-mingw-w64-i686-arm-none-eabi/bin/../lib/gcc/arm-none-eabi/13.3.1/thumb/v8-m.base/nofp\libgcc.a(_floatdidf.o)
 .debug_frame   0x00002c94       0x38 D:/AppData/arm-gnu-toolchain-13.3.rel1-mingw-w64-i686-arm-none-eabi/bin/../lib/gcc/arm-none-eabi/13.3.1/thumb/v8-m.base/nofp\libgcc.a(divsf3.o)
 .debug_frame   0x00002ccc       0x2c D:/AppData/arm-gnu-toolchain-13.3.rel1-mingw-w64-i686-arm-none-eabi/bin/../lib/gcc/arm-none-eabi/13.3.1/thumb/v8-m.base/nofp\libgcc.a(eqsf2.o)
 .debug_frame   0x00002cf8       0x2c D:/AppData/arm-gnu-toolchain-13.3.rel1-mingw-w64-i686-arm-none-eabi/bin/../lib/gcc/arm-none-eabi/13.3.1/thumb/v8-m.base/nofp\libgcc.a(gesf2.o)
 .debug_frame   0x00002d24       0x2c D:/AppData/arm-gnu-toolchain-13.3.rel1-mingw-w64-i686-arm-none-eabi/bin/../lib/gcc/arm-none-eabi/13.3.1/thumb/v8-m.base/nofp\libgcc.a(lesf2.o)
 .debug_frame   0x00002d50       0x38 D:/AppData/arm-gnu-toolchain-13.3.rel1-mingw-w64-i686-arm-none-eabi/bin/../lib/gcc/arm-none-eabi/13.3.1/thumb/v8-m.base/nofp\libgcc.a(mulsf3.o)
 .debug_frame   0x00002d88       0x38 D:/AppData/arm-gnu-toolchain-13.3.rel1-mingw-w64-i686-arm-none-eabi/bin/../lib/gcc/arm-none-eabi/13.3.1/thumb/v8-m.base/nofp\libgcc.a(subsf3.o)
 .debug_frame   0x00002dc0       0x20 D:/AppData/arm-gnu-toolchain-13.3.rel1-mingw-w64-i686-arm-none-eabi/bin/../lib/gcc/arm-none-eabi/13.3.1/thumb/v8-m.base/nofp\libgcc.a(fixsfsi.o)
 .debug_frame   0x00002de0       0x2c D:/AppData/arm-gnu-toolchain-13.3.rel1-mingw-w64-i686-arm-none-eabi/bin/../lib/gcc/arm-none-eabi/13.3.1/thumb/v8-m.base/nofp\libgcc.a(floatsisf.o)
 .debug_frame   0x00002e0c       0x38 D:/AppData/arm-gnu-toolchain-13.3.rel1-mingw-w64-i686-arm-none-eabi/bin/../lib/gcc/arm-none-eabi/13.3.1/thumb/v8-m.base/nofp\libgcc.a(adddf3.o)
 .debug_frame   0x00002e44       0x3c D:/AppData/arm-gnu-toolchain-13.3.rel1-mingw-w64-i686-arm-none-eabi/bin/../lib/gcc/arm-none-eabi/13.3.1/thumb/v8-m.base/nofp\libgcc.a(divdf3.o)
 .debug_frame   0x00002e80       0x38 D:/AppData/arm-gnu-toolchain-13.3.rel1-mingw-w64-i686-arm-none-eabi/bin/../lib/gcc/arm-none-eabi/13.3.1/thumb/v8-m.base/nofp\libgcc.a(eqdf2.o)
 .debug_frame   0x00002eb8       0x3c D:/AppData/arm-gnu-toolchain-13.3.rel1-mingw-w64-i686-arm-none-eabi/bin/../lib/gcc/arm-none-eabi/13.3.1/thumb/v8-m.base/nofp\libgcc.a(gedf2.o)
 .debug_frame   0x00002ef4       0x3c D:/AppData/arm-gnu-toolchain-13.3.rel1-mingw-w64-i686-arm-none-eabi/bin/../lib/gcc/arm-none-eabi/13.3.1/thumb/v8-m.base/nofp\libgcc.a(ledf2.o)
 .debug_frame   0x00002f30       0x3c D:/AppData/arm-gnu-toolchain-13.3.rel1-mingw-w64-i686-arm-none-eabi/bin/../lib/gcc/arm-none-eabi/13.3.1/thumb/v8-m.base/nofp\libgcc.a(muldf3.o)
 .debug_frame   0x00002f6c       0x3c D:/AppData/arm-gnu-toolchain-13.3.rel1-mingw-w64-i686-arm-none-eabi/bin/../lib/gcc/arm-none-eabi/13.3.1/thumb/v8-m.base/nofp\libgcc.a(subdf3.o)
 .debug_frame   0x00002fa8       0x30 D:/AppData/arm-gnu-toolchain-13.3.rel1-mingw-w64-i686-arm-none-eabi/bin/../lib/gcc/arm-none-eabi/13.3.1/thumb/v8-m.base/nofp\libgcc.a(unorddf2.o)
 .debug_frame   0x00002fd8       0x30 D:/AppData/arm-gnu-toolchain-13.3.rel1-mingw-w64-i686-arm-none-eabi/bin/../lib/gcc/arm-none-eabi/13.3.1/thumb/v8-m.base/nofp\libgcc.a(fixdfsi.o)
 .debug_frame   0x00003008       0x2c D:/AppData/arm-gnu-toolchain-13.3.rel1-mingw-w64-i686-arm-none-eabi/bin/../lib/gcc/arm-none-eabi/13.3.1/thumb/v8-m.base/nofp\libgcc.a(floatsidf.o)
 .debug_frame   0x00003034       0x28 D:/AppData/arm-gnu-toolchain-13.3.rel1-mingw-w64-i686-arm-none-eabi/bin/../lib/gcc/arm-none-eabi/13.3.1/thumb/v8-m.base/nofp\libgcc.a(floatunsidf.o)
 .debug_frame   0x0000305c       0x30 D:/AppData/arm-gnu-toolchain-13.3.rel1-mingw-w64-i686-arm-none-eabi/bin/../lib/gcc/arm-none-eabi/13.3.1/thumb/v8-m.base/nofp\libgcc.a(truncdfsf2.o)

.debug_line_str
                0x00000000      0x1c6
 .debug_line_str
                0x00000000      0x1c6 D:/AppData/arm-gnu-toolchain-13.3.rel1-mingw-w64-i686-arm-none-eabi/bin/../lib/gcc/arm-none-eabi/13.3.1/thumb/v8-m.base/nofp\libc_nano.a(libc_a-strlen.o)
                                 0xec (size before relaxing)
 .debug_line_str
                0x000001c6       0xce D:/AppData/arm-gnu-toolchain-13.3.rel1-mingw-w64-i686-arm-none-eabi/bin/../lib/gcc/arm-none-eabi/13.3.1/thumb/v8-m.base/nofp\libgcc.a(_thumb1_case_uqi.o)
 .debug_line_str
                0x000001c6       0xce D:/AppData/arm-gnu-toolchain-13.3.rel1-mingw-w64-i686-arm-none-eabi/bin/../lib/gcc/arm-none-eabi/13.3.1/thumb/v8-m.base/nofp\libgcc.a(_thumb1_case_shi.o)
 .debug_line_str
                0x000001c6       0xce D:/AppData/arm-gnu-toolchain-13.3.rel1-mingw-w64-i686-arm-none-eabi/bin/../lib/gcc/arm-none-eabi/13.3.1/thumb/v8-m.base/nofp\libgcc.a(_arm_cmpdf2.o)
 .debug_line_str
                0x000001c6       0xce D:/AppData/arm-gnu-toolchain-13.3.rel1-mingw-w64-i686-arm-none-eabi/bin/../lib/gcc/arm-none-eabi/13.3.1/thumb/v8-m.base/nofp\libgcc.a(_arm_cmpsf2.o)
 .debug_line_str
                0x000001c6       0xce D:/AppData/arm-gnu-toolchain-13.3.rel1-mingw-w64-i686-arm-none-eabi/bin/../lib/gcc/arm-none-eabi/13.3.1/thumb/v8-m.base/nofp\libgcc.a(_clzsi2.o)

Cross Reference Table

Symbol                                            File
ADCConfig                                         build/peripheral.o
                                                  build/app.o
ADC_CMP_IRQHandler                                build/startup_gd32e23x.o
AppInit                                           build/app.o
                                                  build/main.o
AppInterface                                      build/app.o
AppStart                                          build/app.o
                                                  build/main.o
AppStateDisplay                                   build/app.o
DMAConfig                                         build/peripheral.o
                                                  build/app.o
DMA_Channel0_IRQHandler                           build/gd32e23x_it.o
DMA_Channel1_2_IRQHandler                         build/startup_gd32e23x.o
DMA_Channel3_4_IRQHandler                         build/startup_gd32e23x.o
Default_Handler                                   build/startup_gd32e23x.o
Draw_Circle                                       build/lcd.o
EM_LOG                                            build/log.o
                                                  build/app.o
                                                  build/gd32e23x_it.o
EM_LOGLEVELGet                                    build/log.o
EXTI0_1_IRQHandler                                build/startup_gd32e23x.o
EXTI2_3_IRQHandler                                build/startup_gd32e23x.o
EXTI4_15_IRQHandler                               build/gd32e23x_it.o
FMC_IRQHandler                                    build/startup_gd32e23x.o
GPIO13_14InterruptEnable                          build/peripheral.o
                                                  build/app.o
GPIOConfig                                        build/peripheral.o
                                                  build/app.o
HardFault_Handler                                 build/gd32e23x_it.o
I2C0_ER_IRQHandler                                build/startup_gd32e23x.o
I2C0_EV_IRQHandler                                build/startup_gd32e23x.o
I2C1_ER_IRQHandler                                build/startup_gd32e23x.o
I2C1_EV_IRQHandler                                build/startup_gd32e23x.o
LCD_Draw_Curve                                    build/lcd.o
                                                  build/app.o
LCD_Draw_Line                                     build/lcd.o
                                                  build/app.o
LCD_Draw_Point                                    build/lcd.o
                                                  build/app.o
LCD_Draw_Rectangle                                build/lcd.o
LCD_Fill                                          build/lcd.o
                                                  build/app.o
LCD_Init                                          build/lcd.o
                                                  build/app.o
LCD_ShowFloatNum1                                 build/lcd.o
                                                  build/app.o
LCD_ShowIntNum                                    build/lcd.o
                                                  build/app.o
LCD_Show_Char                                     build/lcd.o
LCD_Show_String                                   build/lcd.o
                                                  build/app.o
LVD_IRQHandler                                    build/startup_gd32e23x.o
NMI_Handler                                       build/gd32e23x_it.o
PendSV_Handler                                    build/gd32e23x_it.o
RCUConfig                                         build/peripheral.o
                                                  build/app.o
RCU_IRQHandler                                    build/startup_gd32e23x.o
RTC_IRQHandler                                    build/startup_gd32e23x.o
Reset_Handler                                     build/startup_gd32e23x.o
SPI0_IRQHandler                                   build/startup_gd32e23x.o
SPI1_IRQHandler                                   build/startup_gd32e23x.o
SPIConfig                                         build/peripheral.o
                                                  build/app.o
SVC_Handler                                       build/gd32e23x_it.o
SysTick_Handler                                   build/gd32e23x_it.o
SystemCoreClock                                   build/system_gd32e23x.o
                                                  build/systick.o
SystemCoreClockUpdate                             build/system_gd32e23x.o
SystemInit                                        build/system_gd32e23x.o
                                                  build/startup_gd32e23x.o
TAMPER_IRQHandler                                 build/startup_gd32e23x.o
TIMConfig                                         build/peripheral.o
                                                  build/app.o
TIMER0_BRK_UP_TRG_COM_IRQHandler                  build/startup_gd32e23x.o
TIMER0_Channel_IRQHandler                         build/startup_gd32e23x.o
TIMER13_IRQHandler                                build/startup_gd32e23x.o
TIMER14_IRQHandler                                build/startup_gd32e23x.o
TIMER15_IRQHandler                                build/gd32e23x_it.o
TIMER16_IRQHandler                                build/startup_gd32e23x.o
TIMER2_IRQHandler                                 build/gd32e23x_it.o
TIMER5_IRQHandler                                 build/startup_gd32e23x.o
Timer14Config                                     build/peripheral.o
                                                  build/app.o
UI_MSG                                            build/app.o
USART0_IRQHandler                                 build/startup_gd32e23x.o
USART1_IRQHandler                                 build/startup_gd32e23x.o
WWDGT_IRQHandler                                  build/startup_gd32e23x.o
WaveformDisplay                                   build/app.o
_Balloc                                           D:/AppData/arm-gnu-toolchain-13.3.rel1-mingw-w64-i686-arm-none-eabi/bin/../lib/gcc/arm-none-eabi/13.3.1/thumb/v8-m.base/nofp\libc_nano.a(libc_a-mprec.o)
                                                  D:/AppData/arm-gnu-toolchain-13.3.rel1-mingw-w64-i686-arm-none-eabi/bin/../lib/gcc/arm-none-eabi/13.3.1/thumb/v8-m.base/nofp\libc_nano.a(libc_a-gdtoa-gethex.o)
                                                  D:/AppData/arm-gnu-toolchain-13.3.rel1-mingw-w64-i686-arm-none-eabi/bin/../lib/gcc/arm-none-eabi/13.3.1/thumb/v8-m.base/nofp\libc_nano.a(libc_a-strtod.o)
                                                  D:/AppData/arm-gnu-toolchain-13.3.rel1-mingw-w64-i686-arm-none-eabi/bin/../lib/gcc/arm-none-eabi/13.3.1/thumb/v8-m.base/nofp\libc_nano.a(libc_a-dtoa.o)
_Bfree                                            D:/AppData/arm-gnu-toolchain-13.3.rel1-mingw-w64-i686-arm-none-eabi/bin/../lib/gcc/arm-none-eabi/13.3.1/thumb/v8-m.base/nofp\libc_nano.a(libc_a-mprec.o)
                                                  D:/AppData/arm-gnu-toolchain-13.3.rel1-mingw-w64-i686-arm-none-eabi/bin/../lib/gcc/arm-none-eabi/13.3.1/thumb/v8-m.base/nofp\libc_nano.a(libc_a-gdtoa-gethex.o)
                                                  D:/AppData/arm-gnu-toolchain-13.3.rel1-mingw-w64-i686-arm-none-eabi/bin/../lib/gcc/arm-none-eabi/13.3.1/thumb/v8-m.base/nofp\libc_nano.a(libc_a-strtod.o)
                                                  D:/AppData/arm-gnu-toolchain-13.3.rel1-mingw-w64-i686-arm-none-eabi/bin/../lib/gcc/arm-none-eabi/13.3.1/thumb/v8-m.base/nofp\libc_nano.a(libc_a-dtoa.o)
_ITM_deregisterTMCloneTable                       D:/AppData/arm-gnu-toolchain-13.3.rel1-mingw-w64-i686-arm-none-eabi/bin/../lib/gcc/arm-none-eabi/13.3.1/thumb/v8-m.base/nofp/crtbegin.o
_ITM_registerTMCloneTable                         D:/AppData/arm-gnu-toolchain-13.3.rel1-mingw-w64-i686-arm-none-eabi/bin/../lib/gcc/arm-none-eabi/13.3.1/thumb/v8-m.base/nofp/crtbegin.o
_PathLocale                                       D:/AppData/arm-gnu-toolchain-13.3.rel1-mingw-w64-i686-arm-none-eabi/bin/../lib/gcc/arm-none-eabi/13.3.1/thumb/v8-m.base/nofp\libc_nano.a(libc_a-locale.o)
__TMC_END__                                       D:/AppData/arm-gnu-toolchain-13.3.rel1-mingw-w64-i686-arm-none-eabi/bin/../lib/gcc/arm-none-eabi/13.3.1/thumb/v8-m.base/nofp/crtend.o
                                                  D:/AppData/arm-gnu-toolchain-13.3.rel1-mingw-w64-i686-arm-none-eabi/bin/../lib/gcc/arm-none-eabi/13.3.1/thumb/v8-m.base/nofp/crtbegin.o
__aeabi_cdcmpeq                                   D:/AppData/arm-gnu-toolchain-13.3.rel1-mingw-w64-i686-arm-none-eabi/bin/../lib/gcc/arm-none-eabi/13.3.1/thumb/v8-m.base/nofp\libgcc.a(_arm_cmpdf2.o)
__aeabi_cdcmple                                   D:/AppData/arm-gnu-toolchain-13.3.rel1-mingw-w64-i686-arm-none-eabi/bin/../lib/gcc/arm-none-eabi/13.3.1/thumb/v8-m.base/nofp\libgcc.a(_arm_cmpdf2.o)
__aeabi_cdrcmple                                  D:/AppData/arm-gnu-toolchain-13.3.rel1-mingw-w64-i686-arm-none-eabi/bin/../lib/gcc/arm-none-eabi/13.3.1/thumb/v8-m.base/nofp\libgcc.a(_arm_cmpdf2.o)
__aeabi_cfcmpeq                                   D:/AppData/arm-gnu-toolchain-13.3.rel1-mingw-w64-i686-arm-none-eabi/bin/../lib/gcc/arm-none-eabi/13.3.1/thumb/v8-m.base/nofp\libgcc.a(_arm_cmpsf2.o)
__aeabi_cfcmple                                   D:/AppData/arm-gnu-toolchain-13.3.rel1-mingw-w64-i686-arm-none-eabi/bin/../lib/gcc/arm-none-eabi/13.3.1/thumb/v8-m.base/nofp\libgcc.a(_arm_cmpsf2.o)
__aeabi_cfrcmple                                  D:/AppData/arm-gnu-toolchain-13.3.rel1-mingw-w64-i686-arm-none-eabi/bin/../lib/gcc/arm-none-eabi/13.3.1/thumb/v8-m.base/nofp\libgcc.a(_arm_cmpsf2.o)
__aeabi_d2f                                       D:/AppData/arm-gnu-toolchain-13.3.rel1-mingw-w64-i686-arm-none-eabi/bin/../lib/gcc/arm-none-eabi/13.3.1/thumb/v8-m.base/nofp\libgcc.a(truncdfsf2.o)
                                                  D:/AppData/arm-gnu-toolchain-13.3.rel1-mingw-w64-i686-arm-none-eabi/bin/../lib/gcc/arm-none-eabi/13.3.1/thumb/v8-m.base/nofp\libc_nano.a(libc_a-strtod.o)
                                                  D:/AppData/arm-gnu-toolchain-13.3.rel1-mingw-w64-i686-arm-none-eabi/bin/../lib/gcc/arm-none-eabi/13.3.1/thumb/v8-m.base/nofp\libc_nano.a(libc_a-nano-vfscanf_float.o)
__aeabi_d2iz                                      D:/AppData/arm-gnu-toolchain-13.3.rel1-mingw-w64-i686-arm-none-eabi/bin/../lib/gcc/arm-none-eabi/13.3.1/thumb/v8-m.base/nofp\libgcc.a(fixdfsi.o)
                                                  D:/AppData/arm-gnu-toolchain-13.3.rel1-mingw-w64-i686-arm-none-eabi/bin/../lib/gcc/arm-none-eabi/13.3.1/thumb/v8-m.base/nofp\libgcc.a(_fixunsdfsi.o)
                                                  D:/AppData/arm-gnu-toolchain-13.3.rel1-mingw-w64-i686-arm-none-eabi/bin/../lib/gcc/arm-none-eabi/13.3.1/thumb/v8-m.base/nofp\libc_nano.a(libc_a-dtoa.o)
__aeabi_d2lz                                      D:/AppData/arm-gnu-toolchain-13.3.rel1-mingw-w64-i686-arm-none-eabi/bin/../lib/gcc/arm-none-eabi/13.3.1/thumb/v8-m.base/nofp\libgcc.a(_fixdfdi.o)
                                                  D:/AppData/arm-gnu-toolchain-13.3.rel1-mingw-w64-i686-arm-none-eabi/bin/../lib/gcc/arm-none-eabi/13.3.1/thumb/v8-m.base/nofp\libc_nano.a(libc_a-strtod.o)
__aeabi_d2uiz                                     D:/AppData/arm-gnu-toolchain-13.3.rel1-mingw-w64-i686-arm-none-eabi/bin/../lib/gcc/arm-none-eabi/13.3.1/thumb/v8-m.base/nofp\libgcc.a(_fixunsdfsi.o)
                                                  D:/AppData/arm-gnu-toolchain-13.3.rel1-mingw-w64-i686-arm-none-eabi/bin/../lib/gcc/arm-none-eabi/13.3.1/thumb/v8-m.base/nofp\libgcc.a(_fixunsdfdi.o)
                                                  D:/AppData/arm-gnu-toolchain-13.3.rel1-mingw-w64-i686-arm-none-eabi/bin/../lib/gcc/arm-none-eabi/13.3.1/thumb/v8-m.base/nofp\libc_nano.a(libc_a-strtod.o)
__aeabi_d2ulz                                     D:/AppData/arm-gnu-toolchain-13.3.rel1-mingw-w64-i686-arm-none-eabi/bin/../lib/gcc/arm-none-eabi/13.3.1/thumb/v8-m.base/nofp\libgcc.a(_fixunsdfdi.o)
                                                  D:/AppData/arm-gnu-toolchain-13.3.rel1-mingw-w64-i686-arm-none-eabi/bin/../lib/gcc/arm-none-eabi/13.3.1/thumb/v8-m.base/nofp\libgcc.a(_fixdfdi.o)
__aeabi_dadd                                      D:/AppData/arm-gnu-toolchain-13.3.rel1-mingw-w64-i686-arm-none-eabi/bin/../lib/gcc/arm-none-eabi/13.3.1/thumb/v8-m.base/nofp\libgcc.a(adddf3.o)
                                                  D:/AppData/arm-gnu-toolchain-13.3.rel1-mingw-w64-i686-arm-none-eabi/bin/../lib/gcc/arm-none-eabi/13.3.1/thumb/v8-m.base/nofp\libgcc.a(_floatdidf.o)
                                                  D:/AppData/arm-gnu-toolchain-13.3.rel1-mingw-w64-i686-arm-none-eabi/bin/../lib/gcc/arm-none-eabi/13.3.1/thumb/v8-m.base/nofp\libc_nano.a(libc_a-strtod.o)
                                                  D:/AppData/arm-gnu-toolchain-13.3.rel1-mingw-w64-i686-arm-none-eabi/bin/../lib/gcc/arm-none-eabi/13.3.1/thumb/v8-m.base/nofp\libc_nano.a(libc_a-dtoa.o)
__aeabi_dcmpeq                                    D:/AppData/arm-gnu-toolchain-13.3.rel1-mingw-w64-i686-arm-none-eabi/bin/../lib/gcc/arm-none-eabi/13.3.1/thumb/v8-m.base/nofp\libgcc.a(_arm_cmpdf2.o)
                                                  D:/AppData/arm-gnu-toolchain-13.3.rel1-mingw-w64-i686-arm-none-eabi/bin/../lib/gcc/arm-none-eabi/13.3.1/thumb/v8-m.base/nofp\libc_nano.a(libc_a-strtod.o)
                                                  D:/AppData/arm-gnu-toolchain-13.3.rel1-mingw-w64-i686-arm-none-eabi/bin/../lib/gcc/arm-none-eabi/13.3.1/thumb/v8-m.base/nofp\libc_nano.a(libc_a-dtoa.o)
                                                  D:/AppData/arm-gnu-toolchain-13.3.rel1-mingw-w64-i686-arm-none-eabi/bin/../lib/gcc/arm-none-eabi/13.3.1/thumb/v8-m.base/nofp\libc_nano.a(libc_a-nano-vfprintf_float.o)
__aeabi_dcmpge                                    D:/AppData/arm-gnu-toolchain-13.3.rel1-mingw-w64-i686-arm-none-eabi/bin/../lib/gcc/arm-none-eabi/13.3.1/thumb/v8-m.base/nofp\libgcc.a(_arm_cmpdf2.o)
                                                  D:/AppData/arm-gnu-toolchain-13.3.rel1-mingw-w64-i686-arm-none-eabi/bin/../lib/gcc/arm-none-eabi/13.3.1/thumb/v8-m.base/nofp\libgcc.a(_fixunsdfsi.o)
                                                  D:/AppData/arm-gnu-toolchain-13.3.rel1-mingw-w64-i686-arm-none-eabi/bin/../lib/gcc/arm-none-eabi/13.3.1/thumb/v8-m.base/nofp\libc_nano.a(libc_a-dtoa.o)
__aeabi_dcmpgt                                    D:/AppData/arm-gnu-toolchain-13.3.rel1-mingw-w64-i686-arm-none-eabi/bin/../lib/gcc/arm-none-eabi/13.3.1/thumb/v8-m.base/nofp\libgcc.a(_arm_cmpdf2.o)
                                                  D:/AppData/arm-gnu-toolchain-13.3.rel1-mingw-w64-i686-arm-none-eabi/bin/../lib/gcc/arm-none-eabi/13.3.1/thumb/v8-m.base/nofp\libc_nano.a(libc_a-strtod.o)
                                                  D:/AppData/arm-gnu-toolchain-13.3.rel1-mingw-w64-i686-arm-none-eabi/bin/../lib/gcc/arm-none-eabi/13.3.1/thumb/v8-m.base/nofp\libc_nano.a(libc_a-dtoa.o)
__aeabi_dcmple                                    D:/AppData/arm-gnu-toolchain-13.3.rel1-mingw-w64-i686-arm-none-eabi/bin/../lib/gcc/arm-none-eabi/13.3.1/thumb/v8-m.base/nofp\libgcc.a(_arm_cmpdf2.o)
                                                  D:/AppData/arm-gnu-toolchain-13.3.rel1-mingw-w64-i686-arm-none-eabi/bin/../lib/gcc/arm-none-eabi/13.3.1/thumb/v8-m.base/nofp\libc_nano.a(libc_a-strtod.o)
                                                  D:/AppData/arm-gnu-toolchain-13.3.rel1-mingw-w64-i686-arm-none-eabi/bin/../lib/gcc/arm-none-eabi/13.3.1/thumb/v8-m.base/nofp\libc_nano.a(libc_a-nano-vfprintf_float.o)
__aeabi_dcmplt                                    D:/AppData/arm-gnu-toolchain-13.3.rel1-mingw-w64-i686-arm-none-eabi/bin/../lib/gcc/arm-none-eabi/13.3.1/thumb/v8-m.base/nofp\libgcc.a(_arm_cmpdf2.o)
                                                  D:/AppData/arm-gnu-toolchain-13.3.rel1-mingw-w64-i686-arm-none-eabi/bin/../lib/gcc/arm-none-eabi/13.3.1/thumb/v8-m.base/nofp\libgcc.a(_fixdfdi.o)
                                                  D:/AppData/arm-gnu-toolchain-13.3.rel1-mingw-w64-i686-arm-none-eabi/bin/../lib/gcc/arm-none-eabi/13.3.1/thumb/v8-m.base/nofp\libc_nano.a(libc_a-strtod.o)
                                                  D:/AppData/arm-gnu-toolchain-13.3.rel1-mingw-w64-i686-arm-none-eabi/bin/../lib/gcc/arm-none-eabi/13.3.1/thumb/v8-m.base/nofp\libc_nano.a(libc_a-dtoa.o)
                                                  D:/AppData/arm-gnu-toolchain-13.3.rel1-mingw-w64-i686-arm-none-eabi/bin/../lib/gcc/arm-none-eabi/13.3.1/thumb/v8-m.base/nofp\libc_nano.a(libc_a-nano-vfprintf_float.o)
__aeabi_dcmpun                                    D:/AppData/arm-gnu-toolchain-13.3.rel1-mingw-w64-i686-arm-none-eabi/bin/../lib/gcc/arm-none-eabi/13.3.1/thumb/v8-m.base/nofp\libgcc.a(unorddf2.o)
                                                  D:/AppData/arm-gnu-toolchain-13.3.rel1-mingw-w64-i686-arm-none-eabi/bin/../lib/gcc/arm-none-eabi/13.3.1/thumb/v8-m.base/nofp\libc_nano.a(libc_a-strtod.o)
                                                  D:/AppData/arm-gnu-toolchain-13.3.rel1-mingw-w64-i686-arm-none-eabi/bin/../lib/gcc/arm-none-eabi/13.3.1/thumb/v8-m.base/nofp\libc_nano.a(libc_a-nano-vfscanf_float.o)
                                                  D:/AppData/arm-gnu-toolchain-13.3.rel1-mingw-w64-i686-arm-none-eabi/bin/../lib/gcc/arm-none-eabi/13.3.1/thumb/v8-m.base/nofp\libc_nano.a(libc_a-nano-vfprintf_float.o)
__aeabi_ddiv                                      D:/AppData/arm-gnu-toolchain-13.3.rel1-mingw-w64-i686-arm-none-eabi/bin/../lib/gcc/arm-none-eabi/13.3.1/thumb/v8-m.base/nofp\libgcc.a(divdf3.o)
                                                  D:/AppData/arm-gnu-toolchain-13.3.rel1-mingw-w64-i686-arm-none-eabi/bin/../lib/gcc/arm-none-eabi/13.3.1/thumb/v8-m.base/nofp\libc_nano.a(libc_a-strtod.o)
                                                  D:/AppData/arm-gnu-toolchain-13.3.rel1-mingw-w64-i686-arm-none-eabi/bin/../lib/gcc/arm-none-eabi/13.3.1/thumb/v8-m.base/nofp\libc_nano.a(libc_a-mprec.o)
                                                  D:/AppData/arm-gnu-toolchain-13.3.rel1-mingw-w64-i686-arm-none-eabi/bin/../lib/gcc/arm-none-eabi/13.3.1/thumb/v8-m.base/nofp\libc_nano.a(libc_a-dtoa.o)
__aeabi_dmul                                      D:/AppData/arm-gnu-toolchain-13.3.rel1-mingw-w64-i686-arm-none-eabi/bin/../lib/gcc/arm-none-eabi/13.3.1/thumb/v8-m.base/nofp\libgcc.a(muldf3.o)
                                                  D:/AppData/arm-gnu-toolchain-13.3.rel1-mingw-w64-i686-arm-none-eabi/bin/../lib/gcc/arm-none-eabi/13.3.1/thumb/v8-m.base/nofp\libgcc.a(_floatdidf.o)
                                                  D:/AppData/arm-gnu-toolchain-13.3.rel1-mingw-w64-i686-arm-none-eabi/bin/../lib/gcc/arm-none-eabi/13.3.1/thumb/v8-m.base/nofp\libgcc.a(_fixunsdfdi.o)
                                                  D:/AppData/arm-gnu-toolchain-13.3.rel1-mingw-w64-i686-arm-none-eabi/bin/../lib/gcc/arm-none-eabi/13.3.1/thumb/v8-m.base/nofp\libc_nano.a(libc_a-strtod.o)
                                                  D:/AppData/arm-gnu-toolchain-13.3.rel1-mingw-w64-i686-arm-none-eabi/bin/../lib/gcc/arm-none-eabi/13.3.1/thumb/v8-m.base/nofp\libc_nano.a(libc_a-mprec.o)
                                                  D:/AppData/arm-gnu-toolchain-13.3.rel1-mingw-w64-i686-arm-none-eabi/bin/../lib/gcc/arm-none-eabi/13.3.1/thumb/v8-m.base/nofp\libc_nano.a(libc_a-dtoa.o)
__aeabi_dsub                                      D:/AppData/arm-gnu-toolchain-13.3.rel1-mingw-w64-i686-arm-none-eabi/bin/../lib/gcc/arm-none-eabi/13.3.1/thumb/v8-m.base/nofp\libgcc.a(subdf3.o)
                                                  D:/AppData/arm-gnu-toolchain-13.3.rel1-mingw-w64-i686-arm-none-eabi/bin/../lib/gcc/arm-none-eabi/13.3.1/thumb/v8-m.base/nofp\libgcc.a(_fixunsdfdi.o)
                                                  D:/AppData/arm-gnu-toolchain-13.3.rel1-mingw-w64-i686-arm-none-eabi/bin/../lib/gcc/arm-none-eabi/13.3.1/thumb/v8-m.base/nofp\libgcc.a(_fixunsdfsi.o)
                                                  D:/AppData/arm-gnu-toolchain-13.3.rel1-mingw-w64-i686-arm-none-eabi/bin/../lib/gcc/arm-none-eabi/13.3.1/thumb/v8-m.base/nofp\libc_nano.a(libc_a-strtod.o)
                                                  D:/AppData/arm-gnu-toolchain-13.3.rel1-mingw-w64-i686-arm-none-eabi/bin/../lib/gcc/arm-none-eabi/13.3.1/thumb/v8-m.base/nofp\libc_nano.a(libc_a-dtoa.o)
__aeabi_f2iz                                      D:/AppData/arm-gnu-toolchain-13.3.rel1-mingw-w64-i686-arm-none-eabi/bin/../lib/gcc/arm-none-eabi/13.3.1/thumb/v8-m.base/nofp\libgcc.a(fixsfsi.o)
                                                  D:/AppData/arm-gnu-toolchain-13.3.rel1-mingw-w64-i686-arm-none-eabi/bin/../lib/gcc/arm-none-eabi/13.3.1/thumb/v8-m.base/nofp\libgcc.a(_fixunssfsi.o)
                                                  build/app.o
__aeabi_f2uiz                                     D:/AppData/arm-gnu-toolchain-13.3.rel1-mingw-w64-i686-arm-none-eabi/bin/../lib/gcc/arm-none-eabi/13.3.1/thumb/v8-m.base/nofp\libgcc.a(_fixunssfsi.o)
                                                  build/lcd.o
__aeabi_fcmpeq                                    D:/AppData/arm-gnu-toolchain-13.3.rel1-mingw-w64-i686-arm-none-eabi/bin/../lib/gcc/arm-none-eabi/13.3.1/thumb/v8-m.base/nofp\libgcc.a(_arm_cmpsf2.o)
__aeabi_fcmpge                                    D:/AppData/arm-gnu-toolchain-13.3.rel1-mingw-w64-i686-arm-none-eabi/bin/../lib/gcc/arm-none-eabi/13.3.1/thumb/v8-m.base/nofp\libgcc.a(_arm_cmpsf2.o)
                                                  D:/AppData/arm-gnu-toolchain-13.3.rel1-mingw-w64-i686-arm-none-eabi/bin/../lib/gcc/arm-none-eabi/13.3.1/thumb/v8-m.base/nofp\libgcc.a(_fixunssfsi.o)
__aeabi_fcmpgt                                    D:/AppData/arm-gnu-toolchain-13.3.rel1-mingw-w64-i686-arm-none-eabi/bin/../lib/gcc/arm-none-eabi/13.3.1/thumb/v8-m.base/nofp\libgcc.a(_arm_cmpsf2.o)
__aeabi_fcmple                                    D:/AppData/arm-gnu-toolchain-13.3.rel1-mingw-w64-i686-arm-none-eabi/bin/../lib/gcc/arm-none-eabi/13.3.1/thumb/v8-m.base/nofp\libgcc.a(_arm_cmpsf2.o)
                                                  D:/AppData/arm-gnu-toolchain-13.3.rel1-mingw-w64-i686-arm-none-eabi/bin/../lib/gcc/arm-none-eabi/13.3.1/thumb/v8-m.base/nofp\libc_nano.a(libc_a-strtod.o)
__aeabi_fcmplt                                    D:/AppData/arm-gnu-toolchain-13.3.rel1-mingw-w64-i686-arm-none-eabi/bin/../lib/gcc/arm-none-eabi/13.3.1/thumb/v8-m.base/nofp\libgcc.a(_arm_cmpsf2.o)
__aeabi_fcmpun                                    D:/AppData/arm-gnu-toolchain-13.3.rel1-mingw-w64-i686-arm-none-eabi/bin/../lib/gcc/arm-none-eabi/13.3.1/thumb/v8-m.base/nofp\libgcc.a(unordsf2.o)
                                                  D:/AppData/arm-gnu-toolchain-13.3.rel1-mingw-w64-i686-arm-none-eabi/bin/../lib/gcc/arm-none-eabi/13.3.1/thumb/v8-m.base/nofp\libc_nano.a(libc_a-strtod.o)
__aeabi_fdiv                                      D:/AppData/arm-gnu-toolchain-13.3.rel1-mingw-w64-i686-arm-none-eabi/bin/../lib/gcc/arm-none-eabi/13.3.1/thumb/v8-m.base/nofp\libgcc.a(divsf3.o)
                                                  build/app.o
__aeabi_fmul                                      D:/AppData/arm-gnu-toolchain-13.3.rel1-mingw-w64-i686-arm-none-eabi/bin/../lib/gcc/arm-none-eabi/13.3.1/thumb/v8-m.base/nofp\libgcc.a(mulsf3.o)
                                                  build/lcd.o
                                                  build/app.o
__aeabi_fsub                                      D:/AppData/arm-gnu-toolchain-13.3.rel1-mingw-w64-i686-arm-none-eabi/bin/../lib/gcc/arm-none-eabi/13.3.1/thumb/v8-m.base/nofp\libgcc.a(subsf3.o)
                                                  D:/AppData/arm-gnu-toolchain-13.3.rel1-mingw-w64-i686-arm-none-eabi/bin/../lib/gcc/arm-none-eabi/13.3.1/thumb/v8-m.base/nofp\libgcc.a(_fixunssfsi.o)
__aeabi_i2d                                       D:/AppData/arm-gnu-toolchain-13.3.rel1-mingw-w64-i686-arm-none-eabi/bin/../lib/gcc/arm-none-eabi/13.3.1/thumb/v8-m.base/nofp\libgcc.a(floatsidf.o)
                                                  D:/AppData/arm-gnu-toolchain-13.3.rel1-mingw-w64-i686-arm-none-eabi/bin/../lib/gcc/arm-none-eabi/13.3.1/thumb/v8-m.base/nofp\libgcc.a(_floatdidf.o)
                                                  D:/AppData/arm-gnu-toolchain-13.3.rel1-mingw-w64-i686-arm-none-eabi/bin/../lib/gcc/arm-none-eabi/13.3.1/thumb/v8-m.base/nofp\libc_nano.a(libc_a-dtoa.o)
__aeabi_i2f                                       D:/AppData/arm-gnu-toolchain-13.3.rel1-mingw-w64-i686-arm-none-eabi/bin/../lib/gcc/arm-none-eabi/13.3.1/thumb/v8-m.base/nofp\libgcc.a(floatsisf.o)
                                                  build/app.o
__aeabi_l2d                                       D:/AppData/arm-gnu-toolchain-13.3.rel1-mingw-w64-i686-arm-none-eabi/bin/../lib/gcc/arm-none-eabi/13.3.1/thumb/v8-m.base/nofp\libgcc.a(_floatdidf.o)
                                                  D:/AppData/arm-gnu-toolchain-13.3.rel1-mingw-w64-i686-arm-none-eabi/bin/../lib/gcc/arm-none-eabi/13.3.1/thumb/v8-m.base/nofp\libc_nano.a(libc_a-strtod.o)
__aeabi_ui2d                                      D:/AppData/arm-gnu-toolchain-13.3.rel1-mingw-w64-i686-arm-none-eabi/bin/../lib/gcc/arm-none-eabi/13.3.1/thumb/v8-m.base/nofp\libgcc.a(floatunsidf.o)
                                                  D:/AppData/arm-gnu-toolchain-13.3.rel1-mingw-w64-i686-arm-none-eabi/bin/../lib/gcc/arm-none-eabi/13.3.1/thumb/v8-m.base/nofp\libgcc.a(_floatdidf.o)
                                                  D:/AppData/arm-gnu-toolchain-13.3.rel1-mingw-w64-i686-arm-none-eabi/bin/../lib/gcc/arm-none-eabi/13.3.1/thumb/v8-m.base/nofp\libgcc.a(_fixunsdfdi.o)
                                                  D:/AppData/arm-gnu-toolchain-13.3.rel1-mingw-w64-i686-arm-none-eabi/bin/../lib/gcc/arm-none-eabi/13.3.1/thumb/v8-m.base/nofp\libc_nano.a(libc_a-strtod.o)
                                                  D:/AppData/arm-gnu-toolchain-13.3.rel1-mingw-w64-i686-arm-none-eabi/bin/../lib/gcc/arm-none-eabi/13.3.1/thumb/v8-m.base/nofp\libc_nano.a(libc_a-dtoa.o)
__any_on                                          D:/AppData/arm-gnu-toolchain-13.3.rel1-mingw-w64-i686-arm-none-eabi/bin/../lib/gcc/arm-none-eabi/13.3.1/thumb/v8-m.base/nofp\libc_nano.a(libc_a-mprec.o)
                                                  D:/AppData/arm-gnu-toolchain-13.3.rel1-mingw-w64-i686-arm-none-eabi/bin/../lib/gcc/arm-none-eabi/13.3.1/thumb/v8-m.base/nofp\libc_nano.a(libc_a-gdtoa-gethex.o)
__ascii_mbtowc                                    D:/AppData/arm-gnu-toolchain-13.3.rel1-mingw-w64-i686-arm-none-eabi/bin/../lib/gcc/arm-none-eabi/13.3.1/thumb/v8-m.base/nofp\libc_nano.a(libc_a-mbtowc_r.o)
                                                  D:/AppData/arm-gnu-toolchain-13.3.rel1-mingw-w64-i686-arm-none-eabi/bin/../lib/gcc/arm-none-eabi/13.3.1/thumb/v8-m.base/nofp\libc_nano.a(libc_a-locale.o)
__ascii_wctomb                                    D:/AppData/arm-gnu-toolchain-13.3.rel1-mingw-w64-i686-arm-none-eabi/bin/../lib/gcc/arm-none-eabi/13.3.1/thumb/v8-m.base/nofp\libc_nano.a(libc_a-wctomb_r.o)
                                                  D:/AppData/arm-gnu-toolchain-13.3.rel1-mingw-w64-i686-arm-none-eabi/bin/../lib/gcc/arm-none-eabi/13.3.1/thumb/v8-m.base/nofp\libc_nano.a(libc_a-locale.o)
__assert                                          D:/AppData/arm-gnu-toolchain-13.3.rel1-mingw-w64-i686-arm-none-eabi/bin/../lib/gcc/arm-none-eabi/13.3.1/thumb/v8-m.base/nofp\libc_nano.a(libc_a-assert.o)
__assert_func                                     D:/AppData/arm-gnu-toolchain-13.3.rel1-mingw-w64-i686-arm-none-eabi/bin/../lib/gcc/arm-none-eabi/13.3.1/thumb/v8-m.base/nofp\libc_nano.a(libc_a-assert.o)
                                                  D:/AppData/arm-gnu-toolchain-13.3.rel1-mingw-w64-i686-arm-none-eabi/bin/../lib/gcc/arm-none-eabi/13.3.1/thumb/v8-m.base/nofp\libc_nano.a(libc_a-gdtoa-gethex.o)
                                                  D:/AppData/arm-gnu-toolchain-13.3.rel1-mingw-w64-i686-arm-none-eabi/bin/../lib/gcc/arm-none-eabi/13.3.1/thumb/v8-m.base/nofp\libc_nano.a(libc_a-mprec.o)
                                                  D:/AppData/arm-gnu-toolchain-13.3.rel1-mingw-w64-i686-arm-none-eabi/bin/../lib/gcc/arm-none-eabi/13.3.1/thumb/v8-m.base/nofp\libc_nano.a(libc_a-dtoa.o)
__b2d                                             D:/AppData/arm-gnu-toolchain-13.3.rel1-mingw-w64-i686-arm-none-eabi/bin/../lib/gcc/arm-none-eabi/13.3.1/thumb/v8-m.base/nofp\libc_nano.a(libc_a-mprec.o)
__bss_end__                                       D:/AppData/arm-gnu-toolchain-13.3.rel1-mingw-w64-i686-arm-none-eabi/bin/../lib/gcc/arm-none-eabi/13.3.1/thumb/v8-m.base/nofp/crt0.o
__bss_start__                                     D:/AppData/arm-gnu-toolchain-13.3.rel1-mingw-w64-i686-arm-none-eabi/bin/../lib/gcc/arm-none-eabi/13.3.1/thumb/v8-m.base/nofp/crt0.o
__call_exitprocs                                  D:/AppData/arm-gnu-toolchain-13.3.rel1-mingw-w64-i686-arm-none-eabi/bin/../lib/gcc/arm-none-eabi/13.3.1/thumb/v8-m.base/nofp\libc_nano.a(libc_a-exit.o)
__clzsi2                                          D:/AppData/arm-gnu-toolchain-13.3.rel1-mingw-w64-i686-arm-none-eabi/bin/../lib/gcc/arm-none-eabi/13.3.1/thumb/v8-m.base/nofp\libgcc.a(_clzsi2.o)
                                                  D:/AppData/arm-gnu-toolchain-13.3.rel1-mingw-w64-i686-arm-none-eabi/bin/../lib/gcc/arm-none-eabi/13.3.1/thumb/v8-m.base/nofp\libgcc.a(floatunsidf.o)
                                                  D:/AppData/arm-gnu-toolchain-13.3.rel1-mingw-w64-i686-arm-none-eabi/bin/../lib/gcc/arm-none-eabi/13.3.1/thumb/v8-m.base/nofp\libgcc.a(floatsidf.o)
                                                  D:/AppData/arm-gnu-toolchain-13.3.rel1-mingw-w64-i686-arm-none-eabi/bin/../lib/gcc/arm-none-eabi/13.3.1/thumb/v8-m.base/nofp\libgcc.a(subdf3.o)
                                                  D:/AppData/arm-gnu-toolchain-13.3.rel1-mingw-w64-i686-arm-none-eabi/bin/../lib/gcc/arm-none-eabi/13.3.1/thumb/v8-m.base/nofp\libgcc.a(muldf3.o)
                                                  D:/AppData/arm-gnu-toolchain-13.3.rel1-mingw-w64-i686-arm-none-eabi/bin/../lib/gcc/arm-none-eabi/13.3.1/thumb/v8-m.base/nofp\libgcc.a(divdf3.o)
                                                  D:/AppData/arm-gnu-toolchain-13.3.rel1-mingw-w64-i686-arm-none-eabi/bin/../lib/gcc/arm-none-eabi/13.3.1/thumb/v8-m.base/nofp\libgcc.a(adddf3.o)
                                                  D:/AppData/arm-gnu-toolchain-13.3.rel1-mingw-w64-i686-arm-none-eabi/bin/../lib/gcc/arm-none-eabi/13.3.1/thumb/v8-m.base/nofp\libgcc.a(floatsisf.o)
                                                  D:/AppData/arm-gnu-toolchain-13.3.rel1-mingw-w64-i686-arm-none-eabi/bin/../lib/gcc/arm-none-eabi/13.3.1/thumb/v8-m.base/nofp\libgcc.a(subsf3.o)
                                                  D:/AppData/arm-gnu-toolchain-13.3.rel1-mingw-w64-i686-arm-none-eabi/bin/../lib/gcc/arm-none-eabi/13.3.1/thumb/v8-m.base/nofp\libgcc.a(mulsf3.o)
                                                  D:/AppData/arm-gnu-toolchain-13.3.rel1-mingw-w64-i686-arm-none-eabi/bin/../lib/gcc/arm-none-eabi/13.3.1/thumb/v8-m.base/nofp\libgcc.a(divsf3.o)
__copybits                                        D:/AppData/arm-gnu-toolchain-13.3.rel1-mingw-w64-i686-arm-none-eabi/bin/../lib/gcc/arm-none-eabi/13.3.1/thumb/v8-m.base/nofp\libc_nano.a(libc_a-mprec.o)
                                                  D:/AppData/arm-gnu-toolchain-13.3.rel1-mingw-w64-i686-arm-none-eabi/bin/../lib/gcc/arm-none-eabi/13.3.1/thumb/v8-m.base/nofp\libc_nano.a(libc_a-strtod.o)
__cvt                                             D:/AppData/arm-gnu-toolchain-13.3.rel1-mingw-w64-i686-arm-none-eabi/bin/../lib/gcc/arm-none-eabi/13.3.1/thumb/v8-m.base/nofp\libc_nano.a(libc_a-nano-vfprintf_float.o)
__d2b                                             D:/AppData/arm-gnu-toolchain-13.3.rel1-mingw-w64-i686-arm-none-eabi/bin/../lib/gcc/arm-none-eabi/13.3.1/thumb/v8-m.base/nofp\libc_nano.a(libc_a-mprec.o)
                                                  D:/AppData/arm-gnu-toolchain-13.3.rel1-mingw-w64-i686-arm-none-eabi/bin/../lib/gcc/arm-none-eabi/13.3.1/thumb/v8-m.base/nofp\libc_nano.a(libc_a-strtod.o)
                                                  D:/AppData/arm-gnu-toolchain-13.3.rel1-mingw-w64-i686-arm-none-eabi/bin/../lib/gcc/arm-none-eabi/13.3.1/thumb/v8-m.base/nofp\libc_nano.a(libc_a-dtoa.o)
__deregister_frame_info                           D:/AppData/arm-gnu-toolchain-13.3.rel1-mingw-w64-i686-arm-none-eabi/bin/../lib/gcc/arm-none-eabi/13.3.1/thumb/v8-m.base/nofp/crtbegin.o
__dso_handle                                      D:/AppData/arm-gnu-toolchain-13.3.rel1-mingw-w64-i686-arm-none-eabi/bin/../lib/gcc/arm-none-eabi/13.3.1/thumb/v8-m.base/nofp/crtbegin.o
__eqdf2                                           D:/AppData/arm-gnu-toolchain-13.3.rel1-mingw-w64-i686-arm-none-eabi/bin/../lib/gcc/arm-none-eabi/13.3.1/thumb/v8-m.base/nofp\libgcc.a(eqdf2.o)
                                                  D:/AppData/arm-gnu-toolchain-13.3.rel1-mingw-w64-i686-arm-none-eabi/bin/../lib/gcc/arm-none-eabi/13.3.1/thumb/v8-m.base/nofp\libgcc.a(_arm_cmpdf2.o)
__eqsf2                                           D:/AppData/arm-gnu-toolchain-13.3.rel1-mingw-w64-i686-arm-none-eabi/bin/../lib/gcc/arm-none-eabi/13.3.1/thumb/v8-m.base/nofp\libgcc.a(eqsf2.o)
                                                  D:/AppData/arm-gnu-toolchain-13.3.rel1-mingw-w64-i686-arm-none-eabi/bin/../lib/gcc/arm-none-eabi/13.3.1/thumb/v8-m.base/nofp\libgcc.a(_arm_cmpsf2.o)
__errno                                           D:/AppData/arm-gnu-toolchain-13.3.rel1-mingw-w64-i686-arm-none-eabi/bin/../lib/gcc/arm-none-eabi/13.3.1/thumb/v8-m.base/nofp\libc_nano.a(libc_a-errno.o)
                                                  D:/AppData/arm-gnu-toolchain-13.3.rel1-mingw-w64-i686-arm-none-eabi/bin/../lib/gcc/arm-none-eabi/13.3.1/thumb/v8-m.base/nofp\libc_nano.a(libc_a-strtol.o)
                                                  D:/AppData/arm-gnu-toolchain-13.3.rel1-mingw-w64-i686-arm-none-eabi/bin/../lib/gcc/arm-none-eabi/13.3.1/thumb/v8-m.base/nofp\libc_nano.a(libc_a-strtod.o)
__exponent                                        D:/AppData/arm-gnu-toolchain-13.3.rel1-mingw-w64-i686-arm-none-eabi/bin/../lib/gcc/arm-none-eabi/13.3.1/thumb/v8-m.base/nofp\libc_nano.a(libc_a-nano-vfprintf_float.o)
__fixdfdi                                         D:/AppData/arm-gnu-toolchain-13.3.rel1-mingw-w64-i686-arm-none-eabi/bin/../lib/gcc/arm-none-eabi/13.3.1/thumb/v8-m.base/nofp\libgcc.a(_fixdfdi.o)
__fixunsdfdi                                      D:/AppData/arm-gnu-toolchain-13.3.rel1-mingw-w64-i686-arm-none-eabi/bin/../lib/gcc/arm-none-eabi/13.3.1/thumb/v8-m.base/nofp\libgcc.a(_fixunsdfdi.o)
__fixunsdfsi                                      D:/AppData/arm-gnu-toolchain-13.3.rel1-mingw-w64-i686-arm-none-eabi/bin/../lib/gcc/arm-none-eabi/13.3.1/thumb/v8-m.base/nofp\libgcc.a(_fixunsdfsi.o)
__fixunssfsi                                      D:/AppData/arm-gnu-toolchain-13.3.rel1-mingw-w64-i686-arm-none-eabi/bin/../lib/gcc/arm-none-eabi/13.3.1/thumb/v8-m.base/nofp\libgcc.a(_fixunssfsi.o)
__floatdidf                                       D:/AppData/arm-gnu-toolchain-13.3.rel1-mingw-w64-i686-arm-none-eabi/bin/../lib/gcc/arm-none-eabi/13.3.1/thumb/v8-m.base/nofp\libgcc.a(_floatdidf.o)
__fp_lock_all                                     D:/AppData/arm-gnu-toolchain-13.3.rel1-mingw-w64-i686-arm-none-eabi/bin/../lib/gcc/arm-none-eabi/13.3.1/thumb/v8-m.base/nofp\libc_nano.a(libc_a-findfp.o)
__fp_unlock_all                                   D:/AppData/arm-gnu-toolchain-13.3.rel1-mingw-w64-i686-arm-none-eabi/bin/../lib/gcc/arm-none-eabi/13.3.1/thumb/v8-m.base/nofp\libc_nano.a(libc_a-findfp.o)
__gVectors                                        build/startup_gd32e23x.o
__gedf2                                           D:/AppData/arm-gnu-toolchain-13.3.rel1-mingw-w64-i686-arm-none-eabi/bin/../lib/gcc/arm-none-eabi/13.3.1/thumb/v8-m.base/nofp\libgcc.a(gedf2.o)
                                                  D:/AppData/arm-gnu-toolchain-13.3.rel1-mingw-w64-i686-arm-none-eabi/bin/../lib/gcc/arm-none-eabi/13.3.1/thumb/v8-m.base/nofp\libgcc.a(_arm_cmpdf2.o)
__gesf2                                           D:/AppData/arm-gnu-toolchain-13.3.rel1-mingw-w64-i686-arm-none-eabi/bin/../lib/gcc/arm-none-eabi/13.3.1/thumb/v8-m.base/nofp\libgcc.a(gesf2.o)
                                                  D:/AppData/arm-gnu-toolchain-13.3.rel1-mingw-w64-i686-arm-none-eabi/bin/../lib/gcc/arm-none-eabi/13.3.1/thumb/v8-m.base/nofp\libgcc.a(_arm_cmpsf2.o)
__gethex                                          D:/AppData/arm-gnu-toolchain-13.3.rel1-mingw-w64-i686-arm-none-eabi/bin/../lib/gcc/arm-none-eabi/13.3.1/thumb/v8-m.base/nofp\libc_nano.a(libc_a-gdtoa-gethex.o)
                                                  D:/AppData/arm-gnu-toolchain-13.3.rel1-mingw-w64-i686-arm-none-eabi/bin/../lib/gcc/arm-none-eabi/13.3.1/thumb/v8-m.base/nofp\libc_nano.a(libc_a-strtod.o)
__global_locale                                   D:/AppData/arm-gnu-toolchain-13.3.rel1-mingw-w64-i686-arm-none-eabi/bin/../lib/gcc/arm-none-eabi/13.3.1/thumb/v8-m.base/nofp\libc_nano.a(libc_a-locale.o)
                                                  D:/AppData/arm-gnu-toolchain-13.3.rel1-mingw-w64-i686-arm-none-eabi/bin/../lib/gcc/arm-none-eabi/13.3.1/thumb/v8-m.base/nofp\libc_nano.a(libc_a-wctomb_r.o)
                                                  D:/AppData/arm-gnu-toolchain-13.3.rel1-mingw-w64-i686-arm-none-eabi/bin/../lib/gcc/arm-none-eabi/13.3.1/thumb/v8-m.base/nofp\libc_nano.a(libc_a-mbtowc_r.o)
                                                  D:/AppData/arm-gnu-toolchain-13.3.rel1-mingw-w64-i686-arm-none-eabi/bin/../lib/gcc/arm-none-eabi/13.3.1/thumb/v8-m.base/nofp\libc_nano.a(libc_a-strtod.o)
                                                  D:/AppData/arm-gnu-toolchain-13.3.rel1-mingw-w64-i686-arm-none-eabi/bin/../lib/gcc/arm-none-eabi/13.3.1/thumb/v8-m.base/nofp\libc_nano.a(libc_a-localeconv.o)
__gnu_thumb1_case_shi                             D:/AppData/arm-gnu-toolchain-13.3.rel1-mingw-w64-i686-arm-none-eabi/bin/../lib/gcc/arm-none-eabi/13.3.1/thumb/v8-m.base/nofp\libgcc.a(_thumb1_case_shi.o)
                                                  D:/AppData/arm-gnu-toolchain-13.3.rel1-mingw-w64-i686-arm-none-eabi/bin/../lib/gcc/arm-none-eabi/13.3.1/thumb/v8-m.base/nofp\libc_nano.a(libc_a-nano-vfscanf_float.o)
                                                  D:/AppData/arm-gnu-toolchain-13.3.rel1-mingw-w64-i686-arm-none-eabi/bin/../lib/gcc/arm-none-eabi/13.3.1/thumb/v8-m.base/nofp\libc_nano.a(libc_a-nano-vfprintf_i.o)
__gnu_thumb1_case_uqi                             D:/AppData/arm-gnu-toolchain-13.3.rel1-mingw-w64-i686-arm-none-eabi/bin/../lib/gcc/arm-none-eabi/13.3.1/thumb/v8-m.base/nofp\libgcc.a(_thumb1_case_uqi.o)
                                                  D:/AppData/arm-gnu-toolchain-13.3.rel1-mingw-w64-i686-arm-none-eabi/bin/../lib/gcc/arm-none-eabi/13.3.1/thumb/v8-m.base/nofp\libc_nano.a(libc_a-strtod.o)
                                                  D:/AppData/arm-gnu-toolchain-13.3.rel1-mingw-w64-i686-arm-none-eabi/bin/../lib/gcc/arm-none-eabi/13.3.1/thumb/v8-m.base/nofp\libc_nano.a(libc_a-dtoa.o)
__gtdf2                                           D:/AppData/arm-gnu-toolchain-13.3.rel1-mingw-w64-i686-arm-none-eabi/bin/../lib/gcc/arm-none-eabi/13.3.1/thumb/v8-m.base/nofp\libgcc.a(gedf2.o)
__gtsf2                                           D:/AppData/arm-gnu-toolchain-13.3.rel1-mingw-w64-i686-arm-none-eabi/bin/../lib/gcc/arm-none-eabi/13.3.1/thumb/v8-m.base/nofp\libgcc.a(gesf2.o)
__hexdig_fun                                      D:/AppData/arm-gnu-toolchain-13.3.rel1-mingw-w64-i686-arm-none-eabi/bin/../lib/gcc/arm-none-eabi/13.3.1/thumb/v8-m.base/nofp\libc_nano.a(libc_a-gdtoa-gethex.o)
                                                  D:/AppData/arm-gnu-toolchain-13.3.rel1-mingw-w64-i686-arm-none-eabi/bin/../lib/gcc/arm-none-eabi/13.3.1/thumb/v8-m.base/nofp\libc_nano.a(libc_a-gdtoa-hexnan.o)
__hexnan                                          D:/AppData/arm-gnu-toolchain-13.3.rel1-mingw-w64-i686-arm-none-eabi/bin/../lib/gcc/arm-none-eabi/13.3.1/thumb/v8-m.base/nofp\libc_nano.a(libc_a-gdtoa-hexnan.o)
                                                  D:/AppData/arm-gnu-toolchain-13.3.rel1-mingw-w64-i686-arm-none-eabi/bin/../lib/gcc/arm-none-eabi/13.3.1/thumb/v8-m.base/nofp\libc_nano.a(libc_a-strtod.o)
__hi0bits                                         D:/AppData/arm-gnu-toolchain-13.3.rel1-mingw-w64-i686-arm-none-eabi/bin/../lib/gcc/arm-none-eabi/13.3.1/thumb/v8-m.base/nofp\libc_nano.a(libc_a-mprec.o)
                                                  D:/AppData/arm-gnu-toolchain-13.3.rel1-mingw-w64-i686-arm-none-eabi/bin/../lib/gcc/arm-none-eabi/13.3.1/thumb/v8-m.base/nofp\libc_nano.a(libc_a-gdtoa-gethex.o)
                                                  D:/AppData/arm-gnu-toolchain-13.3.rel1-mingw-w64-i686-arm-none-eabi/bin/../lib/gcc/arm-none-eabi/13.3.1/thumb/v8-m.base/nofp\libc_nano.a(libc_a-dtoa.o)
__i2b                                             D:/AppData/arm-gnu-toolchain-13.3.rel1-mingw-w64-i686-arm-none-eabi/bin/../lib/gcc/arm-none-eabi/13.3.1/thumb/v8-m.base/nofp\libc_nano.a(libc_a-mprec.o)
                                                  D:/AppData/arm-gnu-toolchain-13.3.rel1-mingw-w64-i686-arm-none-eabi/bin/../lib/gcc/arm-none-eabi/13.3.1/thumb/v8-m.base/nofp\libc_nano.a(libc_a-strtod.o)
                                                  D:/AppData/arm-gnu-toolchain-13.3.rel1-mingw-w64-i686-arm-none-eabi/bin/../lib/gcc/arm-none-eabi/13.3.1/thumb/v8-m.base/nofp\libc_nano.a(libc_a-dtoa.o)
__init_array_end                                  D:/AppData/arm-gnu-toolchain-13.3.rel1-mingw-w64-i686-arm-none-eabi/bin/../lib/gcc/arm-none-eabi/13.3.1/thumb/v8-m.base/nofp\libc_nano.a(libc_a-init.o)
__init_array_start                                D:/AppData/arm-gnu-toolchain-13.3.rel1-mingw-w64-i686-arm-none-eabi/bin/../lib/gcc/arm-none-eabi/13.3.1/thumb/v8-m.base/nofp\libc_nano.a(libc_a-init.o)
__io_getchar                                      build/syscalls.o
__io_putchar                                      build/syscalls.o
__ledf2                                           D:/AppData/arm-gnu-toolchain-13.3.rel1-mingw-w64-i686-arm-none-eabi/bin/../lib/gcc/arm-none-eabi/13.3.1/thumb/v8-m.base/nofp\libgcc.a(ledf2.o)
                                                  D:/AppData/arm-gnu-toolchain-13.3.rel1-mingw-w64-i686-arm-none-eabi/bin/../lib/gcc/arm-none-eabi/13.3.1/thumb/v8-m.base/nofp\libgcc.a(_arm_cmpdf2.o)
__lesf2                                           D:/AppData/arm-gnu-toolchain-13.3.rel1-mingw-w64-i686-arm-none-eabi/bin/../lib/gcc/arm-none-eabi/13.3.1/thumb/v8-m.base/nofp\libgcc.a(lesf2.o)
                                                  D:/AppData/arm-gnu-toolchain-13.3.rel1-mingw-w64-i686-arm-none-eabi/bin/../lib/gcc/arm-none-eabi/13.3.1/thumb/v8-m.base/nofp\libgcc.a(_arm_cmpsf2.o)
__libc_fini_array                                 D:/AppData/arm-gnu-toolchain-13.3.rel1-mingw-w64-i686-arm-none-eabi/bin/../lib/gcc/arm-none-eabi/13.3.1/thumb/v8-m.base/nofp/crt0.o
__libc_init_array                                 D:/AppData/arm-gnu-toolchain-13.3.rel1-mingw-w64-i686-arm-none-eabi/bin/../lib/gcc/arm-none-eabi/13.3.1/thumb/v8-m.base/nofp\libc_nano.a(libc_a-init.o)
                                                  build/startup_gd32e23x.o
                                                  D:/AppData/arm-gnu-toolchain-13.3.rel1-mingw-w64-i686-arm-none-eabi/bin/../lib/gcc/arm-none-eabi/13.3.1/thumb/v8-m.base/nofp/crt0.o
__lo0bits                                         D:/AppData/arm-gnu-toolchain-13.3.rel1-mingw-w64-i686-arm-none-eabi/bin/../lib/gcc/arm-none-eabi/13.3.1/thumb/v8-m.base/nofp\libc_nano.a(libc_a-mprec.o)
__locale_mb_cur_max                               D:/AppData/arm-gnu-toolchain-13.3.rel1-mingw-w64-i686-arm-none-eabi/bin/../lib/gcc/arm-none-eabi/13.3.1/thumb/v8-m.base/nofp\libc_nano.a(libc_a-locale.o)
__localeconv_l                                    D:/AppData/arm-gnu-toolchain-13.3.rel1-mingw-w64-i686-arm-none-eabi/bin/../lib/gcc/arm-none-eabi/13.3.1/thumb/v8-m.base/nofp\libc_nano.a(libc_a-localeconv.o)
__lock___arc4random_mutex                         D:/AppData/arm-gnu-toolchain-13.3.rel1-mingw-w64-i686-arm-none-eabi/bin/../lib/gcc/arm-none-eabi/13.3.1/thumb/v8-m.base/nofp\libc_nano.a(libc_a-lock.o)
__lock___at_quick_exit_mutex                      D:/AppData/arm-gnu-toolchain-13.3.rel1-mingw-w64-i686-arm-none-eabi/bin/../lib/gcc/arm-none-eabi/13.3.1/thumb/v8-m.base/nofp\libc_nano.a(libc_a-lock.o)
__lock___atexit_recursive_mutex                   D:/AppData/arm-gnu-toolchain-13.3.rel1-mingw-w64-i686-arm-none-eabi/bin/../lib/gcc/arm-none-eabi/13.3.1/thumb/v8-m.base/nofp\libc_nano.a(libc_a-lock.o)
__lock___dd_hash_mutex                            D:/AppData/arm-gnu-toolchain-13.3.rel1-mingw-w64-i686-arm-none-eabi/bin/../lib/gcc/arm-none-eabi/13.3.1/thumb/v8-m.base/nofp\libc_nano.a(libc_a-lock.o)
__lock___env_recursive_mutex                      D:/AppData/arm-gnu-toolchain-13.3.rel1-mingw-w64-i686-arm-none-eabi/bin/../lib/gcc/arm-none-eabi/13.3.1/thumb/v8-m.base/nofp\libc_nano.a(libc_a-lock.o)
__lock___malloc_recursive_mutex                   D:/AppData/arm-gnu-toolchain-13.3.rel1-mingw-w64-i686-arm-none-eabi/bin/../lib/gcc/arm-none-eabi/13.3.1/thumb/v8-m.base/nofp\libc_nano.a(libc_a-lock.o)
                                                  D:/AppData/arm-gnu-toolchain-13.3.rel1-mingw-w64-i686-arm-none-eabi/bin/../lib/gcc/arm-none-eabi/13.3.1/thumb/v8-m.base/nofp\libc_nano.a(libc_a-mlock.o)
__lock___sfp_recursive_mutex                      D:/AppData/arm-gnu-toolchain-13.3.rel1-mingw-w64-i686-arm-none-eabi/bin/../lib/gcc/arm-none-eabi/13.3.1/thumb/v8-m.base/nofp\libc_nano.a(libc_a-lock.o)
                                                  D:/AppData/arm-gnu-toolchain-13.3.rel1-mingw-w64-i686-arm-none-eabi/bin/../lib/gcc/arm-none-eabi/13.3.1/thumb/v8-m.base/nofp\libc_nano.a(libc_a-findfp.o)
__lock___tz_mutex                                 D:/AppData/arm-gnu-toolchain-13.3.rel1-mingw-w64-i686-arm-none-eabi/bin/../lib/gcc/arm-none-eabi/13.3.1/thumb/v8-m.base/nofp\libc_nano.a(libc_a-lock.o)
__lshift                                          D:/AppData/arm-gnu-toolchain-13.3.rel1-mingw-w64-i686-arm-none-eabi/bin/../lib/gcc/arm-none-eabi/13.3.1/thumb/v8-m.base/nofp\libc_nano.a(libc_a-mprec.o)
                                                  D:/AppData/arm-gnu-toolchain-13.3.rel1-mingw-w64-i686-arm-none-eabi/bin/../lib/gcc/arm-none-eabi/13.3.1/thumb/v8-m.base/nofp\libc_nano.a(libc_a-gdtoa-gethex.o)
                                                  D:/AppData/arm-gnu-toolchain-13.3.rel1-mingw-w64-i686-arm-none-eabi/bin/../lib/gcc/arm-none-eabi/13.3.1/thumb/v8-m.base/nofp\libc_nano.a(libc_a-strtod.o)
                                                  D:/AppData/arm-gnu-toolchain-13.3.rel1-mingw-w64-i686-arm-none-eabi/bin/../lib/gcc/arm-none-eabi/13.3.1/thumb/v8-m.base/nofp\libc_nano.a(libc_a-dtoa.o)
__ltdf2                                           D:/AppData/arm-gnu-toolchain-13.3.rel1-mingw-w64-i686-arm-none-eabi/bin/../lib/gcc/arm-none-eabi/13.3.1/thumb/v8-m.base/nofp\libgcc.a(ledf2.o)
__ltsf2                                           D:/AppData/arm-gnu-toolchain-13.3.rel1-mingw-w64-i686-arm-none-eabi/bin/../lib/gcc/arm-none-eabi/13.3.1/thumb/v8-m.base/nofp\libgcc.a(lesf2.o)
__malloc_free_list                                D:/AppData/arm-gnu-toolchain-13.3.rel1-mingw-w64-i686-arm-none-eabi/bin/../lib/gcc/arm-none-eabi/13.3.1/thumb/v8-m.base/nofp\libc_nano.a(libc_a-mallocr.o)
                                                  D:/AppData/arm-gnu-toolchain-13.3.rel1-mingw-w64-i686-arm-none-eabi/bin/../lib/gcc/arm-none-eabi/13.3.1/thumb/v8-m.base/nofp\libc_nano.a(libc_a-freer.o)
__malloc_lock                                     D:/AppData/arm-gnu-toolchain-13.3.rel1-mingw-w64-i686-arm-none-eabi/bin/../lib/gcc/arm-none-eabi/13.3.1/thumb/v8-m.base/nofp\libc_nano.a(libc_a-mlock.o)
                                                  D:/AppData/arm-gnu-toolchain-13.3.rel1-mingw-w64-i686-arm-none-eabi/bin/../lib/gcc/arm-none-eabi/13.3.1/thumb/v8-m.base/nofp\libc_nano.a(libc_a-mallocr.o)
                                                  D:/AppData/arm-gnu-toolchain-13.3.rel1-mingw-w64-i686-arm-none-eabi/bin/../lib/gcc/arm-none-eabi/13.3.1/thumb/v8-m.base/nofp\libc_nano.a(libc_a-freer.o)
__malloc_sbrk_start                               D:/AppData/arm-gnu-toolchain-13.3.rel1-mingw-w64-i686-arm-none-eabi/bin/../lib/gcc/arm-none-eabi/13.3.1/thumb/v8-m.base/nofp\libc_nano.a(libc_a-mallocr.o)
__malloc_unlock                                   D:/AppData/arm-gnu-toolchain-13.3.rel1-mingw-w64-i686-arm-none-eabi/bin/../lib/gcc/arm-none-eabi/13.3.1/thumb/v8-m.base/nofp\libc_nano.a(libc_a-mlock.o)
                                                  D:/AppData/arm-gnu-toolchain-13.3.rel1-mingw-w64-i686-arm-none-eabi/bin/../lib/gcc/arm-none-eabi/13.3.1/thumb/v8-m.base/nofp\libc_nano.a(libc_a-mallocr.o)
                                                  D:/AppData/arm-gnu-toolchain-13.3.rel1-mingw-w64-i686-arm-none-eabi/bin/../lib/gcc/arm-none-eabi/13.3.1/thumb/v8-m.base/nofp\libc_nano.a(libc_a-freer.o)
__match                                           D:/AppData/arm-gnu-toolchain-13.3.rel1-mingw-w64-i686-arm-none-eabi/bin/../lib/gcc/arm-none-eabi/13.3.1/thumb/v8-m.base/nofp\libc_nano.a(libc_a-gdtoa-hexnan.o)
                                                  D:/AppData/arm-gnu-toolchain-13.3.rel1-mingw-w64-i686-arm-none-eabi/bin/../lib/gcc/arm-none-eabi/13.3.1/thumb/v8-m.base/nofp\libc_nano.a(libc_a-strtod.o)
__mcmp                                            D:/AppData/arm-gnu-toolchain-13.3.rel1-mingw-w64-i686-arm-none-eabi/bin/../lib/gcc/arm-none-eabi/13.3.1/thumb/v8-m.base/nofp\libc_nano.a(libc_a-mprec.o)
                                                  D:/AppData/arm-gnu-toolchain-13.3.rel1-mingw-w64-i686-arm-none-eabi/bin/../lib/gcc/arm-none-eabi/13.3.1/thumb/v8-m.base/nofp\libc_nano.a(libc_a-strtod.o)
                                                  D:/AppData/arm-gnu-toolchain-13.3.rel1-mingw-w64-i686-arm-none-eabi/bin/../lib/gcc/arm-none-eabi/13.3.1/thumb/v8-m.base/nofp\libc_nano.a(libc_a-dtoa.o)
__mdiff                                           D:/AppData/arm-gnu-toolchain-13.3.rel1-mingw-w64-i686-arm-none-eabi/bin/../lib/gcc/arm-none-eabi/13.3.1/thumb/v8-m.base/nofp\libc_nano.a(libc_a-mprec.o)
                                                  D:/AppData/arm-gnu-toolchain-13.3.rel1-mingw-w64-i686-arm-none-eabi/bin/../lib/gcc/arm-none-eabi/13.3.1/thumb/v8-m.base/nofp\libc_nano.a(libc_a-strtod.o)
                                                  D:/AppData/arm-gnu-toolchain-13.3.rel1-mingw-w64-i686-arm-none-eabi/bin/../lib/gcc/arm-none-eabi/13.3.1/thumb/v8-m.base/nofp\libc_nano.a(libc_a-dtoa.o)
__mprec_bigtens                                   D:/AppData/arm-gnu-toolchain-13.3.rel1-mingw-w64-i686-arm-none-eabi/bin/../lib/gcc/arm-none-eabi/13.3.1/thumb/v8-m.base/nofp\libc_nano.a(libc_a-mprec.o)
                                                  D:/AppData/arm-gnu-toolchain-13.3.rel1-mingw-w64-i686-arm-none-eabi/bin/../lib/gcc/arm-none-eabi/13.3.1/thumb/v8-m.base/nofp\libc_nano.a(libc_a-strtod.o)
                                                  D:/AppData/arm-gnu-toolchain-13.3.rel1-mingw-w64-i686-arm-none-eabi/bin/../lib/gcc/arm-none-eabi/13.3.1/thumb/v8-m.base/nofp\libc_nano.a(libc_a-dtoa.o)
__mprec_tens                                      D:/AppData/arm-gnu-toolchain-13.3.rel1-mingw-w64-i686-arm-none-eabi/bin/../lib/gcc/arm-none-eabi/13.3.1/thumb/v8-m.base/nofp\libc_nano.a(libc_a-mprec.o)
                                                  D:/AppData/arm-gnu-toolchain-13.3.rel1-mingw-w64-i686-arm-none-eabi/bin/../lib/gcc/arm-none-eabi/13.3.1/thumb/v8-m.base/nofp\libc_nano.a(libc_a-strtod.o)
                                                  D:/AppData/arm-gnu-toolchain-13.3.rel1-mingw-w64-i686-arm-none-eabi/bin/../lib/gcc/arm-none-eabi/13.3.1/thumb/v8-m.base/nofp\libc_nano.a(libc_a-dtoa.o)
__mprec_tinytens                                  D:/AppData/arm-gnu-toolchain-13.3.rel1-mingw-w64-i686-arm-none-eabi/bin/../lib/gcc/arm-none-eabi/13.3.1/thumb/v8-m.base/nofp\libc_nano.a(libc_a-mprec.o)
__multadd                                         D:/AppData/arm-gnu-toolchain-13.3.rel1-mingw-w64-i686-arm-none-eabi/bin/../lib/gcc/arm-none-eabi/13.3.1/thumb/v8-m.base/nofp\libc_nano.a(libc_a-mprec.o)
                                                  D:/AppData/arm-gnu-toolchain-13.3.rel1-mingw-w64-i686-arm-none-eabi/bin/../lib/gcc/arm-none-eabi/13.3.1/thumb/v8-m.base/nofp\libc_nano.a(libc_a-dtoa.o)
__multiply                                        D:/AppData/arm-gnu-toolchain-13.3.rel1-mingw-w64-i686-arm-none-eabi/bin/../lib/gcc/arm-none-eabi/13.3.1/thumb/v8-m.base/nofp\libc_nano.a(libc_a-mprec.o)
                                                  D:/AppData/arm-gnu-toolchain-13.3.rel1-mingw-w64-i686-arm-none-eabi/bin/../lib/gcc/arm-none-eabi/13.3.1/thumb/v8-m.base/nofp\libc_nano.a(libc_a-strtod.o)
                                                  D:/AppData/arm-gnu-toolchain-13.3.rel1-mingw-w64-i686-arm-none-eabi/bin/../lib/gcc/arm-none-eabi/13.3.1/thumb/v8-m.base/nofp\libc_nano.a(libc_a-dtoa.o)
__nedf2                                           D:/AppData/arm-gnu-toolchain-13.3.rel1-mingw-w64-i686-arm-none-eabi/bin/../lib/gcc/arm-none-eabi/13.3.1/thumb/v8-m.base/nofp\libgcc.a(eqdf2.o)
__nesf2                                           D:/AppData/arm-gnu-toolchain-13.3.rel1-mingw-w64-i686-arm-none-eabi/bin/../lib/gcc/arm-none-eabi/13.3.1/thumb/v8-m.base/nofp\libgcc.a(eqsf2.o)
__pow5mult                                        D:/AppData/arm-gnu-toolchain-13.3.rel1-mingw-w64-i686-arm-none-eabi/bin/../lib/gcc/arm-none-eabi/13.3.1/thumb/v8-m.base/nofp\libc_nano.a(libc_a-mprec.o)
                                                  D:/AppData/arm-gnu-toolchain-13.3.rel1-mingw-w64-i686-arm-none-eabi/bin/../lib/gcc/arm-none-eabi/13.3.1/thumb/v8-m.base/nofp\libc_nano.a(libc_a-strtod.o)
                                                  D:/AppData/arm-gnu-toolchain-13.3.rel1-mingw-w64-i686-arm-none-eabi/bin/../lib/gcc/arm-none-eabi/13.3.1/thumb/v8-m.base/nofp\libc_nano.a(libc_a-dtoa.o)
__preinit_array_end                               D:/AppData/arm-gnu-toolchain-13.3.rel1-mingw-w64-i686-arm-none-eabi/bin/../lib/gcc/arm-none-eabi/13.3.1/thumb/v8-m.base/nofp\libc_nano.a(libc_a-init.o)
__preinit_array_start                             D:/AppData/arm-gnu-toolchain-13.3.rel1-mingw-w64-i686-arm-none-eabi/bin/../lib/gcc/arm-none-eabi/13.3.1/thumb/v8-m.base/nofp\libc_nano.a(libc_a-init.o)
__ratio                                           D:/AppData/arm-gnu-toolchain-13.3.rel1-mingw-w64-i686-arm-none-eabi/bin/../lib/gcc/arm-none-eabi/13.3.1/thumb/v8-m.base/nofp\libc_nano.a(libc_a-mprec.o)
                                                  D:/AppData/arm-gnu-toolchain-13.3.rel1-mingw-w64-i686-arm-none-eabi/bin/../lib/gcc/arm-none-eabi/13.3.1/thumb/v8-m.base/nofp\libc_nano.a(libc_a-strtod.o)
__register_frame_info                             D:/AppData/arm-gnu-toolchain-13.3.rel1-mingw-w64-i686-arm-none-eabi/bin/../lib/gcc/arm-none-eabi/13.3.1/thumb/v8-m.base/nofp/crtbegin.o
__retarget_lock_acquire                           D:/AppData/arm-gnu-toolchain-13.3.rel1-mingw-w64-i686-arm-none-eabi/bin/../lib/gcc/arm-none-eabi/13.3.1/thumb/v8-m.base/nofp\libc_nano.a(libc_a-lock.o)
__retarget_lock_acquire_recursive                 D:/AppData/arm-gnu-toolchain-13.3.rel1-mingw-w64-i686-arm-none-eabi/bin/../lib/gcc/arm-none-eabi/13.3.1/thumb/v8-m.base/nofp\libc_nano.a(libc_a-lock.o)
                                                  D:/AppData/arm-gnu-toolchain-13.3.rel1-mingw-w64-i686-arm-none-eabi/bin/../lib/gcc/arm-none-eabi/13.3.1/thumb/v8-m.base/nofp\libc_nano.a(libc_a-nano-vfprintf.o)
                                                  D:/AppData/arm-gnu-toolchain-13.3.rel1-mingw-w64-i686-arm-none-eabi/bin/../lib/gcc/arm-none-eabi/13.3.1/thumb/v8-m.base/nofp\libc_nano.a(libc_a-fflush.o)
                                                  D:/AppData/arm-gnu-toolchain-13.3.rel1-mingw-w64-i686-arm-none-eabi/bin/../lib/gcc/arm-none-eabi/13.3.1/thumb/v8-m.base/nofp\libc_nano.a(libc_a-mlock.o)
                                                  D:/AppData/arm-gnu-toolchain-13.3.rel1-mingw-w64-i686-arm-none-eabi/bin/../lib/gcc/arm-none-eabi/13.3.1/thumb/v8-m.base/nofp\libc_nano.a(libc_a-findfp.o)
__retarget_lock_close                             D:/AppData/arm-gnu-toolchain-13.3.rel1-mingw-w64-i686-arm-none-eabi/bin/../lib/gcc/arm-none-eabi/13.3.1/thumb/v8-m.base/nofp\libc_nano.a(libc_a-lock.o)
__retarget_lock_close_recursive                   D:/AppData/arm-gnu-toolchain-13.3.rel1-mingw-w64-i686-arm-none-eabi/bin/../lib/gcc/arm-none-eabi/13.3.1/thumb/v8-m.base/nofp\libc_nano.a(libc_a-lock.o)
__retarget_lock_init                              D:/AppData/arm-gnu-toolchain-13.3.rel1-mingw-w64-i686-arm-none-eabi/bin/../lib/gcc/arm-none-eabi/13.3.1/thumb/v8-m.base/nofp\libc_nano.a(libc_a-lock.o)
__retarget_lock_init_recursive                    D:/AppData/arm-gnu-toolchain-13.3.rel1-mingw-w64-i686-arm-none-eabi/bin/../lib/gcc/arm-none-eabi/13.3.1/thumb/v8-m.base/nofp\libc_nano.a(libc_a-lock.o)
                                                  D:/AppData/arm-gnu-toolchain-13.3.rel1-mingw-w64-i686-arm-none-eabi/bin/../lib/gcc/arm-none-eabi/13.3.1/thumb/v8-m.base/nofp\libc_nano.a(libc_a-findfp.o)
__retarget_lock_release                           D:/AppData/arm-gnu-toolchain-13.3.rel1-mingw-w64-i686-arm-none-eabi/bin/../lib/gcc/arm-none-eabi/13.3.1/thumb/v8-m.base/nofp\libc_nano.a(libc_a-lock.o)
__retarget_lock_release_recursive                 D:/AppData/arm-gnu-toolchain-13.3.rel1-mingw-w64-i686-arm-none-eabi/bin/../lib/gcc/arm-none-eabi/13.3.1/thumb/v8-m.base/nofp\libc_nano.a(libc_a-lock.o)
                                                  D:/AppData/arm-gnu-toolchain-13.3.rel1-mingw-w64-i686-arm-none-eabi/bin/../lib/gcc/arm-none-eabi/13.3.1/thumb/v8-m.base/nofp\libc_nano.a(libc_a-nano-vfprintf.o)
                                                  D:/AppData/arm-gnu-toolchain-13.3.rel1-mingw-w64-i686-arm-none-eabi/bin/../lib/gcc/arm-none-eabi/13.3.1/thumb/v8-m.base/nofp\libc_nano.a(libc_a-fflush.o)
                                                  D:/AppData/arm-gnu-toolchain-13.3.rel1-mingw-w64-i686-arm-none-eabi/bin/../lib/gcc/arm-none-eabi/13.3.1/thumb/v8-m.base/nofp\libc_nano.a(libc_a-mlock.o)
                                                  D:/AppData/arm-gnu-toolchain-13.3.rel1-mingw-w64-i686-arm-none-eabi/bin/../lib/gcc/arm-none-eabi/13.3.1/thumb/v8-m.base/nofp\libc_nano.a(libc_a-findfp.o)
__retarget_lock_try_acquire                       D:/AppData/arm-gnu-toolchain-13.3.rel1-mingw-w64-i686-arm-none-eabi/bin/../lib/gcc/arm-none-eabi/13.3.1/thumb/v8-m.base/nofp\libc_nano.a(libc_a-lock.o)
__retarget_lock_try_acquire_recursive             D:/AppData/arm-gnu-toolchain-13.3.rel1-mingw-w64-i686-arm-none-eabi/bin/../lib/gcc/arm-none-eabi/13.3.1/thumb/v8-m.base/nofp\libc_nano.a(libc_a-lock.o)
__s2b                                             D:/AppData/arm-gnu-toolchain-13.3.rel1-mingw-w64-i686-arm-none-eabi/bin/../lib/gcc/arm-none-eabi/13.3.1/thumb/v8-m.base/nofp\libc_nano.a(libc_a-mprec.o)
                                                  D:/AppData/arm-gnu-toolchain-13.3.rel1-mingw-w64-i686-arm-none-eabi/bin/../lib/gcc/arm-none-eabi/13.3.1/thumb/v8-m.base/nofp\libc_nano.a(libc_a-strtod.o)
__sclose                                          D:/AppData/arm-gnu-toolchain-13.3.rel1-mingw-w64-i686-arm-none-eabi/bin/../lib/gcc/arm-none-eabi/13.3.1/thumb/v8-m.base/nofp\libc_nano.a(libc_a-stdio.o)
                                                  D:/AppData/arm-gnu-toolchain-13.3.rel1-mingw-w64-i686-arm-none-eabi/bin/../lib/gcc/arm-none-eabi/13.3.1/thumb/v8-m.base/nofp\libc_nano.a(libc_a-findfp.o)
__seofread                                        D:/AppData/arm-gnu-toolchain-13.3.rel1-mingw-w64-i686-arm-none-eabi/bin/../lib/gcc/arm-none-eabi/13.3.1/thumb/v8-m.base/nofp\libc_nano.a(libc_a-stdio.o)
__sf                                              D:/AppData/arm-gnu-toolchain-13.3.rel1-mingw-w64-i686-arm-none-eabi/bin/../lib/gcc/arm-none-eabi/13.3.1/thumb/v8-m.base/nofp\libc_nano.a(libc_a-findfp.o)
                                                  D:/AppData/arm-gnu-toolchain-13.3.rel1-mingw-w64-i686-arm-none-eabi/bin/../lib/gcc/arm-none-eabi/13.3.1/thumb/v8-m.base/nofp\libc_nano.a(libc_a-impure.o)
__sflush_r                                        D:/AppData/arm-gnu-toolchain-13.3.rel1-mingw-w64-i686-arm-none-eabi/bin/../lib/gcc/arm-none-eabi/13.3.1/thumb/v8-m.base/nofp\libc_nano.a(libc_a-fflush.o)
__sfp                                             D:/AppData/arm-gnu-toolchain-13.3.rel1-mingw-w64-i686-arm-none-eabi/bin/../lib/gcc/arm-none-eabi/13.3.1/thumb/v8-m.base/nofp\libc_nano.a(libc_a-findfp.o)
__sfp_lock_acquire                                D:/AppData/arm-gnu-toolchain-13.3.rel1-mingw-w64-i686-arm-none-eabi/bin/../lib/gcc/arm-none-eabi/13.3.1/thumb/v8-m.base/nofp\libc_nano.a(libc_a-findfp.o)
__sfp_lock_release                                D:/AppData/arm-gnu-toolchain-13.3.rel1-mingw-w64-i686-arm-none-eabi/bin/../lib/gcc/arm-none-eabi/13.3.1/thumb/v8-m.base/nofp\libc_nano.a(libc_a-findfp.o)
__sfputs_r                                        D:/AppData/arm-gnu-toolchain-13.3.rel1-mingw-w64-i686-arm-none-eabi/bin/../lib/gcc/arm-none-eabi/13.3.1/thumb/v8-m.base/nofp\libc_nano.a(libc_a-nano-vfprintf.o)
__sfvwrite_r                                      D:/AppData/arm-gnu-toolchain-13.3.rel1-mingw-w64-i686-arm-none-eabi/bin/../lib/gcc/arm-none-eabi/13.3.1/thumb/v8-m.base/nofp\libc_nano.a(libc_a-fvwrite.o)
                                                  D:/AppData/arm-gnu-toolchain-13.3.rel1-mingw-w64-i686-arm-none-eabi/bin/../lib/gcc/arm-none-eabi/13.3.1/thumb/v8-m.base/nofp\libc_nano.a(libc_a-nano-vfprintf.o)
__sglue                                           D:/AppData/arm-gnu-toolchain-13.3.rel1-mingw-w64-i686-arm-none-eabi/bin/../lib/gcc/arm-none-eabi/13.3.1/thumb/v8-m.base/nofp\libc_nano.a(libc_a-findfp.o)
                                                  D:/AppData/arm-gnu-toolchain-13.3.rel1-mingw-w64-i686-arm-none-eabi/bin/../lib/gcc/arm-none-eabi/13.3.1/thumb/v8-m.base/nofp\libc_nano.a(libc_a-fflush.o)
__sigtramp                                        D:/AppData/arm-gnu-toolchain-13.3.rel1-mingw-w64-i686-arm-none-eabi/bin/../lib/gcc/arm-none-eabi/13.3.1/thumb/v8-m.base/nofp\libc_nano.a(libc_a-signal.o)
__sigtramp_r                                      D:/AppData/arm-gnu-toolchain-13.3.rel1-mingw-w64-i686-arm-none-eabi/bin/../lib/gcc/arm-none-eabi/13.3.1/thumb/v8-m.base/nofp\libc_nano.a(libc_a-signal.o)
__sinit                                           D:/AppData/arm-gnu-toolchain-13.3.rel1-mingw-w64-i686-arm-none-eabi/bin/../lib/gcc/arm-none-eabi/13.3.1/thumb/v8-m.base/nofp\libc_nano.a(libc_a-findfp.o)
                                                  D:/AppData/arm-gnu-toolchain-13.3.rel1-mingw-w64-i686-arm-none-eabi/bin/../lib/gcc/arm-none-eabi/13.3.1/thumb/v8-m.base/nofp\libc_nano.a(libc_a-wsetup.o)
                                                  D:/AppData/arm-gnu-toolchain-13.3.rel1-mingw-w64-i686-arm-none-eabi/bin/../lib/gcc/arm-none-eabi/13.3.1/thumb/v8-m.base/nofp\libc_nano.a(libc_a-wbuf.o)
                                                  D:/AppData/arm-gnu-toolchain-13.3.rel1-mingw-w64-i686-arm-none-eabi/bin/../lib/gcc/arm-none-eabi/13.3.1/thumb/v8-m.base/nofp\libc_nano.a(libc_a-nano-vfprintf.o)
                                                  D:/AppData/arm-gnu-toolchain-13.3.rel1-mingw-w64-i686-arm-none-eabi/bin/../lib/gcc/arm-none-eabi/13.3.1/thumb/v8-m.base/nofp\libc_nano.a(libc_a-fflush.o)
__smakebuf_r                                      D:/AppData/arm-gnu-toolchain-13.3.rel1-mingw-w64-i686-arm-none-eabi/bin/../lib/gcc/arm-none-eabi/13.3.1/thumb/v8-m.base/nofp\libc_nano.a(libc_a-makebuf.o)
                                                  D:/AppData/arm-gnu-toolchain-13.3.rel1-mingw-w64-i686-arm-none-eabi/bin/../lib/gcc/arm-none-eabi/13.3.1/thumb/v8-m.base/nofp\libc_nano.a(libc_a-wsetup.o)
__sprint_r                                        D:/AppData/arm-gnu-toolchain-13.3.rel1-mingw-w64-i686-arm-none-eabi/bin/../lib/gcc/arm-none-eabi/13.3.1/thumb/v8-m.base/nofp\libc_nano.a(libc_a-nano-vfprintf.o)
__sread                                           D:/AppData/arm-gnu-toolchain-13.3.rel1-mingw-w64-i686-arm-none-eabi/bin/../lib/gcc/arm-none-eabi/13.3.1/thumb/v8-m.base/nofp\libc_nano.a(libc_a-stdio.o)
                                                  D:/AppData/arm-gnu-toolchain-13.3.rel1-mingw-w64-i686-arm-none-eabi/bin/../lib/gcc/arm-none-eabi/13.3.1/thumb/v8-m.base/nofp\libc_nano.a(libc_a-findfp.o)
__sseek                                           D:/AppData/arm-gnu-toolchain-13.3.rel1-mingw-w64-i686-arm-none-eabi/bin/../lib/gcc/arm-none-eabi/13.3.1/thumb/v8-m.base/nofp\libc_nano.a(libc_a-stdio.o)
                                                  D:/AppData/arm-gnu-toolchain-13.3.rel1-mingw-w64-i686-arm-none-eabi/bin/../lib/gcc/arm-none-eabi/13.3.1/thumb/v8-m.base/nofp\libc_nano.a(libc_a-findfp.o)
__ssprint_r                                       D:/AppData/arm-gnu-toolchain-13.3.rel1-mingw-w64-i686-arm-none-eabi/bin/../lib/gcc/arm-none-eabi/13.3.1/thumb/v8-m.base/nofp\libc_nano.a(libc_a-nano-svfprintf.o)
__ssputs_r                                        D:/AppData/arm-gnu-toolchain-13.3.rel1-mingw-w64-i686-arm-none-eabi/bin/../lib/gcc/arm-none-eabi/13.3.1/thumb/v8-m.base/nofp\libc_nano.a(libc_a-nano-svfprintf.o)
__stack                                           D:/AppData/arm-gnu-toolchain-13.3.rel1-mingw-w64-i686-arm-none-eabi/bin/../lib/gcc/arm-none-eabi/13.3.1/thumb/v8-m.base/nofp/crt0.o
__stdio_exit_handler                              D:/AppData/arm-gnu-toolchain-13.3.rel1-mingw-w64-i686-arm-none-eabi/bin/../lib/gcc/arm-none-eabi/13.3.1/thumb/v8-m.base/nofp\libc_nano.a(libc_a-findfp.o)
                                                  D:/AppData/arm-gnu-toolchain-13.3.rel1-mingw-w64-i686-arm-none-eabi/bin/../lib/gcc/arm-none-eabi/13.3.1/thumb/v8-m.base/nofp\libc_nano.a(libc_a-exit.o)
__swbuf                                           D:/AppData/arm-gnu-toolchain-13.3.rel1-mingw-w64-i686-arm-none-eabi/bin/../lib/gcc/arm-none-eabi/13.3.1/thumb/v8-m.base/nofp\libc_nano.a(libc_a-wbuf.o)
__swbuf_r                                         D:/AppData/arm-gnu-toolchain-13.3.rel1-mingw-w64-i686-arm-none-eabi/bin/../lib/gcc/arm-none-eabi/13.3.1/thumb/v8-m.base/nofp\libc_nano.a(libc_a-wbuf.o)
                                                  D:/AppData/arm-gnu-toolchain-13.3.rel1-mingw-w64-i686-arm-none-eabi/bin/../lib/gcc/arm-none-eabi/13.3.1/thumb/v8-m.base/nofp\libc_nano.a(libc_a-nano-vfprintf.o)
__swhatbuf_r                                      D:/AppData/arm-gnu-toolchain-13.3.rel1-mingw-w64-i686-arm-none-eabi/bin/../lib/gcc/arm-none-eabi/13.3.1/thumb/v8-m.base/nofp\libc_nano.a(libc_a-makebuf.o)
__swrite                                          D:/AppData/arm-gnu-toolchain-13.3.rel1-mingw-w64-i686-arm-none-eabi/bin/../lib/gcc/arm-none-eabi/13.3.1/thumb/v8-m.base/nofp\libc_nano.a(libc_a-stdio.o)
                                                  D:/AppData/arm-gnu-toolchain-13.3.rel1-mingw-w64-i686-arm-none-eabi/bin/../lib/gcc/arm-none-eabi/13.3.1/thumb/v8-m.base/nofp\libc_nano.a(libc_a-findfp.o)
__swsetup_r                                       D:/AppData/arm-gnu-toolchain-13.3.rel1-mingw-w64-i686-arm-none-eabi/bin/../lib/gcc/arm-none-eabi/13.3.1/thumb/v8-m.base/nofp\libc_nano.a(libc_a-wsetup.o)
                                                  D:/AppData/arm-gnu-toolchain-13.3.rel1-mingw-w64-i686-arm-none-eabi/bin/../lib/gcc/arm-none-eabi/13.3.1/thumb/v8-m.base/nofp\libc_nano.a(libc_a-wbuf.o)
                                                  D:/AppData/arm-gnu-toolchain-13.3.rel1-mingw-w64-i686-arm-none-eabi/bin/../lib/gcc/arm-none-eabi/13.3.1/thumb/v8-m.base/nofp\libc_nano.a(libc_a-fvwrite.o)
                                                  D:/AppData/arm-gnu-toolchain-13.3.rel1-mingw-w64-i686-arm-none-eabi/bin/../lib/gcc/arm-none-eabi/13.3.1/thumb/v8-m.base/nofp\libc_nano.a(libc_a-nano-vfprintf.o)
__ulp                                             D:/AppData/arm-gnu-toolchain-13.3.rel1-mingw-w64-i686-arm-none-eabi/bin/../lib/gcc/arm-none-eabi/13.3.1/thumb/v8-m.base/nofp\libc_nano.a(libc_a-mprec.o)
                                                  D:/AppData/arm-gnu-toolchain-13.3.rel1-mingw-w64-i686-arm-none-eabi/bin/../lib/gcc/arm-none-eabi/13.3.1/thumb/v8-m.base/nofp\libc_nano.a(libc_a-strtod.o)
_calloc_r                                         D:/AppData/arm-gnu-toolchain-13.3.rel1-mingw-w64-i686-arm-none-eabi/bin/../lib/gcc/arm-none-eabi/13.3.1/thumb/v8-m.base/nofp\libc_nano.a(libc_a-callocr.o)
                                                  D:/AppData/arm-gnu-toolchain-13.3.rel1-mingw-w64-i686-arm-none-eabi/bin/../lib/gcc/arm-none-eabi/13.3.1/thumb/v8-m.base/nofp\libc_nano.a(libc_a-mprec.o)
_close                                            build/syscalls.o
                                                  D:/AppData/arm-gnu-toolchain-13.3.rel1-mingw-w64-i686-arm-none-eabi/bin/../lib/gcc/arm-none-eabi/13.3.1/thumb/v8-m.base/nofp\libc_nano.a(libc_a-closer.o)
_close_r                                          D:/AppData/arm-gnu-toolchain-13.3.rel1-mingw-w64-i686-arm-none-eabi/bin/../lib/gcc/arm-none-eabi/13.3.1/thumb/v8-m.base/nofp\libc_nano.a(libc_a-closer.o)
                                                  D:/AppData/arm-gnu-toolchain-13.3.rel1-mingw-w64-i686-arm-none-eabi/bin/../lib/gcc/arm-none-eabi/13.3.1/thumb/v8-m.base/nofp\libc_nano.a(libc_a-stdio.o)
_ctype_                                           D:/AppData/arm-gnu-toolchain-13.3.rel1-mingw-w64-i686-arm-none-eabi/bin/../lib/gcc/arm-none-eabi/13.3.1/thumb/v8-m.base/nofp\libc_nano.a(libc_a-ctype_.o)
                                                  D:/AppData/arm-gnu-toolchain-13.3.rel1-mingw-w64-i686-arm-none-eabi/bin/../lib/gcc/arm-none-eabi/13.3.1/thumb/v8-m.base/nofp\libc_nano.a(libc_a-locale.o)
                                                  D:/AppData/arm-gnu-toolchain-13.3.rel1-mingw-w64-i686-arm-none-eabi/bin/../lib/gcc/arm-none-eabi/13.3.1/thumb/v8-m.base/nofp\libc_nano.a(libc_a-strtol.o)
_dtoa_r                                           D:/AppData/arm-gnu-toolchain-13.3.rel1-mingw-w64-i686-arm-none-eabi/bin/../lib/gcc/arm-none-eabi/13.3.1/thumb/v8-m.base/nofp\libc_nano.a(libc_a-dtoa.o)
                                                  D:/AppData/arm-gnu-toolchain-13.3.rel1-mingw-w64-i686-arm-none-eabi/bin/../lib/gcc/arm-none-eabi/13.3.1/thumb/v8-m.base/nofp\libc_nano.a(libc_a-nano-vfprintf_float.o)
_ebss                                             build/startup_gd32e23x.o
_edata                                            build/startup_gd32e23x.o
_end                                              build/syscalls.o
_execve                                           build/syscalls.o
_exit                                             build/syscalls.o
                                                  D:/AppData/arm-gnu-toolchain-13.3.rel1-mingw-w64-i686-arm-none-eabi/bin/../lib/gcc/arm-none-eabi/13.3.1/thumb/v8-m.base/nofp\libc_nano.a(libc_a-abort.o)
                                                  D:/AppData/arm-gnu-toolchain-13.3.rel1-mingw-w64-i686-arm-none-eabi/bin/../lib/gcc/arm-none-eabi/13.3.1/thumb/v8-m.base/nofp\libc_nano.a(libc_a-exit.o)
_fflush_r                                         D:/AppData/arm-gnu-toolchain-13.3.rel1-mingw-w64-i686-arm-none-eabi/bin/../lib/gcc/arm-none-eabi/13.3.1/thumb/v8-m.base/nofp\libc_nano.a(libc_a-fflush.o)
                                                  D:/AppData/arm-gnu-toolchain-13.3.rel1-mingw-w64-i686-arm-none-eabi/bin/../lib/gcc/arm-none-eabi/13.3.1/thumb/v8-m.base/nofp\libc_nano.a(libc_a-wbuf.o)
                                                  D:/AppData/arm-gnu-toolchain-13.3.rel1-mingw-w64-i686-arm-none-eabi/bin/../lib/gcc/arm-none-eabi/13.3.1/thumb/v8-m.base/nofp\libc_nano.a(libc_a-fvwrite.o)
                                                  D:/AppData/arm-gnu-toolchain-13.3.rel1-mingw-w64-i686-arm-none-eabi/bin/../lib/gcc/arm-none-eabi/13.3.1/thumb/v8-m.base/nofp\libc_nano.a(libc_a-findfp.o)
_fini                                             D:/AppData/arm-gnu-toolchain-13.3.rel1-mingw-w64-i686-arm-none-eabi/bin/../lib/gcc/arm-none-eabi/13.3.1/thumb/v8-m.base/nofp/crti.o
_fiprintf_r                                       D:/AppData/arm-gnu-toolchain-13.3.rel1-mingw-w64-i686-arm-none-eabi/bin/../lib/gcc/arm-none-eabi/13.3.1/thumb/v8-m.base/nofp\libc_nano.a(libc_a-fprintf.o)
_fork                                             build/syscalls.o
_fprintf_r                                        D:/AppData/arm-gnu-toolchain-13.3.rel1-mingw-w64-i686-arm-none-eabi/bin/../lib/gcc/arm-none-eabi/13.3.1/thumb/v8-m.base/nofp\libc_nano.a(libc_a-fprintf.o)
_free_r                                           D:/AppData/arm-gnu-toolchain-13.3.rel1-mingw-w64-i686-arm-none-eabi/bin/../lib/gcc/arm-none-eabi/13.3.1/thumb/v8-m.base/nofp\libc_nano.a(libc_a-freer.o)
                                                  D:/AppData/arm-gnu-toolchain-13.3.rel1-mingw-w64-i686-arm-none-eabi/bin/../lib/gcc/arm-none-eabi/13.3.1/thumb/v8-m.base/nofp\libc_nano.a(libc_a-wsetup.o)
                                                  D:/AppData/arm-gnu-toolchain-13.3.rel1-mingw-w64-i686-arm-none-eabi/bin/../lib/gcc/arm-none-eabi/13.3.1/thumb/v8-m.base/nofp\libc_nano.a(libc_a-fvwrite.o)
                                                  D:/AppData/arm-gnu-toolchain-13.3.rel1-mingw-w64-i686-arm-none-eabi/bin/../lib/gcc/arm-none-eabi/13.3.1/thumb/v8-m.base/nofp\libc_nano.a(libc_a-reallocr.o)
                                                  D:/AppData/arm-gnu-toolchain-13.3.rel1-mingw-w64-i686-arm-none-eabi/bin/../lib/gcc/arm-none-eabi/13.3.1/thumb/v8-m.base/nofp\libc_nano.a(libc_a-fflush.o)
                                                  D:/AppData/arm-gnu-toolchain-13.3.rel1-mingw-w64-i686-arm-none-eabi/bin/../lib/gcc/arm-none-eabi/13.3.1/thumb/v8-m.base/nofp\libc_nano.a(libc_a-nano-svfprintf.o)
                                                  D:/AppData/arm-gnu-toolchain-13.3.rel1-mingw-w64-i686-arm-none-eabi/bin/../lib/gcc/arm-none-eabi/13.3.1/thumb/v8-m.base/nofp\libc_nano.a(libc_a-malloc.o)
                                                  D:/AppData/arm-gnu-toolchain-13.3.rel1-mingw-w64-i686-arm-none-eabi/bin/../lib/gcc/arm-none-eabi/13.3.1/thumb/v8-m.base/nofp\libc_nano.a(libc_a-reent.o)
_fstat                                            build/syscalls.o
                                                  D:/AppData/arm-gnu-toolchain-13.3.rel1-mingw-w64-i686-arm-none-eabi/bin/../lib/gcc/arm-none-eabi/13.3.1/thumb/v8-m.base/nofp\libc_nano.a(libc_a-fstatr.o)
_fstat_r                                          D:/AppData/arm-gnu-toolchain-13.3.rel1-mingw-w64-i686-arm-none-eabi/bin/../lib/gcc/arm-none-eabi/13.3.1/thumb/v8-m.base/nofp\libc_nano.a(libc_a-fstatr.o)
                                                  D:/AppData/arm-gnu-toolchain-13.3.rel1-mingw-w64-i686-arm-none-eabi/bin/../lib/gcc/arm-none-eabi/13.3.1/thumb/v8-m.base/nofp\libc_nano.a(libc_a-makebuf.o)
_fwalk_sglue                                      D:/AppData/arm-gnu-toolchain-13.3.rel1-mingw-w64-i686-arm-none-eabi/bin/../lib/gcc/arm-none-eabi/13.3.1/thumb/v8-m.base/nofp\libc_nano.a(libc_a-fwalk.o)
                                                  D:/AppData/arm-gnu-toolchain-13.3.rel1-mingw-w64-i686-arm-none-eabi/bin/../lib/gcc/arm-none-eabi/13.3.1/thumb/v8-m.base/nofp\libc_nano.a(libc_a-fflush.o)
                                                  D:/AppData/arm-gnu-toolchain-13.3.rel1-mingw-w64-i686-arm-none-eabi/bin/../lib/gcc/arm-none-eabi/13.3.1/thumb/v8-m.base/nofp\libc_nano.a(libc_a-findfp.o)
_getpid                                           build/syscalls.o
                                                  D:/AppData/arm-gnu-toolchain-13.3.rel1-mingw-w64-i686-arm-none-eabi/bin/../lib/gcc/arm-none-eabi/13.3.1/thumb/v8-m.base/nofp\libc_nano.a(libc_a-signalr.o)
_getpid_r                                         D:/AppData/arm-gnu-toolchain-13.3.rel1-mingw-w64-i686-arm-none-eabi/bin/../lib/gcc/arm-none-eabi/13.3.1/thumb/v8-m.base/nofp\libc_nano.a(libc_a-signalr.o)
                                                  D:/AppData/arm-gnu-toolchain-13.3.rel1-mingw-w64-i686-arm-none-eabi/bin/../lib/gcc/arm-none-eabi/13.3.1/thumb/v8-m.base/nofp\libc_nano.a(libc_a-signal.o)
_gettimeofday                                     build/syscalls.o
_heap_end                                         build/syscalls.o
_impure_data                                      D:/AppData/arm-gnu-toolchain-13.3.rel1-mingw-w64-i686-arm-none-eabi/bin/../lib/gcc/arm-none-eabi/13.3.1/thumb/v8-m.base/nofp\libc_nano.a(libc_a-impure.o)
                                                  D:/AppData/arm-gnu-toolchain-13.3.rel1-mingw-w64-i686-arm-none-eabi/bin/../lib/gcc/arm-none-eabi/13.3.1/thumb/v8-m.base/nofp\libc_nano.a(libc_a-fflush.o)
                                                  D:/AppData/arm-gnu-toolchain-13.3.rel1-mingw-w64-i686-arm-none-eabi/bin/../lib/gcc/arm-none-eabi/13.3.1/thumb/v8-m.base/nofp\libc_nano.a(libc_a-findfp.o)
_impure_ptr                                       D:/AppData/arm-gnu-toolchain-13.3.rel1-mingw-w64-i686-arm-none-eabi/bin/../lib/gcc/arm-none-eabi/13.3.1/thumb/v8-m.base/nofp\libc_nano.a(libc_a-impure.o)
                                                  D:/AppData/arm-gnu-toolchain-13.3.rel1-mingw-w64-i686-arm-none-eabi/bin/../lib/gcc/arm-none-eabi/13.3.1/thumb/v8-m.base/nofp\libc_nano.a(libc_a-signal.o)
                                                  D:/AppData/arm-gnu-toolchain-13.3.rel1-mingw-w64-i686-arm-none-eabi/bin/../lib/gcc/arm-none-eabi/13.3.1/thumb/v8-m.base/nofp\libc_nano.a(libc_a-wsetup.o)
                                                  D:/AppData/arm-gnu-toolchain-13.3.rel1-mingw-w64-i686-arm-none-eabi/bin/../lib/gcc/arm-none-eabi/13.3.1/thumb/v8-m.base/nofp\libc_nano.a(libc_a-wbuf.o)
                                                  D:/AppData/arm-gnu-toolchain-13.3.rel1-mingw-w64-i686-arm-none-eabi/bin/../lib/gcc/arm-none-eabi/13.3.1/thumb/v8-m.base/nofp\libc_nano.a(libc_a-nano-vfprintf.o)
                                                  D:/AppData/arm-gnu-toolchain-13.3.rel1-mingw-w64-i686-arm-none-eabi/bin/../lib/gcc/arm-none-eabi/13.3.1/thumb/v8-m.base/nofp\libc_nano.a(libc_a-fprintf.o)
                                                  D:/AppData/arm-gnu-toolchain-13.3.rel1-mingw-w64-i686-arm-none-eabi/bin/../lib/gcc/arm-none-eabi/13.3.1/thumb/v8-m.base/nofp\libc_nano.a(libc_a-assert.o)
                                                  D:/AppData/arm-gnu-toolchain-13.3.rel1-mingw-w64-i686-arm-none-eabi/bin/../lib/gcc/arm-none-eabi/13.3.1/thumb/v8-m.base/nofp\libc_nano.a(libc_a-errno.o)
                                                  D:/AppData/arm-gnu-toolchain-13.3.rel1-mingw-w64-i686-arm-none-eabi/bin/../lib/gcc/arm-none-eabi/13.3.1/thumb/v8-m.base/nofp\libc_nano.a(libc_a-locale.o)
                                                  D:/AppData/arm-gnu-toolchain-13.3.rel1-mingw-w64-i686-arm-none-eabi/bin/../lib/gcc/arm-none-eabi/13.3.1/thumb/v8-m.base/nofp\libc_nano.a(libc_a-fflush.o)
                                                  D:/AppData/arm-gnu-toolchain-13.3.rel1-mingw-w64-i686-arm-none-eabi/bin/../lib/gcc/arm-none-eabi/13.3.1/thumb/v8-m.base/nofp\libc_nano.a(libc_a-strtol.o)
                                                  D:/AppData/arm-gnu-toolchain-13.3.rel1-mingw-w64-i686-arm-none-eabi/bin/../lib/gcc/arm-none-eabi/13.3.1/thumb/v8-m.base/nofp\libc_nano.a(libc_a-strtod.o)
                                                  D:/AppData/arm-gnu-toolchain-13.3.rel1-mingw-w64-i686-arm-none-eabi/bin/../lib/gcc/arm-none-eabi/13.3.1/thumb/v8-m.base/nofp\libc_nano.a(libc_a-malloc.o)
                                                  D:/AppData/arm-gnu-toolchain-13.3.rel1-mingw-w64-i686-arm-none-eabi/bin/../lib/gcc/arm-none-eabi/13.3.1/thumb/v8-m.base/nofp\libc_nano.a(libc_a-reent.o)
                                                  D:/AppData/arm-gnu-toolchain-13.3.rel1-mingw-w64-i686-arm-none-eabi/bin/../lib/gcc/arm-none-eabi/13.3.1/thumb/v8-m.base/nofp\libc_nano.a(libc_a-sprintf.o)
_init                                             D:/AppData/arm-gnu-toolchain-13.3.rel1-mingw-w64-i686-arm-none-eabi/bin/../lib/gcc/arm-none-eabi/13.3.1/thumb/v8-m.base/nofp/crti.o
                                                  D:/AppData/arm-gnu-toolchain-13.3.rel1-mingw-w64-i686-arm-none-eabi/bin/../lib/gcc/arm-none-eabi/13.3.1/thumb/v8-m.base/nofp\libc_nano.a(libc_a-init.o)
_init_signal                                      D:/AppData/arm-gnu-toolchain-13.3.rel1-mingw-w64-i686-arm-none-eabi/bin/../lib/gcc/arm-none-eabi/13.3.1/thumb/v8-m.base/nofp\libc_nano.a(libc_a-signal.o)
_init_signal_r                                    D:/AppData/arm-gnu-toolchain-13.3.rel1-mingw-w64-i686-arm-none-eabi/bin/../lib/gcc/arm-none-eabi/13.3.1/thumb/v8-m.base/nofp\libc_nano.a(libc_a-signal.o)
_isatty                                           build/syscalls.o
                                                  D:/AppData/arm-gnu-toolchain-13.3.rel1-mingw-w64-i686-arm-none-eabi/bin/../lib/gcc/arm-none-eabi/13.3.1/thumb/v8-m.base/nofp\libc_nano.a(libc_a-isattyr.o)
_isatty_r                                         D:/AppData/arm-gnu-toolchain-13.3.rel1-mingw-w64-i686-arm-none-eabi/bin/../lib/gcc/arm-none-eabi/13.3.1/thumb/v8-m.base/nofp\libc_nano.a(libc_a-isattyr.o)
                                                  D:/AppData/arm-gnu-toolchain-13.3.rel1-mingw-w64-i686-arm-none-eabi/bin/../lib/gcc/arm-none-eabi/13.3.1/thumb/v8-m.base/nofp\libc_nano.a(libc_a-makebuf.o)
_kill                                             build/syscalls.o
                                                  D:/AppData/arm-gnu-toolchain-13.3.rel1-mingw-w64-i686-arm-none-eabi/bin/../lib/gcc/arm-none-eabi/13.3.1/thumb/v8-m.base/nofp\libc_nano.a(libc_a-signalr.o)
_kill_r                                           D:/AppData/arm-gnu-toolchain-13.3.rel1-mingw-w64-i686-arm-none-eabi/bin/../lib/gcc/arm-none-eabi/13.3.1/thumb/v8-m.base/nofp\libc_nano.a(libc_a-signalr.o)
                                                  D:/AppData/arm-gnu-toolchain-13.3.rel1-mingw-w64-i686-arm-none-eabi/bin/../lib/gcc/arm-none-eabi/13.3.1/thumb/v8-m.base/nofp\libc_nano.a(libc_a-signal.o)
_link                                             build/syscalls.o
_localeconv_r                                     D:/AppData/arm-gnu-toolchain-13.3.rel1-mingw-w64-i686-arm-none-eabi/bin/../lib/gcc/arm-none-eabi/13.3.1/thumb/v8-m.base/nofp\libc_nano.a(libc_a-localeconv.o)
                                                  D:/AppData/arm-gnu-toolchain-13.3.rel1-mingw-w64-i686-arm-none-eabi/bin/../lib/gcc/arm-none-eabi/13.3.1/thumb/v8-m.base/nofp\libc_nano.a(libc_a-nano-vfprintf_float.o)
_lseek                                            build/syscalls.o
                                                  D:/AppData/arm-gnu-toolchain-13.3.rel1-mingw-w64-i686-arm-none-eabi/bin/../lib/gcc/arm-none-eabi/13.3.1/thumb/v8-m.base/nofp\libc_nano.a(libc_a-lseekr.o)
_lseek_r                                          D:/AppData/arm-gnu-toolchain-13.3.rel1-mingw-w64-i686-arm-none-eabi/bin/../lib/gcc/arm-none-eabi/13.3.1/thumb/v8-m.base/nofp\libc_nano.a(libc_a-lseekr.o)
                                                  D:/AppData/arm-gnu-toolchain-13.3.rel1-mingw-w64-i686-arm-none-eabi/bin/../lib/gcc/arm-none-eabi/13.3.1/thumb/v8-m.base/nofp\libc_nano.a(libc_a-stdio.o)
_mainCRTStartup                                   D:/AppData/arm-gnu-toolchain-13.3.rel1-mingw-w64-i686-arm-none-eabi/bin/../lib/gcc/arm-none-eabi/13.3.1/thumb/v8-m.base/nofp/crt0.o
_malloc_r                                         D:/AppData/arm-gnu-toolchain-13.3.rel1-mingw-w64-i686-arm-none-eabi/bin/../lib/gcc/arm-none-eabi/13.3.1/thumb/v8-m.base/nofp\libc_nano.a(libc_a-mallocr.o)
                                                  D:/AppData/arm-gnu-toolchain-13.3.rel1-mingw-w64-i686-arm-none-eabi/bin/../lib/gcc/arm-none-eabi/13.3.1/thumb/v8-m.base/nofp\libc_nano.a(libc_a-makebuf.o)
                                                  D:/AppData/arm-gnu-toolchain-13.3.rel1-mingw-w64-i686-arm-none-eabi/bin/../lib/gcc/arm-none-eabi/13.3.1/thumb/v8-m.base/nofp\libc_nano.a(libc_a-signal.o)
                                                  D:/AppData/arm-gnu-toolchain-13.3.rel1-mingw-w64-i686-arm-none-eabi/bin/../lib/gcc/arm-none-eabi/13.3.1/thumb/v8-m.base/nofp\libc_nano.a(libc_a-fvwrite.o)
                                                  D:/AppData/arm-gnu-toolchain-13.3.rel1-mingw-w64-i686-arm-none-eabi/bin/../lib/gcc/arm-none-eabi/13.3.1/thumb/v8-m.base/nofp\libc_nano.a(libc_a-reallocr.o)
                                                  D:/AppData/arm-gnu-toolchain-13.3.rel1-mingw-w64-i686-arm-none-eabi/bin/../lib/gcc/arm-none-eabi/13.3.1/thumb/v8-m.base/nofp\libc_nano.a(libc_a-callocr.o)
                                                  D:/AppData/arm-gnu-toolchain-13.3.rel1-mingw-w64-i686-arm-none-eabi/bin/../lib/gcc/arm-none-eabi/13.3.1/thumb/v8-m.base/nofp\libc_nano.a(libc_a-nano-svfprintf.o)
                                                  D:/AppData/arm-gnu-toolchain-13.3.rel1-mingw-w64-i686-arm-none-eabi/bin/../lib/gcc/arm-none-eabi/13.3.1/thumb/v8-m.base/nofp\libc_nano.a(libc_a-malloc.o)
                                                  D:/AppData/arm-gnu-toolchain-13.3.rel1-mingw-w64-i686-arm-none-eabi/bin/../lib/gcc/arm-none-eabi/13.3.1/thumb/v8-m.base/nofp\libc_nano.a(libc_a-findfp.o)
_malloc_usable_size_r                             D:/AppData/arm-gnu-toolchain-13.3.rel1-mingw-w64-i686-arm-none-eabi/bin/../lib/gcc/arm-none-eabi/13.3.1/thumb/v8-m.base/nofp\libc_nano.a(libc_a-msizer.o)
                                                  D:/AppData/arm-gnu-toolchain-13.3.rel1-mingw-w64-i686-arm-none-eabi/bin/../lib/gcc/arm-none-eabi/13.3.1/thumb/v8-m.base/nofp\libc_nano.a(libc_a-reallocr.o)
_mbtowc_r                                         D:/AppData/arm-gnu-toolchain-13.3.rel1-mingw-w64-i686-arm-none-eabi/bin/../lib/gcc/arm-none-eabi/13.3.1/thumb/v8-m.base/nofp\libc_nano.a(libc_a-mbtowc_r.o)
_mprec_log10                                      D:/AppData/arm-gnu-toolchain-13.3.rel1-mingw-w64-i686-arm-none-eabi/bin/../lib/gcc/arm-none-eabi/13.3.1/thumb/v8-m.base/nofp\libc_nano.a(libc_a-mprec.o)
_open                                             build/syscalls.o
_printf_common                                    D:/AppData/arm-gnu-toolchain-13.3.rel1-mingw-w64-i686-arm-none-eabi/bin/../lib/gcc/arm-none-eabi/13.3.1/thumb/v8-m.base/nofp\libc_nano.a(libc_a-nano-vfprintf_i.o)
                                                  D:/AppData/arm-gnu-toolchain-13.3.rel1-mingw-w64-i686-arm-none-eabi/bin/../lib/gcc/arm-none-eabi/13.3.1/thumb/v8-m.base/nofp\libc_nano.a(libc_a-nano-vfprintf_float.o)
_printf_float                                     D:/AppData/arm-gnu-toolchain-13.3.rel1-mingw-w64-i686-arm-none-eabi/bin/../lib/gcc/arm-none-eabi/13.3.1/thumb/v8-m.base/nofp\libc_nano.a(libc_a-nano-vfprintf_float.o)
                                                  D:/AppData/arm-gnu-toolchain-13.3.rel1-mingw-w64-i686-arm-none-eabi/bin/../lib/gcc/arm-none-eabi/13.3.1/thumb/v8-m.base/nofp\libc_nano.a(libc_a-nano-vfprintf.o)
                                                  D:/AppData/arm-gnu-toolchain-13.3.rel1-mingw-w64-i686-arm-none-eabi/bin/../lib/gcc/arm-none-eabi/13.3.1/thumb/v8-m.base/nofp\libc_nano.a(libc_a-nano-svfprintf.o)
_printf_i                                         D:/AppData/arm-gnu-toolchain-13.3.rel1-mingw-w64-i686-arm-none-eabi/bin/../lib/gcc/arm-none-eabi/13.3.1/thumb/v8-m.base/nofp\libc_nano.a(libc_a-nano-vfprintf_i.o)
                                                  D:/AppData/arm-gnu-toolchain-13.3.rel1-mingw-w64-i686-arm-none-eabi/bin/../lib/gcc/arm-none-eabi/13.3.1/thumb/v8-m.base/nofp\libc_nano.a(libc_a-nano-vfprintf.o)
                                                  D:/AppData/arm-gnu-toolchain-13.3.rel1-mingw-w64-i686-arm-none-eabi/bin/../lib/gcc/arm-none-eabi/13.3.1/thumb/v8-m.base/nofp\libc_nano.a(libc_a-nano-svfprintf.o)
_raise_r                                          D:/AppData/arm-gnu-toolchain-13.3.rel1-mingw-w64-i686-arm-none-eabi/bin/../lib/gcc/arm-none-eabi/13.3.1/thumb/v8-m.base/nofp\libc_nano.a(libc_a-signal.o)
_read                                             build/syscalls.o
                                                  D:/AppData/arm-gnu-toolchain-13.3.rel1-mingw-w64-i686-arm-none-eabi/bin/../lib/gcc/arm-none-eabi/13.3.1/thumb/v8-m.base/nofp\libc_nano.a(libc_a-readr.o)
_read_r                                           D:/AppData/arm-gnu-toolchain-13.3.rel1-mingw-w64-i686-arm-none-eabi/bin/../lib/gcc/arm-none-eabi/13.3.1/thumb/v8-m.base/nofp\libc_nano.a(libc_a-readr.o)
                                                  D:/AppData/arm-gnu-toolchain-13.3.rel1-mingw-w64-i686-arm-none-eabi/bin/../lib/gcc/arm-none-eabi/13.3.1/thumb/v8-m.base/nofp\libc_nano.a(libc_a-stdio.o)
_realloc_r                                        D:/AppData/arm-gnu-toolchain-13.3.rel1-mingw-w64-i686-arm-none-eabi/bin/../lib/gcc/arm-none-eabi/13.3.1/thumb/v8-m.base/nofp\libc_nano.a(libc_a-reallocr.o)
                                                  D:/AppData/arm-gnu-toolchain-13.3.rel1-mingw-w64-i686-arm-none-eabi/bin/../lib/gcc/arm-none-eabi/13.3.1/thumb/v8-m.base/nofp\libc_nano.a(libc_a-fvwrite.o)
                                                  D:/AppData/arm-gnu-toolchain-13.3.rel1-mingw-w64-i686-arm-none-eabi/bin/../lib/gcc/arm-none-eabi/13.3.1/thumb/v8-m.base/nofp\libc_nano.a(libc_a-nano-svfprintf.o)
_reclaim_reent                                    D:/AppData/arm-gnu-toolchain-13.3.rel1-mingw-w64-i686-arm-none-eabi/bin/../lib/gcc/arm-none-eabi/13.3.1/thumb/v8-m.base/nofp\libc_nano.a(libc_a-reent.o)
_sbrk                                             build/syscalls.o
                                                  D:/AppData/arm-gnu-toolchain-13.3.rel1-mingw-w64-i686-arm-none-eabi/bin/../lib/gcc/arm-none-eabi/13.3.1/thumb/v8-m.base/nofp\libc_nano.a(libc_a-sbrkr.o)
_sbrk_r                                           D:/AppData/arm-gnu-toolchain-13.3.rel1-mingw-w64-i686-arm-none-eabi/bin/../lib/gcc/arm-none-eabi/13.3.1/thumb/v8-m.base/nofp\libc_nano.a(libc_a-sbrkr.o)
                                                  D:/AppData/arm-gnu-toolchain-13.3.rel1-mingw-w64-i686-arm-none-eabi/bin/../lib/gcc/arm-none-eabi/13.3.1/thumb/v8-m.base/nofp\libc_nano.a(libc_a-mallocr.o)
_sbss                                             build/startup_gd32e23x.o
_scanf_float                                      D:/AppData/arm-gnu-toolchain-13.3.rel1-mingw-w64-i686-arm-none-eabi/bin/../lib/gcc/arm-none-eabi/13.3.1/thumb/v8-m.base/nofp\libc_nano.a(libc_a-nano-vfscanf_float.o)
_sdata                                            build/startup_gd32e23x.o
_setlocale_r                                      D:/AppData/arm-gnu-toolchain-13.3.rel1-mingw-w64-i686-arm-none-eabi/bin/../lib/gcc/arm-none-eabi/13.3.1/thumb/v8-m.base/nofp\libc_nano.a(libc_a-locale.o)
_sidata                                           build/startup_gd32e23x.o
_signal_r                                         D:/AppData/arm-gnu-toolchain-13.3.rel1-mingw-w64-i686-arm-none-eabi/bin/../lib/gcc/arm-none-eabi/13.3.1/thumb/v8-m.base/nofp\libc_nano.a(libc_a-signal.o)
_siprintf_r                                       D:/AppData/arm-gnu-toolchain-13.3.rel1-mingw-w64-i686-arm-none-eabi/bin/../lib/gcc/arm-none-eabi/13.3.1/thumb/v8-m.base/nofp\libc_nano.a(libc_a-sprintf.o)
_sp                                               build/startup_gd32e23x.o
_sprintf_r                                        D:/AppData/arm-gnu-toolchain-13.3.rel1-mingw-w64-i686-arm-none-eabi/bin/../lib/gcc/arm-none-eabi/13.3.1/thumb/v8-m.base/nofp\libc_nano.a(libc_a-sprintf.o)
_stack_init                                       D:/AppData/arm-gnu-toolchain-13.3.rel1-mingw-w64-i686-arm-none-eabi/bin/../lib/gcc/arm-none-eabi/13.3.1/thumb/v8-m.base/nofp/crt0.o
_start                                            D:/AppData/arm-gnu-toolchain-13.3.rel1-mingw-w64-i686-arm-none-eabi/bin/../lib/gcc/arm-none-eabi/13.3.1/thumb/v8-m.base/nofp/crt0.o
_stat                                             build/syscalls.o
_strtod_l                                         D:/AppData/arm-gnu-toolchain-13.3.rel1-mingw-w64-i686-arm-none-eabi/bin/../lib/gcc/arm-none-eabi/13.3.1/thumb/v8-m.base/nofp\libc_nano.a(libc_a-strtod.o)
_strtod_r                                         D:/AppData/arm-gnu-toolchain-13.3.rel1-mingw-w64-i686-arm-none-eabi/bin/../lib/gcc/arm-none-eabi/13.3.1/thumb/v8-m.base/nofp\libc_nano.a(libc_a-strtod.o)
                                                  D:/AppData/arm-gnu-toolchain-13.3.rel1-mingw-w64-i686-arm-none-eabi/bin/../lib/gcc/arm-none-eabi/13.3.1/thumb/v8-m.base/nofp\libc_nano.a(libc_a-nano-vfscanf_float.o)
_strtol_r                                         D:/AppData/arm-gnu-toolchain-13.3.rel1-mingw-w64-i686-arm-none-eabi/bin/../lib/gcc/arm-none-eabi/13.3.1/thumb/v8-m.base/nofp\libc_nano.a(libc_a-strtol.o)
                                                  D:/AppData/arm-gnu-toolchain-13.3.rel1-mingw-w64-i686-arm-none-eabi/bin/../lib/gcc/arm-none-eabi/13.3.1/thumb/v8-m.base/nofp\libc_nano.a(libc_a-nano-vfscanf_float.o)
_svfiprintf_r                                     D:/AppData/arm-gnu-toolchain-13.3.rel1-mingw-w64-i686-arm-none-eabi/bin/../lib/gcc/arm-none-eabi/13.3.1/thumb/v8-m.base/nofp\libc_nano.a(libc_a-nano-svfprintf.o)
_svfprintf_r                                      D:/AppData/arm-gnu-toolchain-13.3.rel1-mingw-w64-i686-arm-none-eabi/bin/../lib/gcc/arm-none-eabi/13.3.1/thumb/v8-m.base/nofp\libc_nano.a(libc_a-nano-svfprintf.o)
                                                  D:/AppData/arm-gnu-toolchain-13.3.rel1-mingw-w64-i686-arm-none-eabi/bin/../lib/gcc/arm-none-eabi/13.3.1/thumb/v8-m.base/nofp\libc_nano.a(libc_a-sprintf.o)
_times                                            build/syscalls.o
_unlink                                           build/syscalls.o
_vfiprintf_r                                      D:/AppData/arm-gnu-toolchain-13.3.rel1-mingw-w64-i686-arm-none-eabi/bin/../lib/gcc/arm-none-eabi/13.3.1/thumb/v8-m.base/nofp\libc_nano.a(libc_a-nano-vfprintf.o)
_vfprintf_r                                       D:/AppData/arm-gnu-toolchain-13.3.rel1-mingw-w64-i686-arm-none-eabi/bin/../lib/gcc/arm-none-eabi/13.3.1/thumb/v8-m.base/nofp\libc_nano.a(libc_a-nano-vfprintf.o)
                                                  D:/AppData/arm-gnu-toolchain-13.3.rel1-mingw-w64-i686-arm-none-eabi/bin/../lib/gcc/arm-none-eabi/13.3.1/thumb/v8-m.base/nofp\libc_nano.a(libc_a-fprintf.o)
_wait                                             build/syscalls.o
_wctomb_r                                         D:/AppData/arm-gnu-toolchain-13.3.rel1-mingw-w64-i686-arm-none-eabi/bin/../lib/gcc/arm-none-eabi/13.3.1/thumb/v8-m.base/nofp\libc_nano.a(libc_a-wctomb_r.o)
_write                                            build/syscalls.o
                                                  D:/AppData/arm-gnu-toolchain-13.3.rel1-mingw-w64-i686-arm-none-eabi/bin/../lib/gcc/arm-none-eabi/13.3.1/thumb/v8-m.base/nofp\libc_nano.a(libc_a-writer.o)
_write_r                                          D:/AppData/arm-gnu-toolchain-13.3.rel1-mingw-w64-i686-arm-none-eabi/bin/../lib/gcc/arm-none-eabi/13.3.1/thumb/v8-m.base/nofp\libc_nano.a(libc_a-writer.o)
                                                  D:/AppData/arm-gnu-toolchain-13.3.rel1-mingw-w64-i686-arm-none-eabi/bin/../lib/gcc/arm-none-eabi/13.3.1/thumb/v8-m.base/nofp\libc_nano.a(libc_a-stdio.o)
abort                                             D:/AppData/arm-gnu-toolchain-13.3.rel1-mingw-w64-i686-arm-none-eabi/bin/../lib/gcc/arm-none-eabi/13.3.1/thumb/v8-m.base/nofp\libc_nano.a(libc_a-abort.o)
                                                  D:/AppData/arm-gnu-toolchain-13.3.rel1-mingw-w64-i686-arm-none-eabi/bin/../lib/gcc/arm-none-eabi/13.3.1/thumb/v8-m.base/nofp\libc_nano.a(libc_a-assert.o)
adc_calibration_enable                            build/gd32e23x_adc.o
                                                  build/peripheral.o
adc_channel_length_config                         build/gd32e23x_adc.o
                                                  build/peripheral.o
adc_data_alignment_config                         build/gd32e23x_adc.o
                                                  build/peripheral.o
adc_deinit                                        build/gd32e23x_adc.o
adc_disable                                       build/gd32e23x_adc.o
adc_discontinuous_mode_config                     build/gd32e23x_adc.o
adc_dma_mode_disable                              build/gd32e23x_adc.o
adc_dma_mode_enable                               build/gd32e23x_adc.o
                                                  build/peripheral.o
adc_enable                                        build/gd32e23x_adc.o
                                                  build/peripheral.o
adc_external_trigger_config                       build/gd32e23x_adc.o
                                                  build/peripheral.o
adc_external_trigger_source_config                build/gd32e23x_adc.o
                                                  build/peripheral.o
adc_flag_clear                                    build/gd32e23x_adc.o
adc_flag_get                                      build/gd32e23x_adc.o
adc_inserted_channel_config                       build/gd32e23x_adc.o
adc_inserted_channel_offset_config                build/gd32e23x_adc.o
adc_inserted_data_read                            build/gd32e23x_adc.o
adc_interrupt_disable                             build/gd32e23x_adc.o
adc_interrupt_enable                              build/gd32e23x_adc.o
adc_interrupt_flag_clear                          build/gd32e23x_adc.o
adc_interrupt_flag_get                            build/gd32e23x_adc.o
adc_oversample_mode_config                        build/gd32e23x_adc.o
adc_oversample_mode_disable                       build/gd32e23x_adc.o
adc_oversample_mode_enable                        build/gd32e23x_adc.o
adc_regular_channel_config                        build/gd32e23x_adc.o
                                                  build/peripheral.o
                                                  build/app.o
adc_regular_data_read                             build/gd32e23x_adc.o
adc_resolution_config                             build/gd32e23x_adc.o
adc_software_trigger_enable                       build/gd32e23x_adc.o
                                                  build/peripheral.o
adc_special_function_config                       build/gd32e23x_adc.o
                                                  build/peripheral.o
adc_tempsensor_vrefint_disable                    build/gd32e23x_adc.o
adc_tempsensor_vrefint_enable                     build/gd32e23x_adc.o
adc_watchdog_disable                              build/gd32e23x_adc.o
adc_watchdog_group_channel_enable                 build/gd32e23x_adc.o
adc_watchdog_single_channel_enable                build/gd32e23x_adc.o
adc_watchdog_threshold_config                     build/gd32e23x_adc.o
app_data                                          build/app.o
                                                  build/peripheral.o
                                                  build/gd32e23x_it.o
app_state                                         build/app.o
                                                  build/gd32e23x_it.o
ascii_1206                                        build/lcd.o
ascii_1608                                        build/lcd.o
ascii_2412                                        build/lcd.o
ascii_3216                                        build/lcd.o
atexit                                            D:/AppData/arm-gnu-toolchain-13.3.rel1-mingw-w64-i686-arm-none-eabi/bin/../lib/gcc/arm-none-eabi/13.3.1/thumb/v8-m.base/nofp/crt0.o
cmp_deinit                                        build/gd32e23x_cmp.o
cmp_disable                                       build/gd32e23x_cmp.o
cmp_enable                                        build/gd32e23x_cmp.o
cmp_lock_enable                                   build/gd32e23x_cmp.o
cmp_mode_init                                     build/gd32e23x_cmp.o
cmp_output_init                                   build/gd32e23x_cmp.o
cmp_output_level_get                              build/gd32e23x_cmp.o
cmp_switch_disable                                build/gd32e23x_cmp.o
cmp_switch_enable                                 build/gd32e23x_cmp.o
crc_block_data_calculate                          build/gd32e23x_crc.o
crc_data_register_read                            build/gd32e23x_crc.o
crc_data_register_reset                           build/gd32e23x_crc.o
crc_deinit                                        build/gd32e23x_crc.o
crc_free_data_register_read                       build/gd32e23x_crc.o
crc_free_data_register_write                      build/gd32e23x_crc.o
crc_init_data_register_write                      build/gd32e23x_crc.o
crc_input_data_reverse_config                     build/gd32e23x_crc.o
crc_polynomial_set                                build/gd32e23x_crc.o
crc_polynomial_size_set                           build/gd32e23x_crc.o
crc_reverse_output_data_disable                   build/gd32e23x_crc.o
crc_reverse_output_data_enable                    build/gd32e23x_crc.o
crc_single_data_calculate                         build/gd32e23x_crc.o
dbg_deinit                                        build/gd32e23x_dbg.o
dbg_id_get                                        build/gd32e23x_dbg.o
dbg_low_power_disable                             build/gd32e23x_dbg.o
dbg_low_power_enable                              build/gd32e23x_dbg.o
dbg_periph_disable                                build/gd32e23x_dbg.o
dbg_periph_enable                                 build/gd32e23x_dbg.o
delay_1ms                                         build/systick.o
                                                  build/lcd.o
                                                  build/peripheral.o
                                                  build/app.o
delay_decrement                                   build/systick.o
                                                  build/gd32e23x_it.o
dma_channel_disable                               build/gd32e23x_dma.o
                                                  build/gd32e23x_it.o
dma_channel_enable                                build/gd32e23x_dma.o
                                                  build/peripheral.o
                                                  build/app.o
dma_circulation_disable                           build/gd32e23x_dma.o
dma_circulation_enable                            build/gd32e23x_dma.o
                                                  build/peripheral.o
dma_deinit                                        build/gd32e23x_dma.o
                                                  build/peripheral.o
dma_flag_clear                                    build/gd32e23x_dma.o
dma_flag_get                                      build/gd32e23x_dma.o
dma_init                                          build/gd32e23x_dma.o
                                                  build/peripheral.o
dma_interrupt_disable                             build/gd32e23x_dma.o
dma_interrupt_enable                              build/gd32e23x_dma.o
                                                  build/peripheral.o
dma_interrupt_flag_clear                          build/gd32e23x_dma.o
                                                  build/gd32e23x_it.o
dma_interrupt_flag_get                            build/gd32e23x_dma.o
                                                  build/gd32e23x_it.o
dma_memory_address_config                         build/gd32e23x_dma.o
dma_memory_increase_disable                       build/gd32e23x_dma.o
dma_memory_increase_enable                        build/gd32e23x_dma.o
dma_memory_to_memory_disable                      build/gd32e23x_dma.o
dma_memory_to_memory_enable                       build/gd32e23x_dma.o
dma_memory_width_config                           build/gd32e23x_dma.o
dma_periph_address_config                         build/gd32e23x_dma.o
dma_periph_increase_disable                       build/gd32e23x_dma.o
dma_periph_increase_enable                        build/gd32e23x_dma.o
dma_periph_width_config                           build/gd32e23x_dma.o
dma_priority_config                               build/gd32e23x_dma.o
dma_struct_para_init                              build/gd32e23x_dma.o
                                                  build/peripheral.o
dma_transfer_direction_config                     build/gd32e23x_dma.o
dma_transfer_number_config                        build/gd32e23x_dma.o
                                                  build/app.o
dma_transfer_number_get                           build/gd32e23x_dma.o
errno                                             D:/AppData/arm-gnu-toolchain-13.3.rel1-mingw-w64-i686-arm-none-eabi/bin/../lib/gcc/arm-none-eabi/13.3.1/thumb/v8-m.base/nofp\libc_nano.a(libc_a-reent.o)
                                                  D:/AppData/arm-gnu-toolchain-13.3.rel1-mingw-w64-i686-arm-none-eabi/bin/../lib/gcc/arm-none-eabi/13.3.1/thumb/v8-m.base/nofp\libc_nano.a(libc_a-isattyr.o)
                                                  D:/AppData/arm-gnu-toolchain-13.3.rel1-mingw-w64-i686-arm-none-eabi/bin/../lib/gcc/arm-none-eabi/13.3.1/thumb/v8-m.base/nofp\libc_nano.a(libc_a-fstatr.o)
                                                  D:/AppData/arm-gnu-toolchain-13.3.rel1-mingw-w64-i686-arm-none-eabi/bin/../lib/gcc/arm-none-eabi/13.3.1/thumb/v8-m.base/nofp\libc_nano.a(libc_a-signalr.o)
                                                  D:/AppData/arm-gnu-toolchain-13.3.rel1-mingw-w64-i686-arm-none-eabi/bin/../lib/gcc/arm-none-eabi/13.3.1/thumb/v8-m.base/nofp\libc_nano.a(libc_a-sbrkr.o)
                                                  D:/AppData/arm-gnu-toolchain-13.3.rel1-mingw-w64-i686-arm-none-eabi/bin/../lib/gcc/arm-none-eabi/13.3.1/thumb/v8-m.base/nofp\libc_nano.a(libc_a-writer.o)
                                                  D:/AppData/arm-gnu-toolchain-13.3.rel1-mingw-w64-i686-arm-none-eabi/bin/../lib/gcc/arm-none-eabi/13.3.1/thumb/v8-m.base/nofp\libc_nano.a(libc_a-readr.o)
                                                  D:/AppData/arm-gnu-toolchain-13.3.rel1-mingw-w64-i686-arm-none-eabi/bin/../lib/gcc/arm-none-eabi/13.3.1/thumb/v8-m.base/nofp\libc_nano.a(libc_a-lseekr.o)
                                                  D:/AppData/arm-gnu-toolchain-13.3.rel1-mingw-w64-i686-arm-none-eabi/bin/../lib/gcc/arm-none-eabi/13.3.1/thumb/v8-m.base/nofp\libc_nano.a(libc_a-closer.o)
                                                  build/syscalls.o
exit                                              D:/AppData/arm-gnu-toolchain-13.3.rel1-mingw-w64-i686-arm-none-eabi/bin/../lib/gcc/arm-none-eabi/13.3.1/thumb/v8-m.base/nofp\libc_nano.a(libc_a-exit.o)
                                                  D:/AppData/arm-gnu-toolchain-13.3.rel1-mingw-w64-i686-arm-none-eabi/bin/../lib/gcc/arm-none-eabi/13.3.1/thumb/v8-m.base/nofp/crt0.o
exti_deinit                                       build/gd32e23x_exti.o
exti_event_disable                                build/gd32e23x_exti.o
exti_event_enable                                 build/gd32e23x_exti.o
exti_flag_clear                                   build/gd32e23x_exti.o
exti_flag_get                                     build/gd32e23x_exti.o
exti_init                                         build/gd32e23x_exti.o
                                                  build/peripheral.o
exti_interrupt_disable                            build/gd32e23x_exti.o
                                                  build/app.o
exti_interrupt_enable                             build/gd32e23x_exti.o
                                                  build/peripheral.o
exti_interrupt_flag_clear                         build/gd32e23x_exti.o
                                                  build/peripheral.o
                                                  build/gd32e23x_it.o
exti_interrupt_flag_get                           build/gd32e23x_exti.o
                                                  build/gd32e23x_it.o
exti_software_interrupt_disable                   build/gd32e23x_exti.o
exti_software_interrupt_enable                    build/gd32e23x_exti.o
fflush                                            D:/AppData/arm-gnu-toolchain-13.3.rel1-mingw-w64-i686-arm-none-eabi/bin/../lib/gcc/arm-none-eabi/13.3.1/thumb/v8-m.base/nofp\libc_nano.a(libc_a-fflush.o)
fiprintf                                          D:/AppData/arm-gnu-toolchain-13.3.rel1-mingw-w64-i686-arm-none-eabi/bin/../lib/gcc/arm-none-eabi/13.3.1/thumb/v8-m.base/nofp\libc_nano.a(libc_a-fprintf.o)
                                                  D:/AppData/arm-gnu-toolchain-13.3.rel1-mingw-w64-i686-arm-none-eabi/bin/../lib/gcc/arm-none-eabi/13.3.1/thumb/v8-m.base/nofp\libc_nano.a(libc_a-assert.o)
fmc_doubleword_program                            build/gd32e23x_fmc.o
fmc_flag_clear                                    build/gd32e23x_fmc.o
fmc_flag_get                                      build/gd32e23x_fmc.o
fmc_interrupt_disable                             build/gd32e23x_fmc.o
fmc_interrupt_enable                              build/gd32e23x_fmc.o
fmc_interrupt_flag_clear                          build/gd32e23x_fmc.o
fmc_interrupt_flag_get                            build/gd32e23x_fmc.o
fmc_lock                                          build/gd32e23x_fmc.o
fmc_mass_erase                                    build/gd32e23x_fmc.o
fmc_page_erase                                    build/gd32e23x_fmc.o
fmc_prefetch_disable                              build/gd32e23x_fmc.o
fmc_prefetch_enable                               build/gd32e23x_fmc.o
fmc_ready_wait                                    build/gd32e23x_fmc.o
fmc_state_get                                     build/gd32e23x_fmc.o
fmc_unlock                                        build/gd32e23x_fmc.o
fmc_word_program                                  build/gd32e23x_fmc.o
fmc_wscnt_set                                     build/gd32e23x_fmc.o
fprintf                                           D:/AppData/arm-gnu-toolchain-13.3.rel1-mingw-w64-i686-arm-none-eabi/bin/../lib/gcc/arm-none-eabi/13.3.1/thumb/v8-m.base/nofp\libc_nano.a(libc_a-fprintf.o)
free                                              D:/AppData/arm-gnu-toolchain-13.3.rel1-mingw-w64-i686-arm-none-eabi/bin/../lib/gcc/arm-none-eabi/13.3.1/thumb/v8-m.base/nofp\libc_nano.a(libc_a-malloc.o)
fwdgt_config                                      build/gd32e23x_fwdgt.o
fwdgt_counter_reload                              build/gd32e23x_fwdgt.o
fwdgt_enable                                      build/gd32e23x_fwdgt.o
fwdgt_flag_get                                    build/gd32e23x_fwdgt.o
fwdgt_prescaler_value_config                      build/gd32e23x_fwdgt.o
fwdgt_reload_value_config                         build/gd32e23x_fwdgt.o
fwdgt_window_value_config                         build/gd32e23x_fwdgt.o
fwdgt_write_disable                               build/gd32e23x_fwdgt.o
fwdgt_write_enable                                build/gd32e23x_fwdgt.o
g_pfnVectors                                      build/startup_gd32e23x.o
gpio_af_set                                       build/gd32e23x_gpio.o
                                                  build/peripheral.o
gpio_bit_reset                                    build/gd32e23x_gpio.o
                                                  build/lcd.o
                                                  build/app.o
gpio_bit_set                                      build/gd32e23x_gpio.o
                                                  build/lcd.o
                                                  build/peripheral.o
gpio_bit_toggle                                   build/gd32e23x_gpio.o
gpio_bit_write                                    build/gd32e23x_gpio.o
gpio_deinit                                       build/gd32e23x_gpio.o
gpio_input_bit_get                                build/gd32e23x_gpio.o
                                                  build/app.o
                                                  build/gd32e23x_it.o
gpio_input_port_get                               build/gd32e23x_gpio.o
gpio_mode_set                                     build/gd32e23x_gpio.o
                                                  build/peripheral.o
gpio_output_bit_get                               build/gd32e23x_gpio.o
gpio_output_options_set                           build/gd32e23x_gpio.o
                                                  build/peripheral.o
gpio_output_port_get                              build/gd32e23x_gpio.o
gpio_pin_lock                                     build/gd32e23x_gpio.o
gpio_port_toggle                                  build/gd32e23x_gpio.o
gpio_port_write                                   build/gd32e23x_gpio.o
hardware_init_hook                                D:/AppData/arm-gnu-toolchain-13.3.rel1-mingw-w64-i686-arm-none-eabi/bin/../lib/gcc/arm-none-eabi/13.3.1/thumb/v8-m.base/nofp/crt0.o
i2c_ack_config                                    build/gd32e23x_i2c.o
i2c_ackpos_config                                 build/gd32e23x_i2c.o
i2c_clock_config                                  build/gd32e23x_i2c.o
i2c_data_receive                                  build/gd32e23x_i2c.o
i2c_data_transmit                                 build/gd32e23x_i2c.o
i2c_deinit                                        build/gd32e23x_i2c.o
i2c_disable                                       build/gd32e23x_i2c.o
i2c_dma_config                                    build/gd32e23x_i2c.o
i2c_dma_last_transfer_config                      build/gd32e23x_i2c.o
i2c_dualaddr_disable                              build/gd32e23x_i2c.o
i2c_dualaddr_enable                               build/gd32e23x_i2c.o
i2c_enable                                        build/gd32e23x_i2c.o
i2c_flag_clear                                    build/gd32e23x_i2c.o
i2c_flag_get                                      build/gd32e23x_i2c.o
i2c_interrupt_disable                             build/gd32e23x_i2c.o
i2c_interrupt_enable                              build/gd32e23x_i2c.o
i2c_interrupt_flag_clear                          build/gd32e23x_i2c.o
i2c_interrupt_flag_get                            build/gd32e23x_i2c.o
i2c_master_addressing                             build/gd32e23x_i2c.o
i2c_mode_addr_config                              build/gd32e23x_i2c.o
i2c_pec_config                                    build/gd32e23x_i2c.o
i2c_pec_transfer_config                           build/gd32e23x_i2c.o
i2c_pec_value_get                                 build/gd32e23x_i2c.o
i2c_sam_disable                                   build/gd32e23x_i2c.o
i2c_sam_enable                                    build/gd32e23x_i2c.o
i2c_sam_timeout_disable                           build/gd32e23x_i2c.o
i2c_sam_timeout_enable                            build/gd32e23x_i2c.o
i2c_slave_response_to_gcall_config                build/gd32e23x_i2c.o
i2c_smbus_alert_config                            build/gd32e23x_i2c.o
i2c_smbus_arp_config                              build/gd32e23x_i2c.o
i2c_smbus_type_config                             build/gd32e23x_i2c.o
i2c_software_reset_config                         build/gd32e23x_i2c.o
i2c_start_on_bus                                  build/gd32e23x_i2c.o
i2c_stop_on_bus                                   build/gd32e23x_i2c.o
i2c_stretch_scl_low_config                        build/gd32e23x_i2c.o
i2s_disable                                       build/gd32e23x_spi.o
i2s_enable                                        build/gd32e23x_spi.o
i2s_init                                          build/gd32e23x_spi.o
i2s_psc_config                                    build/gd32e23x_spi.o
initialise_monitor_handles                        build/syscalls.o
irq_latency_set                                   build/gd32e23x_syscfg.o
localeconv                                        D:/AppData/arm-gnu-toolchain-13.3.rel1-mingw-w64-i686-arm-none-eabi/bin/../lib/gcc/arm-none-eabi/13.3.1/thumb/v8-m.base/nofp\libc_nano.a(libc_a-localeconv.o)
main                                              build/main.o
                                                  build/startup_gd32e23x.o
                                                  D:/AppData/arm-gnu-toolchain-13.3.rel1-mingw-w64-i686-arm-none-eabi/bin/../lib/gcc/arm-none-eabi/13.3.1/thumb/v8-m.base/nofp/crt0.o
malloc                                            D:/AppData/arm-gnu-toolchain-13.3.rel1-mingw-w64-i686-arm-none-eabi/bin/../lib/gcc/arm-none-eabi/13.3.1/thumb/v8-m.base/nofp\libc_nano.a(libc_a-malloc.o)
                                                  D:/AppData/arm-gnu-toolchain-13.3.rel1-mingw-w64-i686-arm-none-eabi/bin/../lib/gcc/arm-none-eabi/13.3.1/thumb/v8-m.base/nofp\libc_nano.a(libc_a-mprec.o)
                                                  D:/AppData/arm-gnu-toolchain-13.3.rel1-mingw-w64-i686-arm-none-eabi/bin/../lib/gcc/arm-none-eabi/13.3.1/thumb/v8-m.base/nofp\libc_nano.a(libc_a-dtoa.o)
memchr                                            D:/AppData/arm-gnu-toolchain-13.3.rel1-mingw-w64-i686-arm-none-eabi/bin/../lib/gcc/arm-none-eabi/13.3.1/thumb/v8-m.base/nofp\libc_nano.a(libc_a-memchr-stub.o)
                                                  D:/AppData/arm-gnu-toolchain-13.3.rel1-mingw-w64-i686-arm-none-eabi/bin/../lib/gcc/arm-none-eabi/13.3.1/thumb/v8-m.base/nofp\libc_nano.a(libc_a-fvwrite.o)
                                                  D:/AppData/arm-gnu-toolchain-13.3.rel1-mingw-w64-i686-arm-none-eabi/bin/../lib/gcc/arm-none-eabi/13.3.1/thumb/v8-m.base/nofp\libc_nano.a(libc_a-nano-vfprintf.o)
                                                  D:/AppData/arm-gnu-toolchain-13.3.rel1-mingw-w64-i686-arm-none-eabi/bin/../lib/gcc/arm-none-eabi/13.3.1/thumb/v8-m.base/nofp\libc_nano.a(libc_a-nano-svfprintf.o)
                                                  D:/AppData/arm-gnu-toolchain-13.3.rel1-mingw-w64-i686-arm-none-eabi/bin/../lib/gcc/arm-none-eabi/13.3.1/thumb/v8-m.base/nofp\libc_nano.a(libc_a-nano-vfprintf_i.o)
memcpy                                            D:/AppData/arm-gnu-toolchain-13.3.rel1-mingw-w64-i686-arm-none-eabi/bin/../lib/gcc/arm-none-eabi/13.3.1/thumb/v8-m.base/nofp\libc_nano.a(libc_a-memcpy-stub.o)
                                                  D:/AppData/arm-gnu-toolchain-13.3.rel1-mingw-w64-i686-arm-none-eabi/bin/../lib/gcc/arm-none-eabi/13.3.1/thumb/v8-m.base/nofp\libc_nano.a(libc_a-fvwrite.o)
                                                  D:/AppData/arm-gnu-toolchain-13.3.rel1-mingw-w64-i686-arm-none-eabi/bin/../lib/gcc/arm-none-eabi/13.3.1/thumb/v8-m.base/nofp\libc_nano.a(libc_a-reallocr.o)
                                                  D:/AppData/arm-gnu-toolchain-13.3.rel1-mingw-w64-i686-arm-none-eabi/bin/../lib/gcc/arm-none-eabi/13.3.1/thumb/v8-m.base/nofp\libc_nano.a(libc_a-gdtoa-gethex.o)
                                                  D:/AppData/arm-gnu-toolchain-13.3.rel1-mingw-w64-i686-arm-none-eabi/bin/../lib/gcc/arm-none-eabi/13.3.1/thumb/v8-m.base/nofp\libc_nano.a(libc_a-nano-svfprintf.o)
                                                  D:/AppData/arm-gnu-toolchain-13.3.rel1-mingw-w64-i686-arm-none-eabi/bin/../lib/gcc/arm-none-eabi/13.3.1/thumb/v8-m.base/nofp\libc_nano.a(libc_a-strtod.o)
                                                  D:/AppData/arm-gnu-toolchain-13.3.rel1-mingw-w64-i686-arm-none-eabi/bin/../lib/gcc/arm-none-eabi/13.3.1/thumb/v8-m.base/nofp\libc_nano.a(libc_a-mprec.o)
                                                  D:/AppData/arm-gnu-toolchain-13.3.rel1-mingw-w64-i686-arm-none-eabi/bin/../lib/gcc/arm-none-eabi/13.3.1/thumb/v8-m.base/nofp\libc_nano.a(libc_a-dtoa.o)
memmove                                           D:/AppData/arm-gnu-toolchain-13.3.rel1-mingw-w64-i686-arm-none-eabi/bin/../lib/gcc/arm-none-eabi/13.3.1/thumb/v8-m.base/nofp\libc_nano.a(libc_a-memmove.o)
                                                  D:/AppData/arm-gnu-toolchain-13.3.rel1-mingw-w64-i686-arm-none-eabi/bin/../lib/gcc/arm-none-eabi/13.3.1/thumb/v8-m.base/nofp\libc_nano.a(libc_a-fvwrite.o)
                                                  D:/AppData/arm-gnu-toolchain-13.3.rel1-mingw-w64-i686-arm-none-eabi/bin/../lib/gcc/arm-none-eabi/13.3.1/thumb/v8-m.base/nofp\libc_nano.a(libc_a-nano-svfprintf.o)
memset                                            D:/AppData/arm-gnu-toolchain-13.3.rel1-mingw-w64-i686-arm-none-eabi/bin/../lib/gcc/arm-none-eabi/13.3.1/thumb/v8-m.base/nofp\libc_nano.a(libc_a-memset.o)
                                                  D:/AppData/arm-gnu-toolchain-13.3.rel1-mingw-w64-i686-arm-none-eabi/bin/../lib/gcc/arm-none-eabi/13.3.1/thumb/v8-m.base/nofp\libc_nano.a(libc_a-callocr.o)
                                                  D:/AppData/arm-gnu-toolchain-13.3.rel1-mingw-w64-i686-arm-none-eabi/bin/../lib/gcc/arm-none-eabi/13.3.1/thumb/v8-m.base/nofp\libc_nano.a(libc_a-findfp.o)
                                                  build/app.o
                                                  D:/AppData/arm-gnu-toolchain-13.3.rel1-mingw-w64-i686-arm-none-eabi/bin/../lib/gcc/arm-none-eabi/13.3.1/thumb/v8-m.base/nofp/crt0.o
mypow                                             build/lcd.o
nan                                               D:/AppData/arm-gnu-toolchain-13.3.rel1-mingw-w64-i686-arm-none-eabi/bin/../lib/gcc/arm-none-eabi/13.3.1/thumb/v8-m.base/nofp\libc_nano.a(libm_a-s_nan.o)
                                                  D:/AppData/arm-gnu-toolchain-13.3.rel1-mingw-w64-i686-arm-none-eabi/bin/../lib/gcc/arm-none-eabi/13.3.1/thumb/v8-m.base/nofp\libc_nano.a(libc_a-strtod.o)
nanf                                              D:/AppData/arm-gnu-toolchain-13.3.rel1-mingw-w64-i686-arm-none-eabi/bin/../lib/gcc/arm-none-eabi/13.3.1/thumb/v8-m.base/nofp\libc_nano.a(libm_a-sf_nan.o)
                                                  D:/AppData/arm-gnu-toolchain-13.3.rel1-mingw-w64-i686-arm-none-eabi/bin/../lib/gcc/arm-none-eabi/13.3.1/thumb/v8-m.base/nofp\libc_nano.a(libc_a-strtod.o)
                                                  D:/AppData/arm-gnu-toolchain-13.3.rel1-mingw-w64-i686-arm-none-eabi/bin/../lib/gcc/arm-none-eabi/13.3.1/thumb/v8-m.base/nofp\libc_nano.a(libc_a-nano-vfscanf_float.o)
nvic_irq_disable                                  build/gd32e23x_misc.o
nvic_irq_enable                                   build/gd32e23x_misc.o
                                                  build/peripheral.o
nvic_system_reset                                 build/gd32e23x_misc.o
nvic_vector_table_set                             build/gd32e23x_misc.o
                                                  build/system_gd32e23x.o
ob_data_get                                       build/gd32e23x_fmc.o
ob_data_program                                   build/gd32e23x_fmc.o
ob_erase                                          build/gd32e23x_fmc.o
ob_lock                                           build/gd32e23x_fmc.o
ob_obstat_plevel_get                              build/gd32e23x_fmc.o
ob_reset                                          build/gd32e23x_fmc.o
ob_security_protection_config                     build/gd32e23x_fmc.o
ob_unlock                                         build/gd32e23x_fmc.o
ob_user_get                                       build/gd32e23x_fmc.o
ob_user_write                                     build/gd32e23x_fmc.o
ob_write_protection_enable                        build/gd32e23x_fmc.o
ob_write_protection_get                           build/gd32e23x_fmc.o
option_byte_value_get                             build/gd32e23x_fmc.o
pmu_backup_write_disable                          build/gd32e23x_pmu.o
pmu_backup_write_enable                           build/gd32e23x_pmu.o
pmu_deinit                                        build/gd32e23x_pmu.o
pmu_flag_clear                                    build/gd32e23x_pmu.o
pmu_flag_get                                      build/gd32e23x_pmu.o
pmu_ldo_output_select                             build/gd32e23x_pmu.o
pmu_lvd_disable                                   build/gd32e23x_pmu.o
pmu_lvd_select                                    build/gd32e23x_pmu.o
pmu_to_deepsleepmode                              build/gd32e23x_pmu.o
pmu_to_sleepmode                                  build/gd32e23x_pmu.o
pmu_to_standbymode                                build/gd32e23x_pmu.o
pmu_wakeup_pin_disable                            build/gd32e23x_pmu.o
pmu_wakeup_pin_enable                             build/gd32e23x_pmu.o
raise                                             D:/AppData/arm-gnu-toolchain-13.3.rel1-mingw-w64-i686-arm-none-eabi/bin/../lib/gcc/arm-none-eabi/13.3.1/thumb/v8-m.base/nofp\libc_nano.a(libc_a-signal.o)
                                                  D:/AppData/arm-gnu-toolchain-13.3.rel1-mingw-w64-i686-arm-none-eabi/bin/../lib/gcc/arm-none-eabi/13.3.1/thumb/v8-m.base/nofp\libc_nano.a(libc_a-abort.o)
rcu_adc_clock_config                              build/gd32e23x_rcu.o
                                                  build/peripheral.o
rcu_ahb_clock_config                              build/gd32e23x_rcu.o
rcu_all_reset_flag_clear                          build/gd32e23x_rcu.o
rcu_apb1_clock_config                             build/gd32e23x_rcu.o
rcu_apb2_clock_config                             build/gd32e23x_rcu.o
rcu_bkp_reset_disable                             build/gd32e23x_rcu.o
rcu_bkp_reset_enable                              build/gd32e23x_rcu.o
rcu_ckout_config                                  build/gd32e23x_rcu.o
rcu_clock_freq_get                                build/gd32e23x_rcu.o
                                                  build/gd32e23x_usart.o
                                                  build/gd32e23x_spi.o
                                                  build/gd32e23x_i2c.o
rcu_deepsleep_voltage_set                         build/gd32e23x_rcu.o
rcu_deinit                                        build/gd32e23x_rcu.o
rcu_flag_get                                      build/gd32e23x_rcu.o
rcu_hxtal_clock_monitor_disable                   build/gd32e23x_rcu.o
rcu_hxtal_clock_monitor_enable                    build/gd32e23x_rcu.o
rcu_hxtal_prediv_config                           build/gd32e23x_rcu.o
rcu_interrupt_disable                             build/gd32e23x_rcu.o
rcu_interrupt_enable                              build/gd32e23x_rcu.o
rcu_interrupt_flag_clear                          build/gd32e23x_rcu.o
rcu_interrupt_flag_get                            build/gd32e23x_rcu.o
rcu_irc28m_adjust_value_set                       build/gd32e23x_rcu.o
rcu_irc8m_adjust_value_set                        build/gd32e23x_rcu.o
rcu_lxtal_drive_capability_config                 build/gd32e23x_rcu.o
rcu_osci_bypass_mode_disable                      build/gd32e23x_rcu.o
rcu_osci_bypass_mode_enable                       build/gd32e23x_rcu.o
rcu_osci_off                                      build/gd32e23x_rcu.o
rcu_osci_on                                       build/gd32e23x_rcu.o
rcu_osci_stab_wait                                build/gd32e23x_rcu.o
rcu_periph_clock_disable                          build/gd32e23x_rcu.o
                                                  build/app.o
rcu_periph_clock_enable                           build/gd32e23x_rcu.o
                                                  build/peripheral.o
rcu_periph_clock_sleep_disable                    build/gd32e23x_rcu.o
rcu_periph_clock_sleep_enable                     build/gd32e23x_rcu.o
rcu_periph_reset_disable                          build/gd32e23x_rcu.o
                                                  build/gd32e23x_wwdgt.o
                                                  build/gd32e23x_usart.o
                                                  build/gd32e23x_timer.o
                                                  build/gd32e23x_syscfg.o
                                                  build/gd32e23x_spi.o
                                                  build/gd32e23x_pmu.o
                                                  build/gd32e23x_i2c.o
                                                  build/gd32e23x_gpio.o
                                                  build/gd32e23x_adc.o
rcu_periph_reset_enable                           build/gd32e23x_rcu.o
                                                  build/gd32e23x_wwdgt.o
                                                  build/gd32e23x_usart.o
                                                  build/gd32e23x_timer.o
                                                  build/gd32e23x_syscfg.o
                                                  build/gd32e23x_spi.o
                                                  build/gd32e23x_pmu.o
                                                  build/gd32e23x_i2c.o
                                                  build/gd32e23x_gpio.o
                                                  build/gd32e23x_adc.o
rcu_pll_config                                    build/gd32e23x_rcu.o
rcu_rtc_clock_config                              build/gd32e23x_rcu.o
rcu_system_clock_source_config                    build/gd32e23x_rcu.o
rcu_system_clock_source_get                       build/gd32e23x_rcu.o
rcu_usart_clock_config                            build/gd32e23x_rcu.o
rcu_voltage_key_unlock                            build/gd32e23x_rcu.o
rtc_alarm_config                                  build/gd32e23x_rtc.o
rtc_alarm_disable                                 build/gd32e23x_rtc.o
rtc_alarm_enable                                  build/gd32e23x_rtc.o
rtc_alarm_get                                     build/gd32e23x_rtc.o
rtc_alarm_subsecond_config                        build/gd32e23x_rtc.o
rtc_alarm_subsecond_get                           build/gd32e23x_rtc.o
rtc_alter_output_config                           build/gd32e23x_rtc.o
rtc_bypass_shadow_disable                         build/gd32e23x_rtc.o
rtc_bypass_shadow_enable                          build/gd32e23x_rtc.o
rtc_calibration_config                            build/gd32e23x_rtc.o
rtc_current_time_get                              build/gd32e23x_rtc.o
rtc_deinit                                        build/gd32e23x_rtc.o
rtc_flag_clear                                    build/gd32e23x_rtc.o
rtc_flag_get                                      build/gd32e23x_rtc.o
rtc_hour_adjust                                   build/gd32e23x_rtc.o
rtc_init                                          build/gd32e23x_rtc.o
rtc_init_mode_enter                               build/gd32e23x_rtc.o
rtc_init_mode_exit                                build/gd32e23x_rtc.o
rtc_interrupt_disable                             build/gd32e23x_rtc.o
rtc_interrupt_enable                              build/gd32e23x_rtc.o
rtc_refclock_detection_disable                    build/gd32e23x_rtc.o
rtc_refclock_detection_enable                     build/gd32e23x_rtc.o
rtc_register_sync_wait                            build/gd32e23x_rtc.o
rtc_second_adjust                                 build/gd32e23x_rtc.o
rtc_subsecond_get                                 build/gd32e23x_rtc.o
rtc_tamper_disable                                build/gd32e23x_rtc.o
rtc_tamper_enable                                 build/gd32e23x_rtc.o
rtc_timestamp_disable                             build/gd32e23x_rtc.o
rtc_timestamp_enable                              build/gd32e23x_rtc.o
rtc_timestamp_get                                 build/gd32e23x_rtc.o
rtc_timestamp_subsecond_get                       build/gd32e23x_rtc.o
savelog                                           build/log.o
setlocale                                         D:/AppData/arm-gnu-toolchain-13.3.rel1-mingw-w64-i686-arm-none-eabi/bin/../lib/gcc/arm-none-eabi/13.3.1/thumb/v8-m.base/nofp\libc_nano.a(libc_a-locale.o)
signal                                            D:/AppData/arm-gnu-toolchain-13.3.rel1-mingw-w64-i686-arm-none-eabi/bin/../lib/gcc/arm-none-eabi/13.3.1/thumb/v8-m.base/nofp\libc_nano.a(libc_a-signal.o)
siprintf                                          D:/AppData/arm-gnu-toolchain-13.3.rel1-mingw-w64-i686-arm-none-eabi/bin/../lib/gcc/arm-none-eabi/13.3.1/thumb/v8-m.base/nofp\libc_nano.a(libc_a-sprintf.o)
software_init_hook                                D:/AppData/arm-gnu-toolchain-13.3.rel1-mingw-w64-i686-arm-none-eabi/bin/../lib/gcc/arm-none-eabi/13.3.1/thumb/v8-m.base/nofp/crt0.o
spi_bidirectional_transfer_config                 build/gd32e23x_spi.o
spi_crc_error_clear                               build/gd32e23x_spi.o
spi_crc_get                                       build/gd32e23x_spi.o
spi_crc_length_set                                build/gd32e23x_spi.o
spi_crc_next                                      build/gd32e23x_spi.o
spi_crc_off                                       build/gd32e23x_spi.o
spi_crc_on                                        build/gd32e23x_spi.o
spi_crc_polynomial_get                            build/gd32e23x_spi.o
spi_crc_polynomial_set                            build/gd32e23x_spi.o
spi_disable                                       build/gd32e23x_spi.o
spi_dma_disable                                   build/gd32e23x_spi.o
spi_dma_enable                                    build/gd32e23x_spi.o
spi_enable                                        build/gd32e23x_spi.o
                                                  build/peripheral.o
spi_fifo_access_size_config                       build/gd32e23x_spi.o
spi_i2s_data_frame_format_config                  build/gd32e23x_spi.o
spi_i2s_data_receive                              build/gd32e23x_spi.o
spi_i2s_data_transmit                             build/gd32e23x_spi.o
                                                  build/lcd.o
spi_i2s_deinit                                    build/gd32e23x_spi.o
                                                  build/peripheral.o
spi_i2s_flag_get                                  build/gd32e23x_spi.o
                                                  build/lcd.o
spi_i2s_format_error_clear                        build/gd32e23x_spi.o
spi_i2s_interrupt_disable                         build/gd32e23x_spi.o
spi_i2s_interrupt_enable                          build/gd32e23x_spi.o
spi_i2s_interrupt_flag_get                        build/gd32e23x_spi.o
spi_init                                          build/gd32e23x_spi.o
                                                  build/peripheral.o
spi_nss_internal_high                             build/gd32e23x_spi.o
spi_nss_internal_low                              build/gd32e23x_spi.o
spi_nss_output_disable                            build/gd32e23x_spi.o
spi_nss_output_enable                             build/gd32e23x_spi.o
spi_nssp_mode_disable                             build/gd32e23x_spi.o
spi_nssp_mode_enable                              build/gd32e23x_spi.o
spi_quad_disable                                  build/gd32e23x_spi.o
spi_quad_enable                                   build/gd32e23x_spi.o
spi_quad_io23_output_disable                      build/gd32e23x_spi.o
spi_quad_io23_output_enable                       build/gd32e23x_spi.o
spi_quad_read_enable                              build/gd32e23x_spi.o
spi_quad_write_enable                             build/gd32e23x_spi.o
spi_receive_odd_config                            build/gd32e23x_spi.o
spi_struct_para_init                              build/gd32e23x_spi.o
                                                  build/peripheral.o
spi_ti_mode_disable                               build/gd32e23x_spi.o
spi_ti_mode_enable                                build/gd32e23x_spi.o
spi_transmit_odd_config                           build/gd32e23x_spi.o
sprintf                                           D:/AppData/arm-gnu-toolchain-13.3.rel1-mingw-w64-i686-arm-none-eabi/bin/../lib/gcc/arm-none-eabi/13.3.1/thumb/v8-m.base/nofp\libc_nano.a(libc_a-sprintf.o)
                                                  D:/AppData/arm-gnu-toolchain-13.3.rel1-mingw-w64-i686-arm-none-eabi/bin/../lib/gcc/arm-none-eabi/13.3.1/thumb/v8-m.base/nofp\libc_nano.a(libc_a-nano-vfscanf_float.o)
strcmp                                            D:/AppData/arm-gnu-toolchain-13.3.rel1-mingw-w64-i686-arm-none-eabi/bin/../lib/gcc/arm-none-eabi/13.3.1/thumb/v8-m.base/nofp\libc_nano.a(libc_a-strcmp.o)
                                                  D:/AppData/arm-gnu-toolchain-13.3.rel1-mingw-w64-i686-arm-none-eabi/bin/../lib/gcc/arm-none-eabi/13.3.1/thumb/v8-m.base/nofp\libc_nano.a(libc_a-locale.o)
strlen                                            D:/AppData/arm-gnu-toolchain-13.3.rel1-mingw-w64-i686-arm-none-eabi/bin/../lib/gcc/arm-none-eabi/13.3.1/thumb/v8-m.base/nofp\libc_nano.a(libc_a-strlen.o)
                                                  D:/AppData/arm-gnu-toolchain-13.3.rel1-mingw-w64-i686-arm-none-eabi/bin/../lib/gcc/arm-none-eabi/13.3.1/thumb/v8-m.base/nofp\libc_nano.a(libc_a-nano-vfprintf_float.o)
strncmp                                           D:/AppData/arm-gnu-toolchain-13.3.rel1-mingw-w64-i686-arm-none-eabi/bin/../lib/gcc/arm-none-eabi/13.3.1/thumb/v8-m.base/nofp\libc_nano.a(libc_a-strncmp.o)
                                                  D:/AppData/arm-gnu-toolchain-13.3.rel1-mingw-w64-i686-arm-none-eabi/bin/../lib/gcc/arm-none-eabi/13.3.1/thumb/v8-m.base/nofp\libc_nano.a(libc_a-gdtoa-gethex.o)
                                                  D:/AppData/arm-gnu-toolchain-13.3.rel1-mingw-w64-i686-arm-none-eabi/bin/../lib/gcc/arm-none-eabi/13.3.1/thumb/v8-m.base/nofp\libc_nano.a(libc_a-strtod.o)
strtod                                            D:/AppData/arm-gnu-toolchain-13.3.rel1-mingw-w64-i686-arm-none-eabi/bin/../lib/gcc/arm-none-eabi/13.3.1/thumb/v8-m.base/nofp\libc_nano.a(libc_a-strtod.o)
strtod_l                                          D:/AppData/arm-gnu-toolchain-13.3.rel1-mingw-w64-i686-arm-none-eabi/bin/../lib/gcc/arm-none-eabi/13.3.1/thumb/v8-m.base/nofp\libc_nano.a(libc_a-strtod.o)
strtof                                            D:/AppData/arm-gnu-toolchain-13.3.rel1-mingw-w64-i686-arm-none-eabi/bin/../lib/gcc/arm-none-eabi/13.3.1/thumb/v8-m.base/nofp\libc_nano.a(libc_a-strtod.o)
strtof_l                                          D:/AppData/arm-gnu-toolchain-13.3.rel1-mingw-w64-i686-arm-none-eabi/bin/../lib/gcc/arm-none-eabi/13.3.1/thumb/v8-m.base/nofp\libc_nano.a(libc_a-strtod.o)
strtol                                            D:/AppData/arm-gnu-toolchain-13.3.rel1-mingw-w64-i686-arm-none-eabi/bin/../lib/gcc/arm-none-eabi/13.3.1/thumb/v8-m.base/nofp\libc_nano.a(libc_a-strtol.o)
strtol_l                                          D:/AppData/arm-gnu-toolchain-13.3.rel1-mingw-w64-i686-arm-none-eabi/bin/../lib/gcc/arm-none-eabi/13.3.1/thumb/v8-m.base/nofp\libc_nano.a(libc_a-strtol.o)
syscfg_deinit                                     build/gd32e23x_syscfg.o
syscfg_dma_remap_disable                          build/gd32e23x_syscfg.o
syscfg_dma_remap_enable                           build/gd32e23x_syscfg.o
syscfg_exti_line_config                           build/gd32e23x_syscfg.o
                                                  build/peripheral.o
syscfg_flag_clear                                 build/gd32e23x_syscfg.o
syscfg_flag_get                                   build/gd32e23x_syscfg.o
syscfg_high_current_disable                       build/gd32e23x_syscfg.o
syscfg_high_current_enable                        build/gd32e23x_syscfg.o
syscfg_lock_config                                build/gd32e23x_syscfg.o
system_lowpower_reset                             build/gd32e23x_misc.o
system_lowpower_set                               build/gd32e23x_misc.o
systick_clksource_set                             build/gd32e23x_misc.o
systick_config                                    build/systick.o
                                                  build/main.o
timer_auto_reload_shadow_disable                  build/gd32e23x_timer.o
timer_auto_reload_shadow_enable                   build/gd32e23x_timer.o
                                                  build/peripheral.o
timer_automatic_output_disable                    build/gd32e23x_timer.o
timer_automatic_output_enable                     build/gd32e23x_timer.o
timer_autoreload_value_config                     build/gd32e23x_timer.o
                                                  build/app.o
timer_break_config                                build/gd32e23x_timer.o
timer_break_disable                               build/gd32e23x_timer.o
timer_break_enable                                build/gd32e23x_timer.o
timer_break_struct_para_init                      build/gd32e23x_timer.o
timer_channel_capture_value_register_read         build/gd32e23x_timer.o
                                                  build/gd32e23x_it.o
timer_channel_complementary_output_polarity_config build/gd32e23x_timer.o
timer_channel_complementary_output_state_config   build/gd32e23x_timer.o
timer_channel_control_shadow_config               build/gd32e23x_timer.o
timer_channel_control_shadow_update_config        build/gd32e23x_timer.o
timer_channel_dma_request_source_select           build/gd32e23x_timer.o
timer_channel_input_capture_prescaler_config      build/gd32e23x_timer.o
timer_channel_input_struct_para_init              build/gd32e23x_timer.o
timer_channel_output_clear_config                 build/gd32e23x_timer.o
timer_channel_output_config                       build/gd32e23x_timer.o
                                                  build/peripheral.o
timer_channel_output_fast_config                  build/gd32e23x_timer.o
timer_channel_output_mode_config                  build/gd32e23x_timer.o
                                                  build/peripheral.o
timer_channel_output_polarity_config              build/gd32e23x_timer.o
timer_channel_output_pulse_value_config           build/gd32e23x_timer.o
                                                  build/peripheral.o
                                                  build/app.o
timer_channel_output_shadow_config                build/gd32e23x_timer.o
                                                  build/peripheral.o
timer_channel_output_state_config                 build/gd32e23x_timer.o
timer_channel_output_struct_para_init             build/gd32e23x_timer.o
                                                  build/peripheral.o
timer_channel_remap_config                        build/gd32e23x_timer.o
timer_counter_alignment                           build/gd32e23x_timer.o
timer_counter_down_direction                      build/gd32e23x_timer.o
timer_counter_read                                build/gd32e23x_timer.o
timer_counter_up_direction                        build/gd32e23x_timer.o
timer_counter_value_config                        build/gd32e23x_timer.o
                                                  build/peripheral.o
timer_deinit                                      build/gd32e23x_timer.o
                                                  build/peripheral.o
timer_disable                                     build/gd32e23x_timer.o
                                                  build/app.o
timer_dma_disable                                 build/gd32e23x_timer.o
timer_dma_enable                                  build/gd32e23x_timer.o
timer_dma_transfer_config                         build/gd32e23x_timer.o
timer_enable                                      build/gd32e23x_timer.o
                                                  build/peripheral.o
timer_event_software_generate                     build/gd32e23x_timer.o
timer_external_clock_mode0_config                 build/gd32e23x_timer.o
timer_external_clock_mode1_config                 build/gd32e23x_timer.o
timer_external_clock_mode1_disable                build/gd32e23x_timer.o
timer_external_trigger_as_external_clock_config   build/gd32e23x_timer.o
timer_external_trigger_config                     build/gd32e23x_timer.o
timer_flag_clear                                  build/gd32e23x_timer.o
timer_flag_get                                    build/gd32e23x_timer.o
timer_hall_mode_config                            build/gd32e23x_timer.o
timer_init                                        build/gd32e23x_timer.o
                                                  build/peripheral.o
timer_input_capture_config                        build/gd32e23x_timer.o
                                                  build/peripheral.o
timer_input_pwm_capture_config                    build/gd32e23x_timer.o
timer_input_trigger_source_select                 build/gd32e23x_timer.o
timer_internal_clock_config                       build/gd32e23x_timer.o
timer_internal_trigger_as_external_clock_config   build/gd32e23x_timer.o
timer_interrupt_disable                           build/gd32e23x_timer.o
timer_interrupt_enable                            build/gd32e23x_timer.o
                                                  build/peripheral.o
timer_interrupt_flag_clear                        build/gd32e23x_timer.o
                                                  build/peripheral.o
                                                  build/gd32e23x_it.o
timer_interrupt_flag_get                          build/gd32e23x_timer.o
                                                  build/gd32e23x_it.o
timer_master_output_trigger_source_select         build/gd32e23x_timer.o
timer_master_slave_mode_config                    build/gd32e23x_timer.o
timer_ocpre_clear_source_config                   build/gd32e23x_timer.o
timer_output_value_selection_config               build/gd32e23x_timer.o
timer_prescaler_config                            build/gd32e23x_timer.o
timer_prescaler_read                              build/gd32e23x_timer.o
timer_primary_output_config                       build/gd32e23x_timer.o
                                                  build/peripheral.o
timer_quadrature_decoder_mode_config              build/gd32e23x_timer.o
timer_repetition_value_config                     build/gd32e23x_timer.o
timer_single_pulse_mode_config                    build/gd32e23x_timer.o
timer_slave_mode_select                           build/gd32e23x_timer.o
timer_struct_para_init                            build/gd32e23x_timer.o
                                                  build/peripheral.o
timer_update_event_disable                        build/gd32e23x_timer.o
timer_update_event_enable                         build/gd32e23x_timer.o
timer_update_source_config                        build/gd32e23x_timer.o
timer_write_chxval_register_config                build/gd32e23x_timer.o
usart_address_config                              build/gd32e23x_usart.o
usart_address_detection_mode_config               build/gd32e23x_usart.o
usart_baudrate_set                                build/gd32e23x_usart.o
usart_block_length_config                         build/gd32e23x_usart.o
usart_clock_disable                               build/gd32e23x_usart.o
usart_clock_enable                                build/gd32e23x_usart.o
usart_command_enable                              build/gd32e23x_usart.o
usart_data_first_config                           build/gd32e23x_usart.o
usart_data_receive                                build/gd32e23x_usart.o
usart_data_transmit                               build/gd32e23x_usart.o
usart_deinit                                      build/gd32e23x_usart.o
usart_depolarity_config                           build/gd32e23x_usart.o
usart_disable                                     build/gd32e23x_usart.o
usart_dma_receive_config                          build/gd32e23x_usart.o
usart_dma_transmit_config                         build/gd32e23x_usart.o
usart_driver_assertime_config                     build/gd32e23x_usart.o
usart_driver_deassertime_config                   build/gd32e23x_usart.o
usart_enable                                      build/gd32e23x_usart.o
usart_flag_clear                                  build/gd32e23x_usart.o
usart_flag_get                                    build/gd32e23x_usart.o
usart_guard_time_config                           build/gd32e23x_usart.o
usart_halfduplex_disable                          build/gd32e23x_usart.o
usart_halfduplex_enable                           build/gd32e23x_usart.o
usart_hardware_flow_coherence_config              build/gd32e23x_usart.o
usart_hardware_flow_cts_config                    build/gd32e23x_usart.o
usart_hardware_flow_rts_config                    build/gd32e23x_usart.o
usart_interrupt_disable                           build/gd32e23x_usart.o
usart_interrupt_enable                            build/gd32e23x_usart.o
usart_interrupt_flag_clear                        build/gd32e23x_usart.o
usart_interrupt_flag_get                          build/gd32e23x_usart.o
usart_invert_config                               build/gd32e23x_usart.o
usart_irda_lowpower_config                        build/gd32e23x_usart.o
usart_irda_mode_disable                           build/gd32e23x_usart.o
usart_irda_mode_enable                            build/gd32e23x_usart.o
usart_lin_break_detection_length_config           build/gd32e23x_usart.o
usart_lin_mode_disable                            build/gd32e23x_usart.o
usart_lin_mode_enable                             build/gd32e23x_usart.o
usart_mute_mode_disable                           build/gd32e23x_usart.o
usart_mute_mode_enable                            build/gd32e23x_usart.o
usart_mute_mode_wakeup_config                     build/gd32e23x_usart.o
usart_overrun_disable                             build/gd32e23x_usart.o
usart_overrun_enable                              build/gd32e23x_usart.o
usart_oversample_config                           build/gd32e23x_usart.o
usart_parity_config                               build/gd32e23x_usart.o
usart_prescaler_config                            build/gd32e23x_usart.o
usart_receive_config                              build/gd32e23x_usart.o
usart_receive_fifo_counter_number                 build/gd32e23x_usart.o
usart_receive_fifo_disable                        build/gd32e23x_usart.o
usart_receive_fifo_enable                         build/gd32e23x_usart.o
usart_receiver_timeout_disable                    build/gd32e23x_usart.o
usart_receiver_timeout_enable                     build/gd32e23x_usart.o
usart_receiver_timeout_threshold_config           build/gd32e23x_usart.o
usart_reception_error_dma_disable                 build/gd32e23x_usart.o
usart_reception_error_dma_enable                  build/gd32e23x_usart.o
usart_rs485_driver_disable                        build/gd32e23x_usart.o
usart_rs485_driver_enable                         build/gd32e23x_usart.o
usart_sample_bit_config                           build/gd32e23x_usart.o
usart_smartcard_autoretry_config                  build/gd32e23x_usart.o
usart_smartcard_mode_disable                      build/gd32e23x_usart.o
usart_smartcard_mode_early_nack_disable           build/gd32e23x_usart.o
usart_smartcard_mode_early_nack_enable            build/gd32e23x_usart.o
usart_smartcard_mode_enable                       build/gd32e23x_usart.o
usart_smartcard_mode_nack_disable                 build/gd32e23x_usart.o
usart_smartcard_mode_nack_enable                  build/gd32e23x_usart.o
usart_stop_bit_set                                build/gd32e23x_usart.o
usart_synchronous_clock_config                    build/gd32e23x_usart.o
usart_transmit_config                             build/gd32e23x_usart.o
usart_wakeup_disable                              build/gd32e23x_usart.o
usart_wakeup_enable                               build/gd32e23x_usart.o
usart_wakeup_mode_config                          build/gd32e23x_usart.o
usart_word_length_set                             build/gd32e23x_usart.o
vfiprintf                                         D:/AppData/arm-gnu-toolchain-13.3.rel1-mingw-w64-i686-arm-none-eabi/bin/../lib/gcc/arm-none-eabi/13.3.1/thumb/v8-m.base/nofp\libc_nano.a(libc_a-nano-vfprintf.o)
vfprintf                                          D:/AppData/arm-gnu-toolchain-13.3.rel1-mingw-w64-i686-arm-none-eabi/bin/../lib/gcc/arm-none-eabi/13.3.1/thumb/v8-m.base/nofp\libc_nano.a(libc_a-nano-vfprintf.o)
wwdgt_config                                      build/gd32e23x_wwdgt.o
wwdgt_counter_update                              build/gd32e23x_wwdgt.o
wwdgt_deinit                                      build/gd32e23x_wwdgt.o
wwdgt_enable                                      build/gd32e23x_wwdgt.o
wwdgt_flag_clear                                  build/gd32e23x_wwdgt.o
wwdgt_flag_get                                    build/gd32e23x_wwdgt.o
wwdgt_interrupt_enable                            build/gd32e23x_wwdgt.o
