ARM GAS  D:\noval\Temp\cck0Iw0b.s 			page 1


   1              		.cpu cortex-m23
   2              		.arch armv8-m.base
   3              		.fpu softvfp
   4              		.eabi_attribute 20, 1
   5              		.eabi_attribute 21, 1
   6              		.eabi_attribute 23, 3
   7              		.eabi_attribute 24, 1
   8              		.eabi_attribute 25, 1
   9              		.eabi_attribute 26, 1
  10              		.eabi_attribute 30, 1
  11              		.eabi_attribute 34, 0
  12              		.eabi_attribute 18, 4
  13              		.file	"gd32e23x_timer.c"
  14              		.text
  15              	.Ltext0:
  16              		.cfi_sections	.debug_frame
  17              		.file 1 "Drivers/GD32E23x/Source/gd32e23x_timer.c"
  18              		.section	.text.timer_deinit,"ax",%progbits
  19              		.align	1
  20              		.global	timer_deinit
  21              		.syntax unified
  22              		.code	16
  23              		.thumb_func
  25              	timer_deinit:
  26              	.LVL0:
  27              	.LFB60:
   1:Drivers/GD32E23x/Source/gd32e23x_timer.c **** /*!
   2:Drivers/GD32E23x/Source/gd32e23x_timer.c ****     \file    gd32e23x_timer.c
   3:Drivers/GD32E23x/Source/gd32e23x_timer.c ****     \brief   TIMER driver
   4:Drivers/GD32E23x/Source/gd32e23x_timer.c **** 
   5:Drivers/GD32E23x/Source/gd32e23x_timer.c ****     \version 2024-02-22, V2.1.0, firmware for GD32E23x
   6:Drivers/GD32E23x/Source/gd32e23x_timer.c **** */
   7:Drivers/GD32E23x/Source/gd32e23x_timer.c **** 
   8:Drivers/GD32E23x/Source/gd32e23x_timer.c **** /*
   9:Drivers/GD32E23x/Source/gd32e23x_timer.c ****     Copyright (c) 2024, GigaDevice Semiconductor Inc.
  10:Drivers/GD32E23x/Source/gd32e23x_timer.c **** 
  11:Drivers/GD32E23x/Source/gd32e23x_timer.c ****     Redistribution and use in source and binary forms, with or without modification, 
  12:Drivers/GD32E23x/Source/gd32e23x_timer.c **** are permitted provided that the following conditions are met:
  13:Drivers/GD32E23x/Source/gd32e23x_timer.c **** 
  14:Drivers/GD32E23x/Source/gd32e23x_timer.c ****     1. Redistributions of source code must retain the above copyright notice, this 
  15:Drivers/GD32E23x/Source/gd32e23x_timer.c ****        list of conditions and the following disclaimer.
  16:Drivers/GD32E23x/Source/gd32e23x_timer.c ****     2. Redistributions in binary form must reproduce the above copyright notice, 
  17:Drivers/GD32E23x/Source/gd32e23x_timer.c ****        this list of conditions and the following disclaimer in the documentation 
  18:Drivers/GD32E23x/Source/gd32e23x_timer.c ****        and/or other materials provided with the distribution.
  19:Drivers/GD32E23x/Source/gd32e23x_timer.c ****     3. Neither the name of the copyright holder nor the names of its contributors 
  20:Drivers/GD32E23x/Source/gd32e23x_timer.c ****        may be used to endorse or promote products derived from this software without 
  21:Drivers/GD32E23x/Source/gd32e23x_timer.c ****        specific prior written permission.
  22:Drivers/GD32E23x/Source/gd32e23x_timer.c **** 
  23:Drivers/GD32E23x/Source/gd32e23x_timer.c ****     THIS SOFTWARE IS PROVIDED BY THE COPYRIGHT HOLDERS AND CONTRIBUTORS "AS IS" 
  24:Drivers/GD32E23x/Source/gd32e23x_timer.c **** AND ANY EXPRESS OR IMPLIED WARRANTIES, INCLUDING, BUT NOT LIMITED TO, THE IMPLIED 
  25:Drivers/GD32E23x/Source/gd32e23x_timer.c **** WARRANTIES OF MERCHANTABILITY AND FITNESS FOR A PARTICULAR PURPOSE ARE DISCLAIMED. 
  26:Drivers/GD32E23x/Source/gd32e23x_timer.c **** IN NO EVENT SHALL THE COPYRIGHT HOLDER OR CONTRIBUTORS BE LIABLE FOR ANY DIRECT, 
  27:Drivers/GD32E23x/Source/gd32e23x_timer.c **** INDIRECT, INCIDENTAL, SPECIAL, EXEMPLARY, OR CONSEQUENTIAL DAMAGES (INCLUDING, BUT 
  28:Drivers/GD32E23x/Source/gd32e23x_timer.c **** NOT LIMITED TO, PROCUREMENT OF SUBSTITUTE GOODS OR SERVICES; LOSS OF USE, DATA, OR 
  29:Drivers/GD32E23x/Source/gd32e23x_timer.c **** PROFITS; OR BUSINESS INTERRUPTION) HOWEVER CAUSED AND ON ANY THEORY OF LIABILITY, 
  30:Drivers/GD32E23x/Source/gd32e23x_timer.c **** WHETHER IN CONTRACT, STRICT LIABILITY, OR TORT (INCLUDING NEGLIGENCE OR OTHERWISE) 
  31:Drivers/GD32E23x/Source/gd32e23x_timer.c **** ARISING IN ANY WAY OUT OF THE USE OF THIS SOFTWARE, EVEN IF ADVISED OF THE POSSIBILITY 
ARM GAS  D:\noval\Temp\cck0Iw0b.s 			page 2


  32:Drivers/GD32E23x/Source/gd32e23x_timer.c **** OF SUCH DAMAGE.
  33:Drivers/GD32E23x/Source/gd32e23x_timer.c **** */
  34:Drivers/GD32E23x/Source/gd32e23x_timer.c **** 
  35:Drivers/GD32E23x/Source/gd32e23x_timer.c **** #include "gd32e23x_timer.h"
  36:Drivers/GD32E23x/Source/gd32e23x_timer.c **** 
  37:Drivers/GD32E23x/Source/gd32e23x_timer.c **** /* TIMER init parameter mask */
  38:Drivers/GD32E23x/Source/gd32e23x_timer.c **** #define ALIGNEDMODE_MASK            ((uint32_t)0x00000060U)   /*!< TIMER init parameter aligne dmod
  39:Drivers/GD32E23x/Source/gd32e23x_timer.c **** #define COUNTERDIRECTION_MASK       ((uint32_t)0x00000010U)   /*!< TIMER init parameter counter dir
  40:Drivers/GD32E23x/Source/gd32e23x_timer.c **** #define CLOCKDIVISION_MASK          ((uint32_t)0x00000300U)   /*!< TIMER init parameter clock divis
  41:Drivers/GD32E23x/Source/gd32e23x_timer.c **** 
  42:Drivers/GD32E23x/Source/gd32e23x_timer.c **** /*!
  43:Drivers/GD32E23x/Source/gd32e23x_timer.c ****     \brief      deinit a TIMER
  44:Drivers/GD32E23x/Source/gd32e23x_timer.c ****     \param[in]  timer_periph: TIMERx(x=0,2,5,13..16)
  45:Drivers/GD32E23x/Source/gd32e23x_timer.c ****     \param[out] none
  46:Drivers/GD32E23x/Source/gd32e23x_timer.c ****     \retval     none
  47:Drivers/GD32E23x/Source/gd32e23x_timer.c **** */
  48:Drivers/GD32E23x/Source/gd32e23x_timer.c **** void timer_deinit(uint32_t timer_periph)
  49:Drivers/GD32E23x/Source/gd32e23x_timer.c **** {
  28              		.loc 1 49 1 view -0
  29              		.cfi_startproc
  30              		@ args = 0, pretend = 0, frame = 0
  31              		@ frame_needed = 0, uses_anonymous_args = 0
  32              		.loc 1 49 1 is_stmt 0 view .LVU1
  33 0000 10B5     		push	{r4, lr}
  34              	.LCFI0:
  35              		.cfi_def_cfa_offset 8
  36              		.cfi_offset 4, -8
  37              		.cfi_offset 14, -4
  50:Drivers/GD32E23x/Source/gd32e23x_timer.c ****     switch(timer_periph){
  38              		.loc 1 50 5 is_stmt 1 view .LVU2
  39 0002 42F60043 		movw	r3, #11264
  40 0006 C4F20103 		movt	r3, 16385
  41 000a 9842     		cmp	r0, r3
  42 000c 3BD0     		beq	.L2
  43 000e 42F60043 		movw	r3, #11264
  44 0012 C4F20103 		movt	r3, 16385
  45 0016 9842     		cmp	r0, r3
  46 0018 1AD8     		bhi	.L3
  47 001a 41F20003 		movw	r3, #4096
  48 001e C4F20003 		movt	r3, 16384
  49 0022 9842     		cmp	r0, r3
  50 0024 38D0     		beq	.L4
  51 0026 42F20003 		movw	r3, #8192
  52 002a C4F20003 		movt	r3, 16384
  53 002e 9842     		cmp	r0, r3
  54 0030 3BD0     		beq	.L5
  55 0032 40F20043 		movw	r3, #1024
  56 0036 C4F20003 		movt	r3, 16384
  57 003a 9842     		cmp	r0, r3
  58 003c 2BD1     		bne	.L1
  51:Drivers/GD32E23x/Source/gd32e23x_timer.c ****     case TIMER0:
  52:Drivers/GD32E23x/Source/gd32e23x_timer.c ****         /* reset TIMER0 */
  53:Drivers/GD32E23x/Source/gd32e23x_timer.c ****         rcu_periph_reset_enable(RCU_TIMER0RST);
  54:Drivers/GD32E23x/Source/gd32e23x_timer.c ****         rcu_periph_reset_disable(RCU_TIMER0RST);
  55:Drivers/GD32E23x/Source/gd32e23x_timer.c ****         break;
  56:Drivers/GD32E23x/Source/gd32e23x_timer.c ****     case TIMER2:
  57:Drivers/GD32E23x/Source/gd32e23x_timer.c ****         /* reset TIMER2 */
ARM GAS  D:\noval\Temp\cck0Iw0b.s 			page 3


  58:Drivers/GD32E23x/Source/gd32e23x_timer.c ****         rcu_periph_reset_enable(RCU_TIMER2RST);
  59              		.loc 1 58 9 view .LVU3
  60 003e 40F20140 		movw	r0, #1025
  61              	.LVL1:
  62              		.loc 1 58 9 is_stmt 0 view .LVU4
  63 0042 FFF7FEFF 		bl	rcu_periph_reset_enable
  64              	.LVL2:
  59:Drivers/GD32E23x/Source/gd32e23x_timer.c ****         rcu_periph_reset_disable(RCU_TIMER2RST);
  65              		.loc 1 59 9 is_stmt 1 view .LVU5
  66 0046 40F20140 		movw	r0, #1025
  67 004a FFF7FEFF 		bl	rcu_periph_reset_disable
  68              	.LVL3:
  60:Drivers/GD32E23x/Source/gd32e23x_timer.c ****         break;
  69              		.loc 1 60 9 view .LVU6
  70 004e 22E0     		b	.L1
  71              	.LVL4:
  72              	.L3:
  50:Drivers/GD32E23x/Source/gd32e23x_timer.c ****     case TIMER0:
  73              		.loc 1 50 5 is_stmt 0 view .LVU7
  74 0050 44F20043 		movw	r3, #17408
  75 0054 C4F20103 		movt	r3, 16385
  76 0058 9842     		cmp	r0, r3
  77 005a 2FD0     		beq	.L8
  78 005c 44F60003 		movw	r3, #18432
  79 0060 C4F20103 		movt	r3, 16385
  80 0064 9842     		cmp	r0, r3
  81 0066 32D0     		beq	.L9
  82 0068 44F20003 		movw	r3, #16384
  83 006c C4F20103 		movt	r3, 16385
  84 0070 9842     		cmp	r0, r3
  85 0072 10D1     		bne	.L1
  61:Drivers/GD32E23x/Source/gd32e23x_timer.c ****     case TIMER5:
  62:Drivers/GD32E23x/Source/gd32e23x_timer.c ****         /* reset TIMER5 */
  63:Drivers/GD32E23x/Source/gd32e23x_timer.c ****         rcu_periph_reset_enable(RCU_TIMER5RST);
  64:Drivers/GD32E23x/Source/gd32e23x_timer.c ****         rcu_periph_reset_disable(RCU_TIMER5RST);
  65:Drivers/GD32E23x/Source/gd32e23x_timer.c ****         break;
  66:Drivers/GD32E23x/Source/gd32e23x_timer.c ****     case TIMER13:
  67:Drivers/GD32E23x/Source/gd32e23x_timer.c ****         /* reset TIMER13 */
  68:Drivers/GD32E23x/Source/gd32e23x_timer.c ****         rcu_periph_reset_enable(RCU_TIMER13RST);
  69:Drivers/GD32E23x/Source/gd32e23x_timer.c ****         rcu_periph_reset_disable(RCU_TIMER13RST);
  70:Drivers/GD32E23x/Source/gd32e23x_timer.c ****         break;
  71:Drivers/GD32E23x/Source/gd32e23x_timer.c ****     case TIMER14:
  72:Drivers/GD32E23x/Source/gd32e23x_timer.c ****         /* reset TIMER14 */
  73:Drivers/GD32E23x/Source/gd32e23x_timer.c ****         rcu_periph_reset_enable(RCU_TIMER14RST);
  86              		.loc 1 73 9 is_stmt 1 view .LVU8
  87 0074 40F21030 		movw	r0, #784
  88              	.LVL5:
  89              		.loc 1 73 9 is_stmt 0 view .LVU9
  90 0078 FFF7FEFF 		bl	rcu_periph_reset_enable
  91              	.LVL6:
  74:Drivers/GD32E23x/Source/gd32e23x_timer.c ****         rcu_periph_reset_disable(RCU_TIMER14RST);
  92              		.loc 1 74 9 is_stmt 1 view .LVU10
  93 007c 40F21030 		movw	r0, #784
  94 0080 FFF7FEFF 		bl	rcu_periph_reset_disable
  95              	.LVL7:
  75:Drivers/GD32E23x/Source/gd32e23x_timer.c ****         break;
  96              		.loc 1 75 9 view .LVU11
ARM GAS  D:\noval\Temp\cck0Iw0b.s 			page 4


  97 0084 07E0     		b	.L1
  98              	.LVL8:
  99              	.L2:
  53:Drivers/GD32E23x/Source/gd32e23x_timer.c ****         rcu_periph_reset_disable(RCU_TIMER0RST);
 100              		.loc 1 53 9 view .LVU12
 101 0086 40F20B30 		movw	r0, #779
 102              	.LVL9:
  53:Drivers/GD32E23x/Source/gd32e23x_timer.c ****         rcu_periph_reset_disable(RCU_TIMER0RST);
 103              		.loc 1 53 9 is_stmt 0 view .LVU13
 104 008a FFF7FEFF 		bl	rcu_periph_reset_enable
 105              	.LVL10:
  54:Drivers/GD32E23x/Source/gd32e23x_timer.c ****         break;
 106              		.loc 1 54 9 is_stmt 1 view .LVU14
 107 008e 40F20B30 		movw	r0, #779
 108 0092 FFF7FEFF 		bl	rcu_periph_reset_disable
 109              	.LVL11:
  55:Drivers/GD32E23x/Source/gd32e23x_timer.c ****     case TIMER2:
 110              		.loc 1 55 9 view .LVU15
 111              	.L1:
  76:Drivers/GD32E23x/Source/gd32e23x_timer.c ****     case TIMER15:
  77:Drivers/GD32E23x/Source/gd32e23x_timer.c ****         /* reset TIMER15 */
  78:Drivers/GD32E23x/Source/gd32e23x_timer.c ****         rcu_periph_reset_enable(RCU_TIMER15RST);
  79:Drivers/GD32E23x/Source/gd32e23x_timer.c ****         rcu_periph_reset_disable(RCU_TIMER15RST);
  80:Drivers/GD32E23x/Source/gd32e23x_timer.c ****         break;
  81:Drivers/GD32E23x/Source/gd32e23x_timer.c ****     case TIMER16:
  82:Drivers/GD32E23x/Source/gd32e23x_timer.c ****         /* reset TIMER16 */
  83:Drivers/GD32E23x/Source/gd32e23x_timer.c ****         rcu_periph_reset_enable(RCU_TIMER16RST);
  84:Drivers/GD32E23x/Source/gd32e23x_timer.c ****         rcu_periph_reset_disable(RCU_TIMER16RST);
  85:Drivers/GD32E23x/Source/gd32e23x_timer.c ****         break;
  86:Drivers/GD32E23x/Source/gd32e23x_timer.c ****     default:
  87:Drivers/GD32E23x/Source/gd32e23x_timer.c ****         break;
  88:Drivers/GD32E23x/Source/gd32e23x_timer.c ****     }
  89:Drivers/GD32E23x/Source/gd32e23x_timer.c **** }
 112              		.loc 1 89 1 is_stmt 0 view .LVU16
 113              		@ sp needed
 114 0096 10BD     		pop	{r4, pc}
 115              	.LVL12:
 116              	.L4:
  63:Drivers/GD32E23x/Source/gd32e23x_timer.c ****         rcu_periph_reset_disable(RCU_TIMER5RST);
 117              		.loc 1 63 9 is_stmt 1 view .LVU17
 118 0098 40F20440 		movw	r0, #1028
 119              	.LVL13:
  63:Drivers/GD32E23x/Source/gd32e23x_timer.c ****         rcu_periph_reset_disable(RCU_TIMER5RST);
 120              		.loc 1 63 9 is_stmt 0 view .LVU18
 121 009c FFF7FEFF 		bl	rcu_periph_reset_enable
 122              	.LVL14:
  64:Drivers/GD32E23x/Source/gd32e23x_timer.c ****         break;
 123              		.loc 1 64 9 is_stmt 1 view .LVU19
 124 00a0 40F20440 		movw	r0, #1028
 125 00a4 FFF7FEFF 		bl	rcu_periph_reset_disable
 126              	.LVL15:
  65:Drivers/GD32E23x/Source/gd32e23x_timer.c ****     case TIMER13:
 127              		.loc 1 65 9 view .LVU20
 128 00a8 F5E7     		b	.L1
 129              	.LVL16:
 130              	.L5:
  68:Drivers/GD32E23x/Source/gd32e23x_timer.c ****         rcu_periph_reset_disable(RCU_TIMER13RST);
ARM GAS  D:\noval\Temp\cck0Iw0b.s 			page 5


 131              		.loc 1 68 9 view .LVU21
 132 00aa 40F20840 		movw	r0, #1032
 133              	.LVL17:
  68:Drivers/GD32E23x/Source/gd32e23x_timer.c ****         rcu_periph_reset_disable(RCU_TIMER13RST);
 134              		.loc 1 68 9 is_stmt 0 view .LVU22
 135 00ae FFF7FEFF 		bl	rcu_periph_reset_enable
 136              	.LVL18:
  69:Drivers/GD32E23x/Source/gd32e23x_timer.c ****         break;
 137              		.loc 1 69 9 is_stmt 1 view .LVU23
 138 00b2 40F20840 		movw	r0, #1032
 139 00b6 FFF7FEFF 		bl	rcu_periph_reset_disable
 140              	.LVL19:
  70:Drivers/GD32E23x/Source/gd32e23x_timer.c ****     case TIMER14:
 141              		.loc 1 70 9 view .LVU24
 142 00ba ECE7     		b	.L1
 143              	.LVL20:
 144              	.L8:
  78:Drivers/GD32E23x/Source/gd32e23x_timer.c ****         rcu_periph_reset_disable(RCU_TIMER15RST);
 145              		.loc 1 78 9 view .LVU25
 146 00bc 40F21130 		movw	r0, #785
 147              	.LVL21:
  78:Drivers/GD32E23x/Source/gd32e23x_timer.c ****         rcu_periph_reset_disable(RCU_TIMER15RST);
 148              		.loc 1 78 9 is_stmt 0 view .LVU26
 149 00c0 FFF7FEFF 		bl	rcu_periph_reset_enable
 150              	.LVL22:
  79:Drivers/GD32E23x/Source/gd32e23x_timer.c ****         break;
 151              		.loc 1 79 9 is_stmt 1 view .LVU27
 152 00c4 40F21130 		movw	r0, #785
 153 00c8 FFF7FEFF 		bl	rcu_periph_reset_disable
 154              	.LVL23:
  80:Drivers/GD32E23x/Source/gd32e23x_timer.c ****     case TIMER16:
 155              		.loc 1 80 9 view .LVU28
 156 00cc E3E7     		b	.L1
 157              	.LVL24:
 158              	.L9:
  83:Drivers/GD32E23x/Source/gd32e23x_timer.c ****         rcu_periph_reset_disable(RCU_TIMER16RST);
 159              		.loc 1 83 9 view .LVU29
 160 00ce 40F21230 		movw	r0, #786
 161              	.LVL25:
  83:Drivers/GD32E23x/Source/gd32e23x_timer.c ****         rcu_periph_reset_disable(RCU_TIMER16RST);
 162              		.loc 1 83 9 is_stmt 0 view .LVU30
 163 00d2 FFF7FEFF 		bl	rcu_periph_reset_enable
 164              	.LVL26:
  84:Drivers/GD32E23x/Source/gd32e23x_timer.c ****         break;
 165              		.loc 1 84 9 is_stmt 1 view .LVU31
 166 00d6 40F21230 		movw	r0, #786
 167 00da FFF7FEFF 		bl	rcu_periph_reset_disable
 168              	.LVL27:
  85:Drivers/GD32E23x/Source/gd32e23x_timer.c ****     default:
 169              		.loc 1 85 9 view .LVU32
 170              		.loc 1 89 1 is_stmt 0 view .LVU33
 171 00de DAE7     		b	.L1
 172              		.cfi_endproc
 173              	.LFE60:
 175              		.section	.text.timer_struct_para_init,"ax",%progbits
 176              		.align	1
 177              		.global	timer_struct_para_init
ARM GAS  D:\noval\Temp\cck0Iw0b.s 			page 6


 178              		.syntax unified
 179              		.code	16
 180              		.thumb_func
 182              	timer_struct_para_init:
 183              	.LVL28:
 184              	.LFB61:
  90:Drivers/GD32E23x/Source/gd32e23x_timer.c **** 
  91:Drivers/GD32E23x/Source/gd32e23x_timer.c **** /*!
  92:Drivers/GD32E23x/Source/gd32e23x_timer.c ****     \brief      initialize TIMER init parameter struct with a default value
  93:Drivers/GD32E23x/Source/gd32e23x_timer.c ****     \param[in]  initpara: init parameter struct
  94:Drivers/GD32E23x/Source/gd32e23x_timer.c ****     \param[out] none
  95:Drivers/GD32E23x/Source/gd32e23x_timer.c ****     \retval     none
  96:Drivers/GD32E23x/Source/gd32e23x_timer.c **** */
  97:Drivers/GD32E23x/Source/gd32e23x_timer.c **** void timer_struct_para_init(timer_parameter_struct* initpara)
  98:Drivers/GD32E23x/Source/gd32e23x_timer.c **** {
 185              		.loc 1 98 1 is_stmt 1 view -0
 186              		.cfi_startproc
 187              		@ args = 0, pretend = 0, frame = 0
 188              		@ frame_needed = 0, uses_anonymous_args = 0
 189              		@ link register save eliminated.
  99:Drivers/GD32E23x/Source/gd32e23x_timer.c ****     /* initialize the init parameter struct member with the default value */
 100:Drivers/GD32E23x/Source/gd32e23x_timer.c ****     initpara->prescaler         = 0U;
 190              		.loc 1 100 5 view .LVU35
 191              		.loc 1 100 33 is_stmt 0 view .LVU36
 192 0000 0023     		movs	r3, #0
 193 0002 0380     		strh	r3, [r0]
 101:Drivers/GD32E23x/Source/gd32e23x_timer.c ****     initpara->alignedmode       = TIMER_COUNTER_EDGE;
 194              		.loc 1 101 5 is_stmt 1 view .LVU37
 195              		.loc 1 101 33 is_stmt 0 view .LVU38
 196 0004 4380     		strh	r3, [r0, #2]
 102:Drivers/GD32E23x/Source/gd32e23x_timer.c ****     initpara->counterdirection  = TIMER_COUNTER_UP;
 197              		.loc 1 102 5 is_stmt 1 view .LVU39
 198              		.loc 1 102 33 is_stmt 0 view .LVU40
 199 0006 8380     		strh	r3, [r0, #4]
 103:Drivers/GD32E23x/Source/gd32e23x_timer.c ****     initpara->period            = 65535U;
 200              		.loc 1 103 5 is_stmt 1 view .LVU41
 201              		.loc 1 103 33 is_stmt 0 view .LVU42
 202 0008 4FF6FF72 		movw	r2, #65535
 203 000c 8260     		str	r2, [r0, #8]
 104:Drivers/GD32E23x/Source/gd32e23x_timer.c ****     initpara->clockdivision     = TIMER_CKDIV_DIV1;
 204              		.loc 1 104 5 is_stmt 1 view .LVU43
 205              		.loc 1 104 33 is_stmt 0 view .LVU44
 206 000e C380     		strh	r3, [r0, #6]
 105:Drivers/GD32E23x/Source/gd32e23x_timer.c ****     initpara->repetitioncounter = 0U;
 207              		.loc 1 105 5 is_stmt 1 view .LVU45
 208              		.loc 1 105 33 is_stmt 0 view .LVU46
 209 0010 0373     		strb	r3, [r0, #12]
 106:Drivers/GD32E23x/Source/gd32e23x_timer.c **** }
 210              		.loc 1 106 1 view .LVU47
 211              		@ sp needed
 212 0012 7047     		bx	lr
 213              		.cfi_endproc
 214              	.LFE61:
 216              		.section	.text.timer_init,"ax",%progbits
 217              		.align	1
 218              		.global	timer_init
 219              		.syntax unified
ARM GAS  D:\noval\Temp\cck0Iw0b.s 			page 7


 220              		.code	16
 221              		.thumb_func
 223              	timer_init:
 224              	.LVL29:
 225              	.LFB62:
 107:Drivers/GD32E23x/Source/gd32e23x_timer.c **** 
 108:Drivers/GD32E23x/Source/gd32e23x_timer.c **** /*!
 109:Drivers/GD32E23x/Source/gd32e23x_timer.c ****     \brief      initialize TIMER counter
 110:Drivers/GD32E23x/Source/gd32e23x_timer.c ****     \param[in]  timer_periph: TIMERx(x=0,2,5,13..16)
 111:Drivers/GD32E23x/Source/gd32e23x_timer.c ****     \param[in]  initpara: init parameter struct
 112:Drivers/GD32E23x/Source/gd32e23x_timer.c ****                   prescaler: prescaler value of the counter clock, 0~65535
 113:Drivers/GD32E23x/Source/gd32e23x_timer.c ****                   alignedmode: TIMER_COUNTER_EDGE, TIMER_COUNTER_CENTER_DOWN, TIMER_COUNTER_CENTER_
 114:Drivers/GD32E23x/Source/gd32e23x_timer.c ****                   counterdirection: TIMER_COUNTER_UP, TIMER_COUNTER_DOWN
 115:Drivers/GD32E23x/Source/gd32e23x_timer.c ****                   period: counter auto reload value, 0~65535
 116:Drivers/GD32E23x/Source/gd32e23x_timer.c ****                   clockdivision: TIMER_CKDIV_DIV1, TIMER_CKDIV_DIV2, TIMER_CKDIV_DIV4
 117:Drivers/GD32E23x/Source/gd32e23x_timer.c ****                   repetitioncounter: counter repetition value, 0~255
 118:Drivers/GD32E23x/Source/gd32e23x_timer.c ****     \param[out] none
 119:Drivers/GD32E23x/Source/gd32e23x_timer.c ****     \retval     none
 120:Drivers/GD32E23x/Source/gd32e23x_timer.c **** */
 121:Drivers/GD32E23x/Source/gd32e23x_timer.c **** void timer_init(uint32_t timer_periph, timer_parameter_struct* initpara)
 122:Drivers/GD32E23x/Source/gd32e23x_timer.c **** {
 226              		.loc 1 122 1 is_stmt 1 view -0
 227              		.cfi_startproc
 228              		@ args = 0, pretend = 0, frame = 0
 229              		@ frame_needed = 0, uses_anonymous_args = 0
 230              		@ link register save eliminated.
 123:Drivers/GD32E23x/Source/gd32e23x_timer.c ****     /* configure the counter prescaler value */
 124:Drivers/GD32E23x/Source/gd32e23x_timer.c ****     TIMER_PSC(timer_periph) = (uint16_t)initpara->prescaler;
 231              		.loc 1 124 5 view .LVU49
 232              		.loc 1 124 49 is_stmt 0 view .LVU50
 233 0000 0B88     		ldrh	r3, [r1]
 234              		.loc 1 124 29 view .LVU51
 235 0002 8362     		str	r3, [r0, #40]
 125:Drivers/GD32E23x/Source/gd32e23x_timer.c **** 
 126:Drivers/GD32E23x/Source/gd32e23x_timer.c ****     /* configure the counter direction and aligned mode */
 127:Drivers/GD32E23x/Source/gd32e23x_timer.c ****     if((TIMER0 == timer_periph) || (TIMER2 == timer_periph)){
 236              		.loc 1 127 5 is_stmt 1 view .LVU52
 237              		.loc 1 127 7 is_stmt 0 view .LVU53
 238 0004 42F60043 		movw	r3, #11264
 239 0008 C4F20103 		movt	r3, 16385
 240 000c 9842     		cmp	r0, r3
 241 000e 05D0     		beq	.L13
 242              		.loc 1 127 33 discriminator 1 view .LVU54
 243 0010 40F20043 		movw	r3, #1024
 244 0014 C4F20003 		movt	r3, 16384
 245 0018 9842     		cmp	r0, r3
 246 001a 0BD1     		bne	.L14
 247              	.L13:
 128:Drivers/GD32E23x/Source/gd32e23x_timer.c ****         TIMER_CTL0(timer_periph) &= ~(uint32_t)(TIMER_CTL0_DIR|TIMER_CTL0_CAM);
 248              		.loc 1 128 9 is_stmt 1 view .LVU55
 249 001c 0368     		ldr	r3, [r0]
 250              		.loc 1 128 34 is_stmt 0 view .LVU56
 251 001e 7022     		movs	r2, #112
 252 0020 9343     		bics	r3, r2
 253 0022 0360     		str	r3, [r0]
 129:Drivers/GD32E23x/Source/gd32e23x_timer.c ****         TIMER_CTL0(timer_periph) |= (uint32_t)initpara->alignedmode;
 254              		.loc 1 129 9 is_stmt 1 view .LVU57
ARM GAS  D:\noval\Temp\cck0Iw0b.s 			page 8


 255 0024 0368     		ldr	r3, [r0]
 256              		.loc 1 129 55 is_stmt 0 view .LVU58
 257 0026 4A88     		ldrh	r2, [r1, #2]
 258              		.loc 1 129 34 view .LVU59
 259 0028 1343     		orrs	r3, r2
 260 002a 0360     		str	r3, [r0]
 130:Drivers/GD32E23x/Source/gd32e23x_timer.c ****         TIMER_CTL0(timer_periph) |= (uint32_t)initpara->counterdirection;
 261              		.loc 1 130 9 is_stmt 1 view .LVU60
 262 002c 0368     		ldr	r3, [r0]
 263              		.loc 1 130 55 is_stmt 0 view .LVU61
 264 002e 8A88     		ldrh	r2, [r1, #4]
 265              		.loc 1 130 34 view .LVU62
 266 0030 1343     		orrs	r3, r2
 267 0032 0360     		str	r3, [r0]
 268              	.L14:
 131:Drivers/GD32E23x/Source/gd32e23x_timer.c ****     }
 132:Drivers/GD32E23x/Source/gd32e23x_timer.c **** 
 133:Drivers/GD32E23x/Source/gd32e23x_timer.c ****     /* configure the autoreload value */
 134:Drivers/GD32E23x/Source/gd32e23x_timer.c ****     TIMER_CAR(timer_periph) = (uint32_t)initpara->period;
 269              		.loc 1 134 5 is_stmt 1 view .LVU63
 270              		.loc 1 134 49 is_stmt 0 view .LVU64
 271 0034 8B68     		ldr	r3, [r1, #8]
 272              		.loc 1 134 29 view .LVU65
 273 0036 C362     		str	r3, [r0, #44]
 135:Drivers/GD32E23x/Source/gd32e23x_timer.c ****     
 136:Drivers/GD32E23x/Source/gd32e23x_timer.c ****     if((TIMER0 == timer_periph) || (TIMER2 == timer_periph) || (TIMER13 == timer_periph)
 274              		.loc 1 136 5 is_stmt 1 view .LVU66
 275              		.loc 1 136 7 is_stmt 0 view .LVU67
 276 0038 42F60043 		movw	r3, #11264
 277 003c C4F20103 		movt	r3, 16385
 278 0040 9842     		cmp	r0, r3
 279 0042 1DD0     		beq	.L15
 280              		.loc 1 136 33 discriminator 1 view .LVU68
 281 0044 40F20043 		movw	r3, #1024
 282 0048 C4F20003 		movt	r3, 16384
 283 004c 9842     		cmp	r0, r3
 284 004e 17D0     		beq	.L15
 285              		.loc 1 136 61 discriminator 2 view .LVU69
 286 0050 42F20003 		movw	r3, #8192
 287 0054 C4F20003 		movt	r3, 16384
 288 0058 9842     		cmp	r0, r3
 289 005a 11D0     		beq	.L15
 137:Drivers/GD32E23x/Source/gd32e23x_timer.c ****         || (TIMER14 == timer_periph) || (TIMER15 == timer_periph) || (TIMER16 == timer_periph)){
 290              		.loc 1 137 9 view .LVU70
 291 005c 44F20003 		movw	r3, #16384
 292 0060 C4F20103 		movt	r3, 16385
 293 0064 9842     		cmp	r0, r3
 294 0066 0BD0     		beq	.L15
 295              		.loc 1 137 38 discriminator 1 view .LVU71
 296 0068 44F20043 		movw	r3, #17408
 297 006c C4F20103 		movt	r3, 16385
 298 0070 9842     		cmp	r0, r3
 299 0072 05D0     		beq	.L15
 300              		.loc 1 137 67 discriminator 2 view .LVU72
 301 0074 44F60003 		movw	r3, #18432
 302 0078 C4F20103 		movt	r3, 16385
 303 007c 9842     		cmp	r0, r3
ARM GAS  D:\noval\Temp\cck0Iw0b.s 			page 9


 304 007e 07D1     		bne	.L16
 305              	.L15:
 138:Drivers/GD32E23x/Source/gd32e23x_timer.c ****         /* reset the CKDIV bit */
 139:Drivers/GD32E23x/Source/gd32e23x_timer.c ****         TIMER_CTL0(timer_periph) &= ~(uint32_t)TIMER_CTL0_CKDIV;
 306              		.loc 1 139 9 is_stmt 1 view .LVU73
 307 0080 0368     		ldr	r3, [r0]
 308              		.loc 1 139 34 is_stmt 0 view .LVU74
 309 0082 134A     		ldr	r2, .L19
 310 0084 1340     		ands	r3, r2
 311 0086 0360     		str	r3, [r0]
 140:Drivers/GD32E23x/Source/gd32e23x_timer.c ****         TIMER_CTL0(timer_periph) |= (uint32_t)initpara->clockdivision;
 312              		.loc 1 140 9 is_stmt 1 view .LVU75
 313 0088 0368     		ldr	r3, [r0]
 314              		.loc 1 140 55 is_stmt 0 view .LVU76
 315 008a CA88     		ldrh	r2, [r1, #6]
 316              		.loc 1 140 34 view .LVU77
 317 008c 1343     		orrs	r3, r2
 318 008e 0360     		str	r3, [r0]
 319              	.L16:
 141:Drivers/GD32E23x/Source/gd32e23x_timer.c ****     }
 142:Drivers/GD32E23x/Source/gd32e23x_timer.c **** 
 143:Drivers/GD32E23x/Source/gd32e23x_timer.c ****     if((TIMER0 == timer_periph) || (TIMER14 == timer_periph) || (TIMER15 == timer_periph) || (TIMER
 320              		.loc 1 143 5 is_stmt 1 view .LVU78
 321              		.loc 1 143 7 is_stmt 0 view .LVU79
 322 0090 42F60043 		movw	r3, #11264
 323 0094 C4F20103 		movt	r3, 16385
 324 0098 9842     		cmp	r0, r3
 325 009a 11D0     		beq	.L17
 326              		.loc 1 143 33 discriminator 1 view .LVU80
 327 009c 44F20003 		movw	r3, #16384
 328 00a0 C4F20103 		movt	r3, 16385
 329 00a4 9842     		cmp	r0, r3
 330 00a6 0BD0     		beq	.L17
 331              		.loc 1 143 62 discriminator 2 view .LVU81
 332 00a8 44F20043 		movw	r3, #17408
 333 00ac C4F20103 		movt	r3, 16385
 334 00b0 9842     		cmp	r0, r3
 335 00b2 05D0     		beq	.L17
 336              		.loc 1 143 91 discriminator 3 view .LVU82
 337 00b4 44F60003 		movw	r3, #18432
 338 00b8 C4F20103 		movt	r3, 16385
 339 00bc 9842     		cmp	r0, r3
 340 00be 01D1     		bne	.L18
 341              	.L17:
 144:Drivers/GD32E23x/Source/gd32e23x_timer.c ****         /* configure the repetition counter value */
 145:Drivers/GD32E23x/Source/gd32e23x_timer.c ****         TIMER_CREP(timer_periph) = (uint32_t)initpara->repetitioncounter;
 342              		.loc 1 145 9 is_stmt 1 view .LVU83
 343              		.loc 1 145 54 is_stmt 0 view .LVU84
 344 00c0 0B7B     		ldrb	r3, [r1, #12]
 345              		.loc 1 145 34 view .LVU85
 346 00c2 0363     		str	r3, [r0, #48]
 347              	.L18:
 146:Drivers/GD32E23x/Source/gd32e23x_timer.c ****     }
 147:Drivers/GD32E23x/Source/gd32e23x_timer.c **** 
 148:Drivers/GD32E23x/Source/gd32e23x_timer.c ****     /* generate an update event */
 149:Drivers/GD32E23x/Source/gd32e23x_timer.c ****     TIMER_SWEVG(timer_periph) |= (uint32_t)TIMER_SWEVG_UPG;
 348              		.loc 1 149 5 is_stmt 1 view .LVU86
ARM GAS  D:\noval\Temp\cck0Iw0b.s 			page 10


 349 00c4 4369     		ldr	r3, [r0, #20]
 350              		.loc 1 149 31 is_stmt 0 view .LVU87
 351 00c6 0122     		movs	r2, #1
 352 00c8 1343     		orrs	r3, r2
 353 00ca 4361     		str	r3, [r0, #20]
 150:Drivers/GD32E23x/Source/gd32e23x_timer.c **** }
 354              		.loc 1 150 1 view .LVU88
 355              		@ sp needed
 356 00cc 7047     		bx	lr
 357              	.L20:
 358 00ce C046     		.align	2
 359              	.L19:
 360 00d0 FFFCFFFF 		.word	-769
 361              		.cfi_endproc
 362              	.LFE62:
 364              		.section	.text.timer_enable,"ax",%progbits
 365              		.align	1
 366              		.global	timer_enable
 367              		.syntax unified
 368              		.code	16
 369              		.thumb_func
 371              	timer_enable:
 372              	.LVL30:
 373              	.LFB63:
 151:Drivers/GD32E23x/Source/gd32e23x_timer.c **** 
 152:Drivers/GD32E23x/Source/gd32e23x_timer.c **** /*!
 153:Drivers/GD32E23x/Source/gd32e23x_timer.c ****     \brief      enable a TIMER
 154:Drivers/GD32E23x/Source/gd32e23x_timer.c ****     \param[in]  timer_periph: TIMERx(x=0,2,5,13..16)
 155:Drivers/GD32E23x/Source/gd32e23x_timer.c ****     \param[out] none
 156:Drivers/GD32E23x/Source/gd32e23x_timer.c ****     \retval     none
 157:Drivers/GD32E23x/Source/gd32e23x_timer.c **** */
 158:Drivers/GD32E23x/Source/gd32e23x_timer.c **** void timer_enable(uint32_t timer_periph)
 159:Drivers/GD32E23x/Source/gd32e23x_timer.c **** {
 374              		.loc 1 159 1 is_stmt 1 view -0
 375              		.cfi_startproc
 376              		@ args = 0, pretend = 0, frame = 0
 377              		@ frame_needed = 0, uses_anonymous_args = 0
 378              		@ link register save eliminated.
 160:Drivers/GD32E23x/Source/gd32e23x_timer.c ****     TIMER_CTL0(timer_periph) |= (uint32_t)TIMER_CTL0_CEN;
 379              		.loc 1 160 5 view .LVU90
 380 0000 0368     		ldr	r3, [r0]
 381              		.loc 1 160 30 is_stmt 0 view .LVU91
 382 0002 0122     		movs	r2, #1
 383 0004 1343     		orrs	r3, r2
 384 0006 0360     		str	r3, [r0]
 161:Drivers/GD32E23x/Source/gd32e23x_timer.c **** }
 385              		.loc 1 161 1 view .LVU92
 386              		@ sp needed
 387 0008 7047     		bx	lr
 388              		.cfi_endproc
 389              	.LFE63:
 391              		.section	.text.timer_disable,"ax",%progbits
 392              		.align	1
 393              		.global	timer_disable
 394              		.syntax unified
 395              		.code	16
 396              		.thumb_func
ARM GAS  D:\noval\Temp\cck0Iw0b.s 			page 11


 398              	timer_disable:
 399              	.LVL31:
 400              	.LFB64:
 162:Drivers/GD32E23x/Source/gd32e23x_timer.c **** 
 163:Drivers/GD32E23x/Source/gd32e23x_timer.c **** /*!
 164:Drivers/GD32E23x/Source/gd32e23x_timer.c ****     \brief      disable a TIMER
 165:Drivers/GD32E23x/Source/gd32e23x_timer.c ****     \param[in]  timer_periph: TIMERx(x=0,2,5,13..16)
 166:Drivers/GD32E23x/Source/gd32e23x_timer.c ****     \param[out] none
 167:Drivers/GD32E23x/Source/gd32e23x_timer.c ****     \retval     none
 168:Drivers/GD32E23x/Source/gd32e23x_timer.c **** */
 169:Drivers/GD32E23x/Source/gd32e23x_timer.c **** void timer_disable(uint32_t timer_periph)
 170:Drivers/GD32E23x/Source/gd32e23x_timer.c **** {
 401              		.loc 1 170 1 is_stmt 1 view -0
 402              		.cfi_startproc
 403              		@ args = 0, pretend = 0, frame = 0
 404              		@ frame_needed = 0, uses_anonymous_args = 0
 405              		@ link register save eliminated.
 171:Drivers/GD32E23x/Source/gd32e23x_timer.c ****     TIMER_CTL0(timer_periph) &= ~(uint32_t)TIMER_CTL0_CEN;
 406              		.loc 1 171 5 view .LVU94
 407 0000 0368     		ldr	r3, [r0]
 408              		.loc 1 171 30 is_stmt 0 view .LVU95
 409 0002 0122     		movs	r2, #1
 410 0004 9343     		bics	r3, r2
 411 0006 0360     		str	r3, [r0]
 172:Drivers/GD32E23x/Source/gd32e23x_timer.c **** }
 412              		.loc 1 172 1 view .LVU96
 413              		@ sp needed
 414 0008 7047     		bx	lr
 415              		.cfi_endproc
 416              	.LFE64:
 418              		.section	.text.timer_auto_reload_shadow_enable,"ax",%progbits
 419              		.align	1
 420              		.global	timer_auto_reload_shadow_enable
 421              		.syntax unified
 422              		.code	16
 423              		.thumb_func
 425              	timer_auto_reload_shadow_enable:
 426              	.LVL32:
 427              	.LFB65:
 173:Drivers/GD32E23x/Source/gd32e23x_timer.c **** 
 174:Drivers/GD32E23x/Source/gd32e23x_timer.c **** /*!
 175:Drivers/GD32E23x/Source/gd32e23x_timer.c ****     \brief      enable the auto reload shadow function
 176:Drivers/GD32E23x/Source/gd32e23x_timer.c ****     \param[in]  timer_periph: TIMERx(x=0,2,5,13..16)
 177:Drivers/GD32E23x/Source/gd32e23x_timer.c ****     \param[out] none
 178:Drivers/GD32E23x/Source/gd32e23x_timer.c ****     \retval     none
 179:Drivers/GD32E23x/Source/gd32e23x_timer.c **** */
 180:Drivers/GD32E23x/Source/gd32e23x_timer.c **** void timer_auto_reload_shadow_enable(uint32_t timer_periph)
 181:Drivers/GD32E23x/Source/gd32e23x_timer.c **** {
 428              		.loc 1 181 1 is_stmt 1 view -0
 429              		.cfi_startproc
 430              		@ args = 0, pretend = 0, frame = 0
 431              		@ frame_needed = 0, uses_anonymous_args = 0
 432              		@ link register save eliminated.
 182:Drivers/GD32E23x/Source/gd32e23x_timer.c ****     TIMER_CTL0(timer_periph) |= (uint32_t)TIMER_CTL0_ARSE;
 433              		.loc 1 182 5 view .LVU98
 434 0000 0368     		ldr	r3, [r0]
 435              		.loc 1 182 30 is_stmt 0 view .LVU99
ARM GAS  D:\noval\Temp\cck0Iw0b.s 			page 12


 436 0002 8022     		movs	r2, #128
 437 0004 1343     		orrs	r3, r2
 438 0006 0360     		str	r3, [r0]
 183:Drivers/GD32E23x/Source/gd32e23x_timer.c **** }
 439              		.loc 1 183 1 view .LVU100
 440              		@ sp needed
 441 0008 7047     		bx	lr
 442              		.cfi_endproc
 443              	.LFE65:
 445              		.section	.text.timer_auto_reload_shadow_disable,"ax",%progbits
 446              		.align	1
 447              		.global	timer_auto_reload_shadow_disable
 448              		.syntax unified
 449              		.code	16
 450              		.thumb_func
 452              	timer_auto_reload_shadow_disable:
 453              	.LVL33:
 454              	.LFB66:
 184:Drivers/GD32E23x/Source/gd32e23x_timer.c **** 
 185:Drivers/GD32E23x/Source/gd32e23x_timer.c **** /*!
 186:Drivers/GD32E23x/Source/gd32e23x_timer.c ****     \brief      disable the auto reload shadow function
 187:Drivers/GD32E23x/Source/gd32e23x_timer.c ****     \param[in]  timer_periph: TIMERx(x=0,2,5,13..16)
 188:Drivers/GD32E23x/Source/gd32e23x_timer.c ****     \param[out] none
 189:Drivers/GD32E23x/Source/gd32e23x_timer.c ****     \retval     none
 190:Drivers/GD32E23x/Source/gd32e23x_timer.c **** */
 191:Drivers/GD32E23x/Source/gd32e23x_timer.c **** void timer_auto_reload_shadow_disable(uint32_t timer_periph)
 192:Drivers/GD32E23x/Source/gd32e23x_timer.c **** {
 455              		.loc 1 192 1 is_stmt 1 view -0
 456              		.cfi_startproc
 457              		@ args = 0, pretend = 0, frame = 0
 458              		@ frame_needed = 0, uses_anonymous_args = 0
 459              		@ link register save eliminated.
 193:Drivers/GD32E23x/Source/gd32e23x_timer.c ****     TIMER_CTL0(timer_periph) &= ~(uint32_t)TIMER_CTL0_ARSE;
 460              		.loc 1 193 5 view .LVU102
 461 0000 0368     		ldr	r3, [r0]
 462              		.loc 1 193 30 is_stmt 0 view .LVU103
 463 0002 8022     		movs	r2, #128
 464 0004 9343     		bics	r3, r2
 465 0006 0360     		str	r3, [r0]
 194:Drivers/GD32E23x/Source/gd32e23x_timer.c **** }
 466              		.loc 1 194 1 view .LVU104
 467              		@ sp needed
 468 0008 7047     		bx	lr
 469              		.cfi_endproc
 470              	.LFE66:
 472              		.section	.text.timer_update_event_enable,"ax",%progbits
 473              		.align	1
 474              		.global	timer_update_event_enable
 475              		.syntax unified
 476              		.code	16
 477              		.thumb_func
 479              	timer_update_event_enable:
 480              	.LVL34:
 481              	.LFB67:
 195:Drivers/GD32E23x/Source/gd32e23x_timer.c **** 
 196:Drivers/GD32E23x/Source/gd32e23x_timer.c **** /*!
 197:Drivers/GD32E23x/Source/gd32e23x_timer.c ****     \brief      enable the update event
ARM GAS  D:\noval\Temp\cck0Iw0b.s 			page 13


 198:Drivers/GD32E23x/Source/gd32e23x_timer.c ****     \param[in]  timer_periph: TIMERx(x=0,2,5,13..16)
 199:Drivers/GD32E23x/Source/gd32e23x_timer.c ****     \param[out] none
 200:Drivers/GD32E23x/Source/gd32e23x_timer.c ****     \retval     none
 201:Drivers/GD32E23x/Source/gd32e23x_timer.c **** */
 202:Drivers/GD32E23x/Source/gd32e23x_timer.c **** void timer_update_event_enable(uint32_t timer_periph)
 203:Drivers/GD32E23x/Source/gd32e23x_timer.c **** {
 482              		.loc 1 203 1 is_stmt 1 view -0
 483              		.cfi_startproc
 484              		@ args = 0, pretend = 0, frame = 0
 485              		@ frame_needed = 0, uses_anonymous_args = 0
 486              		@ link register save eliminated.
 204:Drivers/GD32E23x/Source/gd32e23x_timer.c ****     TIMER_CTL0(timer_periph) &= ~(uint32_t)TIMER_CTL0_UPDIS;
 487              		.loc 1 204 5 view .LVU106
 488 0000 0368     		ldr	r3, [r0]
 489              		.loc 1 204 30 is_stmt 0 view .LVU107
 490 0002 0222     		movs	r2, #2
 491 0004 9343     		bics	r3, r2
 492 0006 0360     		str	r3, [r0]
 205:Drivers/GD32E23x/Source/gd32e23x_timer.c **** }
 493              		.loc 1 205 1 view .LVU108
 494              		@ sp needed
 495 0008 7047     		bx	lr
 496              		.cfi_endproc
 497              	.LFE67:
 499              		.section	.text.timer_update_event_disable,"ax",%progbits
 500              		.align	1
 501              		.global	timer_update_event_disable
 502              		.syntax unified
 503              		.code	16
 504              		.thumb_func
 506              	timer_update_event_disable:
 507              	.LVL35:
 508              	.LFB68:
 206:Drivers/GD32E23x/Source/gd32e23x_timer.c **** 
 207:Drivers/GD32E23x/Source/gd32e23x_timer.c **** /*!
 208:Drivers/GD32E23x/Source/gd32e23x_timer.c ****     \brief      disable the update event
 209:Drivers/GD32E23x/Source/gd32e23x_timer.c ****     \param[in]  timer_periph: TIMERx(x=0,2,5,13..16)
 210:Drivers/GD32E23x/Source/gd32e23x_timer.c ****     \param[out] none
 211:Drivers/GD32E23x/Source/gd32e23x_timer.c ****     \retval     none
 212:Drivers/GD32E23x/Source/gd32e23x_timer.c **** */
 213:Drivers/GD32E23x/Source/gd32e23x_timer.c **** void timer_update_event_disable(uint32_t timer_periph)
 214:Drivers/GD32E23x/Source/gd32e23x_timer.c **** {
 509              		.loc 1 214 1 is_stmt 1 view -0
 510              		.cfi_startproc
 511              		@ args = 0, pretend = 0, frame = 0
 512              		@ frame_needed = 0, uses_anonymous_args = 0
 513              		@ link register save eliminated.
 215:Drivers/GD32E23x/Source/gd32e23x_timer.c ****     TIMER_CTL0(timer_periph) |= (uint32_t) TIMER_CTL0_UPDIS;
 514              		.loc 1 215 5 view .LVU110
 515 0000 0368     		ldr	r3, [r0]
 516              		.loc 1 215 30 is_stmt 0 view .LVU111
 517 0002 0222     		movs	r2, #2
 518 0004 1343     		orrs	r3, r2
 519 0006 0360     		str	r3, [r0]
 216:Drivers/GD32E23x/Source/gd32e23x_timer.c **** }
 520              		.loc 1 216 1 view .LVU112
 521              		@ sp needed
ARM GAS  D:\noval\Temp\cck0Iw0b.s 			page 14


 522 0008 7047     		bx	lr
 523              		.cfi_endproc
 524              	.LFE68:
 526              		.section	.text.timer_counter_alignment,"ax",%progbits
 527              		.align	1
 528              		.global	timer_counter_alignment
 529              		.syntax unified
 530              		.code	16
 531              		.thumb_func
 533              	timer_counter_alignment:
 534              	.LVL36:
 535              	.LFB69:
 217:Drivers/GD32E23x/Source/gd32e23x_timer.c **** 
 218:Drivers/GD32E23x/Source/gd32e23x_timer.c **** /*!
 219:Drivers/GD32E23x/Source/gd32e23x_timer.c ****     \brief      set TIMER counter alignment mode
 220:Drivers/GD32E23x/Source/gd32e23x_timer.c ****     \param[in]  timer_periph: TIMERx(x=0,2)
 221:Drivers/GD32E23x/Source/gd32e23x_timer.c ****     \param[in]  aligned:
 222:Drivers/GD32E23x/Source/gd32e23x_timer.c ****                 only one parameter can be selected which is shown as below:
 223:Drivers/GD32E23x/Source/gd32e23x_timer.c ****       \arg        TIMER_COUNTER_EDGE: edge-aligned mode
 224:Drivers/GD32E23x/Source/gd32e23x_timer.c ****       \arg        TIMER_COUNTER_CENTER_DOWN: center-aligned and counting down assert mode
 225:Drivers/GD32E23x/Source/gd32e23x_timer.c ****       \arg        TIMER_COUNTER_CENTER_UP: center-aligned and counting up assert mode
 226:Drivers/GD32E23x/Source/gd32e23x_timer.c ****       \arg        TIMER_COUNTER_CENTER_BOTH: center-aligned and counting up/down assert mode
 227:Drivers/GD32E23x/Source/gd32e23x_timer.c ****     \param[out] none
 228:Drivers/GD32E23x/Source/gd32e23x_timer.c ****     \retval     none
 229:Drivers/GD32E23x/Source/gd32e23x_timer.c **** */
 230:Drivers/GD32E23x/Source/gd32e23x_timer.c **** void timer_counter_alignment(uint32_t timer_periph, uint16_t aligned)
 231:Drivers/GD32E23x/Source/gd32e23x_timer.c **** {
 536              		.loc 1 231 1 is_stmt 1 view -0
 537              		.cfi_startproc
 538              		@ args = 0, pretend = 0, frame = 0
 539              		@ frame_needed = 0, uses_anonymous_args = 0
 540              		@ link register save eliminated.
 232:Drivers/GD32E23x/Source/gd32e23x_timer.c ****     TIMER_CTL0(timer_periph) &= ~(uint32_t)TIMER_CTL0_CAM;
 541              		.loc 1 232 5 view .LVU114
 542 0000 0368     		ldr	r3, [r0]
 543              		.loc 1 232 30 is_stmt 0 view .LVU115
 544 0002 6022     		movs	r2, #96
 545 0004 9343     		bics	r3, r2
 546 0006 0360     		str	r3, [r0]
 233:Drivers/GD32E23x/Source/gd32e23x_timer.c ****     TIMER_CTL0(timer_periph) |= (uint32_t)aligned;
 547              		.loc 1 233 5 is_stmt 1 view .LVU116
 548 0008 0368     		ldr	r3, [r0]
 549              		.loc 1 233 30 is_stmt 0 view .LVU117
 550 000a 0B43     		orrs	r3, r1
 551 000c 0360     		str	r3, [r0]
 234:Drivers/GD32E23x/Source/gd32e23x_timer.c **** }
 552              		.loc 1 234 1 view .LVU118
 553              		@ sp needed
 554 000e 7047     		bx	lr
 555              		.cfi_endproc
 556              	.LFE69:
 558              		.section	.text.timer_counter_up_direction,"ax",%progbits
 559              		.align	1
 560              		.global	timer_counter_up_direction
 561              		.syntax unified
 562              		.code	16
 563              		.thumb_func
ARM GAS  D:\noval\Temp\cck0Iw0b.s 			page 15


 565              	timer_counter_up_direction:
 566              	.LVL37:
 567              	.LFB70:
 235:Drivers/GD32E23x/Source/gd32e23x_timer.c **** 
 236:Drivers/GD32E23x/Source/gd32e23x_timer.c **** /*!
 237:Drivers/GD32E23x/Source/gd32e23x_timer.c ****     \brief      set TIMER counter up direction
 238:Drivers/GD32E23x/Source/gd32e23x_timer.c ****     \param[in]  timer_periph: TIMERx(x=0,2)
 239:Drivers/GD32E23x/Source/gd32e23x_timer.c ****     \param[out] none
 240:Drivers/GD32E23x/Source/gd32e23x_timer.c ****     \retval     none
 241:Drivers/GD32E23x/Source/gd32e23x_timer.c **** */
 242:Drivers/GD32E23x/Source/gd32e23x_timer.c **** void timer_counter_up_direction(uint32_t timer_periph)
 243:Drivers/GD32E23x/Source/gd32e23x_timer.c **** {
 568              		.loc 1 243 1 is_stmt 1 view -0
 569              		.cfi_startproc
 570              		@ args = 0, pretend = 0, frame = 0
 571              		@ frame_needed = 0, uses_anonymous_args = 0
 572              		@ link register save eliminated.
 244:Drivers/GD32E23x/Source/gd32e23x_timer.c ****     TIMER_CTL0(timer_periph) &= ~(uint32_t)TIMER_CTL0_DIR;
 573              		.loc 1 244 5 view .LVU120
 574 0000 0368     		ldr	r3, [r0]
 575              		.loc 1 244 30 is_stmt 0 view .LVU121
 576 0002 1022     		movs	r2, #16
 577 0004 9343     		bics	r3, r2
 578 0006 0360     		str	r3, [r0]
 245:Drivers/GD32E23x/Source/gd32e23x_timer.c **** }
 579              		.loc 1 245 1 view .LVU122
 580              		@ sp needed
 581 0008 7047     		bx	lr
 582              		.cfi_endproc
 583              	.LFE70:
 585              		.section	.text.timer_counter_down_direction,"ax",%progbits
 586              		.align	1
 587              		.global	timer_counter_down_direction
 588              		.syntax unified
 589              		.code	16
 590              		.thumb_func
 592              	timer_counter_down_direction:
 593              	.LVL38:
 594              	.LFB71:
 246:Drivers/GD32E23x/Source/gd32e23x_timer.c **** 
 247:Drivers/GD32E23x/Source/gd32e23x_timer.c **** /*!
 248:Drivers/GD32E23x/Source/gd32e23x_timer.c ****     \brief      set TIMER counter down direction
 249:Drivers/GD32E23x/Source/gd32e23x_timer.c ****     \param[in]  timer_periph: TIMERx(x=0,2)
 250:Drivers/GD32E23x/Source/gd32e23x_timer.c ****     \param[out] none
 251:Drivers/GD32E23x/Source/gd32e23x_timer.c ****     \retval     none
 252:Drivers/GD32E23x/Source/gd32e23x_timer.c **** */
 253:Drivers/GD32E23x/Source/gd32e23x_timer.c **** void timer_counter_down_direction(uint32_t timer_periph)
 254:Drivers/GD32E23x/Source/gd32e23x_timer.c **** {
 595              		.loc 1 254 1 is_stmt 1 view -0
 596              		.cfi_startproc
 597              		@ args = 0, pretend = 0, frame = 0
 598              		@ frame_needed = 0, uses_anonymous_args = 0
 599              		@ link register save eliminated.
 255:Drivers/GD32E23x/Source/gd32e23x_timer.c ****     TIMER_CTL0(timer_periph) |= (uint32_t)TIMER_CTL0_DIR;
 600              		.loc 1 255 5 view .LVU124
 601 0000 0368     		ldr	r3, [r0]
 602              		.loc 1 255 30 is_stmt 0 view .LVU125
ARM GAS  D:\noval\Temp\cck0Iw0b.s 			page 16


 603 0002 1022     		movs	r2, #16
 604 0004 1343     		orrs	r3, r2
 605 0006 0360     		str	r3, [r0]
 256:Drivers/GD32E23x/Source/gd32e23x_timer.c **** }
 606              		.loc 1 256 1 view .LVU126
 607              		@ sp needed
 608 0008 7047     		bx	lr
 609              		.cfi_endproc
 610              	.LFE71:
 612              		.section	.text.timer_prescaler_config,"ax",%progbits
 613              		.align	1
 614              		.global	timer_prescaler_config
 615              		.syntax unified
 616              		.code	16
 617              		.thumb_func
 619              	timer_prescaler_config:
 620              	.LVL39:
 621              	.LFB72:
 257:Drivers/GD32E23x/Source/gd32e23x_timer.c **** 
 258:Drivers/GD32E23x/Source/gd32e23x_timer.c **** /*!
 259:Drivers/GD32E23x/Source/gd32e23x_timer.c ****     \brief      configure TIMER prescaler
 260:Drivers/GD32E23x/Source/gd32e23x_timer.c ****     \param[in]  timer_periph: TIMERx(x=0,2,5,13..16)
 261:Drivers/GD32E23x/Source/gd32e23x_timer.c ****     \param[in]  prescaler: prescaler value,0~65535
 262:Drivers/GD32E23x/Source/gd32e23x_timer.c ****     \param[in]  pscreload: prescaler reload mode
 263:Drivers/GD32E23x/Source/gd32e23x_timer.c ****                 only one parameter can be selected which is shown as below:
 264:Drivers/GD32E23x/Source/gd32e23x_timer.c ****       \arg        TIMER_PSC_RELOAD_NOW: the prescaler is loaded right now
 265:Drivers/GD32E23x/Source/gd32e23x_timer.c ****       \arg        TIMER_PSC_RELOAD_UPDATE: the prescaler is loaded at the next update event
 266:Drivers/GD32E23x/Source/gd32e23x_timer.c ****     \param[out] none
 267:Drivers/GD32E23x/Source/gd32e23x_timer.c ****     \retval     none
 268:Drivers/GD32E23x/Source/gd32e23x_timer.c **** */
 269:Drivers/GD32E23x/Source/gd32e23x_timer.c **** void timer_prescaler_config(uint32_t timer_periph, uint16_t prescaler, uint8_t pscreload)
 270:Drivers/GD32E23x/Source/gd32e23x_timer.c **** {
 622              		.loc 1 270 1 is_stmt 1 view -0
 623              		.cfi_startproc
 624              		@ args = 0, pretend = 0, frame = 0
 625              		@ frame_needed = 0, uses_anonymous_args = 0
 626              		@ link register save eliminated.
 271:Drivers/GD32E23x/Source/gd32e23x_timer.c ****     TIMER_PSC(timer_periph) = (uint32_t)prescaler;
 627              		.loc 1 271 5 view .LVU128
 628              		.loc 1 271 29 is_stmt 0 view .LVU129
 629 0000 8162     		str	r1, [r0, #40]
 272:Drivers/GD32E23x/Source/gd32e23x_timer.c ****     
 273:Drivers/GD32E23x/Source/gd32e23x_timer.c ****     if(TIMER_PSC_RELOAD_NOW == pscreload){
 630              		.loc 1 273 5 is_stmt 1 view .LVU130
 631              		.loc 1 273 7 is_stmt 0 view .LVU131
 632 0002 012A     		cmp	r2, #1
 633 0004 00D0     		beq	.L32
 634              	.L30:
 274:Drivers/GD32E23x/Source/gd32e23x_timer.c ****         TIMER_SWEVG(timer_periph) |= (uint32_t)TIMER_SWEVG_UPG;
 275:Drivers/GD32E23x/Source/gd32e23x_timer.c ****     }
 276:Drivers/GD32E23x/Source/gd32e23x_timer.c **** }
 635              		.loc 1 276 1 view .LVU132
 636              		@ sp needed
 637 0006 7047     		bx	lr
 638              	.L32:
 274:Drivers/GD32E23x/Source/gd32e23x_timer.c ****         TIMER_SWEVG(timer_periph) |= (uint32_t)TIMER_SWEVG_UPG;
 639              		.loc 1 274 9 is_stmt 1 view .LVU133
ARM GAS  D:\noval\Temp\cck0Iw0b.s 			page 17


 640 0008 4369     		ldr	r3, [r0, #20]
 274:Drivers/GD32E23x/Source/gd32e23x_timer.c ****         TIMER_SWEVG(timer_periph) |= (uint32_t)TIMER_SWEVG_UPG;
 641              		.loc 1 274 35 is_stmt 0 view .LVU134
 642 000a 1343     		orrs	r3, r2
 643 000c 4361     		str	r3, [r0, #20]
 644              		.loc 1 276 1 view .LVU135
 645 000e FAE7     		b	.L30
 646              		.cfi_endproc
 647              	.LFE72:
 649              		.section	.text.timer_repetition_value_config,"ax",%progbits
 650              		.align	1
 651              		.global	timer_repetition_value_config
 652              		.syntax unified
 653              		.code	16
 654              		.thumb_func
 656              	timer_repetition_value_config:
 657              	.LVL40:
 658              	.LFB73:
 277:Drivers/GD32E23x/Source/gd32e23x_timer.c **** 
 278:Drivers/GD32E23x/Source/gd32e23x_timer.c **** /*!
 279:Drivers/GD32E23x/Source/gd32e23x_timer.c ****     \brief      configure TIMER repetition register value
 280:Drivers/GD32E23x/Source/gd32e23x_timer.c ****     \param[in]  timer_periph: TIMERx(x=0,15,16)
 281:Drivers/GD32E23x/Source/gd32e23x_timer.c ****     \param[in]  repetition: the counter repetition value,0~255
 282:Drivers/GD32E23x/Source/gd32e23x_timer.c ****     \param[out] none
 283:Drivers/GD32E23x/Source/gd32e23x_timer.c ****     \retval     none
 284:Drivers/GD32E23x/Source/gd32e23x_timer.c **** */
 285:Drivers/GD32E23x/Source/gd32e23x_timer.c **** void timer_repetition_value_config(uint32_t timer_periph, uint16_t repetition)
 286:Drivers/GD32E23x/Source/gd32e23x_timer.c **** {
 659              		.loc 1 286 1 is_stmt 1 view -0
 660              		.cfi_startproc
 661              		@ args = 0, pretend = 0, frame = 0
 662              		@ frame_needed = 0, uses_anonymous_args = 0
 663              		@ link register save eliminated.
 287:Drivers/GD32E23x/Source/gd32e23x_timer.c ****     TIMER_CREP(timer_periph) = (uint32_t)repetition;
 664              		.loc 1 287 5 view .LVU137
 665              		.loc 1 287 30 is_stmt 0 view .LVU138
 666 0000 0163     		str	r1, [r0, #48]
 288:Drivers/GD32E23x/Source/gd32e23x_timer.c **** } 
 667              		.loc 1 288 1 view .LVU139
 668              		@ sp needed
 669 0002 7047     		bx	lr
 670              		.cfi_endproc
 671              	.LFE73:
 673              		.section	.text.timer_autoreload_value_config,"ax",%progbits
 674              		.align	1
 675              		.global	timer_autoreload_value_config
 676              		.syntax unified
 677              		.code	16
 678              		.thumb_func
 680              	timer_autoreload_value_config:
 681              	.LVL41:
 682              	.LFB74:
 289:Drivers/GD32E23x/Source/gd32e23x_timer.c ****  
 290:Drivers/GD32E23x/Source/gd32e23x_timer.c **** /*!
 291:Drivers/GD32E23x/Source/gd32e23x_timer.c ****     \brief      configure TIMER autoreload register value
 292:Drivers/GD32E23x/Source/gd32e23x_timer.c ****     \param[in]  timer_periph: TIMERx(x=0,2,5,13..16)
 293:Drivers/GD32E23x/Source/gd32e23x_timer.c ****     \param[in]  autoreload: the counter auto-reload value,0~65535
ARM GAS  D:\noval\Temp\cck0Iw0b.s 			page 18


 294:Drivers/GD32E23x/Source/gd32e23x_timer.c ****     \param[out] none
 295:Drivers/GD32E23x/Source/gd32e23x_timer.c ****     \retval     none
 296:Drivers/GD32E23x/Source/gd32e23x_timer.c **** */         
 297:Drivers/GD32E23x/Source/gd32e23x_timer.c **** void timer_autoreload_value_config(uint32_t timer_periph, uint16_t autoreload)
 298:Drivers/GD32E23x/Source/gd32e23x_timer.c **** {
 683              		.loc 1 298 1 is_stmt 1 view -0
 684              		.cfi_startproc
 685              		@ args = 0, pretend = 0, frame = 0
 686              		@ frame_needed = 0, uses_anonymous_args = 0
 687              		@ link register save eliminated.
 299:Drivers/GD32E23x/Source/gd32e23x_timer.c ****     TIMER_CAR(timer_periph) = (uint32_t)autoreload;
 688              		.loc 1 299 5 view .LVU141
 689              		.loc 1 299 29 is_stmt 0 view .LVU142
 690 0000 C162     		str	r1, [r0, #44]
 300:Drivers/GD32E23x/Source/gd32e23x_timer.c **** }
 691              		.loc 1 300 1 view .LVU143
 692              		@ sp needed
 693 0002 7047     		bx	lr
 694              		.cfi_endproc
 695              	.LFE74:
 697              		.section	.text.timer_counter_value_config,"ax",%progbits
 698              		.align	1
 699              		.global	timer_counter_value_config
 700              		.syntax unified
 701              		.code	16
 702              		.thumb_func
 704              	timer_counter_value_config:
 705              	.LVL42:
 706              	.LFB75:
 301:Drivers/GD32E23x/Source/gd32e23x_timer.c **** 
 302:Drivers/GD32E23x/Source/gd32e23x_timer.c **** /*!
 303:Drivers/GD32E23x/Source/gd32e23x_timer.c ****     \brief      configure TIMER counter register value
 304:Drivers/GD32E23x/Source/gd32e23x_timer.c ****     \param[in]  timer_periph: TIMERx(x=0,2,5,13..16)
 305:Drivers/GD32E23x/Source/gd32e23x_timer.c ****     \param[in]  counter: the counter value,0~65535
 306:Drivers/GD32E23x/Source/gd32e23x_timer.c ****     \param[out] none
 307:Drivers/GD32E23x/Source/gd32e23x_timer.c ****     \retval     none
 308:Drivers/GD32E23x/Source/gd32e23x_timer.c **** */         
 309:Drivers/GD32E23x/Source/gd32e23x_timer.c **** void timer_counter_value_config(uint32_t timer_periph, uint16_t counter)
 310:Drivers/GD32E23x/Source/gd32e23x_timer.c **** {
 707              		.loc 1 310 1 is_stmt 1 view -0
 708              		.cfi_startproc
 709              		@ args = 0, pretend = 0, frame = 0
 710              		@ frame_needed = 0, uses_anonymous_args = 0
 711              		@ link register save eliminated.
 311:Drivers/GD32E23x/Source/gd32e23x_timer.c ****     TIMER_CNT(timer_periph) = (uint32_t)counter;
 712              		.loc 1 311 5 view .LVU145
 713              		.loc 1 311 29 is_stmt 0 view .LVU146
 714 0000 4162     		str	r1, [r0, #36]
 312:Drivers/GD32E23x/Source/gd32e23x_timer.c **** }
 715              		.loc 1 312 1 view .LVU147
 716              		@ sp needed
 717 0002 7047     		bx	lr
 718              		.cfi_endproc
 719              	.LFE75:
 721              		.section	.text.timer_counter_read,"ax",%progbits
 722              		.align	1
 723              		.global	timer_counter_read
ARM GAS  D:\noval\Temp\cck0Iw0b.s 			page 19


 724              		.syntax unified
 725              		.code	16
 726              		.thumb_func
 728              	timer_counter_read:
 729              	.LVL43:
 730              	.LFB76:
 313:Drivers/GD32E23x/Source/gd32e23x_timer.c **** 
 314:Drivers/GD32E23x/Source/gd32e23x_timer.c **** /*!
 315:Drivers/GD32E23x/Source/gd32e23x_timer.c ****     \brief      read TIMER counter value
 316:Drivers/GD32E23x/Source/gd32e23x_timer.c ****     \param[in]  timer_periph: TIMERx(x=0,2,5,13..16)
 317:Drivers/GD32E23x/Source/gd32e23x_timer.c ****     \param[out] none
 318:Drivers/GD32E23x/Source/gd32e23x_timer.c ****     \retval     counter value
 319:Drivers/GD32E23x/Source/gd32e23x_timer.c **** */         
 320:Drivers/GD32E23x/Source/gd32e23x_timer.c **** uint32_t timer_counter_read(uint32_t timer_periph)
 321:Drivers/GD32E23x/Source/gd32e23x_timer.c **** {
 731              		.loc 1 321 1 is_stmt 1 view -0
 732              		.cfi_startproc
 733              		@ args = 0, pretend = 0, frame = 0
 734              		@ frame_needed = 0, uses_anonymous_args = 0
 735              		@ link register save eliminated.
 322:Drivers/GD32E23x/Source/gd32e23x_timer.c ****     uint32_t count_value = 0U;
 736              		.loc 1 322 5 view .LVU149
 323:Drivers/GD32E23x/Source/gd32e23x_timer.c ****     count_value = TIMER_CNT(timer_periph);
 737              		.loc 1 323 5 view .LVU150
 738              		.loc 1 323 17 is_stmt 0 view .LVU151
 739 0000 406A     		ldr	r0, [r0, #36]
 740              	.LVL44:
 324:Drivers/GD32E23x/Source/gd32e23x_timer.c ****     return (count_value);
 741              		.loc 1 324 5 is_stmt 1 view .LVU152
 325:Drivers/GD32E23x/Source/gd32e23x_timer.c **** }
 742              		.loc 1 325 1 is_stmt 0 view .LVU153
 743              		@ sp needed
 744 0002 7047     		bx	lr
 745              		.cfi_endproc
 746              	.LFE76:
 748              		.section	.text.timer_prescaler_read,"ax",%progbits
 749              		.align	1
 750              		.global	timer_prescaler_read
 751              		.syntax unified
 752              		.code	16
 753              		.thumb_func
 755              	timer_prescaler_read:
 756              	.LVL45:
 757              	.LFB77:
 326:Drivers/GD32E23x/Source/gd32e23x_timer.c **** 
 327:Drivers/GD32E23x/Source/gd32e23x_timer.c **** /*!
 328:Drivers/GD32E23x/Source/gd32e23x_timer.c ****     \brief      read TIMER prescaler value
 329:Drivers/GD32E23x/Source/gd32e23x_timer.c ****     \param[in]  timer_periph: TIMERx(x=0,2,5,13..16)
 330:Drivers/GD32E23x/Source/gd32e23x_timer.c ****     \param[out] none
 331:Drivers/GD32E23x/Source/gd32e23x_timer.c ****     \retval     prescaler register value
 332:Drivers/GD32E23x/Source/gd32e23x_timer.c **** */         
 333:Drivers/GD32E23x/Source/gd32e23x_timer.c **** uint16_t timer_prescaler_read(uint32_t timer_periph)
 334:Drivers/GD32E23x/Source/gd32e23x_timer.c **** {
 758              		.loc 1 334 1 is_stmt 1 view -0
 759              		.cfi_startproc
 760              		@ args = 0, pretend = 0, frame = 0
 761              		@ frame_needed = 0, uses_anonymous_args = 0
ARM GAS  D:\noval\Temp\cck0Iw0b.s 			page 20


 762              		@ link register save eliminated.
 335:Drivers/GD32E23x/Source/gd32e23x_timer.c ****     uint16_t prescaler_value = 0U;
 763              		.loc 1 335 5 view .LVU155
 336:Drivers/GD32E23x/Source/gd32e23x_timer.c ****     prescaler_value = (uint16_t)(TIMER_PSC(timer_periph));
 764              		.loc 1 336 5 view .LVU156
 765              		.loc 1 336 34 is_stmt 0 view .LVU157
 766 0000 806A     		ldr	r0, [r0, #40]
 767              	.LVL46:
 768              		.loc 1 336 21 view .LVU158
 769 0002 80B2     		uxth	r0, r0
 770              	.LVL47:
 337:Drivers/GD32E23x/Source/gd32e23x_timer.c ****     return (prescaler_value);
 771              		.loc 1 337 5 is_stmt 1 view .LVU159
 338:Drivers/GD32E23x/Source/gd32e23x_timer.c **** }
 772              		.loc 1 338 1 is_stmt 0 view .LVU160
 773              		@ sp needed
 774 0004 7047     		bx	lr
 775              		.cfi_endproc
 776              	.LFE77:
 778              		.section	.text.timer_single_pulse_mode_config,"ax",%progbits
 779              		.align	1
 780              		.global	timer_single_pulse_mode_config
 781              		.syntax unified
 782              		.code	16
 783              		.thumb_func
 785              	timer_single_pulse_mode_config:
 786              	.LVL48:
 787              	.LFB78:
 339:Drivers/GD32E23x/Source/gd32e23x_timer.c **** 
 340:Drivers/GD32E23x/Source/gd32e23x_timer.c **** /*!
 341:Drivers/GD32E23x/Source/gd32e23x_timer.c ****     \brief      configure TIMER single pulse mode
 342:Drivers/GD32E23x/Source/gd32e23x_timer.c ****     \param[in]  timer_periph: TIMERx(x=0,2,5,14..16)
 343:Drivers/GD32E23x/Source/gd32e23x_timer.c ****     \param[in]  spmode:
 344:Drivers/GD32E23x/Source/gd32e23x_timer.c ****                 only one parameter can be selected which is shown as below:
 345:Drivers/GD32E23x/Source/gd32e23x_timer.c ****       \arg        TIMER_SP_MODE_SINGLE: single pulse mode
 346:Drivers/GD32E23x/Source/gd32e23x_timer.c ****       \arg        TIMER_SP_MODE_REPETITIVE: repetitive pulse mode
 347:Drivers/GD32E23x/Source/gd32e23x_timer.c ****     \param[out] none
 348:Drivers/GD32E23x/Source/gd32e23x_timer.c ****     \retval     none
 349:Drivers/GD32E23x/Source/gd32e23x_timer.c **** */
 350:Drivers/GD32E23x/Source/gd32e23x_timer.c **** void timer_single_pulse_mode_config(uint32_t timer_periph, uint32_t spmode)
 351:Drivers/GD32E23x/Source/gd32e23x_timer.c **** {
 788              		.loc 1 351 1 is_stmt 1 view -0
 789              		.cfi_startproc
 790              		@ args = 0, pretend = 0, frame = 0
 791              		@ frame_needed = 0, uses_anonymous_args = 0
 792              		@ link register save eliminated.
 352:Drivers/GD32E23x/Source/gd32e23x_timer.c ****     if(TIMER_SP_MODE_SINGLE == spmode){
 793              		.loc 1 352 5 view .LVU162
 794              		.loc 1 352 7 is_stmt 0 view .LVU163
 795 0000 0829     		cmp	r1, #8
 796 0002 05D0     		beq	.L41
 353:Drivers/GD32E23x/Source/gd32e23x_timer.c ****         TIMER_CTL0(timer_periph) |= (uint32_t)TIMER_CTL0_SPM;
 354:Drivers/GD32E23x/Source/gd32e23x_timer.c ****     }else if(TIMER_SP_MODE_REPETITIVE == spmode){
 797              		.loc 1 354 11 is_stmt 1 view .LVU164
 798              		.loc 1 354 13 is_stmt 0 view .LVU165
 799 0004 41B9     		cbnz	r1, .L38
 355:Drivers/GD32E23x/Source/gd32e23x_timer.c ****         TIMER_CTL0(timer_periph) &= ~((uint32_t)TIMER_CTL0_SPM);
ARM GAS  D:\noval\Temp\cck0Iw0b.s 			page 21


 800              		.loc 1 355 9 is_stmt 1 view .LVU166
 801 0006 0368     		ldr	r3, [r0]
 802              		.loc 1 355 34 is_stmt 0 view .LVU167
 803 0008 0822     		movs	r2, #8
 804 000a 9343     		bics	r3, r2
 805 000c 0360     		str	r3, [r0]
 356:Drivers/GD32E23x/Source/gd32e23x_timer.c ****     }else{
 357:Drivers/GD32E23x/Source/gd32e23x_timer.c ****         /* illegal parameters */
 358:Drivers/GD32E23x/Source/gd32e23x_timer.c ****     }
 806              		.loc 1 358 5 is_stmt 1 view .LVU168
 359:Drivers/GD32E23x/Source/gd32e23x_timer.c **** }
 807              		.loc 1 359 1 is_stmt 0 view .LVU169
 808 000e 03E0     		b	.L38
 809              	.L41:
 353:Drivers/GD32E23x/Source/gd32e23x_timer.c ****     }else if(TIMER_SP_MODE_REPETITIVE == spmode){
 810              		.loc 1 353 9 is_stmt 1 view .LVU170
 811 0010 0368     		ldr	r3, [r0]
 353:Drivers/GD32E23x/Source/gd32e23x_timer.c ****     }else if(TIMER_SP_MODE_REPETITIVE == spmode){
 812              		.loc 1 353 34 is_stmt 0 view .LVU171
 813 0012 0822     		movs	r2, #8
 814 0014 1343     		orrs	r3, r2
 815 0016 0360     		str	r3, [r0]
 816              	.L38:
 817              		.loc 1 359 1 view .LVU172
 818              		@ sp needed
 819 0018 7047     		bx	lr
 820              		.cfi_endproc
 821              	.LFE78:
 823              		.section	.text.timer_update_source_config,"ax",%progbits
 824              		.align	1
 825              		.global	timer_update_source_config
 826              		.syntax unified
 827              		.code	16
 828              		.thumb_func
 830              	timer_update_source_config:
 831              	.LVL49:
 832              	.LFB79:
 360:Drivers/GD32E23x/Source/gd32e23x_timer.c **** 
 361:Drivers/GD32E23x/Source/gd32e23x_timer.c **** /*!
 362:Drivers/GD32E23x/Source/gd32e23x_timer.c ****     \brief      configure TIMER update source 
 363:Drivers/GD32E23x/Source/gd32e23x_timer.c ****     \param[in]  timer_periph: TIMERx(x=0,2,5,13..16)
 364:Drivers/GD32E23x/Source/gd32e23x_timer.c ****     \param[in]  update:
 365:Drivers/GD32E23x/Source/gd32e23x_timer.c ****                 only one parameter can be selected which is shown as below:
 366:Drivers/GD32E23x/Source/gd32e23x_timer.c ****       \arg        TIMER_UPDATE_SRC_GLOBAL: update generate by setting of UPG bit or the counter ove
 367:Drivers/GD32E23x/Source/gd32e23x_timer.c ****       \arg        TIMER_UPDATE_SRC_REGULAR: update generate only by counter overflow/underflow
 368:Drivers/GD32E23x/Source/gd32e23x_timer.c ****     \param[out] none
 369:Drivers/GD32E23x/Source/gd32e23x_timer.c ****     \retval     none
 370:Drivers/GD32E23x/Source/gd32e23x_timer.c **** */
 371:Drivers/GD32E23x/Source/gd32e23x_timer.c **** void timer_update_source_config(uint32_t timer_periph, uint32_t update)
 372:Drivers/GD32E23x/Source/gd32e23x_timer.c **** {
 833              		.loc 1 372 1 is_stmt 1 view -0
 834              		.cfi_startproc
 835              		@ args = 0, pretend = 0, frame = 0
 836              		@ frame_needed = 0, uses_anonymous_args = 0
 837              		@ link register save eliminated.
 373:Drivers/GD32E23x/Source/gd32e23x_timer.c ****     if(TIMER_UPDATE_SRC_REGULAR == update){
 838              		.loc 1 373 5 view .LVU174
ARM GAS  D:\noval\Temp\cck0Iw0b.s 			page 22


 839              		.loc 1 373 7 is_stmt 0 view .LVU175
 840 0000 0429     		cmp	r1, #4
 841 0002 05D0     		beq	.L45
 374:Drivers/GD32E23x/Source/gd32e23x_timer.c ****         TIMER_CTL0(timer_periph) |= (uint32_t)TIMER_CTL0_UPS;
 375:Drivers/GD32E23x/Source/gd32e23x_timer.c ****     }else if(TIMER_UPDATE_SRC_GLOBAL == update){
 842              		.loc 1 375 11 is_stmt 1 view .LVU176
 843              		.loc 1 375 13 is_stmt 0 view .LVU177
 844 0004 41B9     		cbnz	r1, .L42
 376:Drivers/GD32E23x/Source/gd32e23x_timer.c ****         TIMER_CTL0(timer_periph) &= ~(uint32_t)TIMER_CTL0_UPS;
 845              		.loc 1 376 9 is_stmt 1 view .LVU178
 846 0006 0368     		ldr	r3, [r0]
 847              		.loc 1 376 34 is_stmt 0 view .LVU179
 848 0008 0422     		movs	r2, #4
 849 000a 9343     		bics	r3, r2
 850 000c 0360     		str	r3, [r0]
 377:Drivers/GD32E23x/Source/gd32e23x_timer.c ****     }else{
 378:Drivers/GD32E23x/Source/gd32e23x_timer.c ****         /* illegal parameters */
 379:Drivers/GD32E23x/Source/gd32e23x_timer.c ****     }
 851              		.loc 1 379 5 is_stmt 1 view .LVU180
 380:Drivers/GD32E23x/Source/gd32e23x_timer.c **** }
 852              		.loc 1 380 1 is_stmt 0 view .LVU181
 853 000e 03E0     		b	.L42
 854              	.L45:
 374:Drivers/GD32E23x/Source/gd32e23x_timer.c ****     }else if(TIMER_UPDATE_SRC_GLOBAL == update){
 855              		.loc 1 374 9 is_stmt 1 view .LVU182
 856 0010 0368     		ldr	r3, [r0]
 374:Drivers/GD32E23x/Source/gd32e23x_timer.c ****     }else if(TIMER_UPDATE_SRC_GLOBAL == update){
 857              		.loc 1 374 34 is_stmt 0 view .LVU183
 858 0012 0422     		movs	r2, #4
 859 0014 1343     		orrs	r3, r2
 860 0016 0360     		str	r3, [r0]
 861              	.L42:
 862              		.loc 1 380 1 view .LVU184
 863              		@ sp needed
 864 0018 7047     		bx	lr
 865              		.cfi_endproc
 866              	.LFE79:
 868              		.section	.text.timer_ocpre_clear_source_config,"ax",%progbits
 869              		.align	1
 870              		.global	timer_ocpre_clear_source_config
 871              		.syntax unified
 872              		.code	16
 873              		.thumb_func
 875              	timer_ocpre_clear_source_config:
 876              	.LVL50:
 877              	.LFB80:
 381:Drivers/GD32E23x/Source/gd32e23x_timer.c **** 
 382:Drivers/GD32E23x/Source/gd32e23x_timer.c **** /*!
 383:Drivers/GD32E23x/Source/gd32e23x_timer.c ****     \brief      configure TIMER OCPRE clear source selection
 384:Drivers/GD32E23x/Source/gd32e23x_timer.c ****     \param[in]  timer_periph: TIMERx(x=0,2)
 385:Drivers/GD32E23x/Source/gd32e23x_timer.c ****     \param[in]  ocpreclear:
 386:Drivers/GD32E23x/Source/gd32e23x_timer.c ****                 only one parameter can be selected which is shown as below:
 387:Drivers/GD32E23x/Source/gd32e23x_timer.c ****       \arg        TIMER_OCPRE_CLEAR_SOURCE_CLR: OCPRE_CLR_INT is connected to the OCPRE_CLR input
 388:Drivers/GD32E23x/Source/gd32e23x_timer.c ****       \arg        TIMER_OCPRE_CLEAR_SOURCE_ETIF: OCPRE_CLR_INT is connected to ETIF
 389:Drivers/GD32E23x/Source/gd32e23x_timer.c ****     \param[out] none
 390:Drivers/GD32E23x/Source/gd32e23x_timer.c ****     \retval     none
 391:Drivers/GD32E23x/Source/gd32e23x_timer.c **** */
ARM GAS  D:\noval\Temp\cck0Iw0b.s 			page 23


 392:Drivers/GD32E23x/Source/gd32e23x_timer.c **** void timer_ocpre_clear_source_config(uint32_t timer_periph, uint8_t ocpreclear)
 393:Drivers/GD32E23x/Source/gd32e23x_timer.c **** {
 878              		.loc 1 393 1 is_stmt 1 view -0
 879              		.cfi_startproc
 880              		@ args = 0, pretend = 0, frame = 0
 881              		@ frame_needed = 0, uses_anonymous_args = 0
 882              		@ link register save eliminated.
 394:Drivers/GD32E23x/Source/gd32e23x_timer.c ****     if(TIMER_OCPRE_CLEAR_SOURCE_ETIF == ocpreclear){
 883              		.loc 1 394 5 view .LVU186
 884              		.loc 1 394 7 is_stmt 0 view .LVU187
 885 0000 0129     		cmp	r1, #1
 886 0002 05D0     		beq	.L49
 395:Drivers/GD32E23x/Source/gd32e23x_timer.c ****         TIMER_SMCFG(timer_periph) |= (uint32_t)TIMER_SMCFG_OCRC;
 396:Drivers/GD32E23x/Source/gd32e23x_timer.c ****     }else if(TIMER_OCPRE_CLEAR_SOURCE_CLR == ocpreclear){
 887              		.loc 1 396 11 is_stmt 1 view .LVU188
 888              		.loc 1 396 13 is_stmt 0 view .LVU189
 889 0004 41B9     		cbnz	r1, .L46
 397:Drivers/GD32E23x/Source/gd32e23x_timer.c ****         TIMER_SMCFG(timer_periph) &= ~(uint32_t)TIMER_SMCFG_OCRC;
 890              		.loc 1 397 9 is_stmt 1 view .LVU190
 891 0006 8368     		ldr	r3, [r0, #8]
 892              		.loc 1 397 35 is_stmt 0 view .LVU191
 893 0008 0822     		movs	r2, #8
 894 000a 9343     		bics	r3, r2
 895 000c 8360     		str	r3, [r0, #8]
 398:Drivers/GD32E23x/Source/gd32e23x_timer.c ****     }else{
 399:Drivers/GD32E23x/Source/gd32e23x_timer.c ****         /* illegal parameters */
 400:Drivers/GD32E23x/Source/gd32e23x_timer.c ****     }
 896              		.loc 1 400 5 is_stmt 1 view .LVU192
 401:Drivers/GD32E23x/Source/gd32e23x_timer.c **** }
 897              		.loc 1 401 1 is_stmt 0 view .LVU193
 898 000e 03E0     		b	.L46
 899              	.L49:
 395:Drivers/GD32E23x/Source/gd32e23x_timer.c ****     }else if(TIMER_OCPRE_CLEAR_SOURCE_CLR == ocpreclear){
 900              		.loc 1 395 9 is_stmt 1 view .LVU194
 901 0010 8368     		ldr	r3, [r0, #8]
 395:Drivers/GD32E23x/Source/gd32e23x_timer.c ****     }else if(TIMER_OCPRE_CLEAR_SOURCE_CLR == ocpreclear){
 902              		.loc 1 395 35 is_stmt 0 view .LVU195
 903 0012 0822     		movs	r2, #8
 904 0014 1343     		orrs	r3, r2
 905 0016 8360     		str	r3, [r0, #8]
 906              	.L46:
 907              		.loc 1 401 1 view .LVU196
 908              		@ sp needed
 909 0018 7047     		bx	lr
 910              		.cfi_endproc
 911              	.LFE80:
 913              		.section	.text.timer_interrupt_enable,"ax",%progbits
 914              		.align	1
 915              		.global	timer_interrupt_enable
 916              		.syntax unified
 917              		.code	16
 918              		.thumb_func
 920              	timer_interrupt_enable:
 921              	.LVL51:
 922              	.LFB81:
 402:Drivers/GD32E23x/Source/gd32e23x_timer.c **** 
 403:Drivers/GD32E23x/Source/gd32e23x_timer.c **** /*!
ARM GAS  D:\noval\Temp\cck0Iw0b.s 			page 24


 404:Drivers/GD32E23x/Source/gd32e23x_timer.c ****     \brief      enable the TIMER interrupt
 405:Drivers/GD32E23x/Source/gd32e23x_timer.c ****     \param[in]  timer_periph: please refer to the following parameters 
 406:Drivers/GD32E23x/Source/gd32e23x_timer.c ****     \param[in]  interrupt: timer interrupt enable source
 407:Drivers/GD32E23x/Source/gd32e23x_timer.c ****                 only one parameter can be selected which is shown as below:
 408:Drivers/GD32E23x/Source/gd32e23x_timer.c ****       \arg        TIMER_INT_UP: update interrupt enable, TIMERx(x=0,2,5,13..16)
 409:Drivers/GD32E23x/Source/gd32e23x_timer.c ****       \arg        TIMER_INT_CH0: channel 0 interrupt enable, TIMERx(x=0,2,13..16)
 410:Drivers/GD32E23x/Source/gd32e23x_timer.c ****       \arg        TIMER_INT_CH1: channel 1 interrupt enable, TIMERx(x=0,2,14)
 411:Drivers/GD32E23x/Source/gd32e23x_timer.c ****       \arg        TIMER_INT_CH2: channel 2 interrupt enable, TIMERx(x=0,2)
 412:Drivers/GD32E23x/Source/gd32e23x_timer.c ****       \arg        TIMER_INT_CH3: channel 3 interrupt enable , TIMERx(x=0,2)
 413:Drivers/GD32E23x/Source/gd32e23x_timer.c ****       \arg        TIMER_INT_CMT: commutation interrupt enable, TIMERx(x=0,14..16)
 414:Drivers/GD32E23x/Source/gd32e23x_timer.c ****       \arg        TIMER_INT_TRG: trigger interrupt enable, TIMERx(x=0,2,14)
 415:Drivers/GD32E23x/Source/gd32e23x_timer.c ****       \arg        TIMER_INT_BRK: break interrupt enable, TIMERx(x=0,14..16)
 416:Drivers/GD32E23x/Source/gd32e23x_timer.c ****     \param[out] none
 417:Drivers/GD32E23x/Source/gd32e23x_timer.c ****     \retval     none
 418:Drivers/GD32E23x/Source/gd32e23x_timer.c **** */
 419:Drivers/GD32E23x/Source/gd32e23x_timer.c **** void timer_interrupt_enable(uint32_t timer_periph, uint32_t interrupt)
 420:Drivers/GD32E23x/Source/gd32e23x_timer.c **** {
 923              		.loc 1 420 1 is_stmt 1 view -0
 924              		.cfi_startproc
 925              		@ args = 0, pretend = 0, frame = 0
 926              		@ frame_needed = 0, uses_anonymous_args = 0
 927              		@ link register save eliminated.
 421:Drivers/GD32E23x/Source/gd32e23x_timer.c ****     TIMER_DMAINTEN(timer_periph) |= (uint32_t) interrupt; 
 928              		.loc 1 421 5 view .LVU198
 929 0000 C368     		ldr	r3, [r0, #12]
 930              		.loc 1 421 34 is_stmt 0 view .LVU199
 931 0002 0B43     		orrs	r3, r1
 932 0004 C360     		str	r3, [r0, #12]
 422:Drivers/GD32E23x/Source/gd32e23x_timer.c **** }
 933              		.loc 1 422 1 view .LVU200
 934              		@ sp needed
 935 0006 7047     		bx	lr
 936              		.cfi_endproc
 937              	.LFE81:
 939              		.section	.text.timer_interrupt_disable,"ax",%progbits
 940              		.align	1
 941              		.global	timer_interrupt_disable
 942              		.syntax unified
 943              		.code	16
 944              		.thumb_func
 946              	timer_interrupt_disable:
 947              	.LVL52:
 948              	.LFB82:
 423:Drivers/GD32E23x/Source/gd32e23x_timer.c **** 
 424:Drivers/GD32E23x/Source/gd32e23x_timer.c **** /*!
 425:Drivers/GD32E23x/Source/gd32e23x_timer.c ****     \brief      disable the TIMER interrupt
 426:Drivers/GD32E23x/Source/gd32e23x_timer.c ****     \param[in]  timer_periph: please refer to the following parameters
 427:Drivers/GD32E23x/Source/gd32e23x_timer.c ****     \param[in]  interrupt: timer interrupt source disable
 428:Drivers/GD32E23x/Source/gd32e23x_timer.c ****                 only one parameter can be selected which is shown as below:
 429:Drivers/GD32E23x/Source/gd32e23x_timer.c ****       \arg        TIMER_INT_UP: update interrupt enable, TIMERx(x=0,2,5,13..16)
 430:Drivers/GD32E23x/Source/gd32e23x_timer.c ****       \arg        TIMER_INT_CH0: channel 0 interrupt disable, TIMERx(x=0,2,13..16)
 431:Drivers/GD32E23x/Source/gd32e23x_timer.c ****       \arg        TIMER_INT_CH1: channel 1 interrupt disable, TIMERx(x=0,2,14)
 432:Drivers/GD32E23x/Source/gd32e23x_timer.c ****       \arg        TIMER_INT_CH2: channel 2 interrupt disable, TIMERx(x=0,2)
 433:Drivers/GD32E23x/Source/gd32e23x_timer.c ****       \arg        TIMER_INT_CH3: channel 3 interrupt disable , TIMERx(x=0,2)
 434:Drivers/GD32E23x/Source/gd32e23x_timer.c ****       \arg        TIMER_INT_CMT: commutation interrupt disable, TIMERx(x=0,14..16)
 435:Drivers/GD32E23x/Source/gd32e23x_timer.c ****       \arg        TIMER_INT_TRG: trigger interrupt disable, TIMERx(x=0,2,14)
 436:Drivers/GD32E23x/Source/gd32e23x_timer.c ****       \arg        TIMER_INT_BRK: break interrupt disable, TIMERx(x=0,14..16)
ARM GAS  D:\noval\Temp\cck0Iw0b.s 			page 25


 437:Drivers/GD32E23x/Source/gd32e23x_timer.c ****     \param[out] none
 438:Drivers/GD32E23x/Source/gd32e23x_timer.c ****     \retval     none
 439:Drivers/GD32E23x/Source/gd32e23x_timer.c **** */
 440:Drivers/GD32E23x/Source/gd32e23x_timer.c **** void timer_interrupt_disable(uint32_t timer_periph, uint32_t interrupt)
 441:Drivers/GD32E23x/Source/gd32e23x_timer.c **** {
 949              		.loc 1 441 1 is_stmt 1 view -0
 950              		.cfi_startproc
 951              		@ args = 0, pretend = 0, frame = 0
 952              		@ frame_needed = 0, uses_anonymous_args = 0
 953              		@ link register save eliminated.
 442:Drivers/GD32E23x/Source/gd32e23x_timer.c ****     TIMER_DMAINTEN(timer_periph) &= (~(uint32_t)interrupt); 
 954              		.loc 1 442 5 view .LVU202
 955 0000 C368     		ldr	r3, [r0, #12]
 956              		.loc 1 442 34 is_stmt 0 view .LVU203
 957 0002 8B43     		bics	r3, r1
 958 0004 C360     		str	r3, [r0, #12]
 443:Drivers/GD32E23x/Source/gd32e23x_timer.c **** }
 959              		.loc 1 443 1 view .LVU204
 960              		@ sp needed
 961 0006 7047     		bx	lr
 962              		.cfi_endproc
 963              	.LFE82:
 965              		.section	.text.timer_interrupt_flag_get,"ax",%progbits
 966              		.align	1
 967              		.global	timer_interrupt_flag_get
 968              		.syntax unified
 969              		.code	16
 970              		.thumb_func
 972              	timer_interrupt_flag_get:
 973              	.LVL53:
 974              	.LFB83:
 444:Drivers/GD32E23x/Source/gd32e23x_timer.c **** 
 445:Drivers/GD32E23x/Source/gd32e23x_timer.c **** /*!
 446:Drivers/GD32E23x/Source/gd32e23x_timer.c ****     \brief      get timer interrupt flag
 447:Drivers/GD32E23x/Source/gd32e23x_timer.c ****     \param[in]  timer_periph: please refer to the following parameters
 448:Drivers/GD32E23x/Source/gd32e23x_timer.c ****     \param[in]  interrupt: the timer interrupt bits
 449:Drivers/GD32E23x/Source/gd32e23x_timer.c ****                 only one parameter can be selected which is shown as below:
 450:Drivers/GD32E23x/Source/gd32e23x_timer.c ****       \arg        TIMER_INT_FLAG_UP: update interrupt flag,TIMERx(x=0,2,5,13..16)
 451:Drivers/GD32E23x/Source/gd32e23x_timer.c ****       \arg        TIMER_INT_FLAG_CH0: channel 0 interrupt flag,TIMERx(x=0,2,13..16)
 452:Drivers/GD32E23x/Source/gd32e23x_timer.c ****       \arg        TIMER_INT_FLAG_CH1: channel 1 interrupt flag,TIMERx(x=0,2,14)
 453:Drivers/GD32E23x/Source/gd32e23x_timer.c ****       \arg        TIMER_INT_FLAG_CH2: channel 2 interrupt flag,TIMERx(x=0,2)
 454:Drivers/GD32E23x/Source/gd32e23x_timer.c ****       \arg        TIMER_INT_FLAG_CH3: channel 3 interrupt flag,TIMERx(x=0,2)
 455:Drivers/GD32E23x/Source/gd32e23x_timer.c ****       \arg        TIMER_INT_FLAG_CMT: channel commutation interrupt flag,TIMERx(x=0,14..16)
 456:Drivers/GD32E23x/Source/gd32e23x_timer.c ****       \arg        TIMER_INT_FLAG_TRG: trigger interrupt flag,TIMERx(x=0,2,14)
 457:Drivers/GD32E23x/Source/gd32e23x_timer.c ****       \arg        TIMER_INT_FLAG_BRK:  break interrupt flag,TIMERx(x=0,14..16)
 458:Drivers/GD32E23x/Source/gd32e23x_timer.c ****     \param[out] none
 459:Drivers/GD32E23x/Source/gd32e23x_timer.c ****     \retval     FlagStatus: SET or RESET
 460:Drivers/GD32E23x/Source/gd32e23x_timer.c **** */
 461:Drivers/GD32E23x/Source/gd32e23x_timer.c **** FlagStatus timer_interrupt_flag_get(uint32_t timer_periph, uint32_t interrupt)
 462:Drivers/GD32E23x/Source/gd32e23x_timer.c **** {
 975              		.loc 1 462 1 is_stmt 1 view -0
 976              		.cfi_startproc
 977              		@ args = 0, pretend = 0, frame = 0
 978              		@ frame_needed = 0, uses_anonymous_args = 0
 979              		@ link register save eliminated.
 463:Drivers/GD32E23x/Source/gd32e23x_timer.c ****     uint32_t val;
 980              		.loc 1 463 5 view .LVU206
ARM GAS  D:\noval\Temp\cck0Iw0b.s 			page 26


 464:Drivers/GD32E23x/Source/gd32e23x_timer.c ****     val = (TIMER_DMAINTEN(timer_periph) & interrupt);
 981              		.loc 1 464 5 view .LVU207
 982              		.loc 1 464 12 is_stmt 0 view .LVU208
 983 0000 C368     		ldr	r3, [r0, #12]
 984              		.loc 1 464 9 view .LVU209
 985 0002 0B40     		ands	r3, r1
 986              	.LVL54:
 465:Drivers/GD32E23x/Source/gd32e23x_timer.c ****     if((RESET != (TIMER_INTF(timer_periph) & interrupt) ) && (RESET != val)){
 987              		.loc 1 465 5 is_stmt 1 view .LVU210
 988              		.loc 1 465 19 is_stmt 0 view .LVU211
 989 0004 0269     		ldr	r2, [r0, #16]
 990              		.loc 1 465 7 view .LVU212
 991 0006 1142     		tst	r1, r2
 992 0008 02D0     		beq	.L54
 993              		.loc 1 465 59 discriminator 1 view .LVU213
 994 000a 1BB9     		cbnz	r3, .L55
 466:Drivers/GD32E23x/Source/gd32e23x_timer.c ****         return SET;
 467:Drivers/GD32E23x/Source/gd32e23x_timer.c ****     }else{
 468:Drivers/GD32E23x/Source/gd32e23x_timer.c ****         return RESET;
 995              		.loc 1 468 16 view .LVU214
 996 000c 0020     		movs	r0, #0
 997              	.LVL55:
 998              		.loc 1 468 16 view .LVU215
 999 000e 00E0     		b	.L53
 1000              	.LVL56:
 1001              	.L54:
 1002              		.loc 1 468 16 view .LVU216
 1003 0010 0020     		movs	r0, #0
 1004              	.LVL57:
 1005              	.L53:
 469:Drivers/GD32E23x/Source/gd32e23x_timer.c ****     }
 470:Drivers/GD32E23x/Source/gd32e23x_timer.c **** }
 1006              		.loc 1 470 1 view .LVU217
 1007              		@ sp needed
 1008 0012 7047     		bx	lr
 1009              	.LVL58:
 1010              	.L55:
 466:Drivers/GD32E23x/Source/gd32e23x_timer.c ****         return SET;
 1011              		.loc 1 466 16 view .LVU218
 1012 0014 0120     		movs	r0, #1
 1013              	.LVL59:
 466:Drivers/GD32E23x/Source/gd32e23x_timer.c ****         return SET;
 1014              		.loc 1 466 16 view .LVU219
 1015 0016 FCE7     		b	.L53
 1016              		.cfi_endproc
 1017              	.LFE83:
 1019              		.section	.text.timer_interrupt_flag_clear,"ax",%progbits
 1020              		.align	1
 1021              		.global	timer_interrupt_flag_clear
 1022              		.syntax unified
 1023              		.code	16
 1024              		.thumb_func
 1026              	timer_interrupt_flag_clear:
 1027              	.LVL60:
 1028              	.LFB84:
 471:Drivers/GD32E23x/Source/gd32e23x_timer.c **** 
 472:Drivers/GD32E23x/Source/gd32e23x_timer.c **** /*!
ARM GAS  D:\noval\Temp\cck0Iw0b.s 			page 27


 473:Drivers/GD32E23x/Source/gd32e23x_timer.c ****     \brief      clear TIMER interrupt flag
 474:Drivers/GD32E23x/Source/gd32e23x_timer.c ****     \param[in]  timer_periph: please refer to the following parameters
 475:Drivers/GD32E23x/Source/gd32e23x_timer.c ****     \param[in]  interrupt: the timer interrupt bits
 476:Drivers/GD32E23x/Source/gd32e23x_timer.c ****                 only one parameter can be selected which is shown as below:
 477:Drivers/GD32E23x/Source/gd32e23x_timer.c ****       \arg        TIMER_INT_FLAG_UP: update interrupt flag, TIMERx(x=0,2,5,13..16)
 478:Drivers/GD32E23x/Source/gd32e23x_timer.c ****       \arg        TIMER_INT_FLAG_CH0: channel 0 interrupt flag, TIMERx(x=0,2,13..16)
 479:Drivers/GD32E23x/Source/gd32e23x_timer.c ****       \arg        TIMER_INT_FLAG_CH1: channel 1 interrupt flag, TIMERx(x=0,2,14)
 480:Drivers/GD32E23x/Source/gd32e23x_timer.c ****       \arg        TIMER_INT_FLAG_CH2: channel 2 interrupt flag, TIMERx(x=0,2)
 481:Drivers/GD32E23x/Source/gd32e23x_timer.c ****       \arg        TIMER_INT_FLAG_CH3: channel 3 interrupt flag, TIMERx(x=0,2)
 482:Drivers/GD32E23x/Source/gd32e23x_timer.c ****       \arg        TIMER_INT_FLAG_CMT: channel commutation interrupt flag, TIMERx(x=0,14..16)
 483:Drivers/GD32E23x/Source/gd32e23x_timer.c ****       \arg        TIMER_INT_FLAG_TRG: trigger interrupt flag, TIMERx(x=0,2,14)
 484:Drivers/GD32E23x/Source/gd32e23x_timer.c ****       \arg        TIMER_INT_FLAG_BRK:  break interrupt flag, TIMERx(x=0,14..16)
 485:Drivers/GD32E23x/Source/gd32e23x_timer.c ****     \param[out] none
 486:Drivers/GD32E23x/Source/gd32e23x_timer.c ****     \retval     none
 487:Drivers/GD32E23x/Source/gd32e23x_timer.c **** */
 488:Drivers/GD32E23x/Source/gd32e23x_timer.c **** void timer_interrupt_flag_clear(uint32_t timer_periph, uint32_t interrupt)
 489:Drivers/GD32E23x/Source/gd32e23x_timer.c **** {
 1029              		.loc 1 489 1 is_stmt 1 view -0
 1030              		.cfi_startproc
 1031              		@ args = 0, pretend = 0, frame = 0
 1032              		@ frame_needed = 0, uses_anonymous_args = 0
 1033              		@ link register save eliminated.
 490:Drivers/GD32E23x/Source/gd32e23x_timer.c ****     TIMER_INTF(timer_periph) = (~(uint32_t)interrupt);
 1034              		.loc 1 490 5 view .LVU221
 1035              		.loc 1 490 33 is_stmt 0 view .LVU222
 1036 0000 C943     		mvns	r1, r1
 1037              	.LVL61:
 1038              		.loc 1 490 30 view .LVU223
 1039 0002 0161     		str	r1, [r0, #16]
 491:Drivers/GD32E23x/Source/gd32e23x_timer.c **** }
 1040              		.loc 1 491 1 view .LVU224
 1041              		@ sp needed
 1042 0004 7047     		bx	lr
 1043              		.cfi_endproc
 1044              	.LFE84:
 1046              		.section	.text.timer_flag_get,"ax",%progbits
 1047              		.align	1
 1048              		.global	timer_flag_get
 1049              		.syntax unified
 1050              		.code	16
 1051              		.thumb_func
 1053              	timer_flag_get:
 1054              	.LVL62:
 1055              	.LFB85:
 492:Drivers/GD32E23x/Source/gd32e23x_timer.c **** 
 493:Drivers/GD32E23x/Source/gd32e23x_timer.c **** /*!
 494:Drivers/GD32E23x/Source/gd32e23x_timer.c ****     \brief      get TIMER flags
 495:Drivers/GD32E23x/Source/gd32e23x_timer.c ****     \param[in]  timer_periph: please refer to the following parameters
 496:Drivers/GD32E23x/Source/gd32e23x_timer.c ****     \param[in]  flag: the timer interrupt flags
 497:Drivers/GD32E23x/Source/gd32e23x_timer.c ****                 only one parameter can be selected which is shown as below:
 498:Drivers/GD32E23x/Source/gd32e23x_timer.c ****       \arg        TIMER_FLAG_UP: update flag, TIMERx(x=0,2,5,13..16)
 499:Drivers/GD32E23x/Source/gd32e23x_timer.c ****       \arg        TIMER_FLAG_CH0: channel 0 flag, TIMERx(x=0,2,13..16)
 500:Drivers/GD32E23x/Source/gd32e23x_timer.c ****       \arg        TIMER_FLAG_CH1: channel 1 flag, TIMERx(x=0,2,14)
 501:Drivers/GD32E23x/Source/gd32e23x_timer.c ****       \arg        TIMER_FLAG_CH2: channel 2 flag, TIMERx(x=0,2)
 502:Drivers/GD32E23x/Source/gd32e23x_timer.c ****       \arg        TIMER_FLAG_CH3: channel 3 flag, TIMERx(x=0,2)
 503:Drivers/GD32E23x/Source/gd32e23x_timer.c ****       \arg        TIMER_FLAG_CMT: channel control update flag, TIMERx(x=0,14..16)
 504:Drivers/GD32E23x/Source/gd32e23x_timer.c ****       \arg        TIMER_FLAG_TRG: trigger flag, TIMERx(x=0,2,14)
ARM GAS  D:\noval\Temp\cck0Iw0b.s 			page 28


 505:Drivers/GD32E23x/Source/gd32e23x_timer.c ****       \arg        TIMER_FLAG_BRK: break flag,TIMERx(x=0,14..16)
 506:Drivers/GD32E23x/Source/gd32e23x_timer.c ****       \arg        TIMER_FLAG_CH0O: channel 0 overcapture flag, TIMERx(x=0,2,13..16)
 507:Drivers/GD32E23x/Source/gd32e23x_timer.c ****       \arg        TIMER_FLAG_CH1O: channel 1 overcapture flag, TIMERx(x=0,2,14)
 508:Drivers/GD32E23x/Source/gd32e23x_timer.c ****       \arg        TIMER_FLAG_CH2O: channel 2 overcapture flag, TIMERx(x=0,2)
 509:Drivers/GD32E23x/Source/gd32e23x_timer.c ****       \arg        TIMER_FLAG_CH3O: channel 3 overcapture flag, TIMERx(x=0,2)
 510:Drivers/GD32E23x/Source/gd32e23x_timer.c ****     \param[out] none
 511:Drivers/GD32E23x/Source/gd32e23x_timer.c ****     \retval     FlagStatus: SET or RESET
 512:Drivers/GD32E23x/Source/gd32e23x_timer.c **** */
 513:Drivers/GD32E23x/Source/gd32e23x_timer.c **** FlagStatus timer_flag_get(uint32_t timer_periph, uint32_t flag)
 514:Drivers/GD32E23x/Source/gd32e23x_timer.c **** {
 1056              		.loc 1 514 1 is_stmt 1 view -0
 1057              		.cfi_startproc
 1058              		@ args = 0, pretend = 0, frame = 0
 1059              		@ frame_needed = 0, uses_anonymous_args = 0
 1060              		@ link register save eliminated.
 515:Drivers/GD32E23x/Source/gd32e23x_timer.c ****     if(RESET != (TIMER_INTF(timer_periph) & flag)){
 1061              		.loc 1 515 5 view .LVU226
 1062              		.loc 1 515 18 is_stmt 0 view .LVU227
 1063 0000 0369     		ldr	r3, [r0, #16]
 1064              		.loc 1 515 7 view .LVU228
 1065 0002 1942     		tst	r1, r3
 1066 0004 01D0     		beq	.L59
 516:Drivers/GD32E23x/Source/gd32e23x_timer.c ****         return SET;
 1067              		.loc 1 516 16 view .LVU229
 1068 0006 0120     		movs	r0, #1
 1069              	.LVL63:
 1070              	.L58:
 517:Drivers/GD32E23x/Source/gd32e23x_timer.c ****     }else{
 518:Drivers/GD32E23x/Source/gd32e23x_timer.c ****         return RESET;
 519:Drivers/GD32E23x/Source/gd32e23x_timer.c ****     }
 520:Drivers/GD32E23x/Source/gd32e23x_timer.c **** }
 1071              		.loc 1 520 1 view .LVU230
 1072              		@ sp needed
 1073 0008 7047     		bx	lr
 1074              	.LVL64:
 1075              	.L59:
 518:Drivers/GD32E23x/Source/gd32e23x_timer.c ****     }
 1076              		.loc 1 518 16 view .LVU231
 1077 000a 0020     		movs	r0, #0
 1078              	.LVL65:
 518:Drivers/GD32E23x/Source/gd32e23x_timer.c ****     }
 1079              		.loc 1 518 16 view .LVU232
 1080 000c FCE7     		b	.L58
 1081              		.cfi_endproc
 1082              	.LFE85:
 1084              		.section	.text.timer_flag_clear,"ax",%progbits
 1085              		.align	1
 1086              		.global	timer_flag_clear
 1087              		.syntax unified
 1088              		.code	16
 1089              		.thumb_func
 1091              	timer_flag_clear:
 1092              	.LVL66:
 1093              	.LFB86:
 521:Drivers/GD32E23x/Source/gd32e23x_timer.c **** 
 522:Drivers/GD32E23x/Source/gd32e23x_timer.c **** /*!
 523:Drivers/GD32E23x/Source/gd32e23x_timer.c ****     \brief      clear TIMER flags
ARM GAS  D:\noval\Temp\cck0Iw0b.s 			page 29


 524:Drivers/GD32E23x/Source/gd32e23x_timer.c ****     \param[in]  timer_periph: please refer to the following parameters
 525:Drivers/GD32E23x/Source/gd32e23x_timer.c ****     \param[in]  flag: the timer interrupt flags
 526:Drivers/GD32E23x/Source/gd32e23x_timer.c ****                 only one parameter can be selected which is shown as below:
 527:Drivers/GD32E23x/Source/gd32e23x_timer.c ****       \arg        TIMER_FLAG_UP: update flag, TIMERx(x=0,2,5,13..16)
 528:Drivers/GD32E23x/Source/gd32e23x_timer.c ****       \arg        TIMER_FLAG_CH0: channel 0 flag, TIMERx(x=0,2,13..16)
 529:Drivers/GD32E23x/Source/gd32e23x_timer.c ****       \arg        TIMER_FLAG_CH1: channel 1 flag, TIMERx(x=0,2,14)
 530:Drivers/GD32E23x/Source/gd32e23x_timer.c ****       \arg        TIMER_FLAG_CH2: channel 2 flag, TIMERx(x=0,2)
 531:Drivers/GD32E23x/Source/gd32e23x_timer.c ****       \arg        TIMER_FLAG_CH3: channel 3 flag, TIMERx(x=0,2)
 532:Drivers/GD32E23x/Source/gd32e23x_timer.c ****       \arg        TIMER_FLAG_CMT: channel control update flag, TIMERx(x=0,14..16)
 533:Drivers/GD32E23x/Source/gd32e23x_timer.c ****       \arg        TIMER_FLAG_TRG: trigger flag, TIMERx(x=0,2,14)
 534:Drivers/GD32E23x/Source/gd32e23x_timer.c ****       \arg        TIMER_FLAG_BRK: break flag,TIMERx(x=0,14..16)
 535:Drivers/GD32E23x/Source/gd32e23x_timer.c ****       \arg        TIMER_FLAG_CH0O: channel 0 overcapture flag, TIMERx(x=0,2,13..16)
 536:Drivers/GD32E23x/Source/gd32e23x_timer.c ****       \arg        TIMER_FLAG_CH1O: channel 1 overcapture flag, TIMERx(x=0,2,14)
 537:Drivers/GD32E23x/Source/gd32e23x_timer.c ****       \arg        TIMER_FLAG_CH2O: channel 2 overcapture flag, TIMERx(x=0,2)
 538:Drivers/GD32E23x/Source/gd32e23x_timer.c ****       \arg        TIMER_FLAG_CH3O: channel 3 overcapture flag, TIMERx(x=0,2)
 539:Drivers/GD32E23x/Source/gd32e23x_timer.c ****     \param[out] none
 540:Drivers/GD32E23x/Source/gd32e23x_timer.c ****     \retval     none
 541:Drivers/GD32E23x/Source/gd32e23x_timer.c **** */
 542:Drivers/GD32E23x/Source/gd32e23x_timer.c **** void timer_flag_clear(uint32_t timer_periph, uint32_t flag)
 543:Drivers/GD32E23x/Source/gd32e23x_timer.c **** {
 1094              		.loc 1 543 1 is_stmt 1 view -0
 1095              		.cfi_startproc
 1096              		@ args = 0, pretend = 0, frame = 0
 1097              		@ frame_needed = 0, uses_anonymous_args = 0
 1098              		@ link register save eliminated.
 544:Drivers/GD32E23x/Source/gd32e23x_timer.c ****     TIMER_INTF(timer_periph) = (~(uint32_t)flag);
 1099              		.loc 1 544 5 view .LVU234
 1100              		.loc 1 544 33 is_stmt 0 view .LVU235
 1101 0000 C943     		mvns	r1, r1
 1102              	.LVL67:
 1103              		.loc 1 544 30 view .LVU236
 1104 0002 0161     		str	r1, [r0, #16]
 545:Drivers/GD32E23x/Source/gd32e23x_timer.c **** }
 1105              		.loc 1 545 1 view .LVU237
 1106              		@ sp needed
 1107 0004 7047     		bx	lr
 1108              		.cfi_endproc
 1109              	.LFE86:
 1111              		.section	.text.timer_dma_enable,"ax",%progbits
 1112              		.align	1
 1113              		.global	timer_dma_enable
 1114              		.syntax unified
 1115              		.code	16
 1116              		.thumb_func
 1118              	timer_dma_enable:
 1119              	.LVL68:
 1120              	.LFB87:
 546:Drivers/GD32E23x/Source/gd32e23x_timer.c **** 
 547:Drivers/GD32E23x/Source/gd32e23x_timer.c **** /*!
 548:Drivers/GD32E23x/Source/gd32e23x_timer.c ****     \brief      enable the TIMER DMA
 549:Drivers/GD32E23x/Source/gd32e23x_timer.c ****     \param[in]  timer_periph: please refer to the following parameters
 550:Drivers/GD32E23x/Source/gd32e23x_timer.c ****     \param[in]  dma: specify which DMA to enable
 551:Drivers/GD32E23x/Source/gd32e23x_timer.c ****                 one or more parameters can be selected which is shown as below:
 552:Drivers/GD32E23x/Source/gd32e23x_timer.c ****       \arg        TIMER_DMA_UPD: update DMA, TIMERx(x=0,2,5,14..16)
 553:Drivers/GD32E23x/Source/gd32e23x_timer.c ****       \arg        TIMER_DMA_CH0D: channel 0 DMA request, TIMERx(x=0,2,14..16)
 554:Drivers/GD32E23x/Source/gd32e23x_timer.c ****       \arg        TIMER_DMA_CH1D: channel 1 DMA request, TIMERx(x=0,2,14)
 555:Drivers/GD32E23x/Source/gd32e23x_timer.c ****       \arg        TIMER_DMA_CH2D: channel 2 DMA request, TIMERx(x=0,2)
ARM GAS  D:\noval\Temp\cck0Iw0b.s 			page 30


 556:Drivers/GD32E23x/Source/gd32e23x_timer.c ****       \arg        TIMER_DMA_CH3D: channel 3 DMA request, TIMERx(x=0,2)
 557:Drivers/GD32E23x/Source/gd32e23x_timer.c ****       \arg        TIMER_DMA_CMTD: commutation DMA request, TIMERx(x=0,14)
 558:Drivers/GD32E23x/Source/gd32e23x_timer.c ****       \arg        TIMER_DMA_TRGD: trigger DMA request, TIMERx(x=0,2,14)
 559:Drivers/GD32E23x/Source/gd32e23x_timer.c ****     \param[out] none
 560:Drivers/GD32E23x/Source/gd32e23x_timer.c ****     \retval     none
 561:Drivers/GD32E23x/Source/gd32e23x_timer.c **** */
 562:Drivers/GD32E23x/Source/gd32e23x_timer.c **** void timer_dma_enable(uint32_t timer_periph, uint16_t dma)
 563:Drivers/GD32E23x/Source/gd32e23x_timer.c **** {
 1121              		.loc 1 563 1 is_stmt 1 view -0
 1122              		.cfi_startproc
 1123              		@ args = 0, pretend = 0, frame = 0
 1124              		@ frame_needed = 0, uses_anonymous_args = 0
 1125              		@ link register save eliminated.
 564:Drivers/GD32E23x/Source/gd32e23x_timer.c ****     TIMER_DMAINTEN(timer_periph) |= (uint32_t) dma; 
 1126              		.loc 1 564 5 view .LVU239
 1127 0000 C368     		ldr	r3, [r0, #12]
 1128              		.loc 1 564 34 is_stmt 0 view .LVU240
 1129 0002 0B43     		orrs	r3, r1
 1130 0004 C360     		str	r3, [r0, #12]
 565:Drivers/GD32E23x/Source/gd32e23x_timer.c **** }
 1131              		.loc 1 565 1 view .LVU241
 1132              		@ sp needed
 1133 0006 7047     		bx	lr
 1134              		.cfi_endproc
 1135              	.LFE87:
 1137              		.section	.text.timer_dma_disable,"ax",%progbits
 1138              		.align	1
 1139              		.global	timer_dma_disable
 1140              		.syntax unified
 1141              		.code	16
 1142              		.thumb_func
 1144              	timer_dma_disable:
 1145              	.LVL69:
 1146              	.LFB88:
 566:Drivers/GD32E23x/Source/gd32e23x_timer.c **** 
 567:Drivers/GD32E23x/Source/gd32e23x_timer.c **** /*!
 568:Drivers/GD32E23x/Source/gd32e23x_timer.c ****     \brief      disable the TIMER DMA
 569:Drivers/GD32E23x/Source/gd32e23x_timer.c ****     \param[in]  timer_periph: please refer to the following parameters
 570:Drivers/GD32E23x/Source/gd32e23x_timer.c ****     \param[in]  dma: specify which DMA to disable
 571:Drivers/GD32E23x/Source/gd32e23x_timer.c ****                 one or more parameters can be selected which are shown as below:
 572:Drivers/GD32E23x/Source/gd32e23x_timer.c ****       \arg        TIMER_DMA_UPD: update DMA, TIMERx(x=0,2,5,14..16)
 573:Drivers/GD32E23x/Source/gd32e23x_timer.c ****       \arg        TIMER_DMA_CH0D: channel 0 DMA request, TIMERx(x=0,2,14..16)
 574:Drivers/GD32E23x/Source/gd32e23x_timer.c ****       \arg        TIMER_DMA_CH1D: channel 1 DMA request, TIMERx(x=0,2,14)
 575:Drivers/GD32E23x/Source/gd32e23x_timer.c ****       \arg        TIMER_DMA_CH2D: channel 2 DMA request, TIMERx(x=0,2)
 576:Drivers/GD32E23x/Source/gd32e23x_timer.c ****       \arg        TIMER_DMA_CH3D: channel 3 DMA request, TIMERx(x=0,2)
 577:Drivers/GD32E23x/Source/gd32e23x_timer.c ****       \arg        TIMER_DMA_CMTD: commutation DMA request , TIMERx(x=0,14)
 578:Drivers/GD32E23x/Source/gd32e23x_timer.c ****       \arg        TIMER_DMA_TRGD: trigger DMA request, TIMERx(x=0,2,14)
 579:Drivers/GD32E23x/Source/gd32e23x_timer.c ****     \param[out] none
 580:Drivers/GD32E23x/Source/gd32e23x_timer.c ****     \retval     none
 581:Drivers/GD32E23x/Source/gd32e23x_timer.c **** */
 582:Drivers/GD32E23x/Source/gd32e23x_timer.c **** void timer_dma_disable(uint32_t timer_periph, uint16_t dma)
 583:Drivers/GD32E23x/Source/gd32e23x_timer.c **** {
 1147              		.loc 1 583 1 is_stmt 1 view -0
 1148              		.cfi_startproc
 1149              		@ args = 0, pretend = 0, frame = 0
 1150              		@ frame_needed = 0, uses_anonymous_args = 0
 1151              		@ link register save eliminated.
ARM GAS  D:\noval\Temp\cck0Iw0b.s 			page 31


 584:Drivers/GD32E23x/Source/gd32e23x_timer.c ****     TIMER_DMAINTEN(timer_periph) &= (~(uint32_t)(dma)); 
 1152              		.loc 1 584 5 view .LVU243
 1153 0000 C368     		ldr	r3, [r0, #12]
 1154              		.loc 1 584 34 is_stmt 0 view .LVU244
 1155 0002 8B43     		bics	r3, r1
 1156 0004 C360     		str	r3, [r0, #12]
 585:Drivers/GD32E23x/Source/gd32e23x_timer.c **** }
 1157              		.loc 1 585 1 view .LVU245
 1158              		@ sp needed
 1159 0006 7047     		bx	lr
 1160              		.cfi_endproc
 1161              	.LFE88:
 1163              		.section	.text.timer_channel_dma_request_source_select,"ax",%progbits
 1164              		.align	1
 1165              		.global	timer_channel_dma_request_source_select
 1166              		.syntax unified
 1167              		.code	16
 1168              		.thumb_func
 1170              	timer_channel_dma_request_source_select:
 1171              	.LVL70:
 1172              	.LFB89:
 586:Drivers/GD32E23x/Source/gd32e23x_timer.c **** 
 587:Drivers/GD32E23x/Source/gd32e23x_timer.c **** /*!
 588:Drivers/GD32E23x/Source/gd32e23x_timer.c ****     \brief      channel DMA request source selection
 589:Drivers/GD32E23x/Source/gd32e23x_timer.c ****     \param[in]  timer_periph: TIMERx(x=0,2,14..16)
 590:Drivers/GD32E23x/Source/gd32e23x_timer.c ****     \param[in]  dma_request: channel DMA request source selection
 591:Drivers/GD32E23x/Source/gd32e23x_timer.c ****                 only one parameter can be selected which is shown as below:
 592:Drivers/GD32E23x/Source/gd32e23x_timer.c ****        \arg        TIMER_DMAREQUEST_CHANNELEVENT: DMA request of channel y is sent when channel y e
 593:Drivers/GD32E23x/Source/gd32e23x_timer.c ****        \arg        TIMER_DMAREQUEST_UPDATEEVENT: DMA request of channel y is sent when update event
 594:Drivers/GD32E23x/Source/gd32e23x_timer.c ****     \param[out] none
 595:Drivers/GD32E23x/Source/gd32e23x_timer.c ****     \retval     none
 596:Drivers/GD32E23x/Source/gd32e23x_timer.c **** */
 597:Drivers/GD32E23x/Source/gd32e23x_timer.c **** void timer_channel_dma_request_source_select(uint32_t timer_periph, uint8_t dma_request)
 598:Drivers/GD32E23x/Source/gd32e23x_timer.c **** {
 1173              		.loc 1 598 1 is_stmt 1 view -0
 1174              		.cfi_startproc
 1175              		@ args = 0, pretend = 0, frame = 0
 1176              		@ frame_needed = 0, uses_anonymous_args = 0
 1177              		@ link register save eliminated.
 599:Drivers/GD32E23x/Source/gd32e23x_timer.c ****     if(TIMER_DMAREQUEST_UPDATEEVENT == dma_request){
 1178              		.loc 1 599 5 view .LVU247
 1179              		.loc 1 599 7 is_stmt 0 view .LVU248
 1180 0000 0829     		cmp	r1, #8
 1181 0002 05D0     		beq	.L66
 600:Drivers/GD32E23x/Source/gd32e23x_timer.c ****         TIMER_CTL1(timer_periph) |= (uint32_t)TIMER_CTL1_DMAS;
 601:Drivers/GD32E23x/Source/gd32e23x_timer.c ****     }else if(TIMER_DMAREQUEST_CHANNELEVENT == dma_request){
 1182              		.loc 1 601 11 is_stmt 1 view .LVU249
 1183              		.loc 1 601 13 is_stmt 0 view .LVU250
 1184 0004 41B9     		cbnz	r1, .L63
 602:Drivers/GD32E23x/Source/gd32e23x_timer.c ****         TIMER_CTL1(timer_periph) &= ~(uint32_t)TIMER_CTL1_DMAS;
 1185              		.loc 1 602 9 is_stmt 1 view .LVU251
 1186 0006 4368     		ldr	r3, [r0, #4]
 1187              		.loc 1 602 34 is_stmt 0 view .LVU252
 1188 0008 0822     		movs	r2, #8
 1189 000a 9343     		bics	r3, r2
 1190 000c 4360     		str	r3, [r0, #4]
 603:Drivers/GD32E23x/Source/gd32e23x_timer.c ****     }else{
ARM GAS  D:\noval\Temp\cck0Iw0b.s 			page 32


 604:Drivers/GD32E23x/Source/gd32e23x_timer.c ****         /* illegal parameters */
 605:Drivers/GD32E23x/Source/gd32e23x_timer.c ****     }
 1191              		.loc 1 605 5 is_stmt 1 view .LVU253
 606:Drivers/GD32E23x/Source/gd32e23x_timer.c **** }
 1192              		.loc 1 606 1 is_stmt 0 view .LVU254
 1193 000e 03E0     		b	.L63
 1194              	.L66:
 600:Drivers/GD32E23x/Source/gd32e23x_timer.c ****     }else if(TIMER_DMAREQUEST_CHANNELEVENT == dma_request){
 1195              		.loc 1 600 9 is_stmt 1 view .LVU255
 1196 0010 4368     		ldr	r3, [r0, #4]
 600:Drivers/GD32E23x/Source/gd32e23x_timer.c ****     }else if(TIMER_DMAREQUEST_CHANNELEVENT == dma_request){
 1197              		.loc 1 600 34 is_stmt 0 view .LVU256
 1198 0012 0822     		movs	r2, #8
 1199 0014 1343     		orrs	r3, r2
 1200 0016 4360     		str	r3, [r0, #4]
 1201              	.L63:
 1202              		.loc 1 606 1 view .LVU257
 1203              		@ sp needed
 1204 0018 7047     		bx	lr
 1205              		.cfi_endproc
 1206              	.LFE89:
 1208              		.section	.text.timer_dma_transfer_config,"ax",%progbits
 1209              		.align	1
 1210              		.global	timer_dma_transfer_config
 1211              		.syntax unified
 1212              		.code	16
 1213              		.thumb_func
 1215              	timer_dma_transfer_config:
 1216              	.LVL71:
 1217              	.LFB90:
 607:Drivers/GD32E23x/Source/gd32e23x_timer.c **** 
 608:Drivers/GD32E23x/Source/gd32e23x_timer.c **** /*!
 609:Drivers/GD32E23x/Source/gd32e23x_timer.c ****     \brief      configure the TIMER DMA transfer
 610:Drivers/GD32E23x/Source/gd32e23x_timer.c ****     \param[in]  timer_periph: TIMERx(x=0,2,14..16)
 611:Drivers/GD32E23x/Source/gd32e23x_timer.c ****     \param[in]  dma_baseaddr:
 612:Drivers/GD32E23x/Source/gd32e23x_timer.c ****                 only one parameter can be selected which is shown as below:
 613:Drivers/GD32E23x/Source/gd32e23x_timer.c ****        \arg        TIMER_DMACFG_DMATA_CTL0: DMA transfer address is TIMER_CTL0, TIMERx(x=0,2,14..16
 614:Drivers/GD32E23x/Source/gd32e23x_timer.c ****        \arg        TIMER_DMACFG_DMATA_CTL1: DMA transfer address is TIMER_CTL1, TIMERx(x=0,2,14..16
 615:Drivers/GD32E23x/Source/gd32e23x_timer.c ****        \arg        TIMER_DMACFG_DMATA_SMCFG: DMA transfer address is TIMER_SMCFG, TIMERx(x=0,2,14)
 616:Drivers/GD32E23x/Source/gd32e23x_timer.c ****        \arg        TIMER_DMACFG_DMATA_DMAINTEN: DMA transfer address is TIMER_DMAINTEN, TIMERx(x=0,
 617:Drivers/GD32E23x/Source/gd32e23x_timer.c ****        \arg        TIMER_DMACFG_DMATA_INTF: DMA transfer address is TIMER_INTF, TIMERx(x=0,2,14..16
 618:Drivers/GD32E23x/Source/gd32e23x_timer.c ****        \arg        TIMER_DMACFG_DMATA_SWEVG: DMA transfer address is TIMER_SWEVG, TIMERx(x=0,2,14..
 619:Drivers/GD32E23x/Source/gd32e23x_timer.c ****        \arg        TIMER_DMACFG_DMATA_CHCTL0: DMA transfer address is TIMER_CHCTL0, TIMERx(x=0,2,14
 620:Drivers/GD32E23x/Source/gd32e23x_timer.c ****        \arg        TIMER_DMACFG_DMATA_CHCTL1: DMA transfer address is TIMER_CHCTL1, TIMERx(x=0,2)
 621:Drivers/GD32E23x/Source/gd32e23x_timer.c ****        \arg        TIMER_DMACFG_DMATA_CHCTL2: DMA transfer address is TIMER_CHCTL2, TIMERx(x=0,2,14
 622:Drivers/GD32E23x/Source/gd32e23x_timer.c ****        \arg        TIMER_DMACFG_DMATA_CNT: DMA transfer address is TIMER_CNT, TIMERx(x=0,2,14..16)
 623:Drivers/GD32E23x/Source/gd32e23x_timer.c ****        \arg        TIMER_DMACFG_DMATA_PSC: DMA transfer address is TIMER_PSC, TIMERx(x=0,2,14..16)
 624:Drivers/GD32E23x/Source/gd32e23x_timer.c ****        \arg        TIMER_DMACFG_DMATA_CAR: DMA transfer address is TIMER_CAR, TIMERx(x=0,2,14..16)
 625:Drivers/GD32E23x/Source/gd32e23x_timer.c ****        \arg        TIMER_DMACFG_DMATA_CREP: DMA transfer address is TIMER_CREP, TIMERx(x=0,14..16)
 626:Drivers/GD32E23x/Source/gd32e23x_timer.c ****        \arg        TIMER_DMACFG_DMATA_CH0CV: DMA transfer address is TIMER_CH0CV, TIMERx(x=0,2,14..
 627:Drivers/GD32E23x/Source/gd32e23x_timer.c ****        \arg        TIMER_DMACFG_DMATA_CH1CV: DMA transfer address is TIMER_CH1CV, TIMERx(x=0,2,14)
 628:Drivers/GD32E23x/Source/gd32e23x_timer.c ****        \arg        TIMER_DMACFG_DMATA_CH2CV: DMA transfer address is TIMER_CH2CV, TIMERx(x=0,2)
 629:Drivers/GD32E23x/Source/gd32e23x_timer.c ****        \arg        TIMER_DMACFG_DMATA_CH3CV: DMA transfer address is TIMER_CH3CV, TIMERx(x=0,2)
 630:Drivers/GD32E23x/Source/gd32e23x_timer.c ****        \arg        TIMER_DMACFG_DMATA_CCHP: DMA transfer address is TIMER_CCHP, TIMERx(x=0,14..16)
 631:Drivers/GD32E23x/Source/gd32e23x_timer.c ****        \arg        TIMER_DMACFG_DMATA_DMACFG: DMA transfer address is TIMER_DMACFG, TIMERx(x=0,2,14
 632:Drivers/GD32E23x/Source/gd32e23x_timer.c ****     \param[in]  dma_lenth:
 633:Drivers/GD32E23x/Source/gd32e23x_timer.c ****                 only one parameter can be selected which is shown as below:
ARM GAS  D:\noval\Temp\cck0Iw0b.s 			page 33


 634:Drivers/GD32E23x/Source/gd32e23x_timer.c ****        \arg        TIMER_DMACFG_DMATC_xTRANSFER(x=1..18): DMA transfer x time
 635:Drivers/GD32E23x/Source/gd32e23x_timer.c ****     \param[out] none
 636:Drivers/GD32E23x/Source/gd32e23x_timer.c ****     \retval     none
 637:Drivers/GD32E23x/Source/gd32e23x_timer.c **** */
 638:Drivers/GD32E23x/Source/gd32e23x_timer.c **** void timer_dma_transfer_config(uint32_t timer_periph, uint32_t dma_baseaddr, uint32_t dma_lenth)
 639:Drivers/GD32E23x/Source/gd32e23x_timer.c **** {
 1218              		.loc 1 639 1 is_stmt 1 view -0
 1219              		.cfi_startproc
 1220              		@ args = 0, pretend = 0, frame = 0
 1221              		@ frame_needed = 0, uses_anonymous_args = 0
 1222              		.loc 1 639 1 is_stmt 0 view .LVU259
 1223 0000 10B5     		push	{r4, lr}
 1224              	.LCFI1:
 1225              		.cfi_def_cfa_offset 8
 1226              		.cfi_offset 4, -8
 1227              		.cfi_offset 14, -4
 640:Drivers/GD32E23x/Source/gd32e23x_timer.c ****     TIMER_DMACFG(timer_periph) &= (~(uint32_t)(TIMER_DMACFG_DMATA | TIMER_DMACFG_DMATC));
 1228              		.loc 1 640 5 is_stmt 1 view .LVU260
 1229 0002 836C     		ldr	r3, [r0, #72]
 1230              		.loc 1 640 32 is_stmt 0 view .LVU261
 1231 0004 034C     		ldr	r4, .L68
 1232 0006 2340     		ands	r3, r4
 1233 0008 8364     		str	r3, [r0, #72]
 641:Drivers/GD32E23x/Source/gd32e23x_timer.c ****     TIMER_DMACFG(timer_periph) |= (uint32_t)(dma_baseaddr | dma_lenth);
 1234              		.loc 1 641 5 is_stmt 1 view .LVU262
 1235 000a 836C     		ldr	r3, [r0, #72]
 1236              		.loc 1 641 59 is_stmt 0 view .LVU263
 1237 000c 1143     		orrs	r1, r2
 1238              	.LVL72:
 1239              		.loc 1 641 32 view .LVU264
 1240 000e 0B43     		orrs	r3, r1
 1241 0010 8364     		str	r3, [r0, #72]
 642:Drivers/GD32E23x/Source/gd32e23x_timer.c **** }
 1242              		.loc 1 642 1 view .LVU265
 1243              		@ sp needed
 1244 0012 10BD     		pop	{r4, pc}
 1245              	.L69:
 1246              		.align	2
 1247              	.L68:
 1248 0014 E0E0FFFF 		.word	-7968
 1249              		.cfi_endproc
 1250              	.LFE90:
 1252              		.section	.text.timer_event_software_generate,"ax",%progbits
 1253              		.align	1
 1254              		.global	timer_event_software_generate
 1255              		.syntax unified
 1256              		.code	16
 1257              		.thumb_func
 1259              	timer_event_software_generate:
 1260              	.LVL73:
 1261              	.LFB91:
 643:Drivers/GD32E23x/Source/gd32e23x_timer.c **** 
 644:Drivers/GD32E23x/Source/gd32e23x_timer.c **** /*!
 645:Drivers/GD32E23x/Source/gd32e23x_timer.c ****     \brief      software generate events 
 646:Drivers/GD32E23x/Source/gd32e23x_timer.c ****     \param[in]  timer_periph: please refer to the following parameters
 647:Drivers/GD32E23x/Source/gd32e23x_timer.c ****     \param[in]  event: the timer software event generation sources
 648:Drivers/GD32E23x/Source/gd32e23x_timer.c ****                 one or more parameters can be selected which are shown as below:
ARM GAS  D:\noval\Temp\cck0Iw0b.s 			page 34


 649:Drivers/GD32E23x/Source/gd32e23x_timer.c ****       \arg        TIMER_EVENT_SRC_UPG: update event,TIMERx(x=0,2,5,13..16)
 650:Drivers/GD32E23x/Source/gd32e23x_timer.c ****       \arg        TIMER_EVENT_SRC_CH0G: channel 0 capture or compare event generation, TIMERx(x=0,2
 651:Drivers/GD32E23x/Source/gd32e23x_timer.c ****       \arg        TIMER_EVENT_SRC_CH1G: channel 1 capture or compare event generation, TIMERx(x=0,2
 652:Drivers/GD32E23x/Source/gd32e23x_timer.c ****       \arg        TIMER_EVENT_SRC_CH2G: channel 2 capture or compare event generation, TIMERx(x=0,2
 653:Drivers/GD32E23x/Source/gd32e23x_timer.c ****       \arg        TIMER_EVENT_SRC_CH3G: channel 3 capture or compare event generation, TIMERx(x=0,2
 654:Drivers/GD32E23x/Source/gd32e23x_timer.c ****       \arg        TIMER_EVENT_SRC_CMTG: channel commutation event generation, TIMERx(x=0,14..16) 
 655:Drivers/GD32E23x/Source/gd32e23x_timer.c ****       \arg        TIMER_EVENT_SRC_TRGG: trigger event generation, TIMERx(x=0,2,14)
 656:Drivers/GD32E23x/Source/gd32e23x_timer.c ****       \arg        TIMER_EVENT_SRC_BRKG:  break event generation, TIMERx(x=0,14..16)
 657:Drivers/GD32E23x/Source/gd32e23x_timer.c ****     \param[out] none
 658:Drivers/GD32E23x/Source/gd32e23x_timer.c ****     \retval     none
 659:Drivers/GD32E23x/Source/gd32e23x_timer.c **** */
 660:Drivers/GD32E23x/Source/gd32e23x_timer.c **** void timer_event_software_generate(uint32_t timer_periph, uint16_t event)
 661:Drivers/GD32E23x/Source/gd32e23x_timer.c **** {
 1262              		.loc 1 661 1 is_stmt 1 view -0
 1263              		.cfi_startproc
 1264              		@ args = 0, pretend = 0, frame = 0
 1265              		@ frame_needed = 0, uses_anonymous_args = 0
 1266              		@ link register save eliminated.
 662:Drivers/GD32E23x/Source/gd32e23x_timer.c ****     TIMER_SWEVG(timer_periph) |= (uint32_t)event;
 1267              		.loc 1 662 5 view .LVU267
 1268 0000 4369     		ldr	r3, [r0, #20]
 1269              		.loc 1 662 31 is_stmt 0 view .LVU268
 1270 0002 0B43     		orrs	r3, r1
 1271 0004 4361     		str	r3, [r0, #20]
 663:Drivers/GD32E23x/Source/gd32e23x_timer.c **** }
 1272              		.loc 1 663 1 view .LVU269
 1273              		@ sp needed
 1274 0006 7047     		bx	lr
 1275              		.cfi_endproc
 1276              	.LFE91:
 1278              		.section	.text.timer_break_struct_para_init,"ax",%progbits
 1279              		.align	1
 1280              		.global	timer_break_struct_para_init
 1281              		.syntax unified
 1282              		.code	16
 1283              		.thumb_func
 1285              	timer_break_struct_para_init:
 1286              	.LVL74:
 1287              	.LFB92:
 664:Drivers/GD32E23x/Source/gd32e23x_timer.c **** 
 665:Drivers/GD32E23x/Source/gd32e23x_timer.c **** /*!
 666:Drivers/GD32E23x/Source/gd32e23x_timer.c ****     \brief      initialize TIMER break parameter struct with a default value
 667:Drivers/GD32E23x/Source/gd32e23x_timer.c ****     \param[in]  breakpara: TIMER break parameter struct
 668:Drivers/GD32E23x/Source/gd32e23x_timer.c ****     \param[out] none
 669:Drivers/GD32E23x/Source/gd32e23x_timer.c ****     \retval     none
 670:Drivers/GD32E23x/Source/gd32e23x_timer.c **** */
 671:Drivers/GD32E23x/Source/gd32e23x_timer.c **** void timer_break_struct_para_init(timer_break_parameter_struct* breakpara)
 672:Drivers/GD32E23x/Source/gd32e23x_timer.c **** {
 1288              		.loc 1 672 1 is_stmt 1 view -0
 1289              		.cfi_startproc
 1290              		@ args = 0, pretend = 0, frame = 0
 1291              		@ frame_needed = 0, uses_anonymous_args = 0
 1292              		@ link register save eliminated.
 673:Drivers/GD32E23x/Source/gd32e23x_timer.c ****     /* initialize the break parameter struct member with the default value */
 674:Drivers/GD32E23x/Source/gd32e23x_timer.c ****     breakpara->runoffstate     = TIMER_ROS_STATE_DISABLE;
 1293              		.loc 1 674 5 view .LVU271
 1294              		.loc 1 674 32 is_stmt 0 view .LVU272
ARM GAS  D:\noval\Temp\cck0Iw0b.s 			page 35


 1295 0000 0023     		movs	r3, #0
 1296 0002 0380     		strh	r3, [r0]
 675:Drivers/GD32E23x/Source/gd32e23x_timer.c ****     breakpara->ideloffstate    = TIMER_IOS_STATE_DISABLE;
 1297              		.loc 1 675 5 is_stmt 1 view .LVU273
 1298              		.loc 1 675 32 is_stmt 0 view .LVU274
 1299 0004 4380     		strh	r3, [r0, #2]
 676:Drivers/GD32E23x/Source/gd32e23x_timer.c ****     breakpara->deadtime        = 0U;
 1300              		.loc 1 676 5 is_stmt 1 view .LVU275
 1301              		.loc 1 676 32 is_stmt 0 view .LVU276
 1302 0006 8380     		strh	r3, [r0, #4]
 677:Drivers/GD32E23x/Source/gd32e23x_timer.c ****     breakpara->breakpolarity   = TIMER_BREAK_POLARITY_LOW;
 1303              		.loc 1 677 5 is_stmt 1 view .LVU277
 1304              		.loc 1 677 32 is_stmt 0 view .LVU278
 1305 0008 C380     		strh	r3, [r0, #6]
 678:Drivers/GD32E23x/Source/gd32e23x_timer.c ****     breakpara->outputautostate = TIMER_OUTAUTO_DISABLE;
 1306              		.loc 1 678 5 is_stmt 1 view .LVU279
 1307              		.loc 1 678 32 is_stmt 0 view .LVU280
 1308 000a 0381     		strh	r3, [r0, #8]
 679:Drivers/GD32E23x/Source/gd32e23x_timer.c ****     breakpara->protectmode     = TIMER_CCHP_PROT_OFF;
 1309              		.loc 1 679 5 is_stmt 1 view .LVU281
 1310              		.loc 1 679 32 is_stmt 0 view .LVU282
 1311 000c 4381     		strh	r3, [r0, #10]
 680:Drivers/GD32E23x/Source/gd32e23x_timer.c ****     breakpara->breakstate      = TIMER_BREAK_DISABLE;
 1312              		.loc 1 680 5 is_stmt 1 view .LVU283
 1313              		.loc 1 680 32 is_stmt 0 view .LVU284
 1314 000e 8381     		strh	r3, [r0, #12]
 681:Drivers/GD32E23x/Source/gd32e23x_timer.c **** }
 1315              		.loc 1 681 1 view .LVU285
 1316              		@ sp needed
 1317 0010 7047     		bx	lr
 1318              		.cfi_endproc
 1319              	.LFE92:
 1321              		.section	.text.timer_break_config,"ax",%progbits
 1322              		.align	1
 1323              		.global	timer_break_config
 1324              		.syntax unified
 1325              		.code	16
 1326              		.thumb_func
 1328              	timer_break_config:
 1329              	.LVL75:
 1330              	.LFB93:
 682:Drivers/GD32E23x/Source/gd32e23x_timer.c **** 
 683:Drivers/GD32E23x/Source/gd32e23x_timer.c **** /*!
 684:Drivers/GD32E23x/Source/gd32e23x_timer.c ****     \brief      configure TIMER break function 
 685:Drivers/GD32E23x/Source/gd32e23x_timer.c ****     \param[in]  timer_periph: TIMERx(x=0,14..16)
 686:Drivers/GD32E23x/Source/gd32e23x_timer.c ****     \param[in]  breakpara: TIMER break parameter struct
 687:Drivers/GD32E23x/Source/gd32e23x_timer.c ****                 runoffstate: TIMER_ROS_STATE_ENABLE,TIMER_ROS_STATE_DISABLE
 688:Drivers/GD32E23x/Source/gd32e23x_timer.c ****                 ideloffstate: TIMER_IOS_STATE_ENABLE,TIMER_IOS_STATE_DISABLE
 689:Drivers/GD32E23x/Source/gd32e23x_timer.c ****                 deadtime: 0~255
 690:Drivers/GD32E23x/Source/gd32e23x_timer.c ****                 breakpolarity: TIMER_BREAK_POLARITY_LOW,TIMER_BREAK_POLARITY_HIGH
 691:Drivers/GD32E23x/Source/gd32e23x_timer.c ****                 outputautostate: TIMER_OUTAUTO_ENABLE,TIMER_OUTAUTO_DISABLE
 692:Drivers/GD32E23x/Source/gd32e23x_timer.c ****                 protectmode: TIMER_CCHP_PROT_OFF,TIMER_CCHP_PROT_0,TIMER_CCHP_PROT_1,TIMER_CCHP_PRO
 693:Drivers/GD32E23x/Source/gd32e23x_timer.c ****                 breakstate: TIMER_BREAK_ENABLE,TIMER_BREAK_DISABLE
 694:Drivers/GD32E23x/Source/gd32e23x_timer.c ****     \param[out] none
 695:Drivers/GD32E23x/Source/gd32e23x_timer.c ****     \retval     none
 696:Drivers/GD32E23x/Source/gd32e23x_timer.c **** */
 697:Drivers/GD32E23x/Source/gd32e23x_timer.c **** void timer_break_config(uint32_t timer_periph, timer_break_parameter_struct* breakpara)
ARM GAS  D:\noval\Temp\cck0Iw0b.s 			page 36


 698:Drivers/GD32E23x/Source/gd32e23x_timer.c **** {
 1331              		.loc 1 698 1 is_stmt 1 view -0
 1332              		.cfi_startproc
 1333              		@ args = 0, pretend = 0, frame = 0
 1334              		@ frame_needed = 0, uses_anonymous_args = 0
 1335              		.loc 1 698 1 is_stmt 0 view .LVU287
 1336 0000 F0B5     		push	{r4, r5, r6, r7, lr}
 1337              	.LCFI2:
 1338              		.cfi_def_cfa_offset 20
 1339              		.cfi_offset 4, -20
 1340              		.cfi_offset 5, -16
 1341              		.cfi_offset 6, -12
 1342              		.cfi_offset 7, -8
 1343              		.cfi_offset 14, -4
 699:Drivers/GD32E23x/Source/gd32e23x_timer.c ****     TIMER_CCHP(timer_periph) = (uint32_t)(((uint32_t)(breakpara->runoffstate))|
 1344              		.loc 1 699 5 is_stmt 1 view .LVU288
 1345              		.loc 1 699 64 is_stmt 0 view .LVU289
 1346 0002 0F88     		ldrh	r7, [r1]
 700:Drivers/GD32E23x/Source/gd32e23x_timer.c ****                                           ((uint32_t)(breakpara->ideloffstate))|
 1347              		.loc 1 700 64 view .LVU290
 1348 0004 4B88     		ldrh	r3, [r1, #2]
 1349 0006 9C46     		mov	ip, r3
 701:Drivers/GD32E23x/Source/gd32e23x_timer.c ****                                           ((uint32_t)(breakpara->deadtime))|
 1350              		.loc 1 701 64 view .LVU291
 1351 0008 8E88     		ldrh	r6, [r1, #4]
 702:Drivers/GD32E23x/Source/gd32e23x_timer.c ****                                           ((uint32_t)(breakpara->breakpolarity))|
 1352              		.loc 1 702 64 view .LVU292
 1353 000a CD88     		ldrh	r5, [r1, #6]
 703:Drivers/GD32E23x/Source/gd32e23x_timer.c ****                                           ((uint32_t)(breakpara->outputautostate)) |
 1354              		.loc 1 703 64 view .LVU293
 1355 000c 0C89     		ldrh	r4, [r1, #8]
 704:Drivers/GD32E23x/Source/gd32e23x_timer.c ****                                           ((uint32_t)(breakpara->protectmode))|
 1356              		.loc 1 704 64 view .LVU294
 1357 000e 4A89     		ldrh	r2, [r1, #10]
 705:Drivers/GD32E23x/Source/gd32e23x_timer.c ****                                           ((uint32_t)(breakpara->breakstate))) ;
 1358              		.loc 1 705 64 view .LVU295
 1359 0010 8B89     		ldrh	r3, [r1, #12]
 699:Drivers/GD32E23x/Source/gd32e23x_timer.c ****                                           ((uint32_t)(breakpara->ideloffstate))|
 1360              		.loc 1 699 32 view .LVU296
 1361 0012 6146     		mov	r1, ip
 1362              	.LVL76:
 699:Drivers/GD32E23x/Source/gd32e23x_timer.c ****                                           ((uint32_t)(breakpara->ideloffstate))|
 1363              		.loc 1 699 32 view .LVU297
 1364 0014 3943     		orrs	r1, r7
 1365 0016 3143     		orrs	r1, r6
 1366 0018 2943     		orrs	r1, r5
 1367 001a 2143     		orrs	r1, r4
 1368 001c 0A43     		orrs	r2, r1
 1369 001e 1343     		orrs	r3, r2
 699:Drivers/GD32E23x/Source/gd32e23x_timer.c ****                                           ((uint32_t)(breakpara->ideloffstate))|
 1370              		.loc 1 699 30 view .LVU298
 1371 0020 4364     		str	r3, [r0, #68]
 706:Drivers/GD32E23x/Source/gd32e23x_timer.c **** }
 1372              		.loc 1 706 1 view .LVU299
 1373              		@ sp needed
 1374 0022 F0BD     		pop	{r4, r5, r6, r7, pc}
 1375              		.cfi_endproc
ARM GAS  D:\noval\Temp\cck0Iw0b.s 			page 37


 1376              	.LFE93:
 1378              		.section	.text.timer_break_enable,"ax",%progbits
 1379              		.align	1
 1380              		.global	timer_break_enable
 1381              		.syntax unified
 1382              		.code	16
 1383              		.thumb_func
 1385              	timer_break_enable:
 1386              	.LVL77:
 1387              	.LFB94:
 707:Drivers/GD32E23x/Source/gd32e23x_timer.c **** 
 708:Drivers/GD32E23x/Source/gd32e23x_timer.c **** /*!
 709:Drivers/GD32E23x/Source/gd32e23x_timer.c ****     \brief      enable TIMER break function
 710:Drivers/GD32E23x/Source/gd32e23x_timer.c ****     \param[in]  timer_periph: TIMERx(x=0,14..16)
 711:Drivers/GD32E23x/Source/gd32e23x_timer.c ****     \param[out] none
 712:Drivers/GD32E23x/Source/gd32e23x_timer.c ****     \retval     none
 713:Drivers/GD32E23x/Source/gd32e23x_timer.c **** */
 714:Drivers/GD32E23x/Source/gd32e23x_timer.c **** void timer_break_enable(uint32_t timer_periph)
 715:Drivers/GD32E23x/Source/gd32e23x_timer.c **** {
 1388              		.loc 1 715 1 is_stmt 1 view -0
 1389              		.cfi_startproc
 1390              		@ args = 0, pretend = 0, frame = 0
 1391              		@ frame_needed = 0, uses_anonymous_args = 0
 1392              		@ link register save eliminated.
 716:Drivers/GD32E23x/Source/gd32e23x_timer.c ****     TIMER_CCHP(timer_periph) |= (uint32_t)TIMER_CCHP_BRKEN;
 1393              		.loc 1 716 5 view .LVU301
 1394 0000 436C     		ldr	r3, [r0, #68]
 1395              		.loc 1 716 30 is_stmt 0 view .LVU302
 1396 0002 41F20002 		movw	r2, #4096
 1397 0006 1343     		orrs	r3, r2
 1398 0008 4364     		str	r3, [r0, #68]
 717:Drivers/GD32E23x/Source/gd32e23x_timer.c **** }
 1399              		.loc 1 717 1 view .LVU303
 1400              		@ sp needed
 1401 000a 7047     		bx	lr
 1402              		.cfi_endproc
 1403              	.LFE94:
 1405              		.section	.text.timer_break_disable,"ax",%progbits
 1406              		.align	1
 1407              		.global	timer_break_disable
 1408              		.syntax unified
 1409              		.code	16
 1410              		.thumb_func
 1412              	timer_break_disable:
 1413              	.LVL78:
 1414              	.LFB95:
 718:Drivers/GD32E23x/Source/gd32e23x_timer.c **** 
 719:Drivers/GD32E23x/Source/gd32e23x_timer.c **** /*!
 720:Drivers/GD32E23x/Source/gd32e23x_timer.c ****     \brief      disable TIMER break function
 721:Drivers/GD32E23x/Source/gd32e23x_timer.c ****     \param[in]  timer_periph: TIMERx(x=0,14..16)
 722:Drivers/GD32E23x/Source/gd32e23x_timer.c ****     \param[out] none
 723:Drivers/GD32E23x/Source/gd32e23x_timer.c ****     \retval     none
 724:Drivers/GD32E23x/Source/gd32e23x_timer.c **** */
 725:Drivers/GD32E23x/Source/gd32e23x_timer.c **** void timer_break_disable(uint32_t timer_periph)
 726:Drivers/GD32E23x/Source/gd32e23x_timer.c **** {
 1415              		.loc 1 726 1 is_stmt 1 view -0
 1416              		.cfi_startproc
ARM GAS  D:\noval\Temp\cck0Iw0b.s 			page 38


 1417              		@ args = 0, pretend = 0, frame = 0
 1418              		@ frame_needed = 0, uses_anonymous_args = 0
 1419              		@ link register save eliminated.
 727:Drivers/GD32E23x/Source/gd32e23x_timer.c ****     TIMER_CCHP(timer_periph) &= ~(uint32_t)TIMER_CCHP_BRKEN;
 1420              		.loc 1 727 5 view .LVU305
 1421 0000 436C     		ldr	r3, [r0, #68]
 1422              		.loc 1 727 30 is_stmt 0 view .LVU306
 1423 0002 024A     		ldr	r2, .L75
 1424 0004 1340     		ands	r3, r2
 1425 0006 4364     		str	r3, [r0, #68]
 728:Drivers/GD32E23x/Source/gd32e23x_timer.c **** }
 1426              		.loc 1 728 1 view .LVU307
 1427              		@ sp needed
 1428 0008 7047     		bx	lr
 1429              	.L76:
 1430 000a C046     		.align	2
 1431              	.L75:
 1432 000c FFEFFFFF 		.word	-4097
 1433              		.cfi_endproc
 1434              	.LFE95:
 1436              		.section	.text.timer_automatic_output_enable,"ax",%progbits
 1437              		.align	1
 1438              		.global	timer_automatic_output_enable
 1439              		.syntax unified
 1440              		.code	16
 1441              		.thumb_func
 1443              	timer_automatic_output_enable:
 1444              	.LVL79:
 1445              	.LFB96:
 729:Drivers/GD32E23x/Source/gd32e23x_timer.c **** 
 730:Drivers/GD32E23x/Source/gd32e23x_timer.c **** /*!
 731:Drivers/GD32E23x/Source/gd32e23x_timer.c ****     \brief      enable TIMER output automatic function
 732:Drivers/GD32E23x/Source/gd32e23x_timer.c ****     \param[in]  timer_periph: TIMERx(x=0,14..16)
 733:Drivers/GD32E23x/Source/gd32e23x_timer.c ****     \param[out] none
 734:Drivers/GD32E23x/Source/gd32e23x_timer.c ****     \retval     none
 735:Drivers/GD32E23x/Source/gd32e23x_timer.c **** */
 736:Drivers/GD32E23x/Source/gd32e23x_timer.c **** void timer_automatic_output_enable(uint32_t timer_periph)
 737:Drivers/GD32E23x/Source/gd32e23x_timer.c **** {
 1446              		.loc 1 737 1 is_stmt 1 view -0
 1447              		.cfi_startproc
 1448              		@ args = 0, pretend = 0, frame = 0
 1449              		@ frame_needed = 0, uses_anonymous_args = 0
 1450              		@ link register save eliminated.
 738:Drivers/GD32E23x/Source/gd32e23x_timer.c ****     TIMER_CCHP(timer_periph) |= (uint32_t)TIMER_CCHP_OAEN;
 1451              		.loc 1 738 5 view .LVU309
 1452 0000 436C     		ldr	r3, [r0, #68]
 1453              		.loc 1 738 30 is_stmt 0 view .LVU310
 1454 0002 44F20002 		movw	r2, #16384
 1455 0006 1343     		orrs	r3, r2
 1456 0008 4364     		str	r3, [r0, #68]
 739:Drivers/GD32E23x/Source/gd32e23x_timer.c **** }
 1457              		.loc 1 739 1 view .LVU311
 1458              		@ sp needed
 1459 000a 7047     		bx	lr
 1460              		.cfi_endproc
 1461              	.LFE96:
 1463              		.section	.text.timer_automatic_output_disable,"ax",%progbits
ARM GAS  D:\noval\Temp\cck0Iw0b.s 			page 39


 1464              		.align	1
 1465              		.global	timer_automatic_output_disable
 1466              		.syntax unified
 1467              		.code	16
 1468              		.thumb_func
 1470              	timer_automatic_output_disable:
 1471              	.LVL80:
 1472              	.LFB97:
 740:Drivers/GD32E23x/Source/gd32e23x_timer.c **** 
 741:Drivers/GD32E23x/Source/gd32e23x_timer.c **** /*!
 742:Drivers/GD32E23x/Source/gd32e23x_timer.c ****     \brief      disable TIMER output automatic function
 743:Drivers/GD32E23x/Source/gd32e23x_timer.c ****     \param[in]  timer_periph: TIMERx(x=0,14..16)
 744:Drivers/GD32E23x/Source/gd32e23x_timer.c ****     \param[out] none
 745:Drivers/GD32E23x/Source/gd32e23x_timer.c ****     \retval     none
 746:Drivers/GD32E23x/Source/gd32e23x_timer.c **** */
 747:Drivers/GD32E23x/Source/gd32e23x_timer.c **** void timer_automatic_output_disable(uint32_t timer_periph)
 748:Drivers/GD32E23x/Source/gd32e23x_timer.c **** {
 1473              		.loc 1 748 1 is_stmt 1 view -0
 1474              		.cfi_startproc
 1475              		@ args = 0, pretend = 0, frame = 0
 1476              		@ frame_needed = 0, uses_anonymous_args = 0
 1477              		@ link register save eliminated.
 749:Drivers/GD32E23x/Source/gd32e23x_timer.c ****     TIMER_CCHP(timer_periph) &= ~(uint32_t)TIMER_CCHP_OAEN;
 1478              		.loc 1 749 5 view .LVU313
 1479 0000 436C     		ldr	r3, [r0, #68]
 1480              		.loc 1 749 30 is_stmt 0 view .LVU314
 1481 0002 024A     		ldr	r2, .L79
 1482 0004 1340     		ands	r3, r2
 1483 0006 4364     		str	r3, [r0, #68]
 750:Drivers/GD32E23x/Source/gd32e23x_timer.c **** }
 1484              		.loc 1 750 1 view .LVU315
 1485              		@ sp needed
 1486 0008 7047     		bx	lr
 1487              	.L80:
 1488 000a C046     		.align	2
 1489              	.L79:
 1490 000c FFBFFFFF 		.word	-16385
 1491              		.cfi_endproc
 1492              	.LFE97:
 1494              		.section	.text.timer_primary_output_config,"ax",%progbits
 1495              		.align	1
 1496              		.global	timer_primary_output_config
 1497              		.syntax unified
 1498              		.code	16
 1499              		.thumb_func
 1501              	timer_primary_output_config:
 1502              	.LVL81:
 1503              	.LFB98:
 751:Drivers/GD32E23x/Source/gd32e23x_timer.c **** 
 752:Drivers/GD32E23x/Source/gd32e23x_timer.c **** /*!
 753:Drivers/GD32E23x/Source/gd32e23x_timer.c ****     \brief      configure TIMER primary output function
 754:Drivers/GD32E23x/Source/gd32e23x_timer.c ****     \param[in]  timer_periph: TIMERx(x=0,14..16)
 755:Drivers/GD32E23x/Source/gd32e23x_timer.c ****     \param[in]  newvalue: ENABLE or DISABLE
 756:Drivers/GD32E23x/Source/gd32e23x_timer.c ****     \param[out] none
 757:Drivers/GD32E23x/Source/gd32e23x_timer.c ****     \retval     none
 758:Drivers/GD32E23x/Source/gd32e23x_timer.c **** */
 759:Drivers/GD32E23x/Source/gd32e23x_timer.c **** void timer_primary_output_config(uint32_t timer_periph, ControlStatus newvalue)
ARM GAS  D:\noval\Temp\cck0Iw0b.s 			page 40


 760:Drivers/GD32E23x/Source/gd32e23x_timer.c **** {
 1504              		.loc 1 760 1 is_stmt 1 view -0
 1505              		.cfi_startproc
 1506              		@ args = 0, pretend = 0, frame = 0
 1507              		@ frame_needed = 0, uses_anonymous_args = 0
 1508              		@ link register save eliminated.
 761:Drivers/GD32E23x/Source/gd32e23x_timer.c ****     if(ENABLE == newvalue){
 1509              		.loc 1 761 5 view .LVU317
 1510              		.loc 1 761 7 is_stmt 0 view .LVU318
 1511 0000 0129     		cmp	r1, #1
 1512 0002 04D0     		beq	.L84
 762:Drivers/GD32E23x/Source/gd32e23x_timer.c ****         TIMER_CCHP(timer_periph) |= (uint32_t)TIMER_CCHP_POEN;
 763:Drivers/GD32E23x/Source/gd32e23x_timer.c ****     }else{
 764:Drivers/GD32E23x/Source/gd32e23x_timer.c ****         TIMER_CCHP(timer_periph) &= (~(uint32_t)TIMER_CCHP_POEN);
 1513              		.loc 1 764 9 is_stmt 1 view .LVU319
 1514 0004 436C     		ldr	r3, [r0, #68]
 1515              		.loc 1 764 34 is_stmt 0 view .LVU320
 1516 0006 054A     		ldr	r2, .L85
 1517 0008 1340     		ands	r3, r2
 1518 000a 4364     		str	r3, [r0, #68]
 1519              	.L81:
 765:Drivers/GD32E23x/Source/gd32e23x_timer.c ****     }
 766:Drivers/GD32E23x/Source/gd32e23x_timer.c **** }
 1520              		.loc 1 766 1 view .LVU321
 1521              		@ sp needed
 1522 000c 7047     		bx	lr
 1523              	.L84:
 762:Drivers/GD32E23x/Source/gd32e23x_timer.c ****         TIMER_CCHP(timer_periph) |= (uint32_t)TIMER_CCHP_POEN;
 1524              		.loc 1 762 9 is_stmt 1 view .LVU322
 1525 000e 436C     		ldr	r3, [r0, #68]
 762:Drivers/GD32E23x/Source/gd32e23x_timer.c ****         TIMER_CCHP(timer_periph) |= (uint32_t)TIMER_CCHP_POEN;
 1526              		.loc 1 762 34 is_stmt 0 view .LVU323
 1527 0010 48F20002 		movw	r2, #32768
 1528 0014 1343     		orrs	r3, r2
 1529 0016 4364     		str	r3, [r0, #68]
 1530 0018 F8E7     		b	.L81
 1531              	.L86:
 1532 001a C046     		.align	2
 1533              	.L85:
 1534 001c FF7FFFFF 		.word	-32769
 1535              		.cfi_endproc
 1536              	.LFE98:
 1538              		.section	.text.timer_channel_control_shadow_config,"ax",%progbits
 1539              		.align	1
 1540              		.global	timer_channel_control_shadow_config
 1541              		.syntax unified
 1542              		.code	16
 1543              		.thumb_func
 1545              	timer_channel_control_shadow_config:
 1546              	.LVL82:
 1547              	.LFB99:
 767:Drivers/GD32E23x/Source/gd32e23x_timer.c **** 
 768:Drivers/GD32E23x/Source/gd32e23x_timer.c **** /*!
 769:Drivers/GD32E23x/Source/gd32e23x_timer.c ****     \brief      enable or disable channel capture/compare control shadow register
 770:Drivers/GD32E23x/Source/gd32e23x_timer.c ****     \param[in]  timer_periph: TIMERx(x=0,14..16)
 771:Drivers/GD32E23x/Source/gd32e23x_timer.c ****     \param[in]  newvalue: ENABLE or DISABLE 
 772:Drivers/GD32E23x/Source/gd32e23x_timer.c ****     \param[out] none
ARM GAS  D:\noval\Temp\cck0Iw0b.s 			page 41


 773:Drivers/GD32E23x/Source/gd32e23x_timer.c ****     \retval     none
 774:Drivers/GD32E23x/Source/gd32e23x_timer.c **** */
 775:Drivers/GD32E23x/Source/gd32e23x_timer.c **** void timer_channel_control_shadow_config(uint32_t timer_periph, ControlStatus newvalue)
 776:Drivers/GD32E23x/Source/gd32e23x_timer.c **** {
 1548              		.loc 1 776 1 is_stmt 1 view -0
 1549              		.cfi_startproc
 1550              		@ args = 0, pretend = 0, frame = 0
 1551              		@ frame_needed = 0, uses_anonymous_args = 0
 1552              		@ link register save eliminated.
 777:Drivers/GD32E23x/Source/gd32e23x_timer.c ****      if(ENABLE == newvalue){
 1553              		.loc 1 777 6 view .LVU325
 1554              		.loc 1 777 8 is_stmt 0 view .LVU326
 1555 0000 0129     		cmp	r1, #1
 1556 0002 04D0     		beq	.L90
 778:Drivers/GD32E23x/Source/gd32e23x_timer.c ****         TIMER_CTL1(timer_periph) |= (uint32_t)TIMER_CTL1_CCSE;
 779:Drivers/GD32E23x/Source/gd32e23x_timer.c ****     }else{
 780:Drivers/GD32E23x/Source/gd32e23x_timer.c ****         TIMER_CTL1(timer_periph) &= (~(uint32_t)TIMER_CTL1_CCSE);
 1557              		.loc 1 780 9 is_stmt 1 view .LVU327
 1558 0004 4368     		ldr	r3, [r0, #4]
 1559              		.loc 1 780 34 is_stmt 0 view .LVU328
 1560 0006 0122     		movs	r2, #1
 1561 0008 9343     		bics	r3, r2
 1562 000a 4360     		str	r3, [r0, #4]
 1563              	.L87:
 781:Drivers/GD32E23x/Source/gd32e23x_timer.c ****     }
 782:Drivers/GD32E23x/Source/gd32e23x_timer.c **** }
 1564              		.loc 1 782 1 view .LVU329
 1565              		@ sp needed
 1566 000c 7047     		bx	lr
 1567              	.L90:
 778:Drivers/GD32E23x/Source/gd32e23x_timer.c ****         TIMER_CTL1(timer_periph) |= (uint32_t)TIMER_CTL1_CCSE;
 1568              		.loc 1 778 9 is_stmt 1 view .LVU330
 1569 000e 4368     		ldr	r3, [r0, #4]
 778:Drivers/GD32E23x/Source/gd32e23x_timer.c ****         TIMER_CTL1(timer_periph) |= (uint32_t)TIMER_CTL1_CCSE;
 1570              		.loc 1 778 34 is_stmt 0 view .LVU331
 1571 0010 0122     		movs	r2, #1
 1572 0012 1343     		orrs	r3, r2
 1573 0014 4360     		str	r3, [r0, #4]
 1574 0016 F9E7     		b	.L87
 1575              		.cfi_endproc
 1576              	.LFE99:
 1578              		.section	.text.timer_channel_control_shadow_update_config,"ax",%progbits
 1579              		.align	1
 1580              		.global	timer_channel_control_shadow_update_config
 1581              		.syntax unified
 1582              		.code	16
 1583              		.thumb_func
 1585              	timer_channel_control_shadow_update_config:
 1586              	.LVL83:
 1587              	.LFB100:
 783:Drivers/GD32E23x/Source/gd32e23x_timer.c **** 
 784:Drivers/GD32E23x/Source/gd32e23x_timer.c **** /*!
 785:Drivers/GD32E23x/Source/gd32e23x_timer.c ****     \brief      configure TIMER channel control shadow register update control
 786:Drivers/GD32E23x/Source/gd32e23x_timer.c ****     \param[in]  timer_periph: TIMERx(x=0,14..16)
 787:Drivers/GD32E23x/Source/gd32e23x_timer.c ****     \param[in]  ccuctl: channel control shadow register update control
 788:Drivers/GD32E23x/Source/gd32e23x_timer.c ****                 only one parameter can be selected which is shown as below:
 789:Drivers/GD32E23x/Source/gd32e23x_timer.c ****       \arg        TIMER_UPDATECTL_CCU: the shadow registers update by when CMTG bit is set
ARM GAS  D:\noval\Temp\cck0Iw0b.s 			page 42


 790:Drivers/GD32E23x/Source/gd32e23x_timer.c ****       \arg        TIMER_UPDATECTL_CCUTRI: the shadow registers update by when CMTG bit is set or an
 791:Drivers/GD32E23x/Source/gd32e23x_timer.c ****     \param[out] none
 792:Drivers/GD32E23x/Source/gd32e23x_timer.c ****     \retval     none
 793:Drivers/GD32E23x/Source/gd32e23x_timer.c **** */              
 794:Drivers/GD32E23x/Source/gd32e23x_timer.c **** void timer_channel_control_shadow_update_config(uint32_t timer_periph, uint8_t ccuctl)
 795:Drivers/GD32E23x/Source/gd32e23x_timer.c **** {
 1588              		.loc 1 795 1 is_stmt 1 view -0
 1589              		.cfi_startproc
 1590              		@ args = 0, pretend = 0, frame = 0
 1591              		@ frame_needed = 0, uses_anonymous_args = 0
 1592              		@ link register save eliminated.
 796:Drivers/GD32E23x/Source/gd32e23x_timer.c ****     if(TIMER_UPDATECTL_CCU == ccuctl){
 1593              		.loc 1 796 5 view .LVU333
 1594              		.loc 1 796 7 is_stmt 0 view .LVU334
 1595 0000 21B9     		cbnz	r1, .L92
 797:Drivers/GD32E23x/Source/gd32e23x_timer.c ****         TIMER_CTL1(timer_periph) &= (~(uint32_t)TIMER_CTL1_CCUC);
 1596              		.loc 1 797 9 is_stmt 1 view .LVU335
 1597 0002 4368     		ldr	r3, [r0, #4]
 1598              		.loc 1 797 34 is_stmt 0 view .LVU336
 1599 0004 0422     		movs	r2, #4
 1600 0006 9343     		bics	r3, r2
 1601 0008 4360     		str	r3, [r0, #4]
 1602              	.L91:
 798:Drivers/GD32E23x/Source/gd32e23x_timer.c ****     }else if(TIMER_UPDATECTL_CCUTRI == ccuctl){
 799:Drivers/GD32E23x/Source/gd32e23x_timer.c ****         TIMER_CTL1(timer_periph) |= (uint32_t)TIMER_CTL1_CCUC;
 800:Drivers/GD32E23x/Source/gd32e23x_timer.c ****     }else{
 801:Drivers/GD32E23x/Source/gd32e23x_timer.c ****         /* illegal parameters */
 802:Drivers/GD32E23x/Source/gd32e23x_timer.c ****     }
 803:Drivers/GD32E23x/Source/gd32e23x_timer.c **** }
 1603              		.loc 1 803 1 view .LVU337
 1604              		@ sp needed
 1605 000a 7047     		bx	lr
 1606              	.L92:
 798:Drivers/GD32E23x/Source/gd32e23x_timer.c ****     }else if(TIMER_UPDATECTL_CCUTRI == ccuctl){
 1607              		.loc 1 798 11 is_stmt 1 view .LVU338
 798:Drivers/GD32E23x/Source/gd32e23x_timer.c ****     }else if(TIMER_UPDATECTL_CCUTRI == ccuctl){
 1608              		.loc 1 798 13 is_stmt 0 view .LVU339
 1609 000c 0429     		cmp	r1, #4
 1610 000e FCD1     		bne	.L91
 799:Drivers/GD32E23x/Source/gd32e23x_timer.c ****     }else{
 1611              		.loc 1 799 9 is_stmt 1 view .LVU340
 1612 0010 4368     		ldr	r3, [r0, #4]
 799:Drivers/GD32E23x/Source/gd32e23x_timer.c ****     }else{
 1613              		.loc 1 799 34 is_stmt 0 view .LVU341
 1614 0012 0422     		movs	r2, #4
 1615 0014 1343     		orrs	r3, r2
 1616 0016 4360     		str	r3, [r0, #4]
 802:Drivers/GD32E23x/Source/gd32e23x_timer.c **** }
 1617              		.loc 1 802 5 is_stmt 1 view .LVU342
 1618              		.loc 1 803 1 is_stmt 0 view .LVU343
 1619 0018 F7E7     		b	.L91
 1620              		.cfi_endproc
 1621              	.LFE100:
 1623              		.section	.text.timer_channel_output_struct_para_init,"ax",%progbits
 1624              		.align	1
 1625              		.global	timer_channel_output_struct_para_init
 1626              		.syntax unified
ARM GAS  D:\noval\Temp\cck0Iw0b.s 			page 43


 1627              		.code	16
 1628              		.thumb_func
 1630              	timer_channel_output_struct_para_init:
 1631              	.LVL84:
 1632              	.LFB101:
 804:Drivers/GD32E23x/Source/gd32e23x_timer.c **** 
 805:Drivers/GD32E23x/Source/gd32e23x_timer.c **** /*!
 806:Drivers/GD32E23x/Source/gd32e23x_timer.c ****     \brief      initialize TIMER channel output parameter struct with a default value
 807:Drivers/GD32E23x/Source/gd32e23x_timer.c ****     \param[in]  ocpara: TIMER channel n output parameter struct
 808:Drivers/GD32E23x/Source/gd32e23x_timer.c ****     \param[out] none
 809:Drivers/GD32E23x/Source/gd32e23x_timer.c ****     \retval     none
 810:Drivers/GD32E23x/Source/gd32e23x_timer.c **** */
 811:Drivers/GD32E23x/Source/gd32e23x_timer.c **** void timer_channel_output_struct_para_init(timer_oc_parameter_struct* ocpara)
 812:Drivers/GD32E23x/Source/gd32e23x_timer.c **** {
 1633              		.loc 1 812 1 is_stmt 1 view -0
 1634              		.cfi_startproc
 1635              		@ args = 0, pretend = 0, frame = 0
 1636              		@ frame_needed = 0, uses_anonymous_args = 0
 1637              		@ link register save eliminated.
 813:Drivers/GD32E23x/Source/gd32e23x_timer.c ****     /* initialize the channel output parameter struct member with the default value */
 814:Drivers/GD32E23x/Source/gd32e23x_timer.c ****     ocpara->outputstate  = (uint16_t)TIMER_CCX_DISABLE;
 1638              		.loc 1 814 5 view .LVU345
 1639              		.loc 1 814 26 is_stmt 0 view .LVU346
 1640 0000 0023     		movs	r3, #0
 1641 0002 0380     		strh	r3, [r0]
 815:Drivers/GD32E23x/Source/gd32e23x_timer.c ****     ocpara->outputnstate = TIMER_CCXN_DISABLE;
 1642              		.loc 1 815 5 is_stmt 1 view .LVU347
 1643              		.loc 1 815 26 is_stmt 0 view .LVU348
 1644 0004 4380     		strh	r3, [r0, #2]
 816:Drivers/GD32E23x/Source/gd32e23x_timer.c ****     ocpara->ocpolarity   = TIMER_OC_POLARITY_HIGH;
 1645              		.loc 1 816 5 is_stmt 1 view .LVU349
 1646              		.loc 1 816 26 is_stmt 0 view .LVU350
 1647 0006 8380     		strh	r3, [r0, #4]
 817:Drivers/GD32E23x/Source/gd32e23x_timer.c ****     ocpara->ocnpolarity  = TIMER_OCN_POLARITY_HIGH;
 1648              		.loc 1 817 5 is_stmt 1 view .LVU351
 1649              		.loc 1 817 26 is_stmt 0 view .LVU352
 1650 0008 C380     		strh	r3, [r0, #6]
 818:Drivers/GD32E23x/Source/gd32e23x_timer.c ****     ocpara->ocidlestate  = TIMER_OC_IDLE_STATE_LOW;
 1651              		.loc 1 818 5 is_stmt 1 view .LVU353
 1652              		.loc 1 818 26 is_stmt 0 view .LVU354
 1653 000a 0381     		strh	r3, [r0, #8]
 819:Drivers/GD32E23x/Source/gd32e23x_timer.c ****     ocpara->ocnidlestate = TIMER_OCN_IDLE_STATE_LOW;
 1654              		.loc 1 819 5 is_stmt 1 view .LVU355
 1655              		.loc 1 819 26 is_stmt 0 view .LVU356
 1656 000c 4381     		strh	r3, [r0, #10]
 820:Drivers/GD32E23x/Source/gd32e23x_timer.c **** }
 1657              		.loc 1 820 1 view .LVU357
 1658              		@ sp needed
 1659 000e 7047     		bx	lr
 1660              		.cfi_endproc
 1661              	.LFE101:
 1663              		.section	.text.timer_channel_output_config,"ax",%progbits
 1664              		.align	1
 1665              		.global	timer_channel_output_config
 1666              		.syntax unified
 1667              		.code	16
 1668              		.thumb_func
ARM GAS  D:\noval\Temp\cck0Iw0b.s 			page 44


 1670              	timer_channel_output_config:
 1671              	.LVL85:
 1672              	.LFB102:
 821:Drivers/GD32E23x/Source/gd32e23x_timer.c **** 
 822:Drivers/GD32E23x/Source/gd32e23x_timer.c **** /*!
 823:Drivers/GD32E23x/Source/gd32e23x_timer.c ****     \brief      configure TIMER channel output function
 824:Drivers/GD32E23x/Source/gd32e23x_timer.c ****     \param[in]  timer_periph: please refer to the following parameters
 825:Drivers/GD32E23x/Source/gd32e23x_timer.c ****     \param[in]  channel:
 826:Drivers/GD32E23x/Source/gd32e23x_timer.c ****                 only one parameter can be selected which is shown as below:
 827:Drivers/GD32E23x/Source/gd32e23x_timer.c ****       \arg        TIMER_CH_0: TIMER channel 0(TIMERx(x=0,2,13..16))
 828:Drivers/GD32E23x/Source/gd32e23x_timer.c ****       \arg        TIMER_CH_1: TIMER channel 1(TIMERx(x=0,2,14))
 829:Drivers/GD32E23x/Source/gd32e23x_timer.c ****       \arg        TIMER_CH_2: TIMER channel 2(TIMERx(x=0,2))
 830:Drivers/GD32E23x/Source/gd32e23x_timer.c ****       \arg        TIMER_CH_3: TIMER channel 3(TIMERx(x=0,2))
 831:Drivers/GD32E23x/Source/gd32e23x_timer.c ****     \param[in]  ocpara: TIMER channeln output parameter struct
 832:Drivers/GD32E23x/Source/gd32e23x_timer.c ****                 outputstate: TIMER_CCX_ENABLE,TIMER_CCX_DISABLE
 833:Drivers/GD32E23x/Source/gd32e23x_timer.c ****                 outputnstate: TIMER_CCXN_ENABLE,TIMER_CCXN_DISABLE
 834:Drivers/GD32E23x/Source/gd32e23x_timer.c ****                 ocpolarity: TIMER_OC_POLARITY_HIGH,TIMER_OC_POLARITY_LOW
 835:Drivers/GD32E23x/Source/gd32e23x_timer.c ****                 ocnpolarity: TIMER_OCN_POLARITY_HIGH,TIMER_OCN_POLARITY_LOW
 836:Drivers/GD32E23x/Source/gd32e23x_timer.c ****                 ocidlestate: TIMER_OC_IDLE_STATE_LOW,TIMER_OC_IDLE_STATE_HIGH
 837:Drivers/GD32E23x/Source/gd32e23x_timer.c ****                 ocnidlestate: TIMER_OCN_IDLE_STATE_LOW,TIMER_OCN_IDLE_STATE_HIGH
 838:Drivers/GD32E23x/Source/gd32e23x_timer.c ****     \param[out] none
 839:Drivers/GD32E23x/Source/gd32e23x_timer.c ****     \retval     none
 840:Drivers/GD32E23x/Source/gd32e23x_timer.c **** */
 841:Drivers/GD32E23x/Source/gd32e23x_timer.c **** void timer_channel_output_config(uint32_t timer_periph, uint16_t channel, timer_oc_parameter_struct
 842:Drivers/GD32E23x/Source/gd32e23x_timer.c **** {
 1673              		.loc 1 842 1 is_stmt 1 view -0
 1674              		.cfi_startproc
 1675              		@ args = 0, pretend = 0, frame = 0
 1676              		@ frame_needed = 0, uses_anonymous_args = 0
 1677              		@ link register save eliminated.
 843:Drivers/GD32E23x/Source/gd32e23x_timer.c ****     switch(channel){
 1678              		.loc 1 843 5 view .LVU359
 1679 0000 0229     		cmp	r1, #2
 1680 0002 00D1     		bne	.LCB1202
 1681 0004 CDE0     		b	.L96	@long jump
 1682              	.LCB1202:
 1683 0006 32D8     		bhi	.L97
 1684 0008 0029     		cmp	r1, #0
 1685 000a 58D0     		beq	.L98
 1686 000c 0129     		cmp	r1, #1
 1687 000e 00D0     		beq	.LCB1208
 1688 0010 A1E0     		b	.L95	@long jump
 1689              	.LCB1208:
 844:Drivers/GD32E23x/Source/gd32e23x_timer.c ****     /* configure TIMER_CH_0 */
 845:Drivers/GD32E23x/Source/gd32e23x_timer.c ****     case TIMER_CH_0:
 846:Drivers/GD32E23x/Source/gd32e23x_timer.c ****         /* reset the CH0EN bit */
 847:Drivers/GD32E23x/Source/gd32e23x_timer.c ****         TIMER_CHCTL2(timer_periph) &= (~(uint32_t)TIMER_CHCTL2_CH0EN);
 848:Drivers/GD32E23x/Source/gd32e23x_timer.c ****         TIMER_CHCTL0(timer_periph) &= ~(uint32_t)TIMER_CHCTL0_CH0MS;
 849:Drivers/GD32E23x/Source/gd32e23x_timer.c ****         /* set the CH0EN bit */
 850:Drivers/GD32E23x/Source/gd32e23x_timer.c ****         TIMER_CHCTL2(timer_periph) |= (uint32_t)ocpara->outputstate;
 851:Drivers/GD32E23x/Source/gd32e23x_timer.c ****         /* reset the CH0P bit */
 852:Drivers/GD32E23x/Source/gd32e23x_timer.c ****         TIMER_CHCTL2(timer_periph) &= (~(uint32_t)TIMER_CHCTL2_CH0P);
 853:Drivers/GD32E23x/Source/gd32e23x_timer.c ****         /* set the CH0P bit */
 854:Drivers/GD32E23x/Source/gd32e23x_timer.c ****         TIMER_CHCTL2(timer_periph) |= (uint32_t)ocpara->ocpolarity;
 855:Drivers/GD32E23x/Source/gd32e23x_timer.c **** 
 856:Drivers/GD32E23x/Source/gd32e23x_timer.c ****         if((TIMER0 == timer_periph) || (TIMER14 == timer_periph) || (TIMER15 == timer_periph) || (T
 857:Drivers/GD32E23x/Source/gd32e23x_timer.c ****             /* reset the CH0NEN bit */
ARM GAS  D:\noval\Temp\cck0Iw0b.s 			page 45


 858:Drivers/GD32E23x/Source/gd32e23x_timer.c ****             TIMER_CHCTL2(timer_periph) &= (~(uint32_t)TIMER_CHCTL2_CH0NEN);
 859:Drivers/GD32E23x/Source/gd32e23x_timer.c ****             /* set the CH0NEN bit */
 860:Drivers/GD32E23x/Source/gd32e23x_timer.c ****             TIMER_CHCTL2(timer_periph) |= (uint32_t)ocpara->outputnstate;
 861:Drivers/GD32E23x/Source/gd32e23x_timer.c ****             /* reset the CH0NP bit */
 862:Drivers/GD32E23x/Source/gd32e23x_timer.c ****             TIMER_CHCTL2(timer_periph) &= (~(uint32_t)TIMER_CHCTL2_CH0NP);
 863:Drivers/GD32E23x/Source/gd32e23x_timer.c ****             /* set the CH0NP bit */
 864:Drivers/GD32E23x/Source/gd32e23x_timer.c ****             TIMER_CHCTL2(timer_periph) |= (uint32_t)ocpara->ocnpolarity;
 865:Drivers/GD32E23x/Source/gd32e23x_timer.c ****             /* reset the ISO0 bit */
 866:Drivers/GD32E23x/Source/gd32e23x_timer.c ****             TIMER_CTL1(timer_periph) &= (~(uint32_t)TIMER_CTL1_ISO0);
 867:Drivers/GD32E23x/Source/gd32e23x_timer.c ****             /* set the ISO0 bit */
 868:Drivers/GD32E23x/Source/gd32e23x_timer.c ****             TIMER_CTL1(timer_periph) |= (uint32_t)ocpara->ocidlestate;
 869:Drivers/GD32E23x/Source/gd32e23x_timer.c ****             /* reset the ISO0N bit */
 870:Drivers/GD32E23x/Source/gd32e23x_timer.c ****             TIMER_CTL1(timer_periph) &= (~(uint32_t)TIMER_CTL1_ISO0N);
 871:Drivers/GD32E23x/Source/gd32e23x_timer.c ****             /* set the ISO0N bit */
 872:Drivers/GD32E23x/Source/gd32e23x_timer.c ****             TIMER_CTL1(timer_periph) |= (uint32_t)ocpara->ocnidlestate;
 873:Drivers/GD32E23x/Source/gd32e23x_timer.c ****         }
 874:Drivers/GD32E23x/Source/gd32e23x_timer.c ****         break;
 875:Drivers/GD32E23x/Source/gd32e23x_timer.c ****     /* configure TIMER_CH_1 */
 876:Drivers/GD32E23x/Source/gd32e23x_timer.c ****     case TIMER_CH_1:
 877:Drivers/GD32E23x/Source/gd32e23x_timer.c ****         /* reset the CH1EN bit */
 878:Drivers/GD32E23x/Source/gd32e23x_timer.c ****         TIMER_CHCTL2(timer_periph) &= (~(uint32_t)TIMER_CHCTL2_CH1EN);
 1690              		.loc 1 878 9 view .LVU360
 1691 0012 036A     		ldr	r3, [r0, #32]
 1692              		.loc 1 878 36 is_stmt 0 view .LVU361
 1693 0014 1021     		movs	r1, #16
 1694              	.LVL86:
 1695              		.loc 1 878 36 view .LVU362
 1696 0016 8B43     		bics	r3, r1
 1697 0018 0362     		str	r3, [r0, #32]
 879:Drivers/GD32E23x/Source/gd32e23x_timer.c ****         TIMER_CHCTL0(timer_periph) &= ~(uint32_t)TIMER_CHCTL0_CH1MS;
 1698              		.loc 1 879 9 is_stmt 1 view .LVU363
 1699 001a 8369     		ldr	r3, [r0, #24]
 1700              		.loc 1 879 36 is_stmt 0 view .LVU364
 1701 001c 8249     		ldr	r1, .L105
 1702 001e 0B40     		ands	r3, r1
 1703 0020 8361     		str	r3, [r0, #24]
 880:Drivers/GD32E23x/Source/gd32e23x_timer.c ****         /* set the CH1EN bit */
 881:Drivers/GD32E23x/Source/gd32e23x_timer.c ****         TIMER_CHCTL2(timer_periph) |= (uint32_t)((uint32_t)ocpara->outputstate << 4U);
 1704              		.loc 1 881 9 is_stmt 1 view .LVU365
 1705 0022 036A     		ldr	r3, [r0, #32]
 1706              		.loc 1 881 66 is_stmt 0 view .LVU366
 1707 0024 1188     		ldrh	r1, [r2]
 1708              		.loc 1 881 39 view .LVU367
 1709 0026 0901     		lsls	r1, r1, #4
 1710              		.loc 1 881 36 view .LVU368
 1711 0028 0B43     		orrs	r3, r1
 1712 002a 0362     		str	r3, [r0, #32]
 882:Drivers/GD32E23x/Source/gd32e23x_timer.c ****         /* reset the CH1P bit */
 883:Drivers/GD32E23x/Source/gd32e23x_timer.c ****         TIMER_CHCTL2(timer_periph) &= (~(uint32_t)TIMER_CHCTL2_CH1P);
 1713              		.loc 1 883 9 is_stmt 1 view .LVU369
 1714 002c 036A     		ldr	r3, [r0, #32]
 1715              		.loc 1 883 36 is_stmt 0 view .LVU370
 1716 002e 2021     		movs	r1, #32
 1717 0030 8B43     		bics	r3, r1
 1718 0032 0362     		str	r3, [r0, #32]
 884:Drivers/GD32E23x/Source/gd32e23x_timer.c ****         /* set the CH1P bit */
 885:Drivers/GD32E23x/Source/gd32e23x_timer.c ****         TIMER_CHCTL2(timer_periph) |= (uint32_t)((uint32_t)(ocpara->ocpolarity) << 4U);
ARM GAS  D:\noval\Temp\cck0Iw0b.s 			page 46


 1719              		.loc 1 885 9 is_stmt 1 view .LVU371
 1720 0034 036A     		ldr	r3, [r0, #32]
 1721              		.loc 1 885 67 is_stmt 0 view .LVU372
 1722 0036 9188     		ldrh	r1, [r2, #4]
 1723              		.loc 1 885 39 view .LVU373
 1724 0038 0901     		lsls	r1, r1, #4
 1725              		.loc 1 885 36 view .LVU374
 1726 003a 0B43     		orrs	r3, r1
 1727 003c 0362     		str	r3, [r0, #32]
 886:Drivers/GD32E23x/Source/gd32e23x_timer.c **** 
 887:Drivers/GD32E23x/Source/gd32e23x_timer.c ****         if(TIMER0 == timer_periph){
 1728              		.loc 1 887 9 is_stmt 1 view .LVU375
 1729              		.loc 1 887 11 is_stmt 0 view .LVU376
 1730 003e 42F60043 		movw	r3, #11264
 1731 0042 C4F20103 		movt	r3, 16385
 1732 0046 9842     		cmp	r0, r3
 1733 0048 00D1     		bne	.LCB1241
 1734 004a 85E0     		b	.L104	@long jump
 1735              	.LCB1241:
 1736              	.L103:
 888:Drivers/GD32E23x/Source/gd32e23x_timer.c ****             /* reset the CH1NEN bit */
 889:Drivers/GD32E23x/Source/gd32e23x_timer.c ****             TIMER_CHCTL2(timer_periph) &= (~(uint32_t)TIMER_CHCTL2_CH1NEN);
 890:Drivers/GD32E23x/Source/gd32e23x_timer.c ****             /* set the CH1NEN bit */
 891:Drivers/GD32E23x/Source/gd32e23x_timer.c ****             TIMER_CHCTL2(timer_periph) |= (uint32_t)((uint32_t)(ocpara->outputnstate) << 4U);
 892:Drivers/GD32E23x/Source/gd32e23x_timer.c ****             /* reset the CH1NP bit */
 893:Drivers/GD32E23x/Source/gd32e23x_timer.c ****             TIMER_CHCTL2(timer_periph) &= (~(uint32_t)TIMER_CHCTL2_CH1NP);
 894:Drivers/GD32E23x/Source/gd32e23x_timer.c ****             /* set the CH1NP bit */
 895:Drivers/GD32E23x/Source/gd32e23x_timer.c ****             TIMER_CHCTL2(timer_periph) |= (uint32_t)((uint32_t)(ocpara->ocnpolarity) << 4U);
 896:Drivers/GD32E23x/Source/gd32e23x_timer.c ****             /* reset the ISO1 bit */
 897:Drivers/GD32E23x/Source/gd32e23x_timer.c ****             TIMER_CTL1(timer_periph) &= (~(uint32_t)TIMER_CTL1_ISO1);
 898:Drivers/GD32E23x/Source/gd32e23x_timer.c ****             /* set the ISO1 bit */
 899:Drivers/GD32E23x/Source/gd32e23x_timer.c ****             TIMER_CTL1(timer_periph) |= (uint32_t)((uint32_t)(ocpara->ocidlestate) << 2U);
 900:Drivers/GD32E23x/Source/gd32e23x_timer.c ****             /* reset the ISO1N bit */
 901:Drivers/GD32E23x/Source/gd32e23x_timer.c ****             TIMER_CTL1(timer_periph) &= (~(uint32_t)TIMER_CTL1_ISO1N);
 902:Drivers/GD32E23x/Source/gd32e23x_timer.c ****             /* set the ISO1N bit */
 903:Drivers/GD32E23x/Source/gd32e23x_timer.c ****             TIMER_CTL1(timer_periph) |= (uint32_t)((uint32_t)(ocpara->ocnidlestate) << 2U);
 904:Drivers/GD32E23x/Source/gd32e23x_timer.c ****         }
 905:Drivers/GD32E23x/Source/gd32e23x_timer.c ****         
 906:Drivers/GD32E23x/Source/gd32e23x_timer.c ****         if(TIMER14 == timer_periph){
 1737              		.loc 1 906 9 is_stmt 1 view .LVU377
 1738              		.loc 1 906 11 is_stmt 0 view .LVU378
 1739 004c 44F20003 		movw	r3, #16384
 1740 0050 C4F20103 		movt	r3, 16385
 1741 0054 9842     		cmp	r0, r3
 1742 0056 00D0     		beq	.LCB1247
 1743 0058 7DE0     		b	.L95	@long jump
 1744              	.LCB1247:
 907:Drivers/GD32E23x/Source/gd32e23x_timer.c ****             /* reset the ISO1 bit */
 908:Drivers/GD32E23x/Source/gd32e23x_timer.c ****             TIMER_CTL1(timer_periph) &= (~(uint32_t)TIMER_CTL1_ISO1);
 1745              		.loc 1 908 13 is_stmt 1 view .LVU379
 1746 005a 4368     		ldr	r3, [r0, #4]
 1747              		.loc 1 908 38 is_stmt 0 view .LVU380
 1748 005c 7349     		ldr	r1, .L105+4
 1749 005e 0B40     		ands	r3, r1
 1750 0060 4360     		str	r3, [r0, #4]
 909:Drivers/GD32E23x/Source/gd32e23x_timer.c ****             /* set the ISO1 bit */
 910:Drivers/GD32E23x/Source/gd32e23x_timer.c ****             TIMER_CTL1(timer_periph) |= (uint32_t)((uint32_t)(ocpara->ocidlestate) << 2U);
ARM GAS  D:\noval\Temp\cck0Iw0b.s 			page 47


 1751              		.loc 1 910 13 is_stmt 1 view .LVU381
 1752 0062 4368     		ldr	r3, [r0, #4]
 1753              		.loc 1 910 69 is_stmt 0 view .LVU382
 1754 0064 1289     		ldrh	r2, [r2, #8]
 1755              	.LVL87:
 1756              		.loc 1 910 41 view .LVU383
 1757 0066 9200     		lsls	r2, r2, #2
 1758              		.loc 1 910 38 view .LVU384
 1759 0068 1343     		orrs	r3, r2
 1760 006a 4360     		str	r3, [r0, #4]
 1761 006c 73E0     		b	.L95
 1762              	.LVL88:
 1763              	.L97:
 843:Drivers/GD32E23x/Source/gd32e23x_timer.c ****     /* configure TIMER_CH_0 */
 1764              		.loc 1 843 5 view .LVU385
 1765 006e 0329     		cmp	r1, #3
 1766 0070 71D1     		bne	.L95
 911:Drivers/GD32E23x/Source/gd32e23x_timer.c ****         }
 912:Drivers/GD32E23x/Source/gd32e23x_timer.c ****         
 913:Drivers/GD32E23x/Source/gd32e23x_timer.c ****         break;
 914:Drivers/GD32E23x/Source/gd32e23x_timer.c ****     /* configure TIMER_CH_2 */
 915:Drivers/GD32E23x/Source/gd32e23x_timer.c ****     case TIMER_CH_2:
 916:Drivers/GD32E23x/Source/gd32e23x_timer.c ****         /* reset the CH2EN bit */
 917:Drivers/GD32E23x/Source/gd32e23x_timer.c ****         TIMER_CHCTL2(timer_periph) &= (~(uint32_t)TIMER_CHCTL2_CH2EN);
 918:Drivers/GD32E23x/Source/gd32e23x_timer.c ****         TIMER_CHCTL1(timer_periph) &= ~(uint32_t)TIMER_CHCTL1_CH2MS;
 919:Drivers/GD32E23x/Source/gd32e23x_timer.c ****         /* set the CH2EN bit */
 920:Drivers/GD32E23x/Source/gd32e23x_timer.c ****         TIMER_CHCTL2(timer_periph) |= (uint32_t)((uint32_t)ocpara->outputstate << 8U);
 921:Drivers/GD32E23x/Source/gd32e23x_timer.c ****         /* reset the CH2P bit */
 922:Drivers/GD32E23x/Source/gd32e23x_timer.c ****         TIMER_CHCTL2(timer_periph) &= (~(uint32_t)TIMER_CHCTL2_CH2P);
 923:Drivers/GD32E23x/Source/gd32e23x_timer.c ****         /* set the CH2P bit */
 924:Drivers/GD32E23x/Source/gd32e23x_timer.c ****         TIMER_CHCTL2(timer_periph) |= (uint32_t)((uint32_t)(ocpara->ocpolarity) << 8U);
 925:Drivers/GD32E23x/Source/gd32e23x_timer.c **** 
 926:Drivers/GD32E23x/Source/gd32e23x_timer.c ****         if(TIMER0 == timer_periph){
 927:Drivers/GD32E23x/Source/gd32e23x_timer.c ****             /* reset the CH2NEN bit */
 928:Drivers/GD32E23x/Source/gd32e23x_timer.c ****             TIMER_CHCTL2(timer_periph) &= (~(uint32_t)TIMER_CHCTL2_CH2NEN);
 929:Drivers/GD32E23x/Source/gd32e23x_timer.c ****             /* set the CH2NEN bit */
 930:Drivers/GD32E23x/Source/gd32e23x_timer.c ****             TIMER_CHCTL2(timer_periph) |= (uint32_t)((uint32_t)(ocpara->outputnstate) << 8U);
 931:Drivers/GD32E23x/Source/gd32e23x_timer.c ****             /* reset the CH2NP bit */
 932:Drivers/GD32E23x/Source/gd32e23x_timer.c ****             TIMER_CHCTL2(timer_periph) &= (~(uint32_t)TIMER_CHCTL2_CH2NP);
 933:Drivers/GD32E23x/Source/gd32e23x_timer.c ****             /* set the CH2NP bit */
 934:Drivers/GD32E23x/Source/gd32e23x_timer.c ****             TIMER_CHCTL2(timer_periph) |= (uint32_t)((uint32_t)(ocpara->ocnpolarity) << 8U);
 935:Drivers/GD32E23x/Source/gd32e23x_timer.c ****             /* reset the ISO2 bit */
 936:Drivers/GD32E23x/Source/gd32e23x_timer.c ****             TIMER_CTL1(timer_periph) &= (~(uint32_t)TIMER_CTL1_ISO2);
 937:Drivers/GD32E23x/Source/gd32e23x_timer.c ****             /* set the ISO2 bit */
 938:Drivers/GD32E23x/Source/gd32e23x_timer.c ****             TIMER_CTL1(timer_periph) |= (uint32_t)((uint32_t)(ocpara->ocidlestate) << 4U);
 939:Drivers/GD32E23x/Source/gd32e23x_timer.c ****             /* reset the ISO2N bit */
 940:Drivers/GD32E23x/Source/gd32e23x_timer.c ****             TIMER_CTL1(timer_periph) &= (~(uint32_t)TIMER_CTL1_ISO2N);
 941:Drivers/GD32E23x/Source/gd32e23x_timer.c ****             /* set the ISO2N bit */
 942:Drivers/GD32E23x/Source/gd32e23x_timer.c ****             TIMER_CTL1(timer_periph) |= (uint32_t)((uint32_t)(ocpara->ocnidlestate) << 4U);
 943:Drivers/GD32E23x/Source/gd32e23x_timer.c ****         }
 944:Drivers/GD32E23x/Source/gd32e23x_timer.c ****         break;
 945:Drivers/GD32E23x/Source/gd32e23x_timer.c ****     /* configure TIMER_CH_3 */
 946:Drivers/GD32E23x/Source/gd32e23x_timer.c ****     case TIMER_CH_3:
 947:Drivers/GD32E23x/Source/gd32e23x_timer.c ****         /* reset the CH3EN bit */
 948:Drivers/GD32E23x/Source/gd32e23x_timer.c ****         TIMER_CHCTL2(timer_periph) &=(~(uint32_t)TIMER_CHCTL2_CH3EN);
 1767              		.loc 1 948 9 is_stmt 1 view .LVU386
 1768 0072 036A     		ldr	r3, [r0, #32]
ARM GAS  D:\noval\Temp\cck0Iw0b.s 			page 48


 1769              		.loc 1 948 36 is_stmt 0 view .LVU387
 1770 0074 6E49     		ldr	r1, .L105+8
 1771              	.LVL89:
 1772              		.loc 1 948 36 view .LVU388
 1773 0076 0B40     		ands	r3, r1
 1774 0078 0362     		str	r3, [r0, #32]
 949:Drivers/GD32E23x/Source/gd32e23x_timer.c ****         TIMER_CHCTL1(timer_periph) &= ~(uint32_t)TIMER_CHCTL1_CH3MS;
 1775              		.loc 1 949 9 is_stmt 1 view .LVU389
 1776 007a C369     		ldr	r3, [r0, #28]
 1777              		.loc 1 949 36 is_stmt 0 view .LVU390
 1778 007c 6A49     		ldr	r1, .L105
 1779 007e 0B40     		ands	r3, r1
 1780 0080 C361     		str	r3, [r0, #28]
 950:Drivers/GD32E23x/Source/gd32e23x_timer.c ****         /* set the CH3EN bit */
 951:Drivers/GD32E23x/Source/gd32e23x_timer.c ****         TIMER_CHCTL2(timer_periph) |= (uint32_t)((uint32_t)ocpara->outputstate << 12U);
 1781              		.loc 1 951 9 is_stmt 1 view .LVU391
 1782 0082 036A     		ldr	r3, [r0, #32]
 1783              		.loc 1 951 66 is_stmt 0 view .LVU392
 1784 0084 1188     		ldrh	r1, [r2]
 1785              		.loc 1 951 39 view .LVU393
 1786 0086 0903     		lsls	r1, r1, #12
 1787              		.loc 1 951 36 view .LVU394
 1788 0088 0B43     		orrs	r3, r1
 1789 008a 0362     		str	r3, [r0, #32]
 952:Drivers/GD32E23x/Source/gd32e23x_timer.c ****         /* reset the CH3P bit */
 953:Drivers/GD32E23x/Source/gd32e23x_timer.c ****         TIMER_CHCTL2(timer_periph) &= (~(uint32_t)TIMER_CHCTL2_CH3P);
 1790              		.loc 1 953 9 is_stmt 1 view .LVU395
 1791 008c 036A     		ldr	r3, [r0, #32]
 1792              		.loc 1 953 36 is_stmt 0 view .LVU396
 1793 008e 6949     		ldr	r1, .L105+12
 1794 0090 0B40     		ands	r3, r1
 1795 0092 0362     		str	r3, [r0, #32]
 954:Drivers/GD32E23x/Source/gd32e23x_timer.c ****         /* set the CH3P bit */
 955:Drivers/GD32E23x/Source/gd32e23x_timer.c ****         TIMER_CHCTL2(timer_periph) |= (uint32_t)((uint32_t)(ocpara->ocpolarity) << 12U);
 1796              		.loc 1 955 9 is_stmt 1 view .LVU397
 1797 0094 036A     		ldr	r3, [r0, #32]
 1798              		.loc 1 955 67 is_stmt 0 view .LVU398
 1799 0096 9188     		ldrh	r1, [r2, #4]
 1800              		.loc 1 955 39 view .LVU399
 1801 0098 0903     		lsls	r1, r1, #12
 1802              		.loc 1 955 36 view .LVU400
 1803 009a 0B43     		orrs	r3, r1
 1804 009c 0362     		str	r3, [r0, #32]
 956:Drivers/GD32E23x/Source/gd32e23x_timer.c **** 
 957:Drivers/GD32E23x/Source/gd32e23x_timer.c ****         if(TIMER0 == timer_periph){
 1805              		.loc 1 957 9 is_stmt 1 view .LVU401
 1806              		.loc 1 957 11 is_stmt 0 view .LVU402
 1807 009e 42F60043 		movw	r3, #11264
 1808 00a2 C4F20103 		movt	r3, 16385
 1809 00a6 9842     		cmp	r0, r3
 1810 00a8 55D1     		bne	.L95
 958:Drivers/GD32E23x/Source/gd32e23x_timer.c ****             /* reset the ISO3 bit */
 959:Drivers/GD32E23x/Source/gd32e23x_timer.c ****             TIMER_CTL1(timer_periph) &= (~(uint32_t)TIMER_CTL1_ISO3);
 1811              		.loc 1 959 13 is_stmt 1 view .LVU403
 1812 00aa 4368     		ldr	r3, [r0, #4]
 1813              		.loc 1 959 38 is_stmt 0 view .LVU404
 1814 00ac 6249     		ldr	r1, .L105+16
ARM GAS  D:\noval\Temp\cck0Iw0b.s 			page 49


 1815 00ae 0B40     		ands	r3, r1
 1816 00b0 4360     		str	r3, [r0, #4]
 960:Drivers/GD32E23x/Source/gd32e23x_timer.c ****             /* set the ISO3 bit */
 961:Drivers/GD32E23x/Source/gd32e23x_timer.c ****             TIMER_CTL1(timer_periph) |= (uint32_t)((uint32_t)(ocpara->ocidlestate) << 6U);
 1817              		.loc 1 961 13 is_stmt 1 view .LVU405
 1818 00b2 4368     		ldr	r3, [r0, #4]
 1819              		.loc 1 961 69 is_stmt 0 view .LVU406
 1820 00b4 1289     		ldrh	r2, [r2, #8]
 1821              	.LVL90:
 1822              		.loc 1 961 41 view .LVU407
 1823 00b6 9201     		lsls	r2, r2, #6
 1824              		.loc 1 961 38 view .LVU408
 1825 00b8 1343     		orrs	r3, r2
 1826 00ba 4360     		str	r3, [r0, #4]
 962:Drivers/GD32E23x/Source/gd32e23x_timer.c ****         }
 963:Drivers/GD32E23x/Source/gd32e23x_timer.c ****         break;
 964:Drivers/GD32E23x/Source/gd32e23x_timer.c ****     default:
 965:Drivers/GD32E23x/Source/gd32e23x_timer.c ****         break;
 966:Drivers/GD32E23x/Source/gd32e23x_timer.c ****     }
 967:Drivers/GD32E23x/Source/gd32e23x_timer.c **** }
 1827              		.loc 1 967 1 view .LVU409
 1828 00bc 4BE0     		b	.L95
 1829              	.LVL91:
 1830              	.L98:
 847:Drivers/GD32E23x/Source/gd32e23x_timer.c ****         TIMER_CHCTL0(timer_periph) &= ~(uint32_t)TIMER_CHCTL0_CH0MS;
 1831              		.loc 1 847 9 is_stmt 1 view .LVU410
 1832 00be 036A     		ldr	r3, [r0, #32]
 847:Drivers/GD32E23x/Source/gd32e23x_timer.c ****         TIMER_CHCTL0(timer_periph) &= ~(uint32_t)TIMER_CHCTL0_CH0MS;
 1833              		.loc 1 847 36 is_stmt 0 view .LVU411
 1834 00c0 0121     		movs	r1, #1
 1835              	.LVL92:
 847:Drivers/GD32E23x/Source/gd32e23x_timer.c ****         TIMER_CHCTL0(timer_periph) &= ~(uint32_t)TIMER_CHCTL0_CH0MS;
 1836              		.loc 1 847 36 view .LVU412
 1837 00c2 8B43     		bics	r3, r1
 1838 00c4 0362     		str	r3, [r0, #32]
 848:Drivers/GD32E23x/Source/gd32e23x_timer.c ****         /* set the CH0EN bit */
 1839              		.loc 1 848 9 is_stmt 1 view .LVU413
 1840 00c6 8369     		ldr	r3, [r0, #24]
 848:Drivers/GD32E23x/Source/gd32e23x_timer.c ****         /* set the CH0EN bit */
 1841              		.loc 1 848 36 is_stmt 0 view .LVU414
 1842 00c8 0231     		adds	r1, r1, #2
 1843 00ca 8B43     		bics	r3, r1
 1844 00cc 8361     		str	r3, [r0, #24]
 850:Drivers/GD32E23x/Source/gd32e23x_timer.c ****         /* reset the CH0P bit */
 1845              		.loc 1 850 9 is_stmt 1 view .LVU415
 1846 00ce 036A     		ldr	r3, [r0, #32]
 850:Drivers/GD32E23x/Source/gd32e23x_timer.c ****         /* reset the CH0P bit */
 1847              		.loc 1 850 55 is_stmt 0 view .LVU416
 1848 00d0 1188     		ldrh	r1, [r2]
 850:Drivers/GD32E23x/Source/gd32e23x_timer.c ****         /* reset the CH0P bit */
 1849              		.loc 1 850 36 view .LVU417
 1850 00d2 0B43     		orrs	r3, r1
 1851 00d4 0362     		str	r3, [r0, #32]
 852:Drivers/GD32E23x/Source/gd32e23x_timer.c ****         /* set the CH0P bit */
 1852              		.loc 1 852 9 is_stmt 1 view .LVU418
 1853 00d6 036A     		ldr	r3, [r0, #32]
 852:Drivers/GD32E23x/Source/gd32e23x_timer.c ****         /* set the CH0P bit */
ARM GAS  D:\noval\Temp\cck0Iw0b.s 			page 50


 1854              		.loc 1 852 36 is_stmt 0 view .LVU419
 1855 00d8 0221     		movs	r1, #2
 1856 00da 8B43     		bics	r3, r1
 1857 00dc 0362     		str	r3, [r0, #32]
 854:Drivers/GD32E23x/Source/gd32e23x_timer.c **** 
 1858              		.loc 1 854 9 is_stmt 1 view .LVU420
 1859 00de 036A     		ldr	r3, [r0, #32]
 854:Drivers/GD32E23x/Source/gd32e23x_timer.c **** 
 1860              		.loc 1 854 55 is_stmt 0 view .LVU421
 1861 00e0 9188     		ldrh	r1, [r2, #4]
 854:Drivers/GD32E23x/Source/gd32e23x_timer.c **** 
 1862              		.loc 1 854 36 view .LVU422
 1863 00e2 0B43     		orrs	r3, r1
 1864 00e4 0362     		str	r3, [r0, #32]
 856:Drivers/GD32E23x/Source/gd32e23x_timer.c ****             /* reset the CH0NEN bit */
 1865              		.loc 1 856 9 is_stmt 1 view .LVU423
 856:Drivers/GD32E23x/Source/gd32e23x_timer.c ****             /* reset the CH0NEN bit */
 1866              		.loc 1 856 11 is_stmt 0 view .LVU424
 1867 00e6 42F60043 		movw	r3, #11264
 1868 00ea C4F20103 		movt	r3, 16385
 1869 00ee 9842     		cmp	r0, r3
 1870 00f0 11D0     		beq	.L102
 856:Drivers/GD32E23x/Source/gd32e23x_timer.c ****             /* reset the CH0NEN bit */
 1871              		.loc 1 856 37 discriminator 1 view .LVU425
 1872 00f2 44F20003 		movw	r3, #16384
 1873 00f6 C4F20103 		movt	r3, 16385
 1874 00fa 9842     		cmp	r0, r3
 1875 00fc 0BD0     		beq	.L102
 856:Drivers/GD32E23x/Source/gd32e23x_timer.c ****             /* reset the CH0NEN bit */
 1876              		.loc 1 856 66 discriminator 2 view .LVU426
 1877 00fe 44F20043 		movw	r3, #17408
 1878 0102 C4F20103 		movt	r3, 16385
 1879 0106 9842     		cmp	r0, r3
 1880 0108 05D0     		beq	.L102
 856:Drivers/GD32E23x/Source/gd32e23x_timer.c ****             /* reset the CH0NEN bit */
 1881              		.loc 1 856 95 discriminator 3 view .LVU427
 1882 010a 44F60003 		movw	r3, #18432
 1883 010e C4F20103 		movt	r3, 16385
 1884 0112 9842     		cmp	r0, r3
 1885 0114 1FD1     		bne	.L95
 1886              	.L102:
 858:Drivers/GD32E23x/Source/gd32e23x_timer.c ****             /* set the CH0NEN bit */
 1887              		.loc 1 858 13 is_stmt 1 view .LVU428
 1888 0116 036A     		ldr	r3, [r0, #32]
 858:Drivers/GD32E23x/Source/gd32e23x_timer.c ****             /* set the CH0NEN bit */
 1889              		.loc 1 858 40 is_stmt 0 view .LVU429
 1890 0118 0421     		movs	r1, #4
 1891 011a 8B43     		bics	r3, r1
 1892 011c 0362     		str	r3, [r0, #32]
 860:Drivers/GD32E23x/Source/gd32e23x_timer.c ****             /* reset the CH0NP bit */
 1893              		.loc 1 860 13 is_stmt 1 view .LVU430
 1894 011e 036A     		ldr	r3, [r0, #32]
 860:Drivers/GD32E23x/Source/gd32e23x_timer.c ****             /* reset the CH0NP bit */
 1895              		.loc 1 860 59 is_stmt 0 view .LVU431
 1896 0120 5188     		ldrh	r1, [r2, #2]
 860:Drivers/GD32E23x/Source/gd32e23x_timer.c ****             /* reset the CH0NP bit */
 1897              		.loc 1 860 40 view .LVU432
ARM GAS  D:\noval\Temp\cck0Iw0b.s 			page 51


 1898 0122 0B43     		orrs	r3, r1
 1899 0124 0362     		str	r3, [r0, #32]
 862:Drivers/GD32E23x/Source/gd32e23x_timer.c ****             /* set the CH0NP bit */
 1900              		.loc 1 862 13 is_stmt 1 view .LVU433
 1901 0126 036A     		ldr	r3, [r0, #32]
 862:Drivers/GD32E23x/Source/gd32e23x_timer.c ****             /* set the CH0NP bit */
 1902              		.loc 1 862 40 is_stmt 0 view .LVU434
 1903 0128 0821     		movs	r1, #8
 1904 012a 8B43     		bics	r3, r1
 1905 012c 0362     		str	r3, [r0, #32]
 864:Drivers/GD32E23x/Source/gd32e23x_timer.c ****             /* reset the ISO0 bit */
 1906              		.loc 1 864 13 is_stmt 1 view .LVU435
 1907 012e 036A     		ldr	r3, [r0, #32]
 864:Drivers/GD32E23x/Source/gd32e23x_timer.c ****             /* reset the ISO0 bit */
 1908              		.loc 1 864 59 is_stmt 0 view .LVU436
 1909 0130 D188     		ldrh	r1, [r2, #6]
 864:Drivers/GD32E23x/Source/gd32e23x_timer.c ****             /* reset the ISO0 bit */
 1910              		.loc 1 864 40 view .LVU437
 1911 0132 0B43     		orrs	r3, r1
 1912 0134 0362     		str	r3, [r0, #32]
 866:Drivers/GD32E23x/Source/gd32e23x_timer.c ****             /* set the ISO0 bit */
 1913              		.loc 1 866 13 is_stmt 1 view .LVU438
 1914 0136 4368     		ldr	r3, [r0, #4]
 866:Drivers/GD32E23x/Source/gd32e23x_timer.c ****             /* set the ISO0 bit */
 1915              		.loc 1 866 38 is_stmt 0 view .LVU439
 1916 0138 4049     		ldr	r1, .L105+20
 1917 013a 0B40     		ands	r3, r1
 1918 013c 4360     		str	r3, [r0, #4]
 868:Drivers/GD32E23x/Source/gd32e23x_timer.c ****             /* reset the ISO0N bit */
 1919              		.loc 1 868 13 is_stmt 1 view .LVU440
 1920 013e 4368     		ldr	r3, [r0, #4]
 868:Drivers/GD32E23x/Source/gd32e23x_timer.c ****             /* reset the ISO0N bit */
 1921              		.loc 1 868 57 is_stmt 0 view .LVU441
 1922 0140 1189     		ldrh	r1, [r2, #8]
 868:Drivers/GD32E23x/Source/gd32e23x_timer.c ****             /* reset the ISO0N bit */
 1923              		.loc 1 868 38 view .LVU442
 1924 0142 0B43     		orrs	r3, r1
 1925 0144 4360     		str	r3, [r0, #4]
 870:Drivers/GD32E23x/Source/gd32e23x_timer.c ****             /* set the ISO0N bit */
 1926              		.loc 1 870 13 is_stmt 1 view .LVU443
 1927 0146 4368     		ldr	r3, [r0, #4]
 870:Drivers/GD32E23x/Source/gd32e23x_timer.c ****             /* set the ISO0N bit */
 1928              		.loc 1 870 38 is_stmt 0 view .LVU444
 1929 0148 3D49     		ldr	r1, .L105+24
 1930 014a 0B40     		ands	r3, r1
 1931 014c 4360     		str	r3, [r0, #4]
 872:Drivers/GD32E23x/Source/gd32e23x_timer.c ****         }
 1932              		.loc 1 872 13 is_stmt 1 view .LVU445
 1933 014e 4368     		ldr	r3, [r0, #4]
 872:Drivers/GD32E23x/Source/gd32e23x_timer.c ****         }
 1934              		.loc 1 872 57 is_stmt 0 view .LVU446
 1935 0150 5289     		ldrh	r2, [r2, #10]
 1936              	.LVL93:
 872:Drivers/GD32E23x/Source/gd32e23x_timer.c ****         }
 1937              		.loc 1 872 38 view .LVU447
 1938 0152 1343     		orrs	r3, r2
 1939 0154 4360     		str	r3, [r0, #4]
ARM GAS  D:\noval\Temp\cck0Iw0b.s 			page 52


 1940              	.L95:
 1941              		.loc 1 967 1 view .LVU448
 1942              		@ sp needed
 1943 0156 7047     		bx	lr
 1944              	.LVL94:
 1945              	.L104:
 889:Drivers/GD32E23x/Source/gd32e23x_timer.c ****             /* set the CH1NEN bit */
 1946              		.loc 1 889 13 is_stmt 1 view .LVU449
 1947 0158 036A     		ldr	r3, [r0, #32]
 889:Drivers/GD32E23x/Source/gd32e23x_timer.c ****             /* set the CH1NEN bit */
 1948              		.loc 1 889 40 is_stmt 0 view .LVU450
 1949 015a 4021     		movs	r1, #64
 1950 015c 8B43     		bics	r3, r1
 1951 015e 0362     		str	r3, [r0, #32]
 891:Drivers/GD32E23x/Source/gd32e23x_timer.c ****             /* reset the CH1NP bit */
 1952              		.loc 1 891 13 is_stmt 1 view .LVU451
 1953 0160 036A     		ldr	r3, [r0, #32]
 891:Drivers/GD32E23x/Source/gd32e23x_timer.c ****             /* reset the CH1NP bit */
 1954              		.loc 1 891 71 is_stmt 0 view .LVU452
 1955 0162 5188     		ldrh	r1, [r2, #2]
 891:Drivers/GD32E23x/Source/gd32e23x_timer.c ****             /* reset the CH1NP bit */
 1956              		.loc 1 891 43 view .LVU453
 1957 0164 0901     		lsls	r1, r1, #4
 891:Drivers/GD32E23x/Source/gd32e23x_timer.c ****             /* reset the CH1NP bit */
 1958              		.loc 1 891 40 view .LVU454
 1959 0166 0B43     		orrs	r3, r1
 1960 0168 0362     		str	r3, [r0, #32]
 893:Drivers/GD32E23x/Source/gd32e23x_timer.c ****             /* set the CH1NP bit */
 1961              		.loc 1 893 13 is_stmt 1 view .LVU455
 1962 016a 036A     		ldr	r3, [r0, #32]
 893:Drivers/GD32E23x/Source/gd32e23x_timer.c ****             /* set the CH1NP bit */
 1963              		.loc 1 893 40 is_stmt 0 view .LVU456
 1964 016c 8021     		movs	r1, #128
 1965 016e 8B43     		bics	r3, r1
 1966 0170 0362     		str	r3, [r0, #32]
 895:Drivers/GD32E23x/Source/gd32e23x_timer.c ****             /* reset the ISO1 bit */
 1967              		.loc 1 895 13 is_stmt 1 view .LVU457
 1968 0172 036A     		ldr	r3, [r0, #32]
 895:Drivers/GD32E23x/Source/gd32e23x_timer.c ****             /* reset the ISO1 bit */
 1969              		.loc 1 895 71 is_stmt 0 view .LVU458
 1970 0174 D188     		ldrh	r1, [r2, #6]
 895:Drivers/GD32E23x/Source/gd32e23x_timer.c ****             /* reset the ISO1 bit */
 1971              		.loc 1 895 43 view .LVU459
 1972 0176 0901     		lsls	r1, r1, #4
 895:Drivers/GD32E23x/Source/gd32e23x_timer.c ****             /* reset the ISO1 bit */
 1973              		.loc 1 895 40 view .LVU460
 1974 0178 0B43     		orrs	r3, r1
 1975 017a 0362     		str	r3, [r0, #32]
 897:Drivers/GD32E23x/Source/gd32e23x_timer.c ****             /* set the ISO1 bit */
 1976              		.loc 1 897 13 is_stmt 1 view .LVU461
 1977 017c 4368     		ldr	r3, [r0, #4]
 897:Drivers/GD32E23x/Source/gd32e23x_timer.c ****             /* set the ISO1 bit */
 1978              		.loc 1 897 38 is_stmt 0 view .LVU462
 1979 017e 2B49     		ldr	r1, .L105+4
 1980 0180 0B40     		ands	r3, r1
 1981 0182 4360     		str	r3, [r0, #4]
 899:Drivers/GD32E23x/Source/gd32e23x_timer.c ****             /* reset the ISO1N bit */
ARM GAS  D:\noval\Temp\cck0Iw0b.s 			page 53


 1982              		.loc 1 899 13 is_stmt 1 view .LVU463
 1983 0184 4368     		ldr	r3, [r0, #4]
 899:Drivers/GD32E23x/Source/gd32e23x_timer.c ****             /* reset the ISO1N bit */
 1984              		.loc 1 899 69 is_stmt 0 view .LVU464
 1985 0186 1189     		ldrh	r1, [r2, #8]
 899:Drivers/GD32E23x/Source/gd32e23x_timer.c ****             /* reset the ISO1N bit */
 1986              		.loc 1 899 41 view .LVU465
 1987 0188 8900     		lsls	r1, r1, #2
 899:Drivers/GD32E23x/Source/gd32e23x_timer.c ****             /* reset the ISO1N bit */
 1988              		.loc 1 899 38 view .LVU466
 1989 018a 0B43     		orrs	r3, r1
 1990 018c 4360     		str	r3, [r0, #4]
 901:Drivers/GD32E23x/Source/gd32e23x_timer.c ****             /* set the ISO1N bit */
 1991              		.loc 1 901 13 is_stmt 1 view .LVU467
 1992 018e 4368     		ldr	r3, [r0, #4]
 901:Drivers/GD32E23x/Source/gd32e23x_timer.c ****             /* set the ISO1N bit */
 1993              		.loc 1 901 38 is_stmt 0 view .LVU468
 1994 0190 2C49     		ldr	r1, .L105+28
 1995 0192 0B40     		ands	r3, r1
 1996 0194 4360     		str	r3, [r0, #4]
 903:Drivers/GD32E23x/Source/gd32e23x_timer.c ****         }
 1997              		.loc 1 903 13 is_stmt 1 view .LVU469
 1998 0196 4368     		ldr	r3, [r0, #4]
 903:Drivers/GD32E23x/Source/gd32e23x_timer.c ****         }
 1999              		.loc 1 903 69 is_stmt 0 view .LVU470
 2000 0198 5189     		ldrh	r1, [r2, #10]
 903:Drivers/GD32E23x/Source/gd32e23x_timer.c ****         }
 2001              		.loc 1 903 41 view .LVU471
 2002 019a 8900     		lsls	r1, r1, #2
 903:Drivers/GD32E23x/Source/gd32e23x_timer.c ****         }
 2003              		.loc 1 903 38 view .LVU472
 2004 019c 0B43     		orrs	r3, r1
 2005 019e 4360     		str	r3, [r0, #4]
 2006 01a0 54E7     		b	.L103
 2007              	.LVL95:
 2008              	.L96:
 917:Drivers/GD32E23x/Source/gd32e23x_timer.c ****         TIMER_CHCTL1(timer_periph) &= ~(uint32_t)TIMER_CHCTL1_CH2MS;
 2009              		.loc 1 917 9 is_stmt 1 view .LVU473
 2010 01a2 036A     		ldr	r3, [r0, #32]
 917:Drivers/GD32E23x/Source/gd32e23x_timer.c ****         TIMER_CHCTL1(timer_periph) &= ~(uint32_t)TIMER_CHCTL1_CH2MS;
 2011              		.loc 1 917 36 is_stmt 0 view .LVU474
 2012 01a4 2549     		ldr	r1, .L105+20
 2013              	.LVL96:
 917:Drivers/GD32E23x/Source/gd32e23x_timer.c ****         TIMER_CHCTL1(timer_periph) &= ~(uint32_t)TIMER_CHCTL1_CH2MS;
 2014              		.loc 1 917 36 view .LVU475
 2015 01a6 0B40     		ands	r3, r1
 2016 01a8 0362     		str	r3, [r0, #32]
 918:Drivers/GD32E23x/Source/gd32e23x_timer.c ****         /* set the CH2EN bit */
 2017              		.loc 1 918 9 is_stmt 1 view .LVU476
 2018 01aa C369     		ldr	r3, [r0, #28]
 918:Drivers/GD32E23x/Source/gd32e23x_timer.c ****         /* set the CH2EN bit */
 2019              		.loc 1 918 36 is_stmt 0 view .LVU477
 2020 01ac 0531     		adds	r1, r1, #5
 2021 01ae FF31     		adds	r1, r1, #255
 2022 01b0 8B43     		bics	r3, r1
 2023 01b2 C361     		str	r3, [r0, #28]
 920:Drivers/GD32E23x/Source/gd32e23x_timer.c ****         /* reset the CH2P bit */
ARM GAS  D:\noval\Temp\cck0Iw0b.s 			page 54


 2024              		.loc 1 920 9 is_stmt 1 view .LVU478
 2025 01b4 036A     		ldr	r3, [r0, #32]
 920:Drivers/GD32E23x/Source/gd32e23x_timer.c ****         /* reset the CH2P bit */
 2026              		.loc 1 920 66 is_stmt 0 view .LVU479
 2027 01b6 1188     		ldrh	r1, [r2]
 920:Drivers/GD32E23x/Source/gd32e23x_timer.c ****         /* reset the CH2P bit */
 2028              		.loc 1 920 39 view .LVU480
 2029 01b8 0902     		lsls	r1, r1, #8
 920:Drivers/GD32E23x/Source/gd32e23x_timer.c ****         /* reset the CH2P bit */
 2030              		.loc 1 920 36 view .LVU481
 2031 01ba 0B43     		orrs	r3, r1
 2032 01bc 0362     		str	r3, [r0, #32]
 922:Drivers/GD32E23x/Source/gd32e23x_timer.c ****         /* set the CH2P bit */
 2033              		.loc 1 922 9 is_stmt 1 view .LVU482
 2034 01be 036A     		ldr	r3, [r0, #32]
 922:Drivers/GD32E23x/Source/gd32e23x_timer.c ****         /* set the CH2P bit */
 2035              		.loc 1 922 36 is_stmt 0 view .LVU483
 2036 01c0 1F49     		ldr	r1, .L105+24
 2037 01c2 0B40     		ands	r3, r1
 2038 01c4 0362     		str	r3, [r0, #32]
 924:Drivers/GD32E23x/Source/gd32e23x_timer.c **** 
 2039              		.loc 1 924 9 is_stmt 1 view .LVU484
 2040 01c6 036A     		ldr	r3, [r0, #32]
 924:Drivers/GD32E23x/Source/gd32e23x_timer.c **** 
 2041              		.loc 1 924 67 is_stmt 0 view .LVU485
 2042 01c8 9188     		ldrh	r1, [r2, #4]
 924:Drivers/GD32E23x/Source/gd32e23x_timer.c **** 
 2043              		.loc 1 924 39 view .LVU486
 2044 01ca 0902     		lsls	r1, r1, #8
 924:Drivers/GD32E23x/Source/gd32e23x_timer.c **** 
 2045              		.loc 1 924 36 view .LVU487
 2046 01cc 0B43     		orrs	r3, r1
 2047 01ce 0362     		str	r3, [r0, #32]
 926:Drivers/GD32E23x/Source/gd32e23x_timer.c ****             /* reset the CH2NEN bit */
 2048              		.loc 1 926 9 is_stmt 1 view .LVU488
 926:Drivers/GD32E23x/Source/gd32e23x_timer.c ****             /* reset the CH2NEN bit */
 2049              		.loc 1 926 11 is_stmt 0 view .LVU489
 2050 01d0 42F60043 		movw	r3, #11264
 2051 01d4 C4F20103 		movt	r3, 16385
 2052 01d8 9842     		cmp	r0, r3
 2053 01da BCD1     		bne	.L95
 928:Drivers/GD32E23x/Source/gd32e23x_timer.c ****             /* set the CH2NEN bit */
 2054              		.loc 1 928 13 is_stmt 1 view .LVU490
 2055 01dc 036A     		ldr	r3, [r0, #32]
 928:Drivers/GD32E23x/Source/gd32e23x_timer.c ****             /* set the CH2NEN bit */
 2056              		.loc 1 928 40 is_stmt 0 view .LVU491
 2057 01de 1349     		ldr	r1, .L105+4
 2058 01e0 0B40     		ands	r3, r1
 2059 01e2 0362     		str	r3, [r0, #32]
 930:Drivers/GD32E23x/Source/gd32e23x_timer.c ****             /* reset the CH2NP bit */
 2060              		.loc 1 930 13 is_stmt 1 view .LVU492
 2061 01e4 036A     		ldr	r3, [r0, #32]
 930:Drivers/GD32E23x/Source/gd32e23x_timer.c ****             /* reset the CH2NP bit */
 2062              		.loc 1 930 71 is_stmt 0 view .LVU493
 2063 01e6 5188     		ldrh	r1, [r2, #2]
 930:Drivers/GD32E23x/Source/gd32e23x_timer.c ****             /* reset the CH2NP bit */
 2064              		.loc 1 930 43 view .LVU494
ARM GAS  D:\noval\Temp\cck0Iw0b.s 			page 55


 2065 01e8 0902     		lsls	r1, r1, #8
 930:Drivers/GD32E23x/Source/gd32e23x_timer.c ****             /* reset the CH2NP bit */
 2066              		.loc 1 930 40 view .LVU495
 2067 01ea 0B43     		orrs	r3, r1
 2068 01ec 0362     		str	r3, [r0, #32]
 932:Drivers/GD32E23x/Source/gd32e23x_timer.c ****             /* set the CH2NP bit */
 2069              		.loc 1 932 13 is_stmt 1 view .LVU496
 2070 01ee 036A     		ldr	r3, [r0, #32]
 932:Drivers/GD32E23x/Source/gd32e23x_timer.c ****             /* set the CH2NP bit */
 2071              		.loc 1 932 40 is_stmt 0 view .LVU497
 2072 01f0 1449     		ldr	r1, .L105+28
 2073 01f2 0B40     		ands	r3, r1
 2074 01f4 0362     		str	r3, [r0, #32]
 934:Drivers/GD32E23x/Source/gd32e23x_timer.c ****             /* reset the ISO2 bit */
 2075              		.loc 1 934 13 is_stmt 1 view .LVU498
 2076 01f6 036A     		ldr	r3, [r0, #32]
 934:Drivers/GD32E23x/Source/gd32e23x_timer.c ****             /* reset the ISO2 bit */
 2077              		.loc 1 934 71 is_stmt 0 view .LVU499
 2078 01f8 D188     		ldrh	r1, [r2, #6]
 934:Drivers/GD32E23x/Source/gd32e23x_timer.c ****             /* reset the ISO2 bit */
 2079              		.loc 1 934 43 view .LVU500
 2080 01fa 0902     		lsls	r1, r1, #8
 934:Drivers/GD32E23x/Source/gd32e23x_timer.c ****             /* reset the ISO2 bit */
 2081              		.loc 1 934 40 view .LVU501
 2082 01fc 0B43     		orrs	r3, r1
 2083 01fe 0362     		str	r3, [r0, #32]
 936:Drivers/GD32E23x/Source/gd32e23x_timer.c ****             /* set the ISO2 bit */
 2084              		.loc 1 936 13 is_stmt 1 view .LVU502
 2085 0200 4368     		ldr	r3, [r0, #4]
 936:Drivers/GD32E23x/Source/gd32e23x_timer.c ****             /* set the ISO2 bit */
 2086              		.loc 1 936 38 is_stmt 0 view .LVU503
 2087 0202 0B49     		ldr	r1, .L105+8
 2088 0204 0B40     		ands	r3, r1
 2089 0206 4360     		str	r3, [r0, #4]
 938:Drivers/GD32E23x/Source/gd32e23x_timer.c ****             /* reset the ISO2N bit */
 2090              		.loc 1 938 13 is_stmt 1 view .LVU504
 2091 0208 4368     		ldr	r3, [r0, #4]
 938:Drivers/GD32E23x/Source/gd32e23x_timer.c ****             /* reset the ISO2N bit */
 2092              		.loc 1 938 69 is_stmt 0 view .LVU505
 2093 020a 1189     		ldrh	r1, [r2, #8]
 938:Drivers/GD32E23x/Source/gd32e23x_timer.c ****             /* reset the ISO2N bit */
 2094              		.loc 1 938 41 view .LVU506
 2095 020c 0901     		lsls	r1, r1, #4
 938:Drivers/GD32E23x/Source/gd32e23x_timer.c ****             /* reset the ISO2N bit */
 2096              		.loc 1 938 38 view .LVU507
 2097 020e 0B43     		orrs	r3, r1
 2098 0210 4360     		str	r3, [r0, #4]
 940:Drivers/GD32E23x/Source/gd32e23x_timer.c ****             /* set the ISO2N bit */
 2099              		.loc 1 940 13 is_stmt 1 view .LVU508
 2100 0212 4368     		ldr	r3, [r0, #4]
 940:Drivers/GD32E23x/Source/gd32e23x_timer.c ****             /* set the ISO2N bit */
 2101              		.loc 1 940 38 is_stmt 0 view .LVU509
 2102 0214 0749     		ldr	r1, .L105+12
 2103 0216 0B40     		ands	r3, r1
 2104 0218 4360     		str	r3, [r0, #4]
 942:Drivers/GD32E23x/Source/gd32e23x_timer.c ****         }
 2105              		.loc 1 942 13 is_stmt 1 view .LVU510
ARM GAS  D:\noval\Temp\cck0Iw0b.s 			page 56


 2106 021a 4368     		ldr	r3, [r0, #4]
 942:Drivers/GD32E23x/Source/gd32e23x_timer.c ****         }
 2107              		.loc 1 942 69 is_stmt 0 view .LVU511
 2108 021c 5289     		ldrh	r2, [r2, #10]
 2109              	.LVL97:
 942:Drivers/GD32E23x/Source/gd32e23x_timer.c ****         }
 2110              		.loc 1 942 41 view .LVU512
 2111 021e 1201     		lsls	r2, r2, #4
 942:Drivers/GD32E23x/Source/gd32e23x_timer.c ****         }
 2112              		.loc 1 942 38 view .LVU513
 2113 0220 1343     		orrs	r3, r2
 2114 0222 4360     		str	r3, [r0, #4]
 2115 0224 97E7     		b	.L95
 2116              	.L106:
 2117 0226 C046     		.align	2
 2118              	.L105:
 2119 0228 FFFCFFFF 		.word	-769
 2120 022c FFFBFFFF 		.word	-1025
 2121 0230 FFEFFFFF 		.word	-4097
 2122 0234 FFDFFFFF 		.word	-8193
 2123 0238 FFBFFFFF 		.word	-16385
 2124 023c FFFEFFFF 		.word	-257
 2125 0240 FFFDFFFF 		.word	-513
 2126 0244 FFF7FFFF 		.word	-2049
 2127              		.cfi_endproc
 2128              	.LFE102:
 2130              		.section	.text.timer_channel_output_mode_config,"ax",%progbits
 2131              		.align	1
 2132              		.global	timer_channel_output_mode_config
 2133              		.syntax unified
 2134              		.code	16
 2135              		.thumb_func
 2137              	timer_channel_output_mode_config:
 2138              	.LVL98:
 2139              	.LFB103:
 968:Drivers/GD32E23x/Source/gd32e23x_timer.c **** 
 969:Drivers/GD32E23x/Source/gd32e23x_timer.c **** /*!
 970:Drivers/GD32E23x/Source/gd32e23x_timer.c ****     \brief      configure TIMER channel output compare mode
 971:Drivers/GD32E23x/Source/gd32e23x_timer.c ****     \param[in]  timer_periph: please refer to the following parameters
 972:Drivers/GD32E23x/Source/gd32e23x_timer.c ****     \param[in]  channel:
 973:Drivers/GD32E23x/Source/gd32e23x_timer.c ****                 only one parameter can be selected which is shown as below:
 974:Drivers/GD32E23x/Source/gd32e23x_timer.c ****       \arg        TIMER_CH_0: TIMER channel0(TIMERx(x=0,2,13..16))
 975:Drivers/GD32E23x/Source/gd32e23x_timer.c ****       \arg        TIMER_CH_1: TIMER channel1(TIMERx(x=0,2,14))
 976:Drivers/GD32E23x/Source/gd32e23x_timer.c ****       \arg        TIMER_CH_2: TIMER channel2(TIMERx(x=0,2))
 977:Drivers/GD32E23x/Source/gd32e23x_timer.c ****       \arg        TIMER_CH_3: TIMER channel3(TIMERx(x=0,2))
 978:Drivers/GD32E23x/Source/gd32e23x_timer.c ****     \param[in]  ocmode: channel output compare mode
 979:Drivers/GD32E23x/Source/gd32e23x_timer.c ****                 only one parameter can be selected which is shown as below:
 980:Drivers/GD32E23x/Source/gd32e23x_timer.c ****       \arg        TIMER_OC_MODE_TIMING: timing mode
 981:Drivers/GD32E23x/Source/gd32e23x_timer.c ****       \arg        TIMER_OC_MODE_ACTIVE: active mode
 982:Drivers/GD32E23x/Source/gd32e23x_timer.c ****       \arg        TIMER_OC_MODE_INACTIVE: inactive mode
 983:Drivers/GD32E23x/Source/gd32e23x_timer.c ****       \arg        TIMER_OC_MODE_TOGGLE: toggle mode
 984:Drivers/GD32E23x/Source/gd32e23x_timer.c ****       \arg        TIMER_OC_MODE_LOW: force low mode
 985:Drivers/GD32E23x/Source/gd32e23x_timer.c ****       \arg        TIMER_OC_MODE_HIGH: force high mode
 986:Drivers/GD32E23x/Source/gd32e23x_timer.c ****       \arg        TIMER_OC_MODE_PWM0: PWM0 mode
 987:Drivers/GD32E23x/Source/gd32e23x_timer.c ****       \arg        TIMER_OC_MODE_PWM1: PWM1 mode
 988:Drivers/GD32E23x/Source/gd32e23x_timer.c ****     \param[out] none
 989:Drivers/GD32E23x/Source/gd32e23x_timer.c ****     \retval     none
ARM GAS  D:\noval\Temp\cck0Iw0b.s 			page 57


 990:Drivers/GD32E23x/Source/gd32e23x_timer.c **** */
 991:Drivers/GD32E23x/Source/gd32e23x_timer.c **** void timer_channel_output_mode_config(uint32_t timer_periph, uint16_t channel, uint16_t ocmode)
 992:Drivers/GD32E23x/Source/gd32e23x_timer.c **** {
 2140              		.loc 1 992 1 is_stmt 1 view -0
 2141              		.cfi_startproc
 2142              		@ args = 0, pretend = 0, frame = 0
 2143              		@ frame_needed = 0, uses_anonymous_args = 0
 2144              		@ link register save eliminated.
 993:Drivers/GD32E23x/Source/gd32e23x_timer.c ****     switch(channel){
 2145              		.loc 1 993 5 view .LVU515
 2146 0000 0229     		cmp	r1, #2
 2147 0002 1FD0     		beq	.L108
 2148 0004 0BD8     		bhi	.L109
 2149 0006 A9B1     		cbz	r1, .L110
 2150 0008 0129     		cmp	r1, #1
 2151 000a 1AD1     		bne	.L107
 994:Drivers/GD32E23x/Source/gd32e23x_timer.c ****     /* configure TIMER_CH_0 */
 995:Drivers/GD32E23x/Source/gd32e23x_timer.c ****     case TIMER_CH_0:
 996:Drivers/GD32E23x/Source/gd32e23x_timer.c ****         TIMER_CHCTL0(timer_periph) &= (~(uint32_t)TIMER_CHCTL0_CH0COMCTL);
 997:Drivers/GD32E23x/Source/gd32e23x_timer.c ****         TIMER_CHCTL0(timer_periph) |= (uint32_t)ocmode;
 998:Drivers/GD32E23x/Source/gd32e23x_timer.c ****         break;
 999:Drivers/GD32E23x/Source/gd32e23x_timer.c ****     /* configure TIMER_CH_1 */
1000:Drivers/GD32E23x/Source/gd32e23x_timer.c ****     case TIMER_CH_1:
1001:Drivers/GD32E23x/Source/gd32e23x_timer.c ****         TIMER_CHCTL0(timer_periph) &= (~(uint32_t)TIMER_CHCTL0_CH1COMCTL);
 2152              		.loc 1 1001 9 view .LVU516
 2153 000c 8369     		ldr	r3, [r0, #24]
 2154              		.loc 1 1001 36 is_stmt 0 view .LVU517
 2155 000e 1149     		ldr	r1, .L114
 2156              	.LVL99:
 2157              		.loc 1 1001 36 view .LVU518
 2158 0010 0B40     		ands	r3, r1
 2159 0012 8361     		str	r3, [r0, #24]
1002:Drivers/GD32E23x/Source/gd32e23x_timer.c ****         TIMER_CHCTL0(timer_periph) |= (uint32_t)((uint32_t)(ocmode) << 8U);
 2160              		.loc 1 1002 9 is_stmt 1 view .LVU519
 2161 0014 8369     		ldr	r3, [r0, #24]
 2162              		.loc 1 1002 39 is_stmt 0 view .LVU520
 2163 0016 1202     		lsls	r2, r2, #8
 2164              	.LVL100:
 2165              		.loc 1 1002 36 view .LVU521
 2166 0018 1A43     		orrs	r2, r3
 2167 001a 8261     		str	r2, [r0, #24]
1003:Drivers/GD32E23x/Source/gd32e23x_timer.c ****         break;
 2168              		.loc 1 1003 9 is_stmt 1 view .LVU522
 2169 001c 11E0     		b	.L107
 2170              	.LVL101:
 2171              	.L109:
 993:Drivers/GD32E23x/Source/gd32e23x_timer.c ****     /* configure TIMER_CH_0 */
 2172              		.loc 1 993 5 is_stmt 0 view .LVU523
 2173 001e 0329     		cmp	r1, #3
 2174 0020 0FD1     		bne	.L107
1004:Drivers/GD32E23x/Source/gd32e23x_timer.c ****     /* configure TIMER_CH_2 */
1005:Drivers/GD32E23x/Source/gd32e23x_timer.c ****     case TIMER_CH_2:
1006:Drivers/GD32E23x/Source/gd32e23x_timer.c ****         TIMER_CHCTL1(timer_periph) &= (~(uint32_t)TIMER_CHCTL1_CH2COMCTL);
1007:Drivers/GD32E23x/Source/gd32e23x_timer.c ****         TIMER_CHCTL1(timer_periph) |= (uint32_t)ocmode;
1008:Drivers/GD32E23x/Source/gd32e23x_timer.c ****         break;
1009:Drivers/GD32E23x/Source/gd32e23x_timer.c ****     /* configure TIMER_CH_3 */
1010:Drivers/GD32E23x/Source/gd32e23x_timer.c ****     case TIMER_CH_3:
ARM GAS  D:\noval\Temp\cck0Iw0b.s 			page 58


1011:Drivers/GD32E23x/Source/gd32e23x_timer.c ****         TIMER_CHCTL1(timer_periph) &= (~(uint32_t)TIMER_CHCTL1_CH3COMCTL);
 2175              		.loc 1 1011 9 is_stmt 1 view .LVU524
 2176 0022 C369     		ldr	r3, [r0, #28]
 2177              		.loc 1 1011 36 is_stmt 0 view .LVU525
 2178 0024 0B49     		ldr	r1, .L114
 2179              	.LVL102:
 2180              		.loc 1 1011 36 view .LVU526
 2181 0026 0B40     		ands	r3, r1
 2182 0028 C361     		str	r3, [r0, #28]
1012:Drivers/GD32E23x/Source/gd32e23x_timer.c ****         TIMER_CHCTL1(timer_periph) |= (uint32_t)((uint32_t)(ocmode) << 8U);
 2183              		.loc 1 1012 9 is_stmt 1 view .LVU527
 2184 002a C369     		ldr	r3, [r0, #28]
 2185              		.loc 1 1012 39 is_stmt 0 view .LVU528
 2186 002c 1202     		lsls	r2, r2, #8
 2187              	.LVL103:
 2188              		.loc 1 1012 36 view .LVU529
 2189 002e 1343     		orrs	r3, r2
 2190 0030 C361     		str	r3, [r0, #28]
1013:Drivers/GD32E23x/Source/gd32e23x_timer.c ****         break;
 2191              		.loc 1 1013 9 is_stmt 1 view .LVU530
1014:Drivers/GD32E23x/Source/gd32e23x_timer.c ****     default:
1015:Drivers/GD32E23x/Source/gd32e23x_timer.c ****         break;
1016:Drivers/GD32E23x/Source/gd32e23x_timer.c ****     }
1017:Drivers/GD32E23x/Source/gd32e23x_timer.c **** }
 2192              		.loc 1 1017 1 is_stmt 0 view .LVU531
 2193 0032 06E0     		b	.L107
 2194              	.LVL104:
 2195              	.L110:
 996:Drivers/GD32E23x/Source/gd32e23x_timer.c ****         TIMER_CHCTL0(timer_periph) |= (uint32_t)ocmode;
 2196              		.loc 1 996 9 is_stmt 1 view .LVU532
 2197 0034 8369     		ldr	r3, [r0, #24]
 996:Drivers/GD32E23x/Source/gd32e23x_timer.c ****         TIMER_CHCTL0(timer_periph) |= (uint32_t)ocmode;
 2198              		.loc 1 996 36 is_stmt 0 view .LVU533
 2199 0036 7021     		movs	r1, #112
 2200              	.LVL105:
 996:Drivers/GD32E23x/Source/gd32e23x_timer.c ****         TIMER_CHCTL0(timer_periph) |= (uint32_t)ocmode;
 2201              		.loc 1 996 36 view .LVU534
 2202 0038 8B43     		bics	r3, r1
 2203 003a 8361     		str	r3, [r0, #24]
 997:Drivers/GD32E23x/Source/gd32e23x_timer.c ****         break;
 2204              		.loc 1 997 9 is_stmt 1 view .LVU535
 2205 003c 8369     		ldr	r3, [r0, #24]
 997:Drivers/GD32E23x/Source/gd32e23x_timer.c ****         break;
 2206              		.loc 1 997 36 is_stmt 0 view .LVU536
 2207 003e 1343     		orrs	r3, r2
 2208 0040 8361     		str	r3, [r0, #24]
 998:Drivers/GD32E23x/Source/gd32e23x_timer.c ****     /* configure TIMER_CH_1 */
 2209              		.loc 1 998 9 is_stmt 1 view .LVU537
 2210              	.LVL106:
 2211              	.L107:
 2212              		.loc 1 1017 1 is_stmt 0 view .LVU538
 2213              		@ sp needed
 2214 0042 7047     		bx	lr
 2215              	.LVL107:
 2216              	.L108:
1006:Drivers/GD32E23x/Source/gd32e23x_timer.c ****         TIMER_CHCTL1(timer_periph) |= (uint32_t)ocmode;
 2217              		.loc 1 1006 9 is_stmt 1 view .LVU539
ARM GAS  D:\noval\Temp\cck0Iw0b.s 			page 59


 2218 0044 C369     		ldr	r3, [r0, #28]
1006:Drivers/GD32E23x/Source/gd32e23x_timer.c ****         TIMER_CHCTL1(timer_periph) |= (uint32_t)ocmode;
 2219              		.loc 1 1006 36 is_stmt 0 view .LVU540
 2220 0046 7021     		movs	r1, #112
 2221              	.LVL108:
1006:Drivers/GD32E23x/Source/gd32e23x_timer.c ****         TIMER_CHCTL1(timer_periph) |= (uint32_t)ocmode;
 2222              		.loc 1 1006 36 view .LVU541
 2223 0048 8B43     		bics	r3, r1
 2224 004a C361     		str	r3, [r0, #28]
1007:Drivers/GD32E23x/Source/gd32e23x_timer.c ****         break;
 2225              		.loc 1 1007 9 is_stmt 1 view .LVU542
 2226 004c C369     		ldr	r3, [r0, #28]
1007:Drivers/GD32E23x/Source/gd32e23x_timer.c ****         break;
 2227              		.loc 1 1007 36 is_stmt 0 view .LVU543
 2228 004e 1343     		orrs	r3, r2
 2229 0050 C361     		str	r3, [r0, #28]
1008:Drivers/GD32E23x/Source/gd32e23x_timer.c ****     /* configure TIMER_CH_3 */
 2230              		.loc 1 1008 9 is_stmt 1 view .LVU544
 2231 0052 F6E7     		b	.L107
 2232              	.L115:
 2233              		.align	2
 2234              	.L114:
 2235 0054 FF8FFFFF 		.word	-28673
 2236              		.cfi_endproc
 2237              	.LFE103:
 2239              		.section	.text.timer_channel_output_pulse_value_config,"ax",%progbits
 2240              		.align	1
 2241              		.global	timer_channel_output_pulse_value_config
 2242              		.syntax unified
 2243              		.code	16
 2244              		.thumb_func
 2246              	timer_channel_output_pulse_value_config:
 2247              	.LVL109:
 2248              	.LFB104:
1018:Drivers/GD32E23x/Source/gd32e23x_timer.c **** 
1019:Drivers/GD32E23x/Source/gd32e23x_timer.c **** /*!
1020:Drivers/GD32E23x/Source/gd32e23x_timer.c ****     \brief      configure TIMER channel output pulse value
1021:Drivers/GD32E23x/Source/gd32e23x_timer.c ****     \param[in]  timer_periph: please refer to the following parameters
1022:Drivers/GD32E23x/Source/gd32e23x_timer.c ****     \param[in]  channel:
1023:Drivers/GD32E23x/Source/gd32e23x_timer.c ****                 only one parameter can be selected which is shown as below:
1024:Drivers/GD32E23x/Source/gd32e23x_timer.c ****       \arg        TIMER_CH_0: TIMER channel0(TIMERx(x=0,2,13..16))
1025:Drivers/GD32E23x/Source/gd32e23x_timer.c ****       \arg        TIMER_CH_1: TIMER channel1(TIMERx(x=0,2,14))
1026:Drivers/GD32E23x/Source/gd32e23x_timer.c ****       \arg        TIMER_CH_2: TIMER channel2(TIMERx(x=0,2))
1027:Drivers/GD32E23x/Source/gd32e23x_timer.c ****       \arg        TIMER_CH_3: TIMER channel3(TIMERx(x=0,2))
1028:Drivers/GD32E23x/Source/gd32e23x_timer.c ****     \param[in]  pulse: channel output pulse value,0~65535
1029:Drivers/GD32E23x/Source/gd32e23x_timer.c ****     \param[out] none
1030:Drivers/GD32E23x/Source/gd32e23x_timer.c ****     \retval     none
1031:Drivers/GD32E23x/Source/gd32e23x_timer.c **** */
1032:Drivers/GD32E23x/Source/gd32e23x_timer.c **** void timer_channel_output_pulse_value_config(uint32_t timer_periph, uint16_t channel, uint32_t puls
1033:Drivers/GD32E23x/Source/gd32e23x_timer.c **** {
 2249              		.loc 1 1033 1 view -0
 2250              		.cfi_startproc
 2251              		@ args = 0, pretend = 0, frame = 0
 2252              		@ frame_needed = 0, uses_anonymous_args = 0
 2253              		@ link register save eliminated.
1034:Drivers/GD32E23x/Source/gd32e23x_timer.c ****     switch(channel){
 2254              		.loc 1 1034 5 view .LVU546
ARM GAS  D:\noval\Temp\cck0Iw0b.s 			page 60


 2255 0000 0229     		cmp	r1, #2
 2256 0002 0BD0     		beq	.L117
 2257 0004 04D8     		bhi	.L118
 2258 0006 39B1     		cbz	r1, .L119
 2259 0008 0129     		cmp	r1, #1
 2260 000a 06D1     		bne	.L116
1035:Drivers/GD32E23x/Source/gd32e23x_timer.c ****     /* configure TIMER_CH_0 */
1036:Drivers/GD32E23x/Source/gd32e23x_timer.c ****     case TIMER_CH_0:
1037:Drivers/GD32E23x/Source/gd32e23x_timer.c ****         TIMER_CH0CV(timer_periph) = (uint32_t)pulse;
1038:Drivers/GD32E23x/Source/gd32e23x_timer.c ****         break;
1039:Drivers/GD32E23x/Source/gd32e23x_timer.c ****     /* configure TIMER_CH_1 */
1040:Drivers/GD32E23x/Source/gd32e23x_timer.c ****     case TIMER_CH_1:
1041:Drivers/GD32E23x/Source/gd32e23x_timer.c ****         TIMER_CH1CV(timer_periph) = (uint32_t)pulse;
 2261              		.loc 1 1041 9 view .LVU547
 2262              		.loc 1 1041 35 is_stmt 0 view .LVU548
 2263 000c 8263     		str	r2, [r0, #56]
1042:Drivers/GD32E23x/Source/gd32e23x_timer.c ****         break;
 2264              		.loc 1 1042 9 is_stmt 1 view .LVU549
 2265 000e 04E0     		b	.L116
 2266              	.L118:
1034:Drivers/GD32E23x/Source/gd32e23x_timer.c ****     switch(channel){
 2267              		.loc 1 1034 5 is_stmt 0 view .LVU550
 2268 0010 0329     		cmp	r1, #3
 2269 0012 02D1     		bne	.L116
1043:Drivers/GD32E23x/Source/gd32e23x_timer.c ****     /* configure TIMER_CH_2 */
1044:Drivers/GD32E23x/Source/gd32e23x_timer.c ****     case TIMER_CH_2:
1045:Drivers/GD32E23x/Source/gd32e23x_timer.c ****         TIMER_CH2CV(timer_periph) = (uint32_t)pulse;
1046:Drivers/GD32E23x/Source/gd32e23x_timer.c ****         break;
1047:Drivers/GD32E23x/Source/gd32e23x_timer.c ****     /* configure TIMER_CH_3 */
1048:Drivers/GD32E23x/Source/gd32e23x_timer.c ****     case TIMER_CH_3:
1049:Drivers/GD32E23x/Source/gd32e23x_timer.c ****          TIMER_CH3CV(timer_periph) = (uint32_t)pulse;
 2270              		.loc 1 1049 10 is_stmt 1 view .LVU551
 2271              		.loc 1 1049 36 is_stmt 0 view .LVU552
 2272 0014 0264     		str	r2, [r0, #64]
1050:Drivers/GD32E23x/Source/gd32e23x_timer.c ****         break;
 2273              		.loc 1 1050 9 is_stmt 1 view .LVU553
1051:Drivers/GD32E23x/Source/gd32e23x_timer.c ****     default:
1052:Drivers/GD32E23x/Source/gd32e23x_timer.c ****         break;
1053:Drivers/GD32E23x/Source/gd32e23x_timer.c ****     }
1054:Drivers/GD32E23x/Source/gd32e23x_timer.c **** }
 2274              		.loc 1 1054 1 is_stmt 0 view .LVU554
 2275 0016 00E0     		b	.L116
 2276              	.L119:
1037:Drivers/GD32E23x/Source/gd32e23x_timer.c ****         break;
 2277              		.loc 1 1037 9 is_stmt 1 view .LVU555
1037:Drivers/GD32E23x/Source/gd32e23x_timer.c ****         break;
 2278              		.loc 1 1037 35 is_stmt 0 view .LVU556
 2279 0018 4263     		str	r2, [r0, #52]
1038:Drivers/GD32E23x/Source/gd32e23x_timer.c ****     /* configure TIMER_CH_1 */
 2280              		.loc 1 1038 9 is_stmt 1 view .LVU557
 2281              	.L116:
 2282              		.loc 1 1054 1 is_stmt 0 view .LVU558
 2283              		@ sp needed
 2284 001a 7047     		bx	lr
 2285              	.L117:
1045:Drivers/GD32E23x/Source/gd32e23x_timer.c ****         break;
 2286              		.loc 1 1045 9 is_stmt 1 view .LVU559
ARM GAS  D:\noval\Temp\cck0Iw0b.s 			page 61


1045:Drivers/GD32E23x/Source/gd32e23x_timer.c ****         break;
 2287              		.loc 1 1045 35 is_stmt 0 view .LVU560
 2288 001c C263     		str	r2, [r0, #60]
1046:Drivers/GD32E23x/Source/gd32e23x_timer.c ****     /* configure TIMER_CH_3 */
 2289              		.loc 1 1046 9 is_stmt 1 view .LVU561
 2290 001e FCE7     		b	.L116
 2291              		.cfi_endproc
 2292              	.LFE104:
 2294              		.section	.text.timer_channel_output_shadow_config,"ax",%progbits
 2295              		.align	1
 2296              		.global	timer_channel_output_shadow_config
 2297              		.syntax unified
 2298              		.code	16
 2299              		.thumb_func
 2301              	timer_channel_output_shadow_config:
 2302              	.LVL110:
 2303              	.LFB105:
1055:Drivers/GD32E23x/Source/gd32e23x_timer.c **** 
1056:Drivers/GD32E23x/Source/gd32e23x_timer.c **** /*!
1057:Drivers/GD32E23x/Source/gd32e23x_timer.c ****     \brief      configure TIMER channel output shadow function
1058:Drivers/GD32E23x/Source/gd32e23x_timer.c ****     \param[in]  timer_periph: please refer to the following parameters
1059:Drivers/GD32E23x/Source/gd32e23x_timer.c ****     \param[in]  channel:
1060:Drivers/GD32E23x/Source/gd32e23x_timer.c ****                 only one parameter can be selected which is shown as below:
1061:Drivers/GD32E23x/Source/gd32e23x_timer.c ****       \arg        TIMER_CH_0: TIMER channel0(TIMERx(x=0,2,13..16))
1062:Drivers/GD32E23x/Source/gd32e23x_timer.c ****       \arg        TIMER_CH_1: TIMER channel1(TIMERx(x=0,2,14))
1063:Drivers/GD32E23x/Source/gd32e23x_timer.c ****       \arg        TIMER_CH_2: TIMER channel2(TIMERx(x=0,2))
1064:Drivers/GD32E23x/Source/gd32e23x_timer.c ****       \arg        TIMER_CH_3: TIMER channel3(TIMERx(x=0,2))
1065:Drivers/GD32E23x/Source/gd32e23x_timer.c ****     \param[in]  ocshadow: channel output shadow state
1066:Drivers/GD32E23x/Source/gd32e23x_timer.c ****                 only one parameter can be selected which is shown as below:
1067:Drivers/GD32E23x/Source/gd32e23x_timer.c ****       \arg        TIMER_OC_SHADOW_ENABLE: channel output shadow state enable
1068:Drivers/GD32E23x/Source/gd32e23x_timer.c ****       \arg        TIMER_OC_SHADOW_DISABLE: channel output shadow state disable
1069:Drivers/GD32E23x/Source/gd32e23x_timer.c ****     \param[out] none
1070:Drivers/GD32E23x/Source/gd32e23x_timer.c ****     \retval     none
1071:Drivers/GD32E23x/Source/gd32e23x_timer.c **** */
1072:Drivers/GD32E23x/Source/gd32e23x_timer.c **** void timer_channel_output_shadow_config(uint32_t timer_periph, uint16_t channel, uint16_t ocshadow)
1073:Drivers/GD32E23x/Source/gd32e23x_timer.c **** {
 2304              		.loc 1 1073 1 view -0
 2305              		.cfi_startproc
 2306              		@ args = 0, pretend = 0, frame = 0
 2307              		@ frame_needed = 0, uses_anonymous_args = 0
 2308              		@ link register save eliminated.
1074:Drivers/GD32E23x/Source/gd32e23x_timer.c ****     switch(channel){
 2309              		.loc 1 1074 5 view .LVU563
 2310 0000 0229     		cmp	r1, #2
 2311 0002 1FD0     		beq	.L124
 2312 0004 0BD8     		bhi	.L125
 2313 0006 A9B1     		cbz	r1, .L126
 2314 0008 0129     		cmp	r1, #1
 2315 000a 1AD1     		bne	.L123
1075:Drivers/GD32E23x/Source/gd32e23x_timer.c ****     /* configure TIMER_CH_0 */
1076:Drivers/GD32E23x/Source/gd32e23x_timer.c ****     case TIMER_CH_0:
1077:Drivers/GD32E23x/Source/gd32e23x_timer.c ****         TIMER_CHCTL0(timer_periph) &= (~(uint32_t)TIMER_CHCTL0_CH0COMSEN);
1078:Drivers/GD32E23x/Source/gd32e23x_timer.c ****         TIMER_CHCTL0(timer_periph) |= (uint32_t)ocshadow;
1079:Drivers/GD32E23x/Source/gd32e23x_timer.c ****         break;
1080:Drivers/GD32E23x/Source/gd32e23x_timer.c ****     /* configure TIMER_CH_1 */
1081:Drivers/GD32E23x/Source/gd32e23x_timer.c ****     case TIMER_CH_1:
1082:Drivers/GD32E23x/Source/gd32e23x_timer.c ****         TIMER_CHCTL0(timer_periph) &= (~(uint32_t)TIMER_CHCTL0_CH1COMSEN);
ARM GAS  D:\noval\Temp\cck0Iw0b.s 			page 62


 2316              		.loc 1 1082 9 view .LVU564
 2317 000c 8369     		ldr	r3, [r0, #24]
 2318              		.loc 1 1082 36 is_stmt 0 view .LVU565
 2319 000e 1149     		ldr	r1, .L130
 2320              	.LVL111:
 2321              		.loc 1 1082 36 view .LVU566
 2322 0010 0B40     		ands	r3, r1
 2323 0012 8361     		str	r3, [r0, #24]
1083:Drivers/GD32E23x/Source/gd32e23x_timer.c ****         TIMER_CHCTL0(timer_periph) |= (uint32_t)((uint32_t)(ocshadow) << 8U);
 2324              		.loc 1 1083 9 is_stmt 1 view .LVU567
 2325 0014 8369     		ldr	r3, [r0, #24]
 2326              		.loc 1 1083 39 is_stmt 0 view .LVU568
 2327 0016 1202     		lsls	r2, r2, #8
 2328              	.LVL112:
 2329              		.loc 1 1083 36 view .LVU569
 2330 0018 1A43     		orrs	r2, r3
 2331 001a 8261     		str	r2, [r0, #24]
1084:Drivers/GD32E23x/Source/gd32e23x_timer.c ****         break;
 2332              		.loc 1 1084 9 is_stmt 1 view .LVU570
 2333 001c 11E0     		b	.L123
 2334              	.LVL113:
 2335              	.L125:
1074:Drivers/GD32E23x/Source/gd32e23x_timer.c ****     /* configure TIMER_CH_0 */
 2336              		.loc 1 1074 5 is_stmt 0 view .LVU571
 2337 001e 0329     		cmp	r1, #3
 2338 0020 0FD1     		bne	.L123
1085:Drivers/GD32E23x/Source/gd32e23x_timer.c ****     /* configure TIMER_CH_2 */
1086:Drivers/GD32E23x/Source/gd32e23x_timer.c ****     case TIMER_CH_2:
1087:Drivers/GD32E23x/Source/gd32e23x_timer.c ****         TIMER_CHCTL1(timer_periph) &= (~(uint32_t)TIMER_CHCTL1_CH2COMSEN);
1088:Drivers/GD32E23x/Source/gd32e23x_timer.c ****         TIMER_CHCTL1(timer_periph) |= (uint32_t)ocshadow;
1089:Drivers/GD32E23x/Source/gd32e23x_timer.c ****         break;
1090:Drivers/GD32E23x/Source/gd32e23x_timer.c ****     /* configure TIMER_CH_3 */
1091:Drivers/GD32E23x/Source/gd32e23x_timer.c ****     case TIMER_CH_3:
1092:Drivers/GD32E23x/Source/gd32e23x_timer.c ****         TIMER_CHCTL1(timer_periph) &= (~(uint32_t)TIMER_CHCTL1_CH3COMSEN);
 2339              		.loc 1 1092 9 is_stmt 1 view .LVU572
 2340 0022 C369     		ldr	r3, [r0, #28]
 2341              		.loc 1 1092 36 is_stmt 0 view .LVU573
 2342 0024 0B49     		ldr	r1, .L130
 2343              	.LVL114:
 2344              		.loc 1 1092 36 view .LVU574
 2345 0026 0B40     		ands	r3, r1
 2346 0028 C361     		str	r3, [r0, #28]
1093:Drivers/GD32E23x/Source/gd32e23x_timer.c ****         TIMER_CHCTL1(timer_periph) |= (uint32_t)((uint32_t)(ocshadow) << 8U);
 2347              		.loc 1 1093 9 is_stmt 1 view .LVU575
 2348 002a C369     		ldr	r3, [r0, #28]
 2349              		.loc 1 1093 39 is_stmt 0 view .LVU576
 2350 002c 1202     		lsls	r2, r2, #8
 2351              	.LVL115:
 2352              		.loc 1 1093 36 view .LVU577
 2353 002e 1343     		orrs	r3, r2
 2354 0030 C361     		str	r3, [r0, #28]
1094:Drivers/GD32E23x/Source/gd32e23x_timer.c ****         break;
 2355              		.loc 1 1094 9 is_stmt 1 view .LVU578
1095:Drivers/GD32E23x/Source/gd32e23x_timer.c ****     default:
1096:Drivers/GD32E23x/Source/gd32e23x_timer.c ****         break;
1097:Drivers/GD32E23x/Source/gd32e23x_timer.c ****     }
1098:Drivers/GD32E23x/Source/gd32e23x_timer.c **** }
ARM GAS  D:\noval\Temp\cck0Iw0b.s 			page 63


 2356              		.loc 1 1098 1 is_stmt 0 view .LVU579
 2357 0032 06E0     		b	.L123
 2358              	.LVL116:
 2359              	.L126:
1077:Drivers/GD32E23x/Source/gd32e23x_timer.c ****         TIMER_CHCTL0(timer_periph) |= (uint32_t)ocshadow;
 2360              		.loc 1 1077 9 is_stmt 1 view .LVU580
 2361 0034 8369     		ldr	r3, [r0, #24]
1077:Drivers/GD32E23x/Source/gd32e23x_timer.c ****         TIMER_CHCTL0(timer_periph) |= (uint32_t)ocshadow;
 2362              		.loc 1 1077 36 is_stmt 0 view .LVU581
 2363 0036 0821     		movs	r1, #8
 2364              	.LVL117:
1077:Drivers/GD32E23x/Source/gd32e23x_timer.c ****         TIMER_CHCTL0(timer_periph) |= (uint32_t)ocshadow;
 2365              		.loc 1 1077 36 view .LVU582
 2366 0038 8B43     		bics	r3, r1
 2367 003a 8361     		str	r3, [r0, #24]
1078:Drivers/GD32E23x/Source/gd32e23x_timer.c ****         break;
 2368              		.loc 1 1078 9 is_stmt 1 view .LVU583
 2369 003c 8369     		ldr	r3, [r0, #24]
1078:Drivers/GD32E23x/Source/gd32e23x_timer.c ****         break;
 2370              		.loc 1 1078 36 is_stmt 0 view .LVU584
 2371 003e 1343     		orrs	r3, r2
 2372 0040 8361     		str	r3, [r0, #24]
1079:Drivers/GD32E23x/Source/gd32e23x_timer.c ****     /* configure TIMER_CH_1 */
 2373              		.loc 1 1079 9 is_stmt 1 view .LVU585
 2374              	.LVL118:
 2375              	.L123:
 2376              		.loc 1 1098 1 is_stmt 0 view .LVU586
 2377              		@ sp needed
 2378 0042 7047     		bx	lr
 2379              	.LVL119:
 2380              	.L124:
1087:Drivers/GD32E23x/Source/gd32e23x_timer.c ****         TIMER_CHCTL1(timer_periph) |= (uint32_t)ocshadow;
 2381              		.loc 1 1087 9 is_stmt 1 view .LVU587
 2382 0044 C369     		ldr	r3, [r0, #28]
1087:Drivers/GD32E23x/Source/gd32e23x_timer.c ****         TIMER_CHCTL1(timer_periph) |= (uint32_t)ocshadow;
 2383              		.loc 1 1087 36 is_stmt 0 view .LVU588
 2384 0046 0821     		movs	r1, #8
 2385              	.LVL120:
1087:Drivers/GD32E23x/Source/gd32e23x_timer.c ****         TIMER_CHCTL1(timer_periph) |= (uint32_t)ocshadow;
 2386              		.loc 1 1087 36 view .LVU589
 2387 0048 8B43     		bics	r3, r1
 2388 004a C361     		str	r3, [r0, #28]
1088:Drivers/GD32E23x/Source/gd32e23x_timer.c ****         break;
 2389              		.loc 1 1088 9 is_stmt 1 view .LVU590
 2390 004c C369     		ldr	r3, [r0, #28]
1088:Drivers/GD32E23x/Source/gd32e23x_timer.c ****         break;
 2391              		.loc 1 1088 36 is_stmt 0 view .LVU591
 2392 004e 1343     		orrs	r3, r2
 2393 0050 C361     		str	r3, [r0, #28]
1089:Drivers/GD32E23x/Source/gd32e23x_timer.c ****     /* configure TIMER_CH_3 */
 2394              		.loc 1 1089 9 is_stmt 1 view .LVU592
 2395 0052 F6E7     		b	.L123
 2396              	.L131:
 2397              		.align	2
 2398              	.L130:
 2399 0054 FFF7FFFF 		.word	-2049
 2400              		.cfi_endproc
ARM GAS  D:\noval\Temp\cck0Iw0b.s 			page 64


 2401              	.LFE105:
 2403              		.section	.text.timer_channel_output_fast_config,"ax",%progbits
 2404              		.align	1
 2405              		.global	timer_channel_output_fast_config
 2406              		.syntax unified
 2407              		.code	16
 2408              		.thumb_func
 2410              	timer_channel_output_fast_config:
 2411              	.LVL121:
 2412              	.LFB106:
1099:Drivers/GD32E23x/Source/gd32e23x_timer.c **** 
1100:Drivers/GD32E23x/Source/gd32e23x_timer.c **** /*!
1101:Drivers/GD32E23x/Source/gd32e23x_timer.c ****     \brief      configure TIMER channel output fast function
1102:Drivers/GD32E23x/Source/gd32e23x_timer.c ****     \param[in]  timer_periph: please refer to the following parameters
1103:Drivers/GD32E23x/Source/gd32e23x_timer.c ****     \param[in]  channel:
1104:Drivers/GD32E23x/Source/gd32e23x_timer.c ****                 only one parameter can be selected which is shown as below:
1105:Drivers/GD32E23x/Source/gd32e23x_timer.c ****       \arg        TIMER_CH_0: TIMER channel0(TIMERx(x=0,2,13..16))
1106:Drivers/GD32E23x/Source/gd32e23x_timer.c ****       \arg        TIMER_CH_1: TIMER channel1(TIMERx(x=0,2,14))
1107:Drivers/GD32E23x/Source/gd32e23x_timer.c ****       \arg        TIMER_CH_2: TIMER channel2(TIMERx(x=0,2))
1108:Drivers/GD32E23x/Source/gd32e23x_timer.c ****       \arg        TIMER_CH_3: TIMER channel3(TIMERx(x=0,2))
1109:Drivers/GD32E23x/Source/gd32e23x_timer.c ****     \param[in]  ocfast: channel output fast function
1110:Drivers/GD32E23x/Source/gd32e23x_timer.c ****                 only one parameter can be selected which is shown as below:
1111:Drivers/GD32E23x/Source/gd32e23x_timer.c ****       \arg        TIMER_OC_FAST_ENABLE: channel output fast function enable
1112:Drivers/GD32E23x/Source/gd32e23x_timer.c ****       \arg        TIMER_OC_FAST_DISABLE: channel output fast function disable
1113:Drivers/GD32E23x/Source/gd32e23x_timer.c ****     \param[out] none
1114:Drivers/GD32E23x/Source/gd32e23x_timer.c ****     \retval     none
1115:Drivers/GD32E23x/Source/gd32e23x_timer.c **** */
1116:Drivers/GD32E23x/Source/gd32e23x_timer.c **** void timer_channel_output_fast_config(uint32_t timer_periph, uint16_t channel, uint16_t ocfast)
1117:Drivers/GD32E23x/Source/gd32e23x_timer.c **** {
 2413              		.loc 1 1117 1 view -0
 2414              		.cfi_startproc
 2415              		@ args = 0, pretend = 0, frame = 0
 2416              		@ frame_needed = 0, uses_anonymous_args = 0
 2417              		@ link register save eliminated.
1118:Drivers/GD32E23x/Source/gd32e23x_timer.c ****     switch(channel){
 2418              		.loc 1 1118 5 view .LVU594
 2419 0000 0229     		cmp	r1, #2
 2420 0002 1FD0     		beq	.L133
 2421 0004 0BD8     		bhi	.L134
 2422 0006 A9B1     		cbz	r1, .L135
 2423 0008 0129     		cmp	r1, #1
 2424 000a 1AD1     		bne	.L132
1119:Drivers/GD32E23x/Source/gd32e23x_timer.c ****     /* configure TIMER_CH_0 */
1120:Drivers/GD32E23x/Source/gd32e23x_timer.c ****     case TIMER_CH_0:
1121:Drivers/GD32E23x/Source/gd32e23x_timer.c ****         TIMER_CHCTL0(timer_periph) &= (~(uint32_t)TIMER_CHCTL0_CH0COMFEN);
1122:Drivers/GD32E23x/Source/gd32e23x_timer.c ****         TIMER_CHCTL0(timer_periph) |= (uint32_t)ocfast;
1123:Drivers/GD32E23x/Source/gd32e23x_timer.c ****         break;
1124:Drivers/GD32E23x/Source/gd32e23x_timer.c ****     /* configure TIMER_CH_1 */
1125:Drivers/GD32E23x/Source/gd32e23x_timer.c ****     case TIMER_CH_1:
1126:Drivers/GD32E23x/Source/gd32e23x_timer.c ****         TIMER_CHCTL0(timer_periph) &= (~(uint32_t)TIMER_CHCTL0_CH1COMFEN);
 2425              		.loc 1 1126 9 view .LVU595
 2426 000c 8369     		ldr	r3, [r0, #24]
 2427              		.loc 1 1126 36 is_stmt 0 view .LVU596
 2428 000e 1149     		ldr	r1, .L139
 2429              	.LVL122:
 2430              		.loc 1 1126 36 view .LVU597
 2431 0010 0B40     		ands	r3, r1
ARM GAS  D:\noval\Temp\cck0Iw0b.s 			page 65


 2432 0012 8361     		str	r3, [r0, #24]
1127:Drivers/GD32E23x/Source/gd32e23x_timer.c ****         TIMER_CHCTL0(timer_periph) |= (uint32_t)((uint32_t)ocfast << 8U);
 2433              		.loc 1 1127 9 is_stmt 1 view .LVU598
 2434 0014 8369     		ldr	r3, [r0, #24]
 2435              		.loc 1 1127 39 is_stmt 0 view .LVU599
 2436 0016 1202     		lsls	r2, r2, #8
 2437              	.LVL123:
 2438              		.loc 1 1127 36 view .LVU600
 2439 0018 1A43     		orrs	r2, r3
 2440 001a 8261     		str	r2, [r0, #24]
1128:Drivers/GD32E23x/Source/gd32e23x_timer.c ****         break;
 2441              		.loc 1 1128 9 is_stmt 1 view .LVU601
 2442 001c 11E0     		b	.L132
 2443              	.LVL124:
 2444              	.L134:
1118:Drivers/GD32E23x/Source/gd32e23x_timer.c ****     /* configure TIMER_CH_0 */
 2445              		.loc 1 1118 5 is_stmt 0 view .LVU602
 2446 001e 0329     		cmp	r1, #3
 2447 0020 0FD1     		bne	.L132
1129:Drivers/GD32E23x/Source/gd32e23x_timer.c ****     /* configure TIMER_CH_2 */
1130:Drivers/GD32E23x/Source/gd32e23x_timer.c ****     case TIMER_CH_2:
1131:Drivers/GD32E23x/Source/gd32e23x_timer.c ****         TIMER_CHCTL1(timer_periph) &= (~(uint32_t)TIMER_CHCTL1_CH2COMFEN);
1132:Drivers/GD32E23x/Source/gd32e23x_timer.c ****         TIMER_CHCTL1(timer_periph) |= (uint32_t)ocfast;
1133:Drivers/GD32E23x/Source/gd32e23x_timer.c ****         break;
1134:Drivers/GD32E23x/Source/gd32e23x_timer.c ****     /* configure TIMER_CH_3 */
1135:Drivers/GD32E23x/Source/gd32e23x_timer.c ****     case TIMER_CH_3:
1136:Drivers/GD32E23x/Source/gd32e23x_timer.c ****         TIMER_CHCTL1(timer_periph) &= (~(uint32_t)TIMER_CHCTL1_CH3COMFEN);
 2448              		.loc 1 1136 9 is_stmt 1 view .LVU603
 2449 0022 C369     		ldr	r3, [r0, #28]
 2450              		.loc 1 1136 36 is_stmt 0 view .LVU604
 2451 0024 0B49     		ldr	r1, .L139
 2452              	.LVL125:
 2453              		.loc 1 1136 36 view .LVU605
 2454 0026 0B40     		ands	r3, r1
 2455 0028 C361     		str	r3, [r0, #28]
1137:Drivers/GD32E23x/Source/gd32e23x_timer.c ****         TIMER_CHCTL1(timer_periph) |= (uint32_t)((uint32_t)ocfast << 8U);
 2456              		.loc 1 1137 9 is_stmt 1 view .LVU606
 2457 002a C369     		ldr	r3, [r0, #28]
 2458              		.loc 1 1137 39 is_stmt 0 view .LVU607
 2459 002c 1202     		lsls	r2, r2, #8
 2460              	.LVL126:
 2461              		.loc 1 1137 36 view .LVU608
 2462 002e 1343     		orrs	r3, r2
 2463 0030 C361     		str	r3, [r0, #28]
1138:Drivers/GD32E23x/Source/gd32e23x_timer.c ****         break;
 2464              		.loc 1 1138 9 is_stmt 1 view .LVU609
1139:Drivers/GD32E23x/Source/gd32e23x_timer.c ****     default:
1140:Drivers/GD32E23x/Source/gd32e23x_timer.c ****         break;
1141:Drivers/GD32E23x/Source/gd32e23x_timer.c ****     }
1142:Drivers/GD32E23x/Source/gd32e23x_timer.c **** }
 2465              		.loc 1 1142 1 is_stmt 0 view .LVU610
 2466 0032 06E0     		b	.L132
 2467              	.LVL127:
 2468              	.L135:
1121:Drivers/GD32E23x/Source/gd32e23x_timer.c ****         TIMER_CHCTL0(timer_periph) |= (uint32_t)ocfast;
 2469              		.loc 1 1121 9 is_stmt 1 view .LVU611
 2470 0034 8369     		ldr	r3, [r0, #24]
ARM GAS  D:\noval\Temp\cck0Iw0b.s 			page 66


1121:Drivers/GD32E23x/Source/gd32e23x_timer.c ****         TIMER_CHCTL0(timer_periph) |= (uint32_t)ocfast;
 2471              		.loc 1 1121 36 is_stmt 0 view .LVU612
 2472 0036 0421     		movs	r1, #4
 2473              	.LVL128:
1121:Drivers/GD32E23x/Source/gd32e23x_timer.c ****         TIMER_CHCTL0(timer_periph) |= (uint32_t)ocfast;
 2474              		.loc 1 1121 36 view .LVU613
 2475 0038 8B43     		bics	r3, r1
 2476 003a 8361     		str	r3, [r0, #24]
1122:Drivers/GD32E23x/Source/gd32e23x_timer.c ****         break;
 2477              		.loc 1 1122 9 is_stmt 1 view .LVU614
 2478 003c 8369     		ldr	r3, [r0, #24]
1122:Drivers/GD32E23x/Source/gd32e23x_timer.c ****         break;
 2479              		.loc 1 1122 36 is_stmt 0 view .LVU615
 2480 003e 1343     		orrs	r3, r2
 2481 0040 8361     		str	r3, [r0, #24]
1123:Drivers/GD32E23x/Source/gd32e23x_timer.c ****     /* configure TIMER_CH_1 */
 2482              		.loc 1 1123 9 is_stmt 1 view .LVU616
 2483              	.LVL129:
 2484              	.L132:
 2485              		.loc 1 1142 1 is_stmt 0 view .LVU617
 2486              		@ sp needed
 2487 0042 7047     		bx	lr
 2488              	.LVL130:
 2489              	.L133:
1131:Drivers/GD32E23x/Source/gd32e23x_timer.c ****         TIMER_CHCTL1(timer_periph) |= (uint32_t)ocfast;
 2490              		.loc 1 1131 9 is_stmt 1 view .LVU618
 2491 0044 C369     		ldr	r3, [r0, #28]
1131:Drivers/GD32E23x/Source/gd32e23x_timer.c ****         TIMER_CHCTL1(timer_periph) |= (uint32_t)ocfast;
 2492              		.loc 1 1131 36 is_stmt 0 view .LVU619
 2493 0046 0421     		movs	r1, #4
 2494              	.LVL131:
1131:Drivers/GD32E23x/Source/gd32e23x_timer.c ****         TIMER_CHCTL1(timer_periph) |= (uint32_t)ocfast;
 2495              		.loc 1 1131 36 view .LVU620
 2496 0048 8B43     		bics	r3, r1
 2497 004a C361     		str	r3, [r0, #28]
1132:Drivers/GD32E23x/Source/gd32e23x_timer.c ****         break;
 2498              		.loc 1 1132 9 is_stmt 1 view .LVU621
 2499 004c C369     		ldr	r3, [r0, #28]
1132:Drivers/GD32E23x/Source/gd32e23x_timer.c ****         break;
 2500              		.loc 1 1132 36 is_stmt 0 view .LVU622
 2501 004e 1343     		orrs	r3, r2
 2502 0050 C361     		str	r3, [r0, #28]
1133:Drivers/GD32E23x/Source/gd32e23x_timer.c ****     /* configure TIMER_CH_3 */
 2503              		.loc 1 1133 9 is_stmt 1 view .LVU623
 2504 0052 F6E7     		b	.L132
 2505              	.L140:
 2506              		.align	2
 2507              	.L139:
 2508 0054 FFFBFFFF 		.word	-1025
 2509              		.cfi_endproc
 2510              	.LFE106:
 2512              		.section	.text.timer_channel_output_clear_config,"ax",%progbits
 2513              		.align	1
 2514              		.global	timer_channel_output_clear_config
 2515              		.syntax unified
 2516              		.code	16
 2517              		.thumb_func
ARM GAS  D:\noval\Temp\cck0Iw0b.s 			page 67


 2519              	timer_channel_output_clear_config:
 2520              	.LVL132:
 2521              	.LFB107:
1143:Drivers/GD32E23x/Source/gd32e23x_timer.c **** 
1144:Drivers/GD32E23x/Source/gd32e23x_timer.c **** /*!
1145:Drivers/GD32E23x/Source/gd32e23x_timer.c ****     \brief      configure TIMER channel output clear function
1146:Drivers/GD32E23x/Source/gd32e23x_timer.c ****     \param[in]  timer_periph: please refer to the following parameters
1147:Drivers/GD32E23x/Source/gd32e23x_timer.c ****     \param[in]  channel: 
1148:Drivers/GD32E23x/Source/gd32e23x_timer.c ****                 only one parameter can be selected which is shown as below:
1149:Drivers/GD32E23x/Source/gd32e23x_timer.c ****       \arg        TIMER_CH_0: TIMER channel0(TIMERx(x=0,2))
1150:Drivers/GD32E23x/Source/gd32e23x_timer.c ****       \arg        TIMER_CH_1: TIMER channel1(TIMERx(x=0,2))
1151:Drivers/GD32E23x/Source/gd32e23x_timer.c ****       \arg        TIMER_CH_2: TIMER channel2(TIMERx(x=0,2))
1152:Drivers/GD32E23x/Source/gd32e23x_timer.c ****       \arg        TIMER_CH_3: TIMER channel3(TIMERx(x=0,2))
1153:Drivers/GD32E23x/Source/gd32e23x_timer.c ****     \param[in]  occlear: channel output clear function
1154:Drivers/GD32E23x/Source/gd32e23x_timer.c ****                 only one parameter can be selected which is shown as below:
1155:Drivers/GD32E23x/Source/gd32e23x_timer.c ****       \arg        TIMER_OC_CLEAR_ENABLE: channel output clear function enable
1156:Drivers/GD32E23x/Source/gd32e23x_timer.c ****       \arg        TIMER_OC_CLEAR_DISABLE: channel output clear function disable
1157:Drivers/GD32E23x/Source/gd32e23x_timer.c ****     \param[out] none
1158:Drivers/GD32E23x/Source/gd32e23x_timer.c ****     \retval     none
1159:Drivers/GD32E23x/Source/gd32e23x_timer.c **** */
1160:Drivers/GD32E23x/Source/gd32e23x_timer.c **** void timer_channel_output_clear_config(uint32_t timer_periph, uint16_t channel, uint16_t occlear)
1161:Drivers/GD32E23x/Source/gd32e23x_timer.c **** {
 2522              		.loc 1 1161 1 view -0
 2523              		.cfi_startproc
 2524              		@ args = 0, pretend = 0, frame = 0
 2525              		@ frame_needed = 0, uses_anonymous_args = 0
 2526              		@ link register save eliminated.
1162:Drivers/GD32E23x/Source/gd32e23x_timer.c ****     switch(channel){
 2527              		.loc 1 1162 5 view .LVU625
 2528 0000 0229     		cmp	r1, #2
 2529 0002 1FD0     		beq	.L142
 2530 0004 0BD8     		bhi	.L143
 2531 0006 A9B1     		cbz	r1, .L144
 2532 0008 0129     		cmp	r1, #1
 2533 000a 1AD1     		bne	.L141
1163:Drivers/GD32E23x/Source/gd32e23x_timer.c ****     /* configure TIMER_CH_0 */
1164:Drivers/GD32E23x/Source/gd32e23x_timer.c ****     case TIMER_CH_0:
1165:Drivers/GD32E23x/Source/gd32e23x_timer.c ****         TIMER_CHCTL0(timer_periph) &= (~(uint32_t)TIMER_CHCTL0_CH0COMCEN);
1166:Drivers/GD32E23x/Source/gd32e23x_timer.c ****         TIMER_CHCTL0(timer_periph) |= (uint32_t)occlear;
1167:Drivers/GD32E23x/Source/gd32e23x_timer.c ****         break;
1168:Drivers/GD32E23x/Source/gd32e23x_timer.c ****     /* configure TIMER_CH_1 */
1169:Drivers/GD32E23x/Source/gd32e23x_timer.c ****     case TIMER_CH_1:
1170:Drivers/GD32E23x/Source/gd32e23x_timer.c ****         TIMER_CHCTL0(timer_periph) &= (~(uint32_t)TIMER_CHCTL0_CH1COMCEN);
 2534              		.loc 1 1170 9 view .LVU626
 2535 000c 8369     		ldr	r3, [r0, #24]
 2536              		.loc 1 1170 36 is_stmt 0 view .LVU627
 2537 000e 1149     		ldr	r1, .L148
 2538              	.LVL133:
 2539              		.loc 1 1170 36 view .LVU628
 2540 0010 0B40     		ands	r3, r1
 2541 0012 8361     		str	r3, [r0, #24]
1171:Drivers/GD32E23x/Source/gd32e23x_timer.c ****         TIMER_CHCTL0(timer_periph) |= (uint32_t)((uint32_t)occlear << 8U);
 2542              		.loc 1 1171 9 is_stmt 1 view .LVU629
 2543 0014 8369     		ldr	r3, [r0, #24]
 2544              		.loc 1 1171 39 is_stmt 0 view .LVU630
 2545 0016 1202     		lsls	r2, r2, #8
 2546              	.LVL134:
ARM GAS  D:\noval\Temp\cck0Iw0b.s 			page 68


 2547              		.loc 1 1171 36 view .LVU631
 2548 0018 1A43     		orrs	r2, r3
 2549 001a 8261     		str	r2, [r0, #24]
1172:Drivers/GD32E23x/Source/gd32e23x_timer.c ****         break;
 2550              		.loc 1 1172 9 is_stmt 1 view .LVU632
 2551 001c 11E0     		b	.L141
 2552              	.LVL135:
 2553              	.L143:
1162:Drivers/GD32E23x/Source/gd32e23x_timer.c ****     /* configure TIMER_CH_0 */
 2554              		.loc 1 1162 5 is_stmt 0 view .LVU633
 2555 001e 0329     		cmp	r1, #3
 2556 0020 0FD1     		bne	.L141
1173:Drivers/GD32E23x/Source/gd32e23x_timer.c ****     /* configure TIMER_CH_2 */
1174:Drivers/GD32E23x/Source/gd32e23x_timer.c ****     case TIMER_CH_2:
1175:Drivers/GD32E23x/Source/gd32e23x_timer.c ****         TIMER_CHCTL1(timer_periph) &= (~(uint32_t)TIMER_CHCTL1_CH2COMCEN);
1176:Drivers/GD32E23x/Source/gd32e23x_timer.c ****         TIMER_CHCTL1(timer_periph) |= (uint32_t)occlear;
1177:Drivers/GD32E23x/Source/gd32e23x_timer.c ****         break;
1178:Drivers/GD32E23x/Source/gd32e23x_timer.c ****     /* configure TIMER_CH_3 */
1179:Drivers/GD32E23x/Source/gd32e23x_timer.c ****     case TIMER_CH_3:
1180:Drivers/GD32E23x/Source/gd32e23x_timer.c ****         TIMER_CHCTL1(timer_periph) &= (~(uint32_t)TIMER_CHCTL1_CH3COMCEN);
 2557              		.loc 1 1180 9 is_stmt 1 view .LVU634
 2558 0022 C369     		ldr	r3, [r0, #28]
 2559              		.loc 1 1180 36 is_stmt 0 view .LVU635
 2560 0024 0B49     		ldr	r1, .L148
 2561              	.LVL136:
 2562              		.loc 1 1180 36 view .LVU636
 2563 0026 0B40     		ands	r3, r1
 2564 0028 C361     		str	r3, [r0, #28]
1181:Drivers/GD32E23x/Source/gd32e23x_timer.c ****         TIMER_CHCTL1(timer_periph) |= (uint32_t)((uint32_t)occlear << 8U);
 2565              		.loc 1 1181 9 is_stmt 1 view .LVU637
 2566 002a C369     		ldr	r3, [r0, #28]
 2567              		.loc 1 1181 39 is_stmt 0 view .LVU638
 2568 002c 1202     		lsls	r2, r2, #8
 2569              	.LVL137:
 2570              		.loc 1 1181 36 view .LVU639
 2571 002e 1343     		orrs	r3, r2
 2572 0030 C361     		str	r3, [r0, #28]
1182:Drivers/GD32E23x/Source/gd32e23x_timer.c ****         break;
 2573              		.loc 1 1182 9 is_stmt 1 view .LVU640
1183:Drivers/GD32E23x/Source/gd32e23x_timer.c ****     default:
1184:Drivers/GD32E23x/Source/gd32e23x_timer.c ****         break;
1185:Drivers/GD32E23x/Source/gd32e23x_timer.c ****     }
1186:Drivers/GD32E23x/Source/gd32e23x_timer.c **** }
 2574              		.loc 1 1186 1 is_stmt 0 view .LVU641
 2575 0032 06E0     		b	.L141
 2576              	.LVL138:
 2577              	.L144:
1165:Drivers/GD32E23x/Source/gd32e23x_timer.c ****         TIMER_CHCTL0(timer_periph) |= (uint32_t)occlear;
 2578              		.loc 1 1165 9 is_stmt 1 view .LVU642
 2579 0034 8369     		ldr	r3, [r0, #24]
1165:Drivers/GD32E23x/Source/gd32e23x_timer.c ****         TIMER_CHCTL0(timer_periph) |= (uint32_t)occlear;
 2580              		.loc 1 1165 36 is_stmt 0 view .LVU643
 2581 0036 8021     		movs	r1, #128
 2582              	.LVL139:
1165:Drivers/GD32E23x/Source/gd32e23x_timer.c ****         TIMER_CHCTL0(timer_periph) |= (uint32_t)occlear;
 2583              		.loc 1 1165 36 view .LVU644
 2584 0038 8B43     		bics	r3, r1
ARM GAS  D:\noval\Temp\cck0Iw0b.s 			page 69


 2585 003a 8361     		str	r3, [r0, #24]
1166:Drivers/GD32E23x/Source/gd32e23x_timer.c ****         break;
 2586              		.loc 1 1166 9 is_stmt 1 view .LVU645
 2587 003c 8369     		ldr	r3, [r0, #24]
1166:Drivers/GD32E23x/Source/gd32e23x_timer.c ****         break;
 2588              		.loc 1 1166 36 is_stmt 0 view .LVU646
 2589 003e 1343     		orrs	r3, r2
 2590 0040 8361     		str	r3, [r0, #24]
1167:Drivers/GD32E23x/Source/gd32e23x_timer.c ****     /* configure TIMER_CH_1 */
 2591              		.loc 1 1167 9 is_stmt 1 view .LVU647
 2592              	.LVL140:
 2593              	.L141:
 2594              		.loc 1 1186 1 is_stmt 0 view .LVU648
 2595              		@ sp needed
 2596 0042 7047     		bx	lr
 2597              	.LVL141:
 2598              	.L142:
1175:Drivers/GD32E23x/Source/gd32e23x_timer.c ****         TIMER_CHCTL1(timer_periph) |= (uint32_t)occlear;
 2599              		.loc 1 1175 9 is_stmt 1 view .LVU649
 2600 0044 C369     		ldr	r3, [r0, #28]
1175:Drivers/GD32E23x/Source/gd32e23x_timer.c ****         TIMER_CHCTL1(timer_periph) |= (uint32_t)occlear;
 2601              		.loc 1 1175 36 is_stmt 0 view .LVU650
 2602 0046 8021     		movs	r1, #128
 2603              	.LVL142:
1175:Drivers/GD32E23x/Source/gd32e23x_timer.c ****         TIMER_CHCTL1(timer_periph) |= (uint32_t)occlear;
 2604              		.loc 1 1175 36 view .LVU651
 2605 0048 8B43     		bics	r3, r1
 2606 004a C361     		str	r3, [r0, #28]
1176:Drivers/GD32E23x/Source/gd32e23x_timer.c ****         break;
 2607              		.loc 1 1176 9 is_stmt 1 view .LVU652
 2608 004c C369     		ldr	r3, [r0, #28]
1176:Drivers/GD32E23x/Source/gd32e23x_timer.c ****         break;
 2609              		.loc 1 1176 36 is_stmt 0 view .LVU653
 2610 004e 1343     		orrs	r3, r2
 2611 0050 C361     		str	r3, [r0, #28]
1177:Drivers/GD32E23x/Source/gd32e23x_timer.c ****     /* configure TIMER_CH_3 */
 2612              		.loc 1 1177 9 is_stmt 1 view .LVU654
 2613 0052 F6E7     		b	.L141
 2614              	.L149:
 2615              		.align	2
 2616              	.L148:
 2617 0054 FF7FFFFF 		.word	-32769
 2618              		.cfi_endproc
 2619              	.LFE107:
 2621              		.section	.text.timer_channel_output_polarity_config,"ax",%progbits
 2622              		.align	1
 2623              		.global	timer_channel_output_polarity_config
 2624              		.syntax unified
 2625              		.code	16
 2626              		.thumb_func
 2628              	timer_channel_output_polarity_config:
 2629              	.LVL143:
 2630              	.LFB108:
1187:Drivers/GD32E23x/Source/gd32e23x_timer.c **** 
1188:Drivers/GD32E23x/Source/gd32e23x_timer.c **** /*!
1189:Drivers/GD32E23x/Source/gd32e23x_timer.c ****     \brief      configure TIMER channel output polarity 
1190:Drivers/GD32E23x/Source/gd32e23x_timer.c ****     \param[in]  timer_periph: please refer to the following parameters
ARM GAS  D:\noval\Temp\cck0Iw0b.s 			page 70


1191:Drivers/GD32E23x/Source/gd32e23x_timer.c ****     \param[in]  channel: 
1192:Drivers/GD32E23x/Source/gd32e23x_timer.c ****                 only one parameter can be selected which is shown as below:
1193:Drivers/GD32E23x/Source/gd32e23x_timer.c ****       \arg        TIMER_CH_0: TIMER channel0(TIMERx(x=0,2,13..16))
1194:Drivers/GD32E23x/Source/gd32e23x_timer.c ****       \arg        TIMER_CH_1: TIMER channel1(TIMERx(x=0,2,14))
1195:Drivers/GD32E23x/Source/gd32e23x_timer.c ****       \arg        TIMER_CH_2: TIMER channel2(TIMERx(x=0,2))
1196:Drivers/GD32E23x/Source/gd32e23x_timer.c ****       \arg        TIMER_CH_3: TIMER channel3(TIMERx(x=0,2))
1197:Drivers/GD32E23x/Source/gd32e23x_timer.c ****     \param[in]  ocpolarity: channel output polarity 
1198:Drivers/GD32E23x/Source/gd32e23x_timer.c ****                 only one parameter can be selected which is shown as below:
1199:Drivers/GD32E23x/Source/gd32e23x_timer.c ****       \arg        TIMER_OC_POLARITY_HIGH: channel output polarity is high
1200:Drivers/GD32E23x/Source/gd32e23x_timer.c ****       \arg        TIMER_OC_POLARITY_LOW: channel output polarity is low
1201:Drivers/GD32E23x/Source/gd32e23x_timer.c ****     \param[out] none
1202:Drivers/GD32E23x/Source/gd32e23x_timer.c ****     \retval     none
1203:Drivers/GD32E23x/Source/gd32e23x_timer.c **** */
1204:Drivers/GD32E23x/Source/gd32e23x_timer.c **** void timer_channel_output_polarity_config(uint32_t timer_periph, uint16_t channel, uint16_t ocpolar
1205:Drivers/GD32E23x/Source/gd32e23x_timer.c **** {
 2631              		.loc 1 1205 1 view -0
 2632              		.cfi_startproc
 2633              		@ args = 0, pretend = 0, frame = 0
 2634              		@ frame_needed = 0, uses_anonymous_args = 0
 2635              		@ link register save eliminated.
1206:Drivers/GD32E23x/Source/gd32e23x_timer.c ****     switch(channel){
 2636              		.loc 1 1206 5 view .LVU656
 2637 0000 0229     		cmp	r1, #2
 2638 0002 1FD0     		beq	.L151
 2639 0004 0BD8     		bhi	.L152
 2640 0006 A9B1     		cbz	r1, .L153
 2641 0008 0129     		cmp	r1, #1
 2642 000a 1AD1     		bne	.L150
1207:Drivers/GD32E23x/Source/gd32e23x_timer.c ****     /* configure TIMER_CH_0 */
1208:Drivers/GD32E23x/Source/gd32e23x_timer.c ****     case TIMER_CH_0:
1209:Drivers/GD32E23x/Source/gd32e23x_timer.c ****         TIMER_CHCTL2(timer_periph) &= (~(uint32_t)TIMER_CHCTL2_CH0P);
1210:Drivers/GD32E23x/Source/gd32e23x_timer.c ****         TIMER_CHCTL2(timer_periph) |= (uint32_t)ocpolarity;
1211:Drivers/GD32E23x/Source/gd32e23x_timer.c ****         break;
1212:Drivers/GD32E23x/Source/gd32e23x_timer.c ****     /* configure TIMER_CH_1 */
1213:Drivers/GD32E23x/Source/gd32e23x_timer.c ****     case TIMER_CH_1:
1214:Drivers/GD32E23x/Source/gd32e23x_timer.c ****         TIMER_CHCTL2(timer_periph) &= (~(uint32_t)TIMER_CHCTL2_CH1P);
 2643              		.loc 1 1214 9 view .LVU657
 2644 000c 036A     		ldr	r3, [r0, #32]
 2645              		.loc 1 1214 36 is_stmt 0 view .LVU658
 2646 000e 2021     		movs	r1, #32
 2647              	.LVL144:
 2648              		.loc 1 1214 36 view .LVU659
 2649 0010 8B43     		bics	r3, r1
 2650 0012 0362     		str	r3, [r0, #32]
1215:Drivers/GD32E23x/Source/gd32e23x_timer.c ****         TIMER_CHCTL2(timer_periph) |= (uint32_t)((uint32_t)ocpolarity << 4U);
 2651              		.loc 1 1215 9 is_stmt 1 view .LVU660
 2652 0014 036A     		ldr	r3, [r0, #32]
 2653              		.loc 1 1215 39 is_stmt 0 view .LVU661
 2654 0016 1201     		lsls	r2, r2, #4
 2655              	.LVL145:
 2656              		.loc 1 1215 36 view .LVU662
 2657 0018 1A43     		orrs	r2, r3
 2658 001a 0262     		str	r2, [r0, #32]
1216:Drivers/GD32E23x/Source/gd32e23x_timer.c ****         break;
 2659              		.loc 1 1216 9 is_stmt 1 view .LVU663
 2660 001c 11E0     		b	.L150
 2661              	.LVL146:
ARM GAS  D:\noval\Temp\cck0Iw0b.s 			page 71


 2662              	.L152:
1206:Drivers/GD32E23x/Source/gd32e23x_timer.c ****     /* configure TIMER_CH_0 */
 2663              		.loc 1 1206 5 is_stmt 0 view .LVU664
 2664 001e 0329     		cmp	r1, #3
 2665 0020 0FD1     		bne	.L150
1217:Drivers/GD32E23x/Source/gd32e23x_timer.c ****     /* configure TIMER_CH_2 */
1218:Drivers/GD32E23x/Source/gd32e23x_timer.c ****     case TIMER_CH_2:
1219:Drivers/GD32E23x/Source/gd32e23x_timer.c ****         TIMER_CHCTL2(timer_periph) &= (~(uint32_t)TIMER_CHCTL2_CH2P);
1220:Drivers/GD32E23x/Source/gd32e23x_timer.c ****         TIMER_CHCTL2(timer_periph) |= (uint32_t)((uint32_t)ocpolarity << 8U);
1221:Drivers/GD32E23x/Source/gd32e23x_timer.c ****         break;
1222:Drivers/GD32E23x/Source/gd32e23x_timer.c ****     /* configure TIMER_CH_3 */
1223:Drivers/GD32E23x/Source/gd32e23x_timer.c ****     case TIMER_CH_3:
1224:Drivers/GD32E23x/Source/gd32e23x_timer.c ****         TIMER_CHCTL2(timer_periph) &= (~(uint32_t)TIMER_CHCTL2_CH3P);
 2666              		.loc 1 1224 9 is_stmt 1 view .LVU665
 2667 0022 036A     		ldr	r3, [r0, #32]
 2668              		.loc 1 1224 36 is_stmt 0 view .LVU666
 2669 0024 0C49     		ldr	r1, .L157
 2670              	.LVL147:
 2671              		.loc 1 1224 36 view .LVU667
 2672 0026 0B40     		ands	r3, r1
 2673 0028 0362     		str	r3, [r0, #32]
1225:Drivers/GD32E23x/Source/gd32e23x_timer.c ****         TIMER_CHCTL2(timer_periph) |= (uint32_t)((uint32_t)ocpolarity << 12U);
 2674              		.loc 1 1225 9 is_stmt 1 view .LVU668
 2675 002a 036A     		ldr	r3, [r0, #32]
 2676              		.loc 1 1225 39 is_stmt 0 view .LVU669
 2677 002c 1203     		lsls	r2, r2, #12
 2678              	.LVL148:
 2679              		.loc 1 1225 36 view .LVU670
 2680 002e 1343     		orrs	r3, r2
 2681 0030 0362     		str	r3, [r0, #32]
1226:Drivers/GD32E23x/Source/gd32e23x_timer.c ****         break;
 2682              		.loc 1 1226 9 is_stmt 1 view .LVU671
1227:Drivers/GD32E23x/Source/gd32e23x_timer.c ****     default:
1228:Drivers/GD32E23x/Source/gd32e23x_timer.c ****         break;
1229:Drivers/GD32E23x/Source/gd32e23x_timer.c ****     }
1230:Drivers/GD32E23x/Source/gd32e23x_timer.c **** }
 2683              		.loc 1 1230 1 is_stmt 0 view .LVU672
 2684 0032 06E0     		b	.L150
 2685              	.LVL149:
 2686              	.L153:
1209:Drivers/GD32E23x/Source/gd32e23x_timer.c ****         TIMER_CHCTL2(timer_periph) |= (uint32_t)ocpolarity;
 2687              		.loc 1 1209 9 is_stmt 1 view .LVU673
 2688 0034 036A     		ldr	r3, [r0, #32]
1209:Drivers/GD32E23x/Source/gd32e23x_timer.c ****         TIMER_CHCTL2(timer_periph) |= (uint32_t)ocpolarity;
 2689              		.loc 1 1209 36 is_stmt 0 view .LVU674
 2690 0036 0221     		movs	r1, #2
 2691              	.LVL150:
1209:Drivers/GD32E23x/Source/gd32e23x_timer.c ****         TIMER_CHCTL2(timer_periph) |= (uint32_t)ocpolarity;
 2692              		.loc 1 1209 36 view .LVU675
 2693 0038 8B43     		bics	r3, r1
 2694 003a 0362     		str	r3, [r0, #32]
1210:Drivers/GD32E23x/Source/gd32e23x_timer.c ****         break;
 2695              		.loc 1 1210 9 is_stmt 1 view .LVU676
 2696 003c 036A     		ldr	r3, [r0, #32]
1210:Drivers/GD32E23x/Source/gd32e23x_timer.c ****         break;
 2697              		.loc 1 1210 36 is_stmt 0 view .LVU677
 2698 003e 1343     		orrs	r3, r2
ARM GAS  D:\noval\Temp\cck0Iw0b.s 			page 72


 2699 0040 0362     		str	r3, [r0, #32]
1211:Drivers/GD32E23x/Source/gd32e23x_timer.c ****     /* configure TIMER_CH_1 */
 2700              		.loc 1 1211 9 is_stmt 1 view .LVU678
 2701              	.LVL151:
 2702              	.L150:
 2703              		.loc 1 1230 1 is_stmt 0 view .LVU679
 2704              		@ sp needed
 2705 0042 7047     		bx	lr
 2706              	.LVL152:
 2707              	.L151:
1219:Drivers/GD32E23x/Source/gd32e23x_timer.c ****         TIMER_CHCTL2(timer_periph) |= (uint32_t)((uint32_t)ocpolarity << 8U);
 2708              		.loc 1 1219 9 is_stmt 1 view .LVU680
 2709 0044 036A     		ldr	r3, [r0, #32]
1219:Drivers/GD32E23x/Source/gd32e23x_timer.c ****         TIMER_CHCTL2(timer_periph) |= (uint32_t)((uint32_t)ocpolarity << 8U);
 2710              		.loc 1 1219 36 is_stmt 0 view .LVU681
 2711 0046 0549     		ldr	r1, .L157+4
 2712              	.LVL153:
1219:Drivers/GD32E23x/Source/gd32e23x_timer.c ****         TIMER_CHCTL2(timer_periph) |= (uint32_t)((uint32_t)ocpolarity << 8U);
 2713              		.loc 1 1219 36 view .LVU682
 2714 0048 0B40     		ands	r3, r1
 2715 004a 0362     		str	r3, [r0, #32]
1220:Drivers/GD32E23x/Source/gd32e23x_timer.c ****         break;
 2716              		.loc 1 1220 9 is_stmt 1 view .LVU683
 2717 004c 036A     		ldr	r3, [r0, #32]
1220:Drivers/GD32E23x/Source/gd32e23x_timer.c ****         break;
 2718              		.loc 1 1220 39 is_stmt 0 view .LVU684
 2719 004e 1202     		lsls	r2, r2, #8
 2720              	.LVL154:
1220:Drivers/GD32E23x/Source/gd32e23x_timer.c ****         break;
 2721              		.loc 1 1220 36 view .LVU685
 2722 0050 1A43     		orrs	r2, r3
 2723 0052 0262     		str	r2, [r0, #32]
1221:Drivers/GD32E23x/Source/gd32e23x_timer.c ****     /* configure TIMER_CH_3 */
 2724              		.loc 1 1221 9 is_stmt 1 view .LVU686
 2725 0054 F5E7     		b	.L150
 2726              	.L158:
 2727 0056 C046     		.align	2
 2728              	.L157:
 2729 0058 FFDFFFFF 		.word	-8193
 2730 005c FFFDFFFF 		.word	-513
 2731              		.cfi_endproc
 2732              	.LFE108:
 2734              		.section	.text.timer_channel_complementary_output_polarity_config,"ax",%progbits
 2735              		.align	1
 2736              		.global	timer_channel_complementary_output_polarity_config
 2737              		.syntax unified
 2738              		.code	16
 2739              		.thumb_func
 2741              	timer_channel_complementary_output_polarity_config:
 2742              	.LVL155:
 2743              	.LFB109:
1231:Drivers/GD32E23x/Source/gd32e23x_timer.c **** 
1232:Drivers/GD32E23x/Source/gd32e23x_timer.c **** /*!
1233:Drivers/GD32E23x/Source/gd32e23x_timer.c ****     \brief      configure TIMER channel complementary output polarity 
1234:Drivers/GD32E23x/Source/gd32e23x_timer.c ****     \param[in]  timer_periph: TIMERx(x=0,2,14)
1235:Drivers/GD32E23x/Source/gd32e23x_timer.c ****     \param[in]  channel:
1236:Drivers/GD32E23x/Source/gd32e23x_timer.c ****                 only one parameter can be selected which is shown as below:
ARM GAS  D:\noval\Temp\cck0Iw0b.s 			page 73


1237:Drivers/GD32E23x/Source/gd32e23x_timer.c ****       \arg        TIMER_CH_0: TIMER channel0(TIMERx(x=0,2,13..16))
1238:Drivers/GD32E23x/Source/gd32e23x_timer.c ****       \arg        TIMER_CH_1: TIMER channel1(TIMERx(x=0,2,14))
1239:Drivers/GD32E23x/Source/gd32e23x_timer.c ****       \arg        TIMER_CH_2: TIMER channel2(TIMERx(x=0,2))
1240:Drivers/GD32E23x/Source/gd32e23x_timer.c ****       \arg        TIMER_CH_3: TIMER channel2(TIMERx(x=0,2))
1241:Drivers/GD32E23x/Source/gd32e23x_timer.c ****     \param[in]  ocnpolarity: channel complementary output polarity 
1242:Drivers/GD32E23x/Source/gd32e23x_timer.c ****                 only one parameter can be selected which is shown as below:
1243:Drivers/GD32E23x/Source/gd32e23x_timer.c ****       \arg        TIMER_OCN_POLARITY_HIGH: channel complementary output polarity is high
1244:Drivers/GD32E23x/Source/gd32e23x_timer.c ****       \arg        TIMER_OCN_POLARITY_LOW: channel complementary output polarity is low
1245:Drivers/GD32E23x/Source/gd32e23x_timer.c ****     \param[out] none
1246:Drivers/GD32E23x/Source/gd32e23x_timer.c ****     \retval     none
1247:Drivers/GD32E23x/Source/gd32e23x_timer.c **** */
1248:Drivers/GD32E23x/Source/gd32e23x_timer.c **** void timer_channel_complementary_output_polarity_config(uint32_t timer_periph, uint16_t channel, ui
1249:Drivers/GD32E23x/Source/gd32e23x_timer.c **** {
 2744              		.loc 1 1249 1 view -0
 2745              		.cfi_startproc
 2746              		@ args = 0, pretend = 0, frame = 0
 2747              		@ frame_needed = 0, uses_anonymous_args = 0
 2748              		@ link register save eliminated.
1250:Drivers/GD32E23x/Source/gd32e23x_timer.c ****     switch(channel){
 2749              		.loc 1 1250 5 view .LVU688
 2750 0000 0229     		cmp	r1, #2
 2751 0002 1FD0     		beq	.L160
 2752 0004 0BD8     		bhi	.L161
 2753 0006 A9B1     		cbz	r1, .L162
 2754 0008 0129     		cmp	r1, #1
 2755 000a 1AD1     		bne	.L159
1251:Drivers/GD32E23x/Source/gd32e23x_timer.c ****     /* configure TIMER_CH_0 */
1252:Drivers/GD32E23x/Source/gd32e23x_timer.c ****     case TIMER_CH_0:
1253:Drivers/GD32E23x/Source/gd32e23x_timer.c ****         TIMER_CHCTL2(timer_periph) &= (~(uint32_t)TIMER_CHCTL2_CH0NP);
1254:Drivers/GD32E23x/Source/gd32e23x_timer.c ****         TIMER_CHCTL2(timer_periph) |= (uint32_t)ocnpolarity;
1255:Drivers/GD32E23x/Source/gd32e23x_timer.c ****         break;
1256:Drivers/GD32E23x/Source/gd32e23x_timer.c ****     /* configure TIMER_CH_1 */
1257:Drivers/GD32E23x/Source/gd32e23x_timer.c ****     case TIMER_CH_1:
1258:Drivers/GD32E23x/Source/gd32e23x_timer.c ****         TIMER_CHCTL2(timer_periph) &= (~(uint32_t)TIMER_CHCTL2_CH1NP);
 2756              		.loc 1 1258 9 view .LVU689
 2757 000c 036A     		ldr	r3, [r0, #32]
 2758              		.loc 1 1258 36 is_stmt 0 view .LVU690
 2759 000e 8021     		movs	r1, #128
 2760              	.LVL156:
 2761              		.loc 1 1258 36 view .LVU691
 2762 0010 8B43     		bics	r3, r1
 2763 0012 0362     		str	r3, [r0, #32]
1259:Drivers/GD32E23x/Source/gd32e23x_timer.c ****         TIMER_CHCTL2(timer_periph) |= (uint32_t)((uint32_t)ocnpolarity << 4U);
 2764              		.loc 1 1259 9 is_stmt 1 view .LVU692
 2765 0014 036A     		ldr	r3, [r0, #32]
 2766              		.loc 1 1259 39 is_stmt 0 view .LVU693
 2767 0016 1201     		lsls	r2, r2, #4
 2768              	.LVL157:
 2769              		.loc 1 1259 36 view .LVU694
 2770 0018 1A43     		orrs	r2, r3
 2771 001a 0262     		str	r2, [r0, #32]
1260:Drivers/GD32E23x/Source/gd32e23x_timer.c ****         break;
 2772              		.loc 1 1260 9 is_stmt 1 view .LVU695
 2773 001c 11E0     		b	.L159
 2774              	.LVL158:
 2775              	.L161:
1250:Drivers/GD32E23x/Source/gd32e23x_timer.c ****     /* configure TIMER_CH_0 */
ARM GAS  D:\noval\Temp\cck0Iw0b.s 			page 74


 2776              		.loc 1 1250 5 is_stmt 0 view .LVU696
 2777 001e 0329     		cmp	r1, #3
 2778 0020 0FD1     		bne	.L159
1261:Drivers/GD32E23x/Source/gd32e23x_timer.c ****     /* configure TIMER_CH_2 */
1262:Drivers/GD32E23x/Source/gd32e23x_timer.c ****     case TIMER_CH_2:
1263:Drivers/GD32E23x/Source/gd32e23x_timer.c ****         TIMER_CHCTL2(timer_periph) &= (~(uint32_t)TIMER_CHCTL2_CH2NP);
1264:Drivers/GD32E23x/Source/gd32e23x_timer.c ****         TIMER_CHCTL2(timer_periph) |= (uint32_t)((uint32_t)ocnpolarity << 8U);
1265:Drivers/GD32E23x/Source/gd32e23x_timer.c ****         break;
1266:Drivers/GD32E23x/Source/gd32e23x_timer.c ****     /* configure TIMER_CH_3 */
1267:Drivers/GD32E23x/Source/gd32e23x_timer.c ****     case TIMER_CH_3:
1268:Drivers/GD32E23x/Source/gd32e23x_timer.c ****         TIMER_CHCTL2(timer_periph) &= (~(uint32_t)TIMER_CHCTL2_CH3NP);
 2779              		.loc 1 1268 9 is_stmt 1 view .LVU697
 2780 0022 036A     		ldr	r3, [r0, #32]
 2781              		.loc 1 1268 36 is_stmt 0 view .LVU698
 2782 0024 0C49     		ldr	r1, .L166
 2783              	.LVL159:
 2784              		.loc 1 1268 36 view .LVU699
 2785 0026 0B40     		ands	r3, r1
 2786 0028 0362     		str	r3, [r0, #32]
1269:Drivers/GD32E23x/Source/gd32e23x_timer.c ****         TIMER_CHCTL2(timer_periph) |= (uint32_t)((uint32_t)ocnpolarity << 12U);
 2787              		.loc 1 1269 9 is_stmt 1 view .LVU700
 2788 002a 036A     		ldr	r3, [r0, #32]
 2789              		.loc 1 1269 39 is_stmt 0 view .LVU701
 2790 002c 1203     		lsls	r2, r2, #12
 2791              	.LVL160:
 2792              		.loc 1 1269 36 view .LVU702
 2793 002e 1343     		orrs	r3, r2
 2794 0030 0362     		str	r3, [r0, #32]
1270:Drivers/GD32E23x/Source/gd32e23x_timer.c ****         break;
 2795              		.loc 1 1270 9 is_stmt 1 view .LVU703
1271:Drivers/GD32E23x/Source/gd32e23x_timer.c ****     default:
1272:Drivers/GD32E23x/Source/gd32e23x_timer.c ****         break;
1273:Drivers/GD32E23x/Source/gd32e23x_timer.c ****     }
1274:Drivers/GD32E23x/Source/gd32e23x_timer.c **** }
 2796              		.loc 1 1274 1 is_stmt 0 view .LVU704
 2797 0032 06E0     		b	.L159
 2798              	.LVL161:
 2799              	.L162:
1253:Drivers/GD32E23x/Source/gd32e23x_timer.c ****         TIMER_CHCTL2(timer_periph) |= (uint32_t)ocnpolarity;
 2800              		.loc 1 1253 9 is_stmt 1 view .LVU705
 2801 0034 036A     		ldr	r3, [r0, #32]
1253:Drivers/GD32E23x/Source/gd32e23x_timer.c ****         TIMER_CHCTL2(timer_periph) |= (uint32_t)ocnpolarity;
 2802              		.loc 1 1253 36 is_stmt 0 view .LVU706
 2803 0036 0821     		movs	r1, #8
 2804              	.LVL162:
1253:Drivers/GD32E23x/Source/gd32e23x_timer.c ****         TIMER_CHCTL2(timer_periph) |= (uint32_t)ocnpolarity;
 2805              		.loc 1 1253 36 view .LVU707
 2806 0038 8B43     		bics	r3, r1
 2807 003a 0362     		str	r3, [r0, #32]
1254:Drivers/GD32E23x/Source/gd32e23x_timer.c ****         break;
 2808              		.loc 1 1254 9 is_stmt 1 view .LVU708
 2809 003c 036A     		ldr	r3, [r0, #32]
1254:Drivers/GD32E23x/Source/gd32e23x_timer.c ****         break;
 2810              		.loc 1 1254 36 is_stmt 0 view .LVU709
 2811 003e 1343     		orrs	r3, r2
 2812 0040 0362     		str	r3, [r0, #32]
1255:Drivers/GD32E23x/Source/gd32e23x_timer.c ****     /* configure TIMER_CH_1 */
ARM GAS  D:\noval\Temp\cck0Iw0b.s 			page 75


 2813              		.loc 1 1255 9 is_stmt 1 view .LVU710
 2814              	.LVL163:
 2815              	.L159:
 2816              		.loc 1 1274 1 is_stmt 0 view .LVU711
 2817              		@ sp needed
 2818 0042 7047     		bx	lr
 2819              	.LVL164:
 2820              	.L160:
1263:Drivers/GD32E23x/Source/gd32e23x_timer.c ****         TIMER_CHCTL2(timer_periph) |= (uint32_t)((uint32_t)ocnpolarity << 8U);
 2821              		.loc 1 1263 9 is_stmt 1 view .LVU712
 2822 0044 036A     		ldr	r3, [r0, #32]
1263:Drivers/GD32E23x/Source/gd32e23x_timer.c ****         TIMER_CHCTL2(timer_periph) |= (uint32_t)((uint32_t)ocnpolarity << 8U);
 2823              		.loc 1 1263 36 is_stmt 0 view .LVU713
 2824 0046 0549     		ldr	r1, .L166+4
 2825              	.LVL165:
1263:Drivers/GD32E23x/Source/gd32e23x_timer.c ****         TIMER_CHCTL2(timer_periph) |= (uint32_t)((uint32_t)ocnpolarity << 8U);
 2826              		.loc 1 1263 36 view .LVU714
 2827 0048 0B40     		ands	r3, r1
 2828 004a 0362     		str	r3, [r0, #32]
1264:Drivers/GD32E23x/Source/gd32e23x_timer.c ****         break;
 2829              		.loc 1 1264 9 is_stmt 1 view .LVU715
 2830 004c 036A     		ldr	r3, [r0, #32]
1264:Drivers/GD32E23x/Source/gd32e23x_timer.c ****         break;
 2831              		.loc 1 1264 39 is_stmt 0 view .LVU716
 2832 004e 1202     		lsls	r2, r2, #8
 2833              	.LVL166:
1264:Drivers/GD32E23x/Source/gd32e23x_timer.c ****         break;
 2834              		.loc 1 1264 36 view .LVU717
 2835 0050 1A43     		orrs	r2, r3
 2836 0052 0262     		str	r2, [r0, #32]
1265:Drivers/GD32E23x/Source/gd32e23x_timer.c ****     /* configure TIMER_CH_3 */
 2837              		.loc 1 1265 9 is_stmt 1 view .LVU718
 2838 0054 F5E7     		b	.L159
 2839              	.L167:
 2840 0056 C046     		.align	2
 2841              	.L166:
 2842 0058 FF7FFFFF 		.word	-32769
 2843 005c FFF7FFFF 		.word	-2049
 2844              		.cfi_endproc
 2845              	.LFE109:
 2847              		.section	.text.timer_channel_output_state_config,"ax",%progbits
 2848              		.align	1
 2849              		.global	timer_channel_output_state_config
 2850              		.syntax unified
 2851              		.code	16
 2852              		.thumb_func
 2854              	timer_channel_output_state_config:
 2855              	.LVL167:
 2856              	.LFB110:
1275:Drivers/GD32E23x/Source/gd32e23x_timer.c **** 
1276:Drivers/GD32E23x/Source/gd32e23x_timer.c **** /*!
1277:Drivers/GD32E23x/Source/gd32e23x_timer.c ****     \brief      configure TIMER channel enable state
1278:Drivers/GD32E23x/Source/gd32e23x_timer.c ****     \param[in]  timer_periph: please refer to the following parameters
1279:Drivers/GD32E23x/Source/gd32e23x_timer.c ****     \param[in]  channel: 
1280:Drivers/GD32E23x/Source/gd32e23x_timer.c ****                 only one parameter can be selected which is shown as below:
1281:Drivers/GD32E23x/Source/gd32e23x_timer.c ****       \arg        TIMER_CH_0: TIMER channel0(TIMERx(x=0,2,13..16))
1282:Drivers/GD32E23x/Source/gd32e23x_timer.c ****       \arg        TIMER_CH_1: TIMER channel1(TIMERx(x=0,2,14))
ARM GAS  D:\noval\Temp\cck0Iw0b.s 			page 76


1283:Drivers/GD32E23x/Source/gd32e23x_timer.c ****       \arg        TIMER_CH_2: TIMER channel2(TIMERx(x=0,2))
1284:Drivers/GD32E23x/Source/gd32e23x_timer.c ****       \arg        TIMER_CH_3: TIMER channel3(TIMERx(x=0,2))
1285:Drivers/GD32E23x/Source/gd32e23x_timer.c ****     \param[in]  state: TIMER channel enable state
1286:Drivers/GD32E23x/Source/gd32e23x_timer.c ****                 only one parameter can be selected which is shown as below:
1287:Drivers/GD32E23x/Source/gd32e23x_timer.c ****       \arg        TIMER_CCX_ENABLE: channel enable 
1288:Drivers/GD32E23x/Source/gd32e23x_timer.c ****       \arg        TIMER_CCX_DISABLE: channel disable 
1289:Drivers/GD32E23x/Source/gd32e23x_timer.c ****     \param[out] none
1290:Drivers/GD32E23x/Source/gd32e23x_timer.c ****     \retval     none
1291:Drivers/GD32E23x/Source/gd32e23x_timer.c **** */
1292:Drivers/GD32E23x/Source/gd32e23x_timer.c **** void timer_channel_output_state_config(uint32_t timer_periph, uint16_t channel, uint32_t state)
1293:Drivers/GD32E23x/Source/gd32e23x_timer.c **** {
 2857              		.loc 1 1293 1 view -0
 2858              		.cfi_startproc
 2859              		@ args = 0, pretend = 0, frame = 0
 2860              		@ frame_needed = 0, uses_anonymous_args = 0
 2861              		@ link register save eliminated.
1294:Drivers/GD32E23x/Source/gd32e23x_timer.c ****     switch(channel){
 2862              		.loc 1 1294 5 view .LVU720
 2863 0000 0229     		cmp	r1, #2
 2864 0002 1FD0     		beq	.L169
 2865 0004 0BD8     		bhi	.L170
 2866 0006 A9B1     		cbz	r1, .L171
 2867 0008 0129     		cmp	r1, #1
 2868 000a 1AD1     		bne	.L168
1295:Drivers/GD32E23x/Source/gd32e23x_timer.c ****     /* configure TIMER_CH_0 */
1296:Drivers/GD32E23x/Source/gd32e23x_timer.c ****     case TIMER_CH_0:
1297:Drivers/GD32E23x/Source/gd32e23x_timer.c ****         TIMER_CHCTL2(timer_periph) &= (~(uint32_t)TIMER_CHCTL2_CH0EN);
1298:Drivers/GD32E23x/Source/gd32e23x_timer.c ****         TIMER_CHCTL2(timer_periph) |= (uint32_t)state;
1299:Drivers/GD32E23x/Source/gd32e23x_timer.c ****         break;
1300:Drivers/GD32E23x/Source/gd32e23x_timer.c ****     /* configure TIMER_CH_1 */
1301:Drivers/GD32E23x/Source/gd32e23x_timer.c ****     case TIMER_CH_1:
1302:Drivers/GD32E23x/Source/gd32e23x_timer.c ****         TIMER_CHCTL2(timer_periph) &= (~(uint32_t)TIMER_CHCTL2_CH1EN);
 2869              		.loc 1 1302 9 view .LVU721
 2870 000c 036A     		ldr	r3, [r0, #32]
 2871              		.loc 1 1302 36 is_stmt 0 view .LVU722
 2872 000e 1021     		movs	r1, #16
 2873              	.LVL168:
 2874              		.loc 1 1302 36 view .LVU723
 2875 0010 8B43     		bics	r3, r1
 2876 0012 0362     		str	r3, [r0, #32]
1303:Drivers/GD32E23x/Source/gd32e23x_timer.c ****         TIMER_CHCTL2(timer_periph) |= (uint32_t)((uint32_t)state << 4U);
 2877              		.loc 1 1303 9 is_stmt 1 view .LVU724
 2878 0014 036A     		ldr	r3, [r0, #32]
 2879              		.loc 1 1303 39 is_stmt 0 view .LVU725
 2880 0016 1201     		lsls	r2, r2, #4
 2881              	.LVL169:
 2882              		.loc 1 1303 36 view .LVU726
 2883 0018 1A43     		orrs	r2, r3
 2884 001a 0262     		str	r2, [r0, #32]
1304:Drivers/GD32E23x/Source/gd32e23x_timer.c ****         break;
 2885              		.loc 1 1304 9 is_stmt 1 view .LVU727
 2886 001c 11E0     		b	.L168
 2887              	.LVL170:
 2888              	.L170:
1294:Drivers/GD32E23x/Source/gd32e23x_timer.c ****     /* configure TIMER_CH_0 */
 2889              		.loc 1 1294 5 is_stmt 0 view .LVU728
 2890 001e 0329     		cmp	r1, #3
ARM GAS  D:\noval\Temp\cck0Iw0b.s 			page 77


 2891 0020 0FD1     		bne	.L168
1305:Drivers/GD32E23x/Source/gd32e23x_timer.c ****     /* configure TIMER_CH_2 */
1306:Drivers/GD32E23x/Source/gd32e23x_timer.c ****     case TIMER_CH_2:
1307:Drivers/GD32E23x/Source/gd32e23x_timer.c ****         TIMER_CHCTL2(timer_periph) &= (~(uint32_t)TIMER_CHCTL2_CH2EN);
1308:Drivers/GD32E23x/Source/gd32e23x_timer.c ****         TIMER_CHCTL2(timer_periph) |= (uint32_t)((uint32_t)state << 8U);
1309:Drivers/GD32E23x/Source/gd32e23x_timer.c ****         break;
1310:Drivers/GD32E23x/Source/gd32e23x_timer.c ****     /* configure TIMER_CH_3 */
1311:Drivers/GD32E23x/Source/gd32e23x_timer.c ****     case TIMER_CH_3:
1312:Drivers/GD32E23x/Source/gd32e23x_timer.c ****         TIMER_CHCTL2(timer_periph) &= (~(uint32_t)TIMER_CHCTL2_CH3EN);
 2892              		.loc 1 1312 9 is_stmt 1 view .LVU729
 2893 0022 036A     		ldr	r3, [r0, #32]
 2894              		.loc 1 1312 36 is_stmt 0 view .LVU730
 2895 0024 0C49     		ldr	r1, .L175
 2896              	.LVL171:
 2897              		.loc 1 1312 36 view .LVU731
 2898 0026 0B40     		ands	r3, r1
 2899 0028 0362     		str	r3, [r0, #32]
1313:Drivers/GD32E23x/Source/gd32e23x_timer.c ****         TIMER_CHCTL2(timer_periph) |= (uint32_t)((uint32_t)state << 12U);
 2900              		.loc 1 1313 9 is_stmt 1 view .LVU732
 2901 002a 036A     		ldr	r3, [r0, #32]
 2902              		.loc 1 1313 39 is_stmt 0 view .LVU733
 2903 002c 1203     		lsls	r2, r2, #12
 2904              	.LVL172:
 2905              		.loc 1 1313 36 view .LVU734
 2906 002e 1343     		orrs	r3, r2
 2907 0030 0362     		str	r3, [r0, #32]
1314:Drivers/GD32E23x/Source/gd32e23x_timer.c ****         break;
 2908              		.loc 1 1314 9 is_stmt 1 view .LVU735
1315:Drivers/GD32E23x/Source/gd32e23x_timer.c ****     default:
1316:Drivers/GD32E23x/Source/gd32e23x_timer.c ****         break;
1317:Drivers/GD32E23x/Source/gd32e23x_timer.c ****     }
1318:Drivers/GD32E23x/Source/gd32e23x_timer.c **** }
 2909              		.loc 1 1318 1 is_stmt 0 view .LVU736
 2910 0032 06E0     		b	.L168
 2911              	.LVL173:
 2912              	.L171:
1297:Drivers/GD32E23x/Source/gd32e23x_timer.c ****         TIMER_CHCTL2(timer_periph) |= (uint32_t)state;
 2913              		.loc 1 1297 9 is_stmt 1 view .LVU737
 2914 0034 036A     		ldr	r3, [r0, #32]
1297:Drivers/GD32E23x/Source/gd32e23x_timer.c ****         TIMER_CHCTL2(timer_periph) |= (uint32_t)state;
 2915              		.loc 1 1297 36 is_stmt 0 view .LVU738
 2916 0036 0121     		movs	r1, #1
 2917              	.LVL174:
1297:Drivers/GD32E23x/Source/gd32e23x_timer.c ****         TIMER_CHCTL2(timer_periph) |= (uint32_t)state;
 2918              		.loc 1 1297 36 view .LVU739
 2919 0038 8B43     		bics	r3, r1
 2920 003a 0362     		str	r3, [r0, #32]
1298:Drivers/GD32E23x/Source/gd32e23x_timer.c ****         break;
 2921              		.loc 1 1298 9 is_stmt 1 view .LVU740
 2922 003c 036A     		ldr	r3, [r0, #32]
1298:Drivers/GD32E23x/Source/gd32e23x_timer.c ****         break;
 2923              		.loc 1 1298 36 is_stmt 0 view .LVU741
 2924 003e 1343     		orrs	r3, r2
 2925 0040 0362     		str	r3, [r0, #32]
1299:Drivers/GD32E23x/Source/gd32e23x_timer.c ****     /* configure TIMER_CH_1 */
 2926              		.loc 1 1299 9 is_stmt 1 view .LVU742
 2927              	.LVL175:
ARM GAS  D:\noval\Temp\cck0Iw0b.s 			page 78


 2928              	.L168:
 2929              		.loc 1 1318 1 is_stmt 0 view .LVU743
 2930              		@ sp needed
 2931 0042 7047     		bx	lr
 2932              	.LVL176:
 2933              	.L169:
1307:Drivers/GD32E23x/Source/gd32e23x_timer.c ****         TIMER_CHCTL2(timer_periph) |= (uint32_t)((uint32_t)state << 8U);
 2934              		.loc 1 1307 9 is_stmt 1 view .LVU744
 2935 0044 036A     		ldr	r3, [r0, #32]
1307:Drivers/GD32E23x/Source/gd32e23x_timer.c ****         TIMER_CHCTL2(timer_periph) |= (uint32_t)((uint32_t)state << 8U);
 2936              		.loc 1 1307 36 is_stmt 0 view .LVU745
 2937 0046 0549     		ldr	r1, .L175+4
 2938              	.LVL177:
1307:Drivers/GD32E23x/Source/gd32e23x_timer.c ****         TIMER_CHCTL2(timer_periph) |= (uint32_t)((uint32_t)state << 8U);
 2939              		.loc 1 1307 36 view .LVU746
 2940 0048 0B40     		ands	r3, r1
 2941 004a 0362     		str	r3, [r0, #32]
1308:Drivers/GD32E23x/Source/gd32e23x_timer.c ****         break;
 2942              		.loc 1 1308 9 is_stmt 1 view .LVU747
 2943 004c 036A     		ldr	r3, [r0, #32]
1308:Drivers/GD32E23x/Source/gd32e23x_timer.c ****         break;
 2944              		.loc 1 1308 39 is_stmt 0 view .LVU748
 2945 004e 1202     		lsls	r2, r2, #8
 2946              	.LVL178:
1308:Drivers/GD32E23x/Source/gd32e23x_timer.c ****         break;
 2947              		.loc 1 1308 36 view .LVU749
 2948 0050 1A43     		orrs	r2, r3
 2949 0052 0262     		str	r2, [r0, #32]
1309:Drivers/GD32E23x/Source/gd32e23x_timer.c ****     /* configure TIMER_CH_3 */
 2950              		.loc 1 1309 9 is_stmt 1 view .LVU750
 2951 0054 F5E7     		b	.L168
 2952              	.L176:
 2953 0056 C046     		.align	2
 2954              	.L175:
 2955 0058 FFEFFFFF 		.word	-4097
 2956 005c FFFEFFFF 		.word	-257
 2957              		.cfi_endproc
 2958              	.LFE110:
 2960              		.section	.text.timer_channel_complementary_output_state_config,"ax",%progbits
 2961              		.align	1
 2962              		.global	timer_channel_complementary_output_state_config
 2963              		.syntax unified
 2964              		.code	16
 2965              		.thumb_func
 2967              	timer_channel_complementary_output_state_config:
 2968              	.LVL179:
 2969              	.LFB111:
1319:Drivers/GD32E23x/Source/gd32e23x_timer.c **** 
1320:Drivers/GD32E23x/Source/gd32e23x_timer.c **** /*!
1321:Drivers/GD32E23x/Source/gd32e23x_timer.c ****     \brief      configure TIMER channel complementary output enable state
1322:Drivers/GD32E23x/Source/gd32e23x_timer.c ****     \param[in]  timer_periph: TIMERx(x=0,14..16)
1323:Drivers/GD32E23x/Source/gd32e23x_timer.c ****     \param[in]  channel: 
1324:Drivers/GD32E23x/Source/gd32e23x_timer.c ****                 only one parameter can be selected which is shown as below:
1325:Drivers/GD32E23x/Source/gd32e23x_timer.c ****       \arg        TIMER_CH_0: TIMER channel0(TIMERx(x=0,14..16))
1326:Drivers/GD32E23x/Source/gd32e23x_timer.c ****       \arg        TIMER_CH_1: TIMER channel1(TIMERx(x=0))
1327:Drivers/GD32E23x/Source/gd32e23x_timer.c ****       \arg        TIMER_CH_2: TIMER channel2(TIMERx(x=0))
1328:Drivers/GD32E23x/Source/gd32e23x_timer.c ****     \param[in]  ocnstate: TIMER channel complementary output enable state
ARM GAS  D:\noval\Temp\cck0Iw0b.s 			page 79


1329:Drivers/GD32E23x/Source/gd32e23x_timer.c ****                 only one parameter can be selected which is shown as below:
1330:Drivers/GD32E23x/Source/gd32e23x_timer.c ****       \arg        TIMER_CCXN_ENABLE: channel complementary enable 
1331:Drivers/GD32E23x/Source/gd32e23x_timer.c ****       \arg        TIMER_CCXN_DISABLE: channel complementary disable 
1332:Drivers/GD32E23x/Source/gd32e23x_timer.c ****     \param[out] none
1333:Drivers/GD32E23x/Source/gd32e23x_timer.c ****     \retval     none
1334:Drivers/GD32E23x/Source/gd32e23x_timer.c **** */
1335:Drivers/GD32E23x/Source/gd32e23x_timer.c **** void timer_channel_complementary_output_state_config(uint32_t timer_periph, uint16_t channel, uint1
1336:Drivers/GD32E23x/Source/gd32e23x_timer.c **** {
 2970              		.loc 1 1336 1 view -0
 2971              		.cfi_startproc
 2972              		@ args = 0, pretend = 0, frame = 0
 2973              		@ frame_needed = 0, uses_anonymous_args = 0
 2974              		@ link register save eliminated.
1337:Drivers/GD32E23x/Source/gd32e23x_timer.c ****     switch(channel){
 2975              		.loc 1 1337 5 view .LVU752
 2976 0000 0129     		cmp	r1, #1
 2977 0002 0AD0     		beq	.L178
 2978 0004 0229     		cmp	r1, #2
 2979 0006 11D0     		beq	.L179
 2980 0008 31B9     		cbnz	r1, .L177
1338:Drivers/GD32E23x/Source/gd32e23x_timer.c ****     /* configure TIMER_CH_0 */
1339:Drivers/GD32E23x/Source/gd32e23x_timer.c ****     case TIMER_CH_0:
1340:Drivers/GD32E23x/Source/gd32e23x_timer.c ****         TIMER_CHCTL2(timer_periph) &= (~(uint32_t)TIMER_CHCTL2_CH0NEN);
 2981              		.loc 1 1340 9 view .LVU753
 2982 000a 036A     		ldr	r3, [r0, #32]
 2983              		.loc 1 1340 36 is_stmt 0 view .LVU754
 2984 000c 0431     		adds	r1, r1, #4
 2985              	.LVL180:
 2986              		.loc 1 1340 36 view .LVU755
 2987 000e 8B43     		bics	r3, r1
 2988 0010 0362     		str	r3, [r0, #32]
1341:Drivers/GD32E23x/Source/gd32e23x_timer.c ****         TIMER_CHCTL2(timer_periph) |= (uint32_t)ocnstate;
 2989              		.loc 1 1341 9 is_stmt 1 view .LVU756
 2990 0012 036A     		ldr	r3, [r0, #32]
 2991              		.loc 1 1341 36 is_stmt 0 view .LVU757
 2992 0014 1343     		orrs	r3, r2
 2993 0016 0362     		str	r3, [r0, #32]
1342:Drivers/GD32E23x/Source/gd32e23x_timer.c ****         break;
 2994              		.loc 1 1342 9 is_stmt 1 view .LVU758
 2995              	.LVL181:
 2996              	.L177:
1343:Drivers/GD32E23x/Source/gd32e23x_timer.c ****     /* configure TIMER_CH_1 */
1344:Drivers/GD32E23x/Source/gd32e23x_timer.c ****     case TIMER_CH_1:
1345:Drivers/GD32E23x/Source/gd32e23x_timer.c ****         TIMER_CHCTL2(timer_periph) &= (~(uint32_t)TIMER_CHCTL2_CH1NEN);
1346:Drivers/GD32E23x/Source/gd32e23x_timer.c ****         TIMER_CHCTL2(timer_periph) |= (uint32_t)((uint32_t)ocnstate << 4U);
1347:Drivers/GD32E23x/Source/gd32e23x_timer.c ****         break;
1348:Drivers/GD32E23x/Source/gd32e23x_timer.c ****     /* configure TIMER_CH_2 */
1349:Drivers/GD32E23x/Source/gd32e23x_timer.c ****     case TIMER_CH_2:
1350:Drivers/GD32E23x/Source/gd32e23x_timer.c ****         TIMER_CHCTL2(timer_periph) &= (~(uint32_t)TIMER_CHCTL2_CH2NEN);
1351:Drivers/GD32E23x/Source/gd32e23x_timer.c ****         TIMER_CHCTL2(timer_periph) |= (uint32_t)((uint32_t)ocnstate << 8U);
1352:Drivers/GD32E23x/Source/gd32e23x_timer.c ****         break;
1353:Drivers/GD32E23x/Source/gd32e23x_timer.c ****     default:
1354:Drivers/GD32E23x/Source/gd32e23x_timer.c ****         break;
1355:Drivers/GD32E23x/Source/gd32e23x_timer.c ****     }
1356:Drivers/GD32E23x/Source/gd32e23x_timer.c **** }
 2997              		.loc 1 1356 1 is_stmt 0 view .LVU759
 2998              		@ sp needed
ARM GAS  D:\noval\Temp\cck0Iw0b.s 			page 80


 2999 0018 7047     		bx	lr
 3000              	.LVL182:
 3001              	.L178:
1345:Drivers/GD32E23x/Source/gd32e23x_timer.c ****         TIMER_CHCTL2(timer_periph) |= (uint32_t)((uint32_t)ocnstate << 4U);
 3002              		.loc 1 1345 9 is_stmt 1 view .LVU760
 3003 001a 036A     		ldr	r3, [r0, #32]
1345:Drivers/GD32E23x/Source/gd32e23x_timer.c ****         TIMER_CHCTL2(timer_periph) |= (uint32_t)((uint32_t)ocnstate << 4U);
 3004              		.loc 1 1345 36 is_stmt 0 view .LVU761
 3005 001c 4021     		movs	r1, #64
 3006              	.LVL183:
1345:Drivers/GD32E23x/Source/gd32e23x_timer.c ****         TIMER_CHCTL2(timer_periph) |= (uint32_t)((uint32_t)ocnstate << 4U);
 3007              		.loc 1 1345 36 view .LVU762
 3008 001e 8B43     		bics	r3, r1
 3009 0020 0362     		str	r3, [r0, #32]
1346:Drivers/GD32E23x/Source/gd32e23x_timer.c ****         break;
 3010              		.loc 1 1346 9 is_stmt 1 view .LVU763
 3011 0022 036A     		ldr	r3, [r0, #32]
1346:Drivers/GD32E23x/Source/gd32e23x_timer.c ****         break;
 3012              		.loc 1 1346 39 is_stmt 0 view .LVU764
 3013 0024 1201     		lsls	r2, r2, #4
 3014              	.LVL184:
1346:Drivers/GD32E23x/Source/gd32e23x_timer.c ****         break;
 3015              		.loc 1 1346 36 view .LVU765
 3016 0026 1A43     		orrs	r2, r3
 3017 0028 0262     		str	r2, [r0, #32]
1347:Drivers/GD32E23x/Source/gd32e23x_timer.c ****     /* configure TIMER_CH_2 */
 3018              		.loc 1 1347 9 is_stmt 1 view .LVU766
 3019 002a F5E7     		b	.L177
 3020              	.LVL185:
 3021              	.L179:
1350:Drivers/GD32E23x/Source/gd32e23x_timer.c ****         TIMER_CHCTL2(timer_periph) |= (uint32_t)((uint32_t)ocnstate << 8U);
 3022              		.loc 1 1350 9 view .LVU767
 3023 002c 036A     		ldr	r3, [r0, #32]
1350:Drivers/GD32E23x/Source/gd32e23x_timer.c ****         TIMER_CHCTL2(timer_periph) |= (uint32_t)((uint32_t)ocnstate << 8U);
 3024              		.loc 1 1350 36 is_stmt 0 view .LVU768
 3025 002e 0449     		ldr	r1, .L181
 3026              	.LVL186:
1350:Drivers/GD32E23x/Source/gd32e23x_timer.c ****         TIMER_CHCTL2(timer_periph) |= (uint32_t)((uint32_t)ocnstate << 8U);
 3027              		.loc 1 1350 36 view .LVU769
 3028 0030 0B40     		ands	r3, r1
 3029 0032 0362     		str	r3, [r0, #32]
1351:Drivers/GD32E23x/Source/gd32e23x_timer.c ****         break;
 3030              		.loc 1 1351 9 is_stmt 1 view .LVU770
 3031 0034 036A     		ldr	r3, [r0, #32]
1351:Drivers/GD32E23x/Source/gd32e23x_timer.c ****         break;
 3032              		.loc 1 1351 39 is_stmt 0 view .LVU771
 3033 0036 1202     		lsls	r2, r2, #8
 3034              	.LVL187:
1351:Drivers/GD32E23x/Source/gd32e23x_timer.c ****         break;
 3035              		.loc 1 1351 36 view .LVU772
 3036 0038 1343     		orrs	r3, r2
 3037 003a 0362     		str	r3, [r0, #32]
1352:Drivers/GD32E23x/Source/gd32e23x_timer.c ****     default:
 3038              		.loc 1 1352 9 is_stmt 1 view .LVU773
 3039              		.loc 1 1356 1 is_stmt 0 view .LVU774
 3040 003c ECE7     		b	.L177
 3041              	.L182:
ARM GAS  D:\noval\Temp\cck0Iw0b.s 			page 81


 3042 003e C046     		.align	2
 3043              	.L181:
 3044 0040 FFFBFFFF 		.word	-1025
 3045              		.cfi_endproc
 3046              	.LFE111:
 3048              		.section	.text.timer_channel_input_struct_para_init,"ax",%progbits
 3049              		.align	1
 3050              		.global	timer_channel_input_struct_para_init
 3051              		.syntax unified
 3052              		.code	16
 3053              		.thumb_func
 3055              	timer_channel_input_struct_para_init:
 3056              	.LVL188:
 3057              	.LFB112:
1357:Drivers/GD32E23x/Source/gd32e23x_timer.c **** 
1358:Drivers/GD32E23x/Source/gd32e23x_timer.c **** /*!
1359:Drivers/GD32E23x/Source/gd32e23x_timer.c ****     \brief      initialize TIMER channel input parameter struct with a default value
1360:Drivers/GD32E23x/Source/gd32e23x_timer.c ****     \param[in]  icpara: TIMER channel intput parameter struct
1361:Drivers/GD32E23x/Source/gd32e23x_timer.c ****     \param[out] none
1362:Drivers/GD32E23x/Source/gd32e23x_timer.c ****     \retval     none
1363:Drivers/GD32E23x/Source/gd32e23x_timer.c **** */
1364:Drivers/GD32E23x/Source/gd32e23x_timer.c **** void timer_channel_input_struct_para_init(timer_ic_parameter_struct* icpara)
1365:Drivers/GD32E23x/Source/gd32e23x_timer.c **** {
 3058              		.loc 1 1365 1 is_stmt 1 view -0
 3059              		.cfi_startproc
 3060              		@ args = 0, pretend = 0, frame = 0
 3061              		@ frame_needed = 0, uses_anonymous_args = 0
 3062              		@ link register save eliminated.
1366:Drivers/GD32E23x/Source/gd32e23x_timer.c ****     /* initialize the channel input parameter struct member with the default value */
1367:Drivers/GD32E23x/Source/gd32e23x_timer.c ****     icpara->icpolarity  = TIMER_IC_POLARITY_RISING;
 3063              		.loc 1 1367 5 view .LVU776
 3064              		.loc 1 1367 25 is_stmt 0 view .LVU777
 3065 0000 0023     		movs	r3, #0
 3066 0002 0380     		strh	r3, [r0]
1368:Drivers/GD32E23x/Source/gd32e23x_timer.c ****     icpara->icselection = TIMER_IC_SELECTION_DIRECTTI;
 3067              		.loc 1 1368 5 is_stmt 1 view .LVU778
 3068              		.loc 1 1368 25 is_stmt 0 view .LVU779
 3069 0004 0122     		movs	r2, #1
 3070 0006 4280     		strh	r2, [r0, #2]
1369:Drivers/GD32E23x/Source/gd32e23x_timer.c ****     icpara->icprescaler = TIMER_IC_PSC_DIV1;
 3071              		.loc 1 1369 5 is_stmt 1 view .LVU780
 3072              		.loc 1 1369 25 is_stmt 0 view .LVU781
 3073 0008 8380     		strh	r3, [r0, #4]
1370:Drivers/GD32E23x/Source/gd32e23x_timer.c ****     icpara->icfilter    = 0U;
 3074              		.loc 1 1370 5 is_stmt 1 view .LVU782
 3075              		.loc 1 1370 25 is_stmt 0 view .LVU783
 3076 000a C380     		strh	r3, [r0, #6]
1371:Drivers/GD32E23x/Source/gd32e23x_timer.c **** }
 3077              		.loc 1 1371 1 view .LVU784
 3078              		@ sp needed
 3079 000c 7047     		bx	lr
 3080              		.cfi_endproc
 3081              	.LFE112:
 3083              		.section	.text.timer_channel_input_capture_prescaler_config,"ax",%progbits
 3084              		.align	1
 3085              		.global	timer_channel_input_capture_prescaler_config
 3086              		.syntax unified
ARM GAS  D:\noval\Temp\cck0Iw0b.s 			page 82


 3087              		.code	16
 3088              		.thumb_func
 3090              	timer_channel_input_capture_prescaler_config:
 3091              	.LVL189:
 3092              	.LFB114:
1372:Drivers/GD32E23x/Source/gd32e23x_timer.c **** 
1373:Drivers/GD32E23x/Source/gd32e23x_timer.c **** /*!
1374:Drivers/GD32E23x/Source/gd32e23x_timer.c ****     \brief      configure TIMER input capture parameter 
1375:Drivers/GD32E23x/Source/gd32e23x_timer.c ****     \param[in]  timer_periph: please refer to the following parameters
1376:Drivers/GD32E23x/Source/gd32e23x_timer.c ****     \param[in]  channel: 
1377:Drivers/GD32E23x/Source/gd32e23x_timer.c ****                 only one parameter can be selected which is shown as below:
1378:Drivers/GD32E23x/Source/gd32e23x_timer.c ****       \arg        TIMER_CH_0: TIMER channel0(TIMERx(x=0,2,13..16))
1379:Drivers/GD32E23x/Source/gd32e23x_timer.c ****       \arg        TIMER_CH_1: TIMER channel1(TIMERx(x=0,2,14))
1380:Drivers/GD32E23x/Source/gd32e23x_timer.c ****       \arg        TIMER_CH_2: TIMER channel2(TIMERx(x=0,2))
1381:Drivers/GD32E23x/Source/gd32e23x_timer.c ****       \arg        TIMER_CH_3: TIMER channel3(TIMERx(x=0,2))
1382:Drivers/GD32E23x/Source/gd32e23x_timer.c ****      \param[in]  icpara: TIMER channel intput parameter struct
1383:Drivers/GD32E23x/Source/gd32e23x_timer.c ****                  icpolarity: TIMER_IC_POLARITY_RISING,TIMER_IC_POLARITY_FALLING,TIMER_IC_POLARITY_B
1384:Drivers/GD32E23x/Source/gd32e23x_timer.c ****                  icselection: TIMER_IC_SELECTION_DIRECTTI,TIMER_IC_SELECTION_INDIRECTTI,TIMER_IC_SE
1385:Drivers/GD32E23x/Source/gd32e23x_timer.c ****                  icprescaler: TIMER_IC_PSC_DIV1,TIMER_IC_PSC_DIV2,TIMER_IC_PSC_DIV4,TIMER_IC_PSC_DI
1386:Drivers/GD32E23x/Source/gd32e23x_timer.c ****                  icfilter: 0~15
1387:Drivers/GD32E23x/Source/gd32e23x_timer.c ****     \param[out]  none
1388:Drivers/GD32E23x/Source/gd32e23x_timer.c ****     \retval      none
1389:Drivers/GD32E23x/Source/gd32e23x_timer.c **** */
1390:Drivers/GD32E23x/Source/gd32e23x_timer.c **** void timer_input_capture_config(uint32_t timer_periph,uint16_t channel, timer_ic_parameter_struct* 
1391:Drivers/GD32E23x/Source/gd32e23x_timer.c **** {
1392:Drivers/GD32E23x/Source/gd32e23x_timer.c ****     switch(channel){
1393:Drivers/GD32E23x/Source/gd32e23x_timer.c ****     /* configure TIMER_CH_0 */
1394:Drivers/GD32E23x/Source/gd32e23x_timer.c ****     case TIMER_CH_0:
1395:Drivers/GD32E23x/Source/gd32e23x_timer.c ****         /* reset the CH0EN bit */
1396:Drivers/GD32E23x/Source/gd32e23x_timer.c ****         TIMER_CHCTL2(timer_periph) &= (~(uint32_t)TIMER_CHCTL2_CH0EN);
1397:Drivers/GD32E23x/Source/gd32e23x_timer.c **** 
1398:Drivers/GD32E23x/Source/gd32e23x_timer.c ****         /* reset the CH0P and CH0NP bits */
1399:Drivers/GD32E23x/Source/gd32e23x_timer.c ****         TIMER_CHCTL2(timer_periph) &= (~(uint32_t)(TIMER_CHCTL2_CH0P | TIMER_CHCTL2_CH0NP));
1400:Drivers/GD32E23x/Source/gd32e23x_timer.c ****         TIMER_CHCTL2(timer_periph) |= (uint32_t)(icpara->icpolarity);
1401:Drivers/GD32E23x/Source/gd32e23x_timer.c ****         /* reset the CH0MS bit */
1402:Drivers/GD32E23x/Source/gd32e23x_timer.c ****         TIMER_CHCTL0(timer_periph) &= (~(uint32_t)TIMER_CHCTL0_CH0MS);
1403:Drivers/GD32E23x/Source/gd32e23x_timer.c ****         TIMER_CHCTL0(timer_periph) |= (uint32_t)(icpara->icselection);
1404:Drivers/GD32E23x/Source/gd32e23x_timer.c ****         /* reset the CH0CAPFLT bit */
1405:Drivers/GD32E23x/Source/gd32e23x_timer.c ****         TIMER_CHCTL0(timer_periph) &= (~(uint32_t)TIMER_CHCTL0_CH0CAPFLT);
1406:Drivers/GD32E23x/Source/gd32e23x_timer.c ****         TIMER_CHCTL0(timer_periph) |= (uint32_t)((uint32_t)(icpara->icfilter) << 4U);
1407:Drivers/GD32E23x/Source/gd32e23x_timer.c **** 
1408:Drivers/GD32E23x/Source/gd32e23x_timer.c ****         /* set the CH0EN bit */
1409:Drivers/GD32E23x/Source/gd32e23x_timer.c ****         TIMER_CHCTL2(timer_periph) |= (uint32_t)TIMER_CHCTL2_CH0EN;
1410:Drivers/GD32E23x/Source/gd32e23x_timer.c ****         break;
1411:Drivers/GD32E23x/Source/gd32e23x_timer.c ****     
1412:Drivers/GD32E23x/Source/gd32e23x_timer.c ****     /* configure TIMER_CH_1 */
1413:Drivers/GD32E23x/Source/gd32e23x_timer.c ****     case TIMER_CH_1:
1414:Drivers/GD32E23x/Source/gd32e23x_timer.c ****         /* reset the CH1EN bit */
1415:Drivers/GD32E23x/Source/gd32e23x_timer.c ****         TIMER_CHCTL2(timer_periph) &= (~(uint32_t)TIMER_CHCTL2_CH1EN);
1416:Drivers/GD32E23x/Source/gd32e23x_timer.c **** 
1417:Drivers/GD32E23x/Source/gd32e23x_timer.c ****         /* reset the CH1P and CH1NP bits */
1418:Drivers/GD32E23x/Source/gd32e23x_timer.c ****         TIMER_CHCTL2(timer_periph) &= (~(uint32_t)(TIMER_CHCTL2_CH1P | TIMER_CHCTL2_CH1NP));
1419:Drivers/GD32E23x/Source/gd32e23x_timer.c ****         TIMER_CHCTL2(timer_periph) |= (uint32_t)((uint32_t)(icpara->icpolarity) << 4U);
1420:Drivers/GD32E23x/Source/gd32e23x_timer.c ****         /* reset the CH1MS bit */
1421:Drivers/GD32E23x/Source/gd32e23x_timer.c ****         TIMER_CHCTL0(timer_periph) &= (~(uint32_t)TIMER_CHCTL0_CH1MS);
1422:Drivers/GD32E23x/Source/gd32e23x_timer.c ****         TIMER_CHCTL0(timer_periph) |= (uint32_t)((uint32_t)(icpara->icselection) << 8U);
1423:Drivers/GD32E23x/Source/gd32e23x_timer.c ****         /* reset the CH1CAPFLT bit */
ARM GAS  D:\noval\Temp\cck0Iw0b.s 			page 83


1424:Drivers/GD32E23x/Source/gd32e23x_timer.c ****         TIMER_CHCTL0(timer_periph) &= (~(uint32_t)TIMER_CHCTL0_CH1CAPFLT);
1425:Drivers/GD32E23x/Source/gd32e23x_timer.c ****         TIMER_CHCTL0(timer_periph) |= (uint32_t)((uint32_t)(icpara->icfilter) << 12U);
1426:Drivers/GD32E23x/Source/gd32e23x_timer.c **** 
1427:Drivers/GD32E23x/Source/gd32e23x_timer.c ****         /* set the CH1EN bit */
1428:Drivers/GD32E23x/Source/gd32e23x_timer.c ****         TIMER_CHCTL2(timer_periph) |= (uint32_t)TIMER_CHCTL2_CH1EN;
1429:Drivers/GD32E23x/Source/gd32e23x_timer.c ****         break;
1430:Drivers/GD32E23x/Source/gd32e23x_timer.c ****     /* configure TIMER_CH_2 */
1431:Drivers/GD32E23x/Source/gd32e23x_timer.c ****     case TIMER_CH_2:
1432:Drivers/GD32E23x/Source/gd32e23x_timer.c ****         /* reset the CH2EN bit */
1433:Drivers/GD32E23x/Source/gd32e23x_timer.c ****         TIMER_CHCTL2(timer_periph) &= (~(uint32_t)TIMER_CHCTL2_CH2EN);
1434:Drivers/GD32E23x/Source/gd32e23x_timer.c **** 
1435:Drivers/GD32E23x/Source/gd32e23x_timer.c ****         /* reset the CH2P and CH2NP bits */
1436:Drivers/GD32E23x/Source/gd32e23x_timer.c ****         TIMER_CHCTL2(timer_periph) &= (~(uint32_t)(TIMER_CHCTL2_CH2P|TIMER_CHCTL2_CH2NP));
1437:Drivers/GD32E23x/Source/gd32e23x_timer.c ****         TIMER_CHCTL2(timer_periph) |= (uint32_t)((uint32_t)(icpara->icpolarity) << 8U);
1438:Drivers/GD32E23x/Source/gd32e23x_timer.c **** 
1439:Drivers/GD32E23x/Source/gd32e23x_timer.c ****         /* reset the CH2MS bit */
1440:Drivers/GD32E23x/Source/gd32e23x_timer.c ****         TIMER_CHCTL1(timer_periph) &= (~(uint32_t)TIMER_CHCTL1_CH2MS);
1441:Drivers/GD32E23x/Source/gd32e23x_timer.c ****         TIMER_CHCTL1(timer_periph) |= (uint32_t)((uint32_t)(icpara->icselection));
1442:Drivers/GD32E23x/Source/gd32e23x_timer.c **** 
1443:Drivers/GD32E23x/Source/gd32e23x_timer.c ****         /* reset the CH2CAPFLT bit */
1444:Drivers/GD32E23x/Source/gd32e23x_timer.c ****         TIMER_CHCTL1(timer_periph) &= (~(uint32_t)TIMER_CHCTL1_CH2CAPFLT);
1445:Drivers/GD32E23x/Source/gd32e23x_timer.c ****         TIMER_CHCTL1(timer_periph) |= (uint32_t)((uint32_t)(icpara->icfilter) << 4U);
1446:Drivers/GD32E23x/Source/gd32e23x_timer.c **** 
1447:Drivers/GD32E23x/Source/gd32e23x_timer.c ****         /* set the CH2EN bit */
1448:Drivers/GD32E23x/Source/gd32e23x_timer.c ****         TIMER_CHCTL2(timer_periph) |= (uint32_t)TIMER_CHCTL2_CH2EN;
1449:Drivers/GD32E23x/Source/gd32e23x_timer.c ****         break;
1450:Drivers/GD32E23x/Source/gd32e23x_timer.c ****     /* configure TIMER_CH_3 */
1451:Drivers/GD32E23x/Source/gd32e23x_timer.c ****     case TIMER_CH_3:
1452:Drivers/GD32E23x/Source/gd32e23x_timer.c ****         /* reset the CH3EN bit */
1453:Drivers/GD32E23x/Source/gd32e23x_timer.c ****         TIMER_CHCTL2(timer_periph) &= (~(uint32_t)TIMER_CHCTL2_CH3EN);
1454:Drivers/GD32E23x/Source/gd32e23x_timer.c **** 
1455:Drivers/GD32E23x/Source/gd32e23x_timer.c ****         /* reset the CH3P and CH3NP bits */
1456:Drivers/GD32E23x/Source/gd32e23x_timer.c ****         TIMER_CHCTL2(timer_periph) &= (~(uint32_t)(TIMER_CHCTL2_CH3P|TIMER_CHCTL2_CH3NP));
1457:Drivers/GD32E23x/Source/gd32e23x_timer.c ****         TIMER_CHCTL2(timer_periph) |= (uint32_t)((uint32_t)(icpara->icpolarity) << 12U);
1458:Drivers/GD32E23x/Source/gd32e23x_timer.c **** 
1459:Drivers/GD32E23x/Source/gd32e23x_timer.c ****         /* reset the CH3MS bit */
1460:Drivers/GD32E23x/Source/gd32e23x_timer.c ****         TIMER_CHCTL1(timer_periph) &= (~(uint32_t)TIMER_CHCTL1_CH3MS);
1461:Drivers/GD32E23x/Source/gd32e23x_timer.c ****         TIMER_CHCTL1(timer_periph) |= (uint32_t)((uint32_t)(icpara->icselection) << 8U);
1462:Drivers/GD32E23x/Source/gd32e23x_timer.c **** 
1463:Drivers/GD32E23x/Source/gd32e23x_timer.c ****         /* reset the CH3CAPFLT bit */
1464:Drivers/GD32E23x/Source/gd32e23x_timer.c ****         TIMER_CHCTL1(timer_periph) &= (~(uint32_t)TIMER_CHCTL1_CH3CAPFLT);
1465:Drivers/GD32E23x/Source/gd32e23x_timer.c ****         TIMER_CHCTL1(timer_periph) |= (uint32_t)((uint32_t)(icpara->icfilter) << 12U);
1466:Drivers/GD32E23x/Source/gd32e23x_timer.c **** 
1467:Drivers/GD32E23x/Source/gd32e23x_timer.c ****         /* set the CH3EN bit */
1468:Drivers/GD32E23x/Source/gd32e23x_timer.c ****         TIMER_CHCTL2(timer_periph) |= (uint32_t)TIMER_CHCTL2_CH3EN;
1469:Drivers/GD32E23x/Source/gd32e23x_timer.c ****         break;
1470:Drivers/GD32E23x/Source/gd32e23x_timer.c ****     default:
1471:Drivers/GD32E23x/Source/gd32e23x_timer.c ****         break;
1472:Drivers/GD32E23x/Source/gd32e23x_timer.c ****     }
1473:Drivers/GD32E23x/Source/gd32e23x_timer.c ****     /* configure TIMER channel input capture prescaler value */
1474:Drivers/GD32E23x/Source/gd32e23x_timer.c ****     timer_channel_input_capture_prescaler_config(timer_periph, channel, (uint16_t)(icpara->icpresca
1475:Drivers/GD32E23x/Source/gd32e23x_timer.c **** }
1476:Drivers/GD32E23x/Source/gd32e23x_timer.c **** 
1477:Drivers/GD32E23x/Source/gd32e23x_timer.c **** /*!
1478:Drivers/GD32E23x/Source/gd32e23x_timer.c ****     \brief      configure TIMER channel input capture prescaler value
1479:Drivers/GD32E23x/Source/gd32e23x_timer.c ****     \param[in]  timer_periph: please refer to the following parameters
1480:Drivers/GD32E23x/Source/gd32e23x_timer.c ****     \param[in]  channel: 
ARM GAS  D:\noval\Temp\cck0Iw0b.s 			page 84


1481:Drivers/GD32E23x/Source/gd32e23x_timer.c ****                 only one parameter can be selected which is shown as below:
1482:Drivers/GD32E23x/Source/gd32e23x_timer.c ****       \arg        TIMER_CH_0: TIMER channel0(TIMERx(x=0,2,13..16))
1483:Drivers/GD32E23x/Source/gd32e23x_timer.c ****       \arg        TIMER_CH_1: TIMER channel1(TIMERx(x=0,2,14))
1484:Drivers/GD32E23x/Source/gd32e23x_timer.c ****       \arg        TIMER_CH_2: TIMER channel2(TIMERx(x=0,2))
1485:Drivers/GD32E23x/Source/gd32e23x_timer.c ****       \arg        TIMER_CH_3: TIMER channel3(TIMERx(x=0,2))
1486:Drivers/GD32E23x/Source/gd32e23x_timer.c ****     \param[in]  prescaler: channel input capture prescaler value
1487:Drivers/GD32E23x/Source/gd32e23x_timer.c ****                 only one parameter can be selected which is shown as below:
1488:Drivers/GD32E23x/Source/gd32e23x_timer.c ****       \arg        TIMER_IC_PSC_DIV1: no prescaler
1489:Drivers/GD32E23x/Source/gd32e23x_timer.c ****       \arg        TIMER_IC_PSC_DIV2: divided by 2
1490:Drivers/GD32E23x/Source/gd32e23x_timer.c ****       \arg        TIMER_IC_PSC_DIV4: divided by 4
1491:Drivers/GD32E23x/Source/gd32e23x_timer.c ****       \arg        TIMER_IC_PSC_DIV8: divided by 8
1492:Drivers/GD32E23x/Source/gd32e23x_timer.c ****     \param[out] none
1493:Drivers/GD32E23x/Source/gd32e23x_timer.c ****     \retval     none
1494:Drivers/GD32E23x/Source/gd32e23x_timer.c **** */
1495:Drivers/GD32E23x/Source/gd32e23x_timer.c **** void timer_channel_input_capture_prescaler_config(uint32_t timer_periph, uint16_t channel, uint16_t
1496:Drivers/GD32E23x/Source/gd32e23x_timer.c **** {
 3093              		.loc 1 1496 1 is_stmt 1 view -0
 3094              		.cfi_startproc
 3095              		@ args = 0, pretend = 0, frame = 0
 3096              		@ frame_needed = 0, uses_anonymous_args = 0
 3097              		@ link register save eliminated.
1497:Drivers/GD32E23x/Source/gd32e23x_timer.c ****     switch(channel){
 3098              		.loc 1 1497 5 view .LVU786
 3099 0000 0229     		cmp	r1, #2
 3100 0002 1FD0     		beq	.L185
 3101 0004 0BD8     		bhi	.L186
 3102 0006 A9B1     		cbz	r1, .L187
 3103 0008 0129     		cmp	r1, #1
 3104 000a 1AD1     		bne	.L184
1498:Drivers/GD32E23x/Source/gd32e23x_timer.c ****     /* configure TIMER_CH_0 */
1499:Drivers/GD32E23x/Source/gd32e23x_timer.c ****     case TIMER_CH_0:
1500:Drivers/GD32E23x/Source/gd32e23x_timer.c ****         TIMER_CHCTL0(timer_periph) &= (~(uint32_t)TIMER_CHCTL0_CH0CAPPSC);
1501:Drivers/GD32E23x/Source/gd32e23x_timer.c ****         TIMER_CHCTL0(timer_periph) |= (uint32_t)prescaler;
1502:Drivers/GD32E23x/Source/gd32e23x_timer.c ****         break;
1503:Drivers/GD32E23x/Source/gd32e23x_timer.c ****     /* configure TIMER_CH_1 */
1504:Drivers/GD32E23x/Source/gd32e23x_timer.c ****     case TIMER_CH_1:
1505:Drivers/GD32E23x/Source/gd32e23x_timer.c ****         TIMER_CHCTL0(timer_periph) &= (~(uint32_t)TIMER_CHCTL0_CH1CAPPSC);
 3105              		.loc 1 1505 9 view .LVU787
 3106 000c 8369     		ldr	r3, [r0, #24]
 3107              		.loc 1 1505 36 is_stmt 0 view .LVU788
 3108 000e 1149     		ldr	r1, .L191
 3109              	.LVL190:
 3110              		.loc 1 1505 36 view .LVU789
 3111 0010 0B40     		ands	r3, r1
 3112 0012 8361     		str	r3, [r0, #24]
1506:Drivers/GD32E23x/Source/gd32e23x_timer.c ****         TIMER_CHCTL0(timer_periph) |= ((uint32_t)prescaler << 8U);
 3113              		.loc 1 1506 9 is_stmt 1 view .LVU790
 3114 0014 8369     		ldr	r3, [r0, #24]
 3115              		.loc 1 1506 60 is_stmt 0 view .LVU791
 3116 0016 1202     		lsls	r2, r2, #8
 3117              	.LVL191:
 3118              		.loc 1 1506 36 view .LVU792
 3119 0018 1A43     		orrs	r2, r3
 3120 001a 8261     		str	r2, [r0, #24]
1507:Drivers/GD32E23x/Source/gd32e23x_timer.c ****         break;
 3121              		.loc 1 1507 9 is_stmt 1 view .LVU793
 3122 001c 11E0     		b	.L184
ARM GAS  D:\noval\Temp\cck0Iw0b.s 			page 85


 3123              	.LVL192:
 3124              	.L186:
1497:Drivers/GD32E23x/Source/gd32e23x_timer.c ****     /* configure TIMER_CH_0 */
 3125              		.loc 1 1497 5 is_stmt 0 view .LVU794
 3126 001e 0329     		cmp	r1, #3
 3127 0020 0FD1     		bne	.L184
1508:Drivers/GD32E23x/Source/gd32e23x_timer.c ****     /* configure TIMER_CH_2 */
1509:Drivers/GD32E23x/Source/gd32e23x_timer.c ****     case TIMER_CH_2:
1510:Drivers/GD32E23x/Source/gd32e23x_timer.c ****         TIMER_CHCTL1(timer_periph) &= (~(uint32_t)TIMER_CHCTL1_CH2CAPPSC);
1511:Drivers/GD32E23x/Source/gd32e23x_timer.c ****         TIMER_CHCTL1(timer_periph) |= (uint32_t)prescaler;
1512:Drivers/GD32E23x/Source/gd32e23x_timer.c ****         break;
1513:Drivers/GD32E23x/Source/gd32e23x_timer.c ****     /* configure TIMER_CH_3 */
1514:Drivers/GD32E23x/Source/gd32e23x_timer.c ****     case TIMER_CH_3:
1515:Drivers/GD32E23x/Source/gd32e23x_timer.c ****         TIMER_CHCTL1(timer_periph) &= (~(uint32_t)TIMER_CHCTL1_CH3CAPPSC);
 3128              		.loc 1 1515 9 is_stmt 1 view .LVU795
 3129 0022 C369     		ldr	r3, [r0, #28]
 3130              		.loc 1 1515 36 is_stmt 0 view .LVU796
 3131 0024 0B49     		ldr	r1, .L191
 3132              	.LVL193:
 3133              		.loc 1 1515 36 view .LVU797
 3134 0026 0B40     		ands	r3, r1
 3135 0028 C361     		str	r3, [r0, #28]
1516:Drivers/GD32E23x/Source/gd32e23x_timer.c ****         TIMER_CHCTL1(timer_periph) |= ((uint32_t)prescaler << 8U);
 3136              		.loc 1 1516 9 is_stmt 1 view .LVU798
 3137 002a C369     		ldr	r3, [r0, #28]
 3138              		.loc 1 1516 60 is_stmt 0 view .LVU799
 3139 002c 1202     		lsls	r2, r2, #8
 3140              	.LVL194:
 3141              		.loc 1 1516 36 view .LVU800
 3142 002e 1343     		orrs	r3, r2
 3143 0030 C361     		str	r3, [r0, #28]
1517:Drivers/GD32E23x/Source/gd32e23x_timer.c ****         break;
 3144              		.loc 1 1517 9 is_stmt 1 view .LVU801
1518:Drivers/GD32E23x/Source/gd32e23x_timer.c ****     default:
1519:Drivers/GD32E23x/Source/gd32e23x_timer.c ****         break;
1520:Drivers/GD32E23x/Source/gd32e23x_timer.c ****     }
1521:Drivers/GD32E23x/Source/gd32e23x_timer.c **** }
 3145              		.loc 1 1521 1 is_stmt 0 view .LVU802
 3146 0032 06E0     		b	.L184
 3147              	.LVL195:
 3148              	.L187:
1500:Drivers/GD32E23x/Source/gd32e23x_timer.c ****         TIMER_CHCTL0(timer_periph) |= (uint32_t)prescaler;
 3149              		.loc 1 1500 9 is_stmt 1 view .LVU803
 3150 0034 8369     		ldr	r3, [r0, #24]
1500:Drivers/GD32E23x/Source/gd32e23x_timer.c ****         TIMER_CHCTL0(timer_periph) |= (uint32_t)prescaler;
 3151              		.loc 1 1500 36 is_stmt 0 view .LVU804
 3152 0036 0C21     		movs	r1, #12
 3153              	.LVL196:
1500:Drivers/GD32E23x/Source/gd32e23x_timer.c ****         TIMER_CHCTL0(timer_periph) |= (uint32_t)prescaler;
 3154              		.loc 1 1500 36 view .LVU805
 3155 0038 8B43     		bics	r3, r1
 3156 003a 8361     		str	r3, [r0, #24]
1501:Drivers/GD32E23x/Source/gd32e23x_timer.c ****         break;
 3157              		.loc 1 1501 9 is_stmt 1 view .LVU806
 3158 003c 8369     		ldr	r3, [r0, #24]
1501:Drivers/GD32E23x/Source/gd32e23x_timer.c ****         break;
 3159              		.loc 1 1501 36 is_stmt 0 view .LVU807
ARM GAS  D:\noval\Temp\cck0Iw0b.s 			page 86


 3160 003e 1343     		orrs	r3, r2
 3161 0040 8361     		str	r3, [r0, #24]
1502:Drivers/GD32E23x/Source/gd32e23x_timer.c ****     /* configure TIMER_CH_1 */
 3162              		.loc 1 1502 9 is_stmt 1 view .LVU808
 3163              	.LVL197:
 3164              	.L184:
 3165              		.loc 1 1521 1 is_stmt 0 view .LVU809
 3166              		@ sp needed
 3167 0042 7047     		bx	lr
 3168              	.LVL198:
 3169              	.L185:
1510:Drivers/GD32E23x/Source/gd32e23x_timer.c ****         TIMER_CHCTL1(timer_periph) |= (uint32_t)prescaler;
 3170              		.loc 1 1510 9 is_stmt 1 view .LVU810
 3171 0044 C369     		ldr	r3, [r0, #28]
1510:Drivers/GD32E23x/Source/gd32e23x_timer.c ****         TIMER_CHCTL1(timer_periph) |= (uint32_t)prescaler;
 3172              		.loc 1 1510 36 is_stmt 0 view .LVU811
 3173 0046 0C21     		movs	r1, #12
 3174              	.LVL199:
1510:Drivers/GD32E23x/Source/gd32e23x_timer.c ****         TIMER_CHCTL1(timer_periph) |= (uint32_t)prescaler;
 3175              		.loc 1 1510 36 view .LVU812
 3176 0048 8B43     		bics	r3, r1
 3177 004a C361     		str	r3, [r0, #28]
1511:Drivers/GD32E23x/Source/gd32e23x_timer.c ****         break;
 3178              		.loc 1 1511 9 is_stmt 1 view .LVU813
 3179 004c C369     		ldr	r3, [r0, #28]
1511:Drivers/GD32E23x/Source/gd32e23x_timer.c ****         break;
 3180              		.loc 1 1511 36 is_stmt 0 view .LVU814
 3181 004e 1343     		orrs	r3, r2
 3182 0050 C361     		str	r3, [r0, #28]
1512:Drivers/GD32E23x/Source/gd32e23x_timer.c ****     /* configure TIMER_CH_3 */
 3183              		.loc 1 1512 9 is_stmt 1 view .LVU815
 3184 0052 F6E7     		b	.L184
 3185              	.L192:
 3186              		.align	2
 3187              	.L191:
 3188 0054 FFF3FFFF 		.word	-3073
 3189              		.cfi_endproc
 3190              	.LFE114:
 3192              		.section	.text.timer_input_capture_config,"ax",%progbits
 3193              		.align	1
 3194              		.global	timer_input_capture_config
 3195              		.syntax unified
 3196              		.code	16
 3197              		.thumb_func
 3199              	timer_input_capture_config:
 3200              	.LVL200:
 3201              	.LFB113:
1391:Drivers/GD32E23x/Source/gd32e23x_timer.c ****     switch(channel){
 3202              		.loc 1 1391 1 view -0
 3203              		.cfi_startproc
 3204              		@ args = 0, pretend = 0, frame = 0
 3205              		@ frame_needed = 0, uses_anonymous_args = 0
1391:Drivers/GD32E23x/Source/gd32e23x_timer.c ****     switch(channel){
 3206              		.loc 1 1391 1 is_stmt 0 view .LVU817
 3207 0000 70B5     		push	{r4, r5, r6, lr}
 3208              	.LCFI3:
 3209              		.cfi_def_cfa_offset 16
ARM GAS  D:\noval\Temp\cck0Iw0b.s 			page 87


 3210              		.cfi_offset 4, -16
 3211              		.cfi_offset 5, -12
 3212              		.cfi_offset 6, -8
 3213              		.cfi_offset 14, -4
1392:Drivers/GD32E23x/Source/gd32e23x_timer.c ****     /* configure TIMER_CH_0 */
 3214              		.loc 1 1392 5 is_stmt 1 view .LVU818
 3215 0002 0229     		cmp	r1, #2
 3216 0004 00D1     		bne	.LCB2553
 3217 0006 72E0     		b	.L194	@long jump
 3218              	.LCB2553:
 3219 0008 26D8     		bhi	.L195
 3220 000a 0029     		cmp	r1, #0
 3221 000c 4BD0     		beq	.L196
 3222 000e 0129     		cmp	r1, #1
 3223 0010 69D1     		bne	.L198
1415:Drivers/GD32E23x/Source/gd32e23x_timer.c **** 
 3224              		.loc 1 1415 9 view .LVU819
 3225 0012 036A     		ldr	r3, [r0, #32]
1415:Drivers/GD32E23x/Source/gd32e23x_timer.c **** 
 3226              		.loc 1 1415 36 is_stmt 0 view .LVU820
 3227 0014 1025     		movs	r5, #16
 3228 0016 AB43     		bics	r3, r5
 3229 0018 0362     		str	r3, [r0, #32]
1418:Drivers/GD32E23x/Source/gd32e23x_timer.c ****         TIMER_CHCTL2(timer_periph) |= (uint32_t)((uint32_t)(icpara->icpolarity) << 4U);
 3230              		.loc 1 1418 9 is_stmt 1 view .LVU821
 3231 001a 036A     		ldr	r3, [r0, #32]
1418:Drivers/GD32E23x/Source/gd32e23x_timer.c ****         TIMER_CHCTL2(timer_periph) |= (uint32_t)((uint32_t)(icpara->icpolarity) << 4U);
 3232              		.loc 1 1418 36 is_stmt 0 view .LVU822
 3233 001c A024     		movs	r4, #160
 3234 001e A343     		bics	r3, r4
 3235 0020 0362     		str	r3, [r0, #32]
1419:Drivers/GD32E23x/Source/gd32e23x_timer.c ****         /* reset the CH1MS bit */
 3236              		.loc 1 1419 9 is_stmt 1 view .LVU823
 3237 0022 036A     		ldr	r3, [r0, #32]
1419:Drivers/GD32E23x/Source/gd32e23x_timer.c ****         /* reset the CH1MS bit */
 3238              		.loc 1 1419 67 is_stmt 0 view .LVU824
 3239 0024 1488     		ldrh	r4, [r2]
1419:Drivers/GD32E23x/Source/gd32e23x_timer.c ****         /* reset the CH1MS bit */
 3240              		.loc 1 1419 39 view .LVU825
 3241 0026 2401     		lsls	r4, r4, #4
1419:Drivers/GD32E23x/Source/gd32e23x_timer.c ****         /* reset the CH1MS bit */
 3242              		.loc 1 1419 36 view .LVU826
 3243 0028 2343     		orrs	r3, r4
 3244 002a 0362     		str	r3, [r0, #32]
1421:Drivers/GD32E23x/Source/gd32e23x_timer.c ****         TIMER_CHCTL0(timer_periph) |= (uint32_t)((uint32_t)(icpara->icselection) << 8U);
 3245              		.loc 1 1421 9 is_stmt 1 view .LVU827
 3246 002c 8369     		ldr	r3, [r0, #24]
1421:Drivers/GD32E23x/Source/gd32e23x_timer.c ****         TIMER_CHCTL0(timer_periph) |= (uint32_t)((uint32_t)(icpara->icselection) << 8U);
 3247              		.loc 1 1421 36 is_stmt 0 view .LVU828
 3248 002e 424C     		ldr	r4, .L200
 3249 0030 2340     		ands	r3, r4
 3250 0032 8361     		str	r3, [r0, #24]
1422:Drivers/GD32E23x/Source/gd32e23x_timer.c ****         /* reset the CH1CAPFLT bit */
 3251              		.loc 1 1422 9 is_stmt 1 view .LVU829
 3252 0034 8369     		ldr	r3, [r0, #24]
1422:Drivers/GD32E23x/Source/gd32e23x_timer.c ****         /* reset the CH1CAPFLT bit */
 3253              		.loc 1 1422 67 is_stmt 0 view .LVU830
ARM GAS  D:\noval\Temp\cck0Iw0b.s 			page 88


 3254 0036 5488     		ldrh	r4, [r2, #2]
1422:Drivers/GD32E23x/Source/gd32e23x_timer.c ****         /* reset the CH1CAPFLT bit */
 3255              		.loc 1 1422 39 view .LVU831
 3256 0038 2402     		lsls	r4, r4, #8
1422:Drivers/GD32E23x/Source/gd32e23x_timer.c ****         /* reset the CH1CAPFLT bit */
 3257              		.loc 1 1422 36 view .LVU832
 3258 003a 2343     		orrs	r3, r4
 3259 003c 8361     		str	r3, [r0, #24]
1424:Drivers/GD32E23x/Source/gd32e23x_timer.c ****         TIMER_CHCTL0(timer_periph) |= (uint32_t)((uint32_t)(icpara->icfilter) << 12U);
 3260              		.loc 1 1424 9 is_stmt 1 view .LVU833
 3261 003e 8369     		ldr	r3, [r0, #24]
1424:Drivers/GD32E23x/Source/gd32e23x_timer.c ****         TIMER_CHCTL0(timer_periph) |= (uint32_t)((uint32_t)(icpara->icfilter) << 12U);
 3262              		.loc 1 1424 36 is_stmt 0 view .LVU834
 3263 0040 3E4C     		ldr	r4, .L200+4
 3264 0042 2340     		ands	r3, r4
 3265 0044 8361     		str	r3, [r0, #24]
1425:Drivers/GD32E23x/Source/gd32e23x_timer.c **** 
 3266              		.loc 1 1425 9 is_stmt 1 view .LVU835
 3267 0046 8369     		ldr	r3, [r0, #24]
1425:Drivers/GD32E23x/Source/gd32e23x_timer.c **** 
 3268              		.loc 1 1425 67 is_stmt 0 view .LVU836
 3269 0048 D488     		ldrh	r4, [r2, #6]
1425:Drivers/GD32E23x/Source/gd32e23x_timer.c **** 
 3270              		.loc 1 1425 39 view .LVU837
 3271 004a 2403     		lsls	r4, r4, #12
1425:Drivers/GD32E23x/Source/gd32e23x_timer.c **** 
 3272              		.loc 1 1425 36 view .LVU838
 3273 004c 2343     		orrs	r3, r4
 3274 004e 8361     		str	r3, [r0, #24]
1428:Drivers/GD32E23x/Source/gd32e23x_timer.c ****         break;
 3275              		.loc 1 1428 9 is_stmt 1 view .LVU839
 3276 0050 036A     		ldr	r3, [r0, #32]
1428:Drivers/GD32E23x/Source/gd32e23x_timer.c ****         break;
 3277              		.loc 1 1428 36 is_stmt 0 view .LVU840
 3278 0052 2B43     		orrs	r3, r5
 3279 0054 0362     		str	r3, [r0, #32]
1429:Drivers/GD32E23x/Source/gd32e23x_timer.c ****     /* configure TIMER_CH_2 */
 3280              		.loc 1 1429 9 is_stmt 1 view .LVU841
 3281 0056 46E0     		b	.L198
 3282              	.L195:
1392:Drivers/GD32E23x/Source/gd32e23x_timer.c ****     /* configure TIMER_CH_0 */
 3283              		.loc 1 1392 5 is_stmt 0 view .LVU842
 3284 0058 0329     		cmp	r1, #3
 3285 005a 44D1     		bne	.L198
1453:Drivers/GD32E23x/Source/gd32e23x_timer.c **** 
 3286              		.loc 1 1453 9 is_stmt 1 view .LVU843
 3287 005c 036A     		ldr	r3, [r0, #32]
1453:Drivers/GD32E23x/Source/gd32e23x_timer.c **** 
 3288              		.loc 1 1453 36 is_stmt 0 view .LVU844
 3289 005e 384C     		ldr	r4, .L200+8
 3290 0060 2340     		ands	r3, r4
 3291 0062 0362     		str	r3, [r0, #32]
1456:Drivers/GD32E23x/Source/gd32e23x_timer.c ****         TIMER_CHCTL2(timer_periph) |= (uint32_t)((uint32_t)(icpara->icpolarity) << 12U);
 3292              		.loc 1 1456 9 is_stmt 1 view .LVU845
 3293 0064 036A     		ldr	r3, [r0, #32]
1456:Drivers/GD32E23x/Source/gd32e23x_timer.c ****         TIMER_CHCTL2(timer_periph) |= (uint32_t)((uint32_t)(icpara->icpolarity) << 12U);
 3294              		.loc 1 1456 36 is_stmt 0 view .LVU846
ARM GAS  D:\noval\Temp\cck0Iw0b.s 			page 89


 3295 0066 374C     		ldr	r4, .L200+12
 3296 0068 2340     		ands	r3, r4
 3297 006a 0362     		str	r3, [r0, #32]
1457:Drivers/GD32E23x/Source/gd32e23x_timer.c **** 
 3298              		.loc 1 1457 9 is_stmt 1 view .LVU847
 3299 006c 036A     		ldr	r3, [r0, #32]
1457:Drivers/GD32E23x/Source/gd32e23x_timer.c **** 
 3300              		.loc 1 1457 67 is_stmt 0 view .LVU848
 3301 006e 1488     		ldrh	r4, [r2]
1457:Drivers/GD32E23x/Source/gd32e23x_timer.c **** 
 3302              		.loc 1 1457 39 view .LVU849
 3303 0070 2403     		lsls	r4, r4, #12
1457:Drivers/GD32E23x/Source/gd32e23x_timer.c **** 
 3304              		.loc 1 1457 36 view .LVU850
 3305 0072 2343     		orrs	r3, r4
 3306 0074 0362     		str	r3, [r0, #32]
1460:Drivers/GD32E23x/Source/gd32e23x_timer.c ****         TIMER_CHCTL1(timer_periph) |= (uint32_t)((uint32_t)(icpara->icselection) << 8U);
 3307              		.loc 1 1460 9 is_stmt 1 view .LVU851
 3308 0076 C369     		ldr	r3, [r0, #28]
1460:Drivers/GD32E23x/Source/gd32e23x_timer.c ****         TIMER_CHCTL1(timer_periph) |= (uint32_t)((uint32_t)(icpara->icselection) << 8U);
 3309              		.loc 1 1460 36 is_stmt 0 view .LVU852
 3310 0078 2F4C     		ldr	r4, .L200
 3311 007a 2340     		ands	r3, r4
 3312 007c C361     		str	r3, [r0, #28]
1461:Drivers/GD32E23x/Source/gd32e23x_timer.c **** 
 3313              		.loc 1 1461 9 is_stmt 1 view .LVU853
 3314 007e C369     		ldr	r3, [r0, #28]
1461:Drivers/GD32E23x/Source/gd32e23x_timer.c **** 
 3315              		.loc 1 1461 67 is_stmt 0 view .LVU854
 3316 0080 5488     		ldrh	r4, [r2, #2]
1461:Drivers/GD32E23x/Source/gd32e23x_timer.c **** 
 3317              		.loc 1 1461 39 view .LVU855
 3318 0082 2402     		lsls	r4, r4, #8
1461:Drivers/GD32E23x/Source/gd32e23x_timer.c **** 
 3319              		.loc 1 1461 36 view .LVU856
 3320 0084 2343     		orrs	r3, r4
 3321 0086 C361     		str	r3, [r0, #28]
1464:Drivers/GD32E23x/Source/gd32e23x_timer.c ****         TIMER_CHCTL1(timer_periph) |= (uint32_t)((uint32_t)(icpara->icfilter) << 12U);
 3322              		.loc 1 1464 9 is_stmt 1 view .LVU857
 3323 0088 C369     		ldr	r3, [r0, #28]
1464:Drivers/GD32E23x/Source/gd32e23x_timer.c ****         TIMER_CHCTL1(timer_periph) |= (uint32_t)((uint32_t)(icpara->icfilter) << 12U);
 3324              		.loc 1 1464 36 is_stmt 0 view .LVU858
 3325 008a 2C4C     		ldr	r4, .L200+4
 3326 008c 2340     		ands	r3, r4
 3327 008e C361     		str	r3, [r0, #28]
1465:Drivers/GD32E23x/Source/gd32e23x_timer.c **** 
 3328              		.loc 1 1465 9 is_stmt 1 view .LVU859
 3329 0090 C369     		ldr	r3, [r0, #28]
1465:Drivers/GD32E23x/Source/gd32e23x_timer.c **** 
 3330              		.loc 1 1465 67 is_stmt 0 view .LVU860
 3331 0092 D488     		ldrh	r4, [r2, #6]
1465:Drivers/GD32E23x/Source/gd32e23x_timer.c **** 
 3332              		.loc 1 1465 39 view .LVU861
 3333 0094 2403     		lsls	r4, r4, #12
1465:Drivers/GD32E23x/Source/gd32e23x_timer.c **** 
 3334              		.loc 1 1465 36 view .LVU862
 3335 0096 2343     		orrs	r3, r4
ARM GAS  D:\noval\Temp\cck0Iw0b.s 			page 90


 3336 0098 C361     		str	r3, [r0, #28]
1468:Drivers/GD32E23x/Source/gd32e23x_timer.c ****         break;
 3337              		.loc 1 1468 9 is_stmt 1 view .LVU863
 3338 009a 036A     		ldr	r3, [r0, #32]
1468:Drivers/GD32E23x/Source/gd32e23x_timer.c ****         break;
 3339              		.loc 1 1468 36 is_stmt 0 view .LVU864
 3340 009c 41F20004 		movw	r4, #4096
 3341 00a0 2343     		orrs	r3, r4
 3342 00a2 0362     		str	r3, [r0, #32]
1469:Drivers/GD32E23x/Source/gd32e23x_timer.c ****     default:
 3343              		.loc 1 1469 9 is_stmt 1 view .LVU865
 3344 00a4 1FE0     		b	.L198
 3345              	.L196:
1396:Drivers/GD32E23x/Source/gd32e23x_timer.c **** 
 3346              		.loc 1 1396 9 view .LVU866
 3347 00a6 036A     		ldr	r3, [r0, #32]
1396:Drivers/GD32E23x/Source/gd32e23x_timer.c **** 
 3348              		.loc 1 1396 36 is_stmt 0 view .LVU867
 3349 00a8 0125     		movs	r5, #1
 3350 00aa AB43     		bics	r3, r5
 3351 00ac 0362     		str	r3, [r0, #32]
1399:Drivers/GD32E23x/Source/gd32e23x_timer.c ****         TIMER_CHCTL2(timer_periph) |= (uint32_t)(icpara->icpolarity);
 3352              		.loc 1 1399 9 is_stmt 1 view .LVU868
 3353 00ae 036A     		ldr	r3, [r0, #32]
1399:Drivers/GD32E23x/Source/gd32e23x_timer.c ****         TIMER_CHCTL2(timer_periph) |= (uint32_t)(icpara->icpolarity);
 3354              		.loc 1 1399 36 is_stmt 0 view .LVU869
 3355 00b0 0A24     		movs	r4, #10
 3356 00b2 A343     		bics	r3, r4
 3357 00b4 0362     		str	r3, [r0, #32]
1400:Drivers/GD32E23x/Source/gd32e23x_timer.c ****         /* reset the CH0MS bit */
 3358              		.loc 1 1400 9 is_stmt 1 view .LVU870
 3359 00b6 036A     		ldr	r3, [r0, #32]
1400:Drivers/GD32E23x/Source/gd32e23x_timer.c ****         /* reset the CH0MS bit */
 3360              		.loc 1 1400 56 is_stmt 0 view .LVU871
 3361 00b8 1488     		ldrh	r4, [r2]
1400:Drivers/GD32E23x/Source/gd32e23x_timer.c ****         /* reset the CH0MS bit */
 3362              		.loc 1 1400 36 view .LVU872
 3363 00ba 2343     		orrs	r3, r4
 3364 00bc 0362     		str	r3, [r0, #32]
1402:Drivers/GD32E23x/Source/gd32e23x_timer.c ****         TIMER_CHCTL0(timer_periph) |= (uint32_t)(icpara->icselection);
 3365              		.loc 1 1402 9 is_stmt 1 view .LVU873
 3366 00be 8369     		ldr	r3, [r0, #24]
1402:Drivers/GD32E23x/Source/gd32e23x_timer.c ****         TIMER_CHCTL0(timer_periph) |= (uint32_t)(icpara->icselection);
 3367              		.loc 1 1402 36 is_stmt 0 view .LVU874
 3368 00c0 0324     		movs	r4, #3
 3369 00c2 A343     		bics	r3, r4
 3370 00c4 8361     		str	r3, [r0, #24]
1403:Drivers/GD32E23x/Source/gd32e23x_timer.c ****         /* reset the CH0CAPFLT bit */
 3371              		.loc 1 1403 9 is_stmt 1 view .LVU875
 3372 00c6 8369     		ldr	r3, [r0, #24]
1403:Drivers/GD32E23x/Source/gd32e23x_timer.c ****         /* reset the CH0CAPFLT bit */
 3373              		.loc 1 1403 56 is_stmt 0 view .LVU876
 3374 00c8 5488     		ldrh	r4, [r2, #2]
1403:Drivers/GD32E23x/Source/gd32e23x_timer.c ****         /* reset the CH0CAPFLT bit */
 3375              		.loc 1 1403 36 view .LVU877
 3376 00ca 2343     		orrs	r3, r4
 3377 00cc 8361     		str	r3, [r0, #24]
ARM GAS  D:\noval\Temp\cck0Iw0b.s 			page 91


1405:Drivers/GD32E23x/Source/gd32e23x_timer.c ****         TIMER_CHCTL0(timer_periph) |= (uint32_t)((uint32_t)(icpara->icfilter) << 4U);
 3378              		.loc 1 1405 9 is_stmt 1 view .LVU878
 3379 00ce 8369     		ldr	r3, [r0, #24]
1405:Drivers/GD32E23x/Source/gd32e23x_timer.c ****         TIMER_CHCTL0(timer_periph) |= (uint32_t)((uint32_t)(icpara->icfilter) << 4U);
 3380              		.loc 1 1405 36 is_stmt 0 view .LVU879
 3381 00d0 F024     		movs	r4, #240
 3382 00d2 A343     		bics	r3, r4
 3383 00d4 8361     		str	r3, [r0, #24]
1406:Drivers/GD32E23x/Source/gd32e23x_timer.c **** 
 3384              		.loc 1 1406 9 is_stmt 1 view .LVU880
 3385 00d6 8369     		ldr	r3, [r0, #24]
1406:Drivers/GD32E23x/Source/gd32e23x_timer.c **** 
 3386              		.loc 1 1406 67 is_stmt 0 view .LVU881
 3387 00d8 D488     		ldrh	r4, [r2, #6]
1406:Drivers/GD32E23x/Source/gd32e23x_timer.c **** 
 3388              		.loc 1 1406 39 view .LVU882
 3389 00da 2401     		lsls	r4, r4, #4
1406:Drivers/GD32E23x/Source/gd32e23x_timer.c **** 
 3390              		.loc 1 1406 36 view .LVU883
 3391 00dc 2343     		orrs	r3, r4
 3392 00de 8361     		str	r3, [r0, #24]
1409:Drivers/GD32E23x/Source/gd32e23x_timer.c ****         break;
 3393              		.loc 1 1409 9 is_stmt 1 view .LVU884
 3394 00e0 036A     		ldr	r3, [r0, #32]
1409:Drivers/GD32E23x/Source/gd32e23x_timer.c ****         break;
 3395              		.loc 1 1409 36 is_stmt 0 view .LVU885
 3396 00e2 2B43     		orrs	r3, r5
 3397 00e4 0362     		str	r3, [r0, #32]
1410:Drivers/GD32E23x/Source/gd32e23x_timer.c ****     
 3398              		.loc 1 1410 9 is_stmt 1 view .LVU886
 3399              	.L198:
1474:Drivers/GD32E23x/Source/gd32e23x_timer.c **** }
 3400              		.loc 1 1474 5 view .LVU887
1474:Drivers/GD32E23x/Source/gd32e23x_timer.c **** }
 3401              		.loc 1 1474 90 is_stmt 0 view .LVU888
 3402 00e6 9288     		ldrh	r2, [r2, #4]
 3403              	.LVL201:
1474:Drivers/GD32E23x/Source/gd32e23x_timer.c **** }
 3404              		.loc 1 1474 5 view .LVU889
 3405 00e8 FFF7FEFF 		bl	timer_channel_input_capture_prescaler_config
 3406              	.LVL202:
1475:Drivers/GD32E23x/Source/gd32e23x_timer.c **** 
 3407              		.loc 1 1475 1 view .LVU890
 3408              		@ sp needed
 3409 00ec 70BD     		pop	{r4, r5, r6, pc}
 3410              	.LVL203:
 3411              	.L194:
1433:Drivers/GD32E23x/Source/gd32e23x_timer.c **** 
 3412              		.loc 1 1433 9 is_stmt 1 view .LVU891
 3413 00ee 036A     		ldr	r3, [r0, #32]
1433:Drivers/GD32E23x/Source/gd32e23x_timer.c **** 
 3414              		.loc 1 1433 36 is_stmt 0 view .LVU892
 3415 00f0 154C     		ldr	r4, .L200+16
 3416 00f2 2340     		ands	r3, r4
 3417 00f4 0362     		str	r3, [r0, #32]
1436:Drivers/GD32E23x/Source/gd32e23x_timer.c ****         TIMER_CHCTL2(timer_periph) |= (uint32_t)((uint32_t)(icpara->icpolarity) << 8U);
 3418              		.loc 1 1436 9 is_stmt 1 view .LVU893
ARM GAS  D:\noval\Temp\cck0Iw0b.s 			page 92


 3419 00f6 036A     		ldr	r3, [r0, #32]
1436:Drivers/GD32E23x/Source/gd32e23x_timer.c ****         TIMER_CHCTL2(timer_periph) |= (uint32_t)((uint32_t)(icpara->icpolarity) << 8U);
 3420              		.loc 1 1436 36 is_stmt 0 view .LVU894
 3421 00f8 144C     		ldr	r4, .L200+20
 3422 00fa 2340     		ands	r3, r4
 3423 00fc 0362     		str	r3, [r0, #32]
1437:Drivers/GD32E23x/Source/gd32e23x_timer.c **** 
 3424              		.loc 1 1437 9 is_stmt 1 view .LVU895
 3425 00fe 036A     		ldr	r3, [r0, #32]
1437:Drivers/GD32E23x/Source/gd32e23x_timer.c **** 
 3426              		.loc 1 1437 67 is_stmt 0 view .LVU896
 3427 0100 1488     		ldrh	r4, [r2]
1437:Drivers/GD32E23x/Source/gd32e23x_timer.c **** 
 3428              		.loc 1 1437 39 view .LVU897
 3429 0102 2402     		lsls	r4, r4, #8
1437:Drivers/GD32E23x/Source/gd32e23x_timer.c **** 
 3430              		.loc 1 1437 36 view .LVU898
 3431 0104 2343     		orrs	r3, r4
 3432 0106 0362     		str	r3, [r0, #32]
1440:Drivers/GD32E23x/Source/gd32e23x_timer.c ****         TIMER_CHCTL1(timer_periph) |= (uint32_t)((uint32_t)(icpara->icselection));
 3433              		.loc 1 1440 9 is_stmt 1 view .LVU899
 3434 0108 C369     		ldr	r3, [r0, #28]
1440:Drivers/GD32E23x/Source/gd32e23x_timer.c ****         TIMER_CHCTL1(timer_periph) |= (uint32_t)((uint32_t)(icpara->icselection));
 3435              		.loc 1 1440 36 is_stmt 0 view .LVU900
 3436 010a 0324     		movs	r4, #3
 3437 010c A343     		bics	r3, r4
 3438 010e C361     		str	r3, [r0, #28]
1441:Drivers/GD32E23x/Source/gd32e23x_timer.c **** 
 3439              		.loc 1 1441 9 is_stmt 1 view .LVU901
 3440 0110 C369     		ldr	r3, [r0, #28]
1441:Drivers/GD32E23x/Source/gd32e23x_timer.c **** 
 3441              		.loc 1 1441 67 is_stmt 0 view .LVU902
 3442 0112 5488     		ldrh	r4, [r2, #2]
1441:Drivers/GD32E23x/Source/gd32e23x_timer.c **** 
 3443              		.loc 1 1441 36 view .LVU903
 3444 0114 2343     		orrs	r3, r4
 3445 0116 C361     		str	r3, [r0, #28]
1444:Drivers/GD32E23x/Source/gd32e23x_timer.c ****         TIMER_CHCTL1(timer_periph) |= (uint32_t)((uint32_t)(icpara->icfilter) << 4U);
 3446              		.loc 1 1444 9 is_stmt 1 view .LVU904
 3447 0118 C369     		ldr	r3, [r0, #28]
1444:Drivers/GD32E23x/Source/gd32e23x_timer.c ****         TIMER_CHCTL1(timer_periph) |= (uint32_t)((uint32_t)(icpara->icfilter) << 4U);
 3448              		.loc 1 1444 36 is_stmt 0 view .LVU905
 3449 011a F024     		movs	r4, #240
 3450 011c A343     		bics	r3, r4
 3451 011e C361     		str	r3, [r0, #28]
1445:Drivers/GD32E23x/Source/gd32e23x_timer.c **** 
 3452              		.loc 1 1445 9 is_stmt 1 view .LVU906
 3453 0120 C369     		ldr	r3, [r0, #28]
1445:Drivers/GD32E23x/Source/gd32e23x_timer.c **** 
 3454              		.loc 1 1445 67 is_stmt 0 view .LVU907
 3455 0122 D488     		ldrh	r4, [r2, #6]
1445:Drivers/GD32E23x/Source/gd32e23x_timer.c **** 
 3456              		.loc 1 1445 39 view .LVU908
 3457 0124 2401     		lsls	r4, r4, #4
1445:Drivers/GD32E23x/Source/gd32e23x_timer.c **** 
 3458              		.loc 1 1445 36 view .LVU909
 3459 0126 2343     		orrs	r3, r4
ARM GAS  D:\noval\Temp\cck0Iw0b.s 			page 93


 3460 0128 C361     		str	r3, [r0, #28]
1448:Drivers/GD32E23x/Source/gd32e23x_timer.c ****         break;
 3461              		.loc 1 1448 9 is_stmt 1 view .LVU910
 3462 012a 036A     		ldr	r3, [r0, #32]
1448:Drivers/GD32E23x/Source/gd32e23x_timer.c ****         break;
 3463              		.loc 1 1448 36 is_stmt 0 view .LVU911
 3464 012c 40F20014 		movw	r4, #256
 3465 0130 2343     		orrs	r3, r4
 3466 0132 0362     		str	r3, [r0, #32]
1449:Drivers/GD32E23x/Source/gd32e23x_timer.c ****     /* configure TIMER_CH_3 */
 3467              		.loc 1 1449 9 is_stmt 1 view .LVU912
 3468 0134 D7E7     		b	.L198
 3469              	.L201:
 3470 0136 C046     		.align	2
 3471              	.L200:
 3472 0138 FFFCFFFF 		.word	-769
 3473 013c FF0FFFFF 		.word	-61441
 3474 0140 FFEFFFFF 		.word	-4097
 3475 0144 FF5FFFFF 		.word	-40961
 3476 0148 FFFEFFFF 		.word	-257
 3477 014c FFF5FFFF 		.word	-2561
 3478              		.cfi_endproc
 3479              	.LFE113:
 3481              		.section	.text.timer_channel_capture_value_register_read,"ax",%progbits
 3482              		.align	1
 3483              		.global	timer_channel_capture_value_register_read
 3484              		.syntax unified
 3485              		.code	16
 3486              		.thumb_func
 3488              	timer_channel_capture_value_register_read:
 3489              	.LVL204:
 3490              	.LFB115:
1522:Drivers/GD32E23x/Source/gd32e23x_timer.c **** 
1523:Drivers/GD32E23x/Source/gd32e23x_timer.c **** /*!
1524:Drivers/GD32E23x/Source/gd32e23x_timer.c ****     \brief      read TIMER channel capture compare register value
1525:Drivers/GD32E23x/Source/gd32e23x_timer.c ****     \param[in]  timer_periph: please refer to the following parameters
1526:Drivers/GD32E23x/Source/gd32e23x_timer.c ****     \param[in]  channel: 
1527:Drivers/GD32E23x/Source/gd32e23x_timer.c ****                 only one parameter can be selected which is shown as below:
1528:Drivers/GD32E23x/Source/gd32e23x_timer.c ****       \arg        TIMER_CH_0: TIMER channel0(TIMERx(x=0,2,13..16))
1529:Drivers/GD32E23x/Source/gd32e23x_timer.c ****       \arg        TIMER_CH_1: TIMER channel1(TIMERx(x=0,2,14))
1530:Drivers/GD32E23x/Source/gd32e23x_timer.c ****       \arg        TIMER_CH_2: TIMER channel2(TIMERx(x=0,2))
1531:Drivers/GD32E23x/Source/gd32e23x_timer.c ****       \arg        TIMER_CH_3: TIMER channel3(TIMERx(x=0,2))
1532:Drivers/GD32E23x/Source/gd32e23x_timer.c ****     \param[out] none
1533:Drivers/GD32E23x/Source/gd32e23x_timer.c ****     \retval     channel capture compare register value
1534:Drivers/GD32E23x/Source/gd32e23x_timer.c **** */
1535:Drivers/GD32E23x/Source/gd32e23x_timer.c **** uint32_t timer_channel_capture_value_register_read(uint32_t timer_periph, uint16_t channel)
1536:Drivers/GD32E23x/Source/gd32e23x_timer.c **** {
 3491              		.loc 1 1536 1 view -0
 3492              		.cfi_startproc
 3493              		@ args = 0, pretend = 0, frame = 0
 3494              		@ frame_needed = 0, uses_anonymous_args = 0
 3495              		@ link register save eliminated.
1537:Drivers/GD32E23x/Source/gd32e23x_timer.c ****     uint32_t count_value = 0U;
 3496              		.loc 1 1537 5 view .LVU914
1538:Drivers/GD32E23x/Source/gd32e23x_timer.c **** 
1539:Drivers/GD32E23x/Source/gd32e23x_timer.c ****     switch(channel){
 3497              		.loc 1 1539 5 view .LVU915
ARM GAS  D:\noval\Temp\cck0Iw0b.s 			page 94


 3498 0000 0229     		cmp	r1, #2
 3499 0002 0FD0     		beq	.L203
 3500 0004 06D8     		bhi	.L204
 3501 0006 59B1     		cbz	r1, .L205
 3502 0008 0129     		cmp	r1, #1
 3503 000a 01D1     		bne	.L209
1540:Drivers/GD32E23x/Source/gd32e23x_timer.c ****     /* read TIMER channel 0 capture compare register value */
1541:Drivers/GD32E23x/Source/gd32e23x_timer.c ****     case TIMER_CH_0:
1542:Drivers/GD32E23x/Source/gd32e23x_timer.c ****         count_value = TIMER_CH0CV(timer_periph);
1543:Drivers/GD32E23x/Source/gd32e23x_timer.c ****         break;
1544:Drivers/GD32E23x/Source/gd32e23x_timer.c ****     /* read TIMER channel 1 capture compare register value */
1545:Drivers/GD32E23x/Source/gd32e23x_timer.c ****     case TIMER_CH_1:
1546:Drivers/GD32E23x/Source/gd32e23x_timer.c ****         count_value = TIMER_CH1CV(timer_periph);
 3504              		.loc 1 1546 9 view .LVU916
 3505              		.loc 1 1546 21 is_stmt 0 view .LVU917
 3506 000c 806B     		ldr	r0, [r0, #56]
 3507              	.LVL205:
1547:Drivers/GD32E23x/Source/gd32e23x_timer.c ****         break;
 3508              		.loc 1 1547 9 is_stmt 1 view .LVU918
 3509 000e 08E0     		b	.L202
 3510              	.LVL206:
 3511              	.L209:
1539:Drivers/GD32E23x/Source/gd32e23x_timer.c ****     /* read TIMER channel 0 capture compare register value */
 3512              		.loc 1 1539 5 is_stmt 0 view .LVU919
 3513 0010 0020     		movs	r0, #0
 3514              	.LVL207:
1539:Drivers/GD32E23x/Source/gd32e23x_timer.c ****     /* read TIMER channel 0 capture compare register value */
 3515              		.loc 1 1539 5 view .LVU920
 3516 0012 06E0     		b	.L202
 3517              	.LVL208:
 3518              	.L204:
1539:Drivers/GD32E23x/Source/gd32e23x_timer.c ****     /* read TIMER channel 0 capture compare register value */
 3519              		.loc 1 1539 5 view .LVU921
 3520 0014 0329     		cmp	r1, #3
 3521 0016 01D1     		bne	.L210
1548:Drivers/GD32E23x/Source/gd32e23x_timer.c ****     /* read TIMER channel 2 capture compare register value */
1549:Drivers/GD32E23x/Source/gd32e23x_timer.c ****     case TIMER_CH_2:
1550:Drivers/GD32E23x/Source/gd32e23x_timer.c ****         count_value = TIMER_CH2CV(timer_periph);
1551:Drivers/GD32E23x/Source/gd32e23x_timer.c ****         break;
1552:Drivers/GD32E23x/Source/gd32e23x_timer.c ****     /* read TIMER channel 3 capture compare register value */
1553:Drivers/GD32E23x/Source/gd32e23x_timer.c ****     case TIMER_CH_3:
1554:Drivers/GD32E23x/Source/gd32e23x_timer.c ****         count_value = TIMER_CH3CV(timer_periph);
 3522              		.loc 1 1554 9 is_stmt 1 view .LVU922
 3523              		.loc 1 1554 21 is_stmt 0 view .LVU923
 3524 0018 006C     		ldr	r0, [r0, #64]
 3525              	.LVL209:
1555:Drivers/GD32E23x/Source/gd32e23x_timer.c ****         break;
 3526              		.loc 1 1555 9 is_stmt 1 view .LVU924
1556:Drivers/GD32E23x/Source/gd32e23x_timer.c ****     default:
1557:Drivers/GD32E23x/Source/gd32e23x_timer.c ****         break;
1558:Drivers/GD32E23x/Source/gd32e23x_timer.c ****     }
1559:Drivers/GD32E23x/Source/gd32e23x_timer.c ****     return (count_value);
 3527              		.loc 1 1559 5 view .LVU925
 3528              		.loc 1 1559 12 is_stmt 0 view .LVU926
 3529 001a 02E0     		b	.L202
 3530              	.LVL210:
 3531              	.L210:
ARM GAS  D:\noval\Temp\cck0Iw0b.s 			page 95


1539:Drivers/GD32E23x/Source/gd32e23x_timer.c ****     /* read TIMER channel 0 capture compare register value */
 3532              		.loc 1 1539 5 view .LVU927
 3533 001c 0020     		movs	r0, #0
 3534              	.LVL211:
1539:Drivers/GD32E23x/Source/gd32e23x_timer.c ****     /* read TIMER channel 0 capture compare register value */
 3535              		.loc 1 1539 5 view .LVU928
 3536 001e 00E0     		b	.L202
 3537              	.LVL212:
 3538              	.L205:
1542:Drivers/GD32E23x/Source/gd32e23x_timer.c ****         break;
 3539              		.loc 1 1542 9 is_stmt 1 view .LVU929
1542:Drivers/GD32E23x/Source/gd32e23x_timer.c ****         break;
 3540              		.loc 1 1542 21 is_stmt 0 view .LVU930
 3541 0020 406B     		ldr	r0, [r0, #52]
 3542              	.LVL213:
1543:Drivers/GD32E23x/Source/gd32e23x_timer.c ****     /* read TIMER channel 1 capture compare register value */
 3543              		.loc 1 1543 9 is_stmt 1 view .LVU931
 3544              	.L202:
1560:Drivers/GD32E23x/Source/gd32e23x_timer.c **** }
 3545              		.loc 1 1560 1 is_stmt 0 view .LVU932
 3546              		@ sp needed
 3547 0022 7047     		bx	lr
 3548              	.LVL214:
 3549              	.L203:
1550:Drivers/GD32E23x/Source/gd32e23x_timer.c ****         break;
 3550              		.loc 1 1550 9 is_stmt 1 view .LVU933
1550:Drivers/GD32E23x/Source/gd32e23x_timer.c ****         break;
 3551              		.loc 1 1550 21 is_stmt 0 view .LVU934
 3552 0024 C06B     		ldr	r0, [r0, #60]
 3553              	.LVL215:
1551:Drivers/GD32E23x/Source/gd32e23x_timer.c ****     /* read TIMER channel 3 capture compare register value */
 3554              		.loc 1 1551 9 is_stmt 1 view .LVU935
 3555 0026 FCE7     		b	.L202
 3556              		.cfi_endproc
 3557              	.LFE115:
 3559              		.section	.text.timer_input_pwm_capture_config,"ax",%progbits
 3560              		.align	1
 3561              		.global	timer_input_pwm_capture_config
 3562              		.syntax unified
 3563              		.code	16
 3564              		.thumb_func
 3566              	timer_input_pwm_capture_config:
 3567              	.LVL216:
 3568              	.LFB116:
1561:Drivers/GD32E23x/Source/gd32e23x_timer.c **** 
1562:Drivers/GD32E23x/Source/gd32e23x_timer.c **** /*!
1563:Drivers/GD32E23x/Source/gd32e23x_timer.c ****     \brief      configure TIMER input pwm capture function 
1564:Drivers/GD32E23x/Source/gd32e23x_timer.c ****     \param[in]  timer_periph: TIMERx(x=0,2,14)
1565:Drivers/GD32E23x/Source/gd32e23x_timer.c ****     \param[in]  channel: 
1566:Drivers/GD32E23x/Source/gd32e23x_timer.c ****                 only one parameter can be selected which is shown as below:
1567:Drivers/GD32E23x/Source/gd32e23x_timer.c ****       \arg        TIMER_CH_0: TIMER channel0
1568:Drivers/GD32E23x/Source/gd32e23x_timer.c ****       \arg        TIMER_CH_1: TIMER channel1
1569:Drivers/GD32E23x/Source/gd32e23x_timer.c ****      \param[in]  icpwm:TIMER channel intput pwm parameter struct
1570:Drivers/GD32E23x/Source/gd32e23x_timer.c ****                  icpolarity: TIMER_IC_POLARITY_RISING,TIMER_IC_POLARITY_FALLING
1571:Drivers/GD32E23x/Source/gd32e23x_timer.c ****                  icselection: TIMER_IC_SELECTION_DIRECTTI,TIMER_IC_SELECTION_INDIRECTTI
1572:Drivers/GD32E23x/Source/gd32e23x_timer.c ****                  icprescaler: TIMER_IC_PSC_DIV1,TIMER_IC_PSC_DIV2,TIMER_IC_PSC_DIV4,TIMER_IC_PSC_DI
1573:Drivers/GD32E23x/Source/gd32e23x_timer.c ****                  icfilter: 0~15
ARM GAS  D:\noval\Temp\cck0Iw0b.s 			page 96


1574:Drivers/GD32E23x/Source/gd32e23x_timer.c ****     \param[out] none
1575:Drivers/GD32E23x/Source/gd32e23x_timer.c ****     \retval     none
1576:Drivers/GD32E23x/Source/gd32e23x_timer.c **** */
1577:Drivers/GD32E23x/Source/gd32e23x_timer.c **** void timer_input_pwm_capture_config(uint32_t timer_periph, uint16_t channel, timer_ic_parameter_str
1578:Drivers/GD32E23x/Source/gd32e23x_timer.c **** {
 3569              		.loc 1 1578 1 view -0
 3570              		.cfi_startproc
 3571              		@ args = 0, pretend = 0, frame = 0
 3572              		@ frame_needed = 0, uses_anonymous_args = 0
 3573              		.loc 1 1578 1 is_stmt 0 view .LVU937
 3574 0000 F8B5     		push	{r3, r4, r5, r6, r7, lr}
 3575              	.LCFI4:
 3576              		.cfi_def_cfa_offset 24
 3577              		.cfi_offset 3, -24
 3578              		.cfi_offset 4, -20
 3579              		.cfi_offset 5, -16
 3580              		.cfi_offset 6, -12
 3581              		.cfi_offset 7, -8
 3582              		.cfi_offset 14, -4
 3583 0002 0400     		movs	r4, r0
 3584 0004 1500     		movs	r5, r2
1579:Drivers/GD32E23x/Source/gd32e23x_timer.c ****     uint16_t icpolarity  = 0x0U;
 3585              		.loc 1 1579 5 is_stmt 1 view .LVU938
 3586              	.LVL217:
1580:Drivers/GD32E23x/Source/gd32e23x_timer.c ****     uint16_t icselection = 0x0U;
 3587              		.loc 1 1580 5 view .LVU939
1581:Drivers/GD32E23x/Source/gd32e23x_timer.c **** 
1582:Drivers/GD32E23x/Source/gd32e23x_timer.c ****     /* Set channel input polarity */
1583:Drivers/GD32E23x/Source/gd32e23x_timer.c ****     if(TIMER_IC_POLARITY_RISING == icpwm->icpolarity){
 3588              		.loc 1 1583 5 view .LVU940
 3589              		.loc 1 1583 41 is_stmt 0 view .LVU941
 3590 0006 1388     		ldrh	r3, [r2]
 3591              		.loc 1 1583 7 view .LVU942
 3592 0008 002B     		cmp	r3, #0
 3593 000a 51D1     		bne	.L216
1584:Drivers/GD32E23x/Source/gd32e23x_timer.c ****         icpolarity = TIMER_IC_POLARITY_FALLING;
 3594              		.loc 1 1584 20 view .LVU943
 3595 000c 0227     		movs	r7, #2
 3596              	.L212:
 3597              	.LVL218:
1585:Drivers/GD32E23x/Source/gd32e23x_timer.c ****     }else{
1586:Drivers/GD32E23x/Source/gd32e23x_timer.c ****         icpolarity = TIMER_IC_POLARITY_RISING;
1587:Drivers/GD32E23x/Source/gd32e23x_timer.c ****     }
1588:Drivers/GD32E23x/Source/gd32e23x_timer.c **** 
1589:Drivers/GD32E23x/Source/gd32e23x_timer.c ****     /* Set channel input mode selection */
1590:Drivers/GD32E23x/Source/gd32e23x_timer.c ****     if(TIMER_IC_SELECTION_DIRECTTI == icpwm->icselection){
 3598              		.loc 1 1590 5 is_stmt 1 view .LVU944
 3599              		.loc 1 1590 44 is_stmt 0 view .LVU945
 3600 000e 6B88     		ldrh	r3, [r5, #2]
 3601              		.loc 1 1590 7 view .LVU946
 3602 0010 012B     		cmp	r3, #1
 3603 0012 4FD0     		beq	.L218
1591:Drivers/GD32E23x/Source/gd32e23x_timer.c ****         icselection = TIMER_IC_SELECTION_INDIRECTTI;
1592:Drivers/GD32E23x/Source/gd32e23x_timer.c ****     }else{
1593:Drivers/GD32E23x/Source/gd32e23x_timer.c ****         icselection = TIMER_IC_SELECTION_DIRECTTI;
 3604              		.loc 1 1593 21 view .LVU947
 3605 0014 0126     		movs	r6, #1
ARM GAS  D:\noval\Temp\cck0Iw0b.s 			page 97


 3606              	.L213:
 3607              	.LVL219:
1594:Drivers/GD32E23x/Source/gd32e23x_timer.c ****     }
1595:Drivers/GD32E23x/Source/gd32e23x_timer.c **** 
1596:Drivers/GD32E23x/Source/gd32e23x_timer.c ****     if(TIMER_CH_0 == channel){
 3608              		.loc 1 1596 5 is_stmt 1 view .LVU948
 3609              		.loc 1 1596 7 is_stmt 0 view .LVU949
 3610 0016 0029     		cmp	r1, #0
 3611 0018 4ED1     		bne	.L214
1597:Drivers/GD32E23x/Source/gd32e23x_timer.c ****         /* reset the CH0EN bit */
1598:Drivers/GD32E23x/Source/gd32e23x_timer.c ****         TIMER_CHCTL2(timer_periph) &= (~(uint32_t)TIMER_CHCTL2_CH0EN);
 3612              		.loc 1 1598 9 is_stmt 1 view .LVU950
 3613 001a 236A     		ldr	r3, [r4, #32]
 3614              		.loc 1 1598 36 is_stmt 0 view .LVU951
 3615 001c 0131     		adds	r1, r1, #1
 3616              	.LVL220:
 3617              		.loc 1 1598 36 view .LVU952
 3618 001e 8B43     		bics	r3, r1
 3619 0020 2362     		str	r3, [r4, #32]
1599:Drivers/GD32E23x/Source/gd32e23x_timer.c ****         /* reset the CH0P and CH0NP bits */
1600:Drivers/GD32E23x/Source/gd32e23x_timer.c ****         TIMER_CHCTL2(timer_periph) &= (~(uint32_t)(TIMER_CHCTL2_CH0P|TIMER_CHCTL2_CH0NP));
 3620              		.loc 1 1600 9 is_stmt 1 view .LVU953
 3621 0022 236A     		ldr	r3, [r4, #32]
 3622              		.loc 1 1600 36 is_stmt 0 view .LVU954
 3623 0024 0A22     		movs	r2, #10
 3624              	.LVL221:
 3625              		.loc 1 1600 36 view .LVU955
 3626 0026 9343     		bics	r3, r2
 3627 0028 2362     		str	r3, [r4, #32]
1601:Drivers/GD32E23x/Source/gd32e23x_timer.c ****         /* set the CH0P and CH0NP bits */
1602:Drivers/GD32E23x/Source/gd32e23x_timer.c ****         TIMER_CHCTL2(timer_periph) |= (uint32_t)(icpwm->icpolarity);
 3628              		.loc 1 1602 9 is_stmt 1 view .LVU956
 3629 002a 236A     		ldr	r3, [r4, #32]
 3630              		.loc 1 1602 55 is_stmt 0 view .LVU957
 3631 002c 2A88     		ldrh	r2, [r5]
 3632              		.loc 1 1602 36 view .LVU958
 3633 002e 1343     		orrs	r3, r2
 3634 0030 2362     		str	r3, [r4, #32]
1603:Drivers/GD32E23x/Source/gd32e23x_timer.c ****         /* reset the CH0MS bit */
1604:Drivers/GD32E23x/Source/gd32e23x_timer.c ****         TIMER_CHCTL0(timer_periph) &= (~(uint32_t)TIMER_CHCTL0_CH0MS);
 3635              		.loc 1 1604 9 is_stmt 1 view .LVU959
 3636 0032 A369     		ldr	r3, [r4, #24]
 3637              		.loc 1 1604 36 is_stmt 0 view .LVU960
 3638 0034 0322     		movs	r2, #3
 3639 0036 9343     		bics	r3, r2
 3640 0038 A361     		str	r3, [r4, #24]
1605:Drivers/GD32E23x/Source/gd32e23x_timer.c ****         /* set the CH0MS bit */
1606:Drivers/GD32E23x/Source/gd32e23x_timer.c ****         TIMER_CHCTL0(timer_periph) |= (uint32_t)(icpwm->icselection);
 3641              		.loc 1 1606 9 is_stmt 1 view .LVU961
 3642 003a A369     		ldr	r3, [r4, #24]
 3643              		.loc 1 1606 55 is_stmt 0 view .LVU962
 3644 003c 6A88     		ldrh	r2, [r5, #2]
 3645              		.loc 1 1606 36 view .LVU963
 3646 003e 1343     		orrs	r3, r2
 3647 0040 A361     		str	r3, [r4, #24]
1607:Drivers/GD32E23x/Source/gd32e23x_timer.c ****         /* reset the CH0CAPFLT bit */
1608:Drivers/GD32E23x/Source/gd32e23x_timer.c ****         TIMER_CHCTL0(timer_periph) &= (~(uint32_t)TIMER_CHCTL0_CH0CAPFLT);
ARM GAS  D:\noval\Temp\cck0Iw0b.s 			page 98


 3648              		.loc 1 1608 9 is_stmt 1 view .LVU964
 3649 0042 A369     		ldr	r3, [r4, #24]
 3650              		.loc 1 1608 36 is_stmt 0 view .LVU965
 3651 0044 F022     		movs	r2, #240
 3652 0046 9343     		bics	r3, r2
 3653 0048 A361     		str	r3, [r4, #24]
1609:Drivers/GD32E23x/Source/gd32e23x_timer.c ****         /* set the CH0CAPFLT bit */
1610:Drivers/GD32E23x/Source/gd32e23x_timer.c ****         TIMER_CHCTL0(timer_periph) |= ((uint32_t)(icpwm->icfilter) << 4U);
 3654              		.loc 1 1610 9 is_stmt 1 view .LVU966
 3655 004a A369     		ldr	r3, [r4, #24]
 3656              		.loc 1 1610 56 is_stmt 0 view .LVU967
 3657 004c EA88     		ldrh	r2, [r5, #6]
 3658              		.loc 1 1610 68 view .LVU968
 3659 004e 1201     		lsls	r2, r2, #4
 3660              		.loc 1 1610 36 view .LVU969
 3661 0050 1343     		orrs	r3, r2
 3662 0052 A361     		str	r3, [r4, #24]
1611:Drivers/GD32E23x/Source/gd32e23x_timer.c ****         /* set the CH0EN bit */
1612:Drivers/GD32E23x/Source/gd32e23x_timer.c ****         TIMER_CHCTL2(timer_periph) |= (uint32_t)TIMER_CHCTL2_CH0EN;
 3663              		.loc 1 1612 9 is_stmt 1 view .LVU970
 3664 0054 236A     		ldr	r3, [r4, #32]
 3665              		.loc 1 1612 36 is_stmt 0 view .LVU971
 3666 0056 0B43     		orrs	r3, r1
 3667 0058 2362     		str	r3, [r4, #32]
1613:Drivers/GD32E23x/Source/gd32e23x_timer.c ****         /* configure TIMER channel input capture prescaler value */
1614:Drivers/GD32E23x/Source/gd32e23x_timer.c ****         timer_channel_input_capture_prescaler_config(timer_periph,TIMER_CH_0,(uint16_t)(icpwm->icpr
 3668              		.loc 1 1614 9 is_stmt 1 view .LVU972
 3669              		.loc 1 1614 94 is_stmt 0 view .LVU973
 3670 005a AA88     		ldrh	r2, [r5, #4]
 3671              		.loc 1 1614 9 view .LVU974
 3672 005c 0021     		movs	r1, #0
 3673 005e 2000     		movs	r0, r4
 3674              	.LVL222:
 3675              		.loc 1 1614 9 view .LVU975
 3676 0060 FFF7FEFF 		bl	timer_channel_input_capture_prescaler_config
 3677              	.LVL223:
1615:Drivers/GD32E23x/Source/gd32e23x_timer.c **** 
1616:Drivers/GD32E23x/Source/gd32e23x_timer.c ****         /* reset the CH1EN bit */
1617:Drivers/GD32E23x/Source/gd32e23x_timer.c ****         TIMER_CHCTL2(timer_periph) &= (~(uint32_t)TIMER_CHCTL2_CH1EN);
 3678              		.loc 1 1617 9 is_stmt 1 view .LVU976
 3679 0064 236A     		ldr	r3, [r4, #32]
 3680              		.loc 1 1617 36 is_stmt 0 view .LVU977
 3681 0066 1021     		movs	r1, #16
 3682 0068 8B43     		bics	r3, r1
 3683 006a 2362     		str	r3, [r4, #32]
1618:Drivers/GD32E23x/Source/gd32e23x_timer.c ****         /* reset the CH1P and CH1NP bits */
1619:Drivers/GD32E23x/Source/gd32e23x_timer.c ****         TIMER_CHCTL2(timer_periph) &= (~(uint32_t)(TIMER_CHCTL2_CH1P|TIMER_CHCTL2_CH1NP));
 3684              		.loc 1 1619 9 is_stmt 1 view .LVU978
 3685 006c 236A     		ldr	r3, [r4, #32]
 3686              		.loc 1 1619 36 is_stmt 0 view .LVU979
 3687 006e A022     		movs	r2, #160
 3688 0070 9343     		bics	r3, r2
 3689 0072 2362     		str	r3, [r4, #32]
1620:Drivers/GD32E23x/Source/gd32e23x_timer.c ****         /* set the CH1P and CH1NP bits */
1621:Drivers/GD32E23x/Source/gd32e23x_timer.c ****         TIMER_CHCTL2(timer_periph) |= (uint32_t)((uint32_t)icpolarity << 4U);
 3690              		.loc 1 1621 9 is_stmt 1 view .LVU980
 3691 0074 236A     		ldr	r3, [r4, #32]
ARM GAS  D:\noval\Temp\cck0Iw0b.s 			page 99


 3692              		.loc 1 1621 39 is_stmt 0 view .LVU981
 3693 0076 3F01     		lsls	r7, r7, #4
 3694              	.LVL224:
 3695              		.loc 1 1621 36 view .LVU982
 3696 0078 1F43     		orrs	r7, r3
 3697 007a 2762     		str	r7, [r4, #32]
1622:Drivers/GD32E23x/Source/gd32e23x_timer.c ****         /* reset the CH1MS bit */
1623:Drivers/GD32E23x/Source/gd32e23x_timer.c ****         TIMER_CHCTL0(timer_periph) &= (~(uint32_t)TIMER_CHCTL0_CH1MS);
 3698              		.loc 1 1623 9 is_stmt 1 view .LVU983
 3699 007c A369     		ldr	r3, [r4, #24]
 3700              		.loc 1 1623 36 is_stmt 0 view .LVU984
 3701 007e 344A     		ldr	r2, .L219
 3702 0080 1340     		ands	r3, r2
 3703 0082 A361     		str	r3, [r4, #24]
1624:Drivers/GD32E23x/Source/gd32e23x_timer.c ****         /* set the CH1MS bit */
1625:Drivers/GD32E23x/Source/gd32e23x_timer.c ****         TIMER_CHCTL0(timer_periph) |= (uint32_t)((uint32_t)icselection << 8U);
 3704              		.loc 1 1625 9 is_stmt 1 view .LVU985
 3705 0084 A369     		ldr	r3, [r4, #24]
 3706              		.loc 1 1625 39 is_stmt 0 view .LVU986
 3707 0086 3602     		lsls	r6, r6, #8
 3708              	.LVL225:
 3709              		.loc 1 1625 36 view .LVU987
 3710 0088 1E43     		orrs	r6, r3
 3711 008a A661     		str	r6, [r4, #24]
1626:Drivers/GD32E23x/Source/gd32e23x_timer.c ****         /* reset the CH1CAPFLT bit */
1627:Drivers/GD32E23x/Source/gd32e23x_timer.c ****         TIMER_CHCTL0(timer_periph) &= (~(uint32_t)TIMER_CHCTL0_CH1CAPFLT);
 3712              		.loc 1 1627 9 is_stmt 1 view .LVU988
 3713 008c A369     		ldr	r3, [r4, #24]
 3714              		.loc 1 1627 36 is_stmt 0 view .LVU989
 3715 008e 314A     		ldr	r2, .L219+4
 3716 0090 1340     		ands	r3, r2
 3717 0092 A361     		str	r3, [r4, #24]
1628:Drivers/GD32E23x/Source/gd32e23x_timer.c ****         /* set the CH1CAPFLT bit */
1629:Drivers/GD32E23x/Source/gd32e23x_timer.c ****         TIMER_CHCTL0(timer_periph) |= (uint32_t)((uint32_t)(icpwm->icfilter) << 12U);
 3718              		.loc 1 1629 9 is_stmt 1 view .LVU990
 3719 0094 A369     		ldr	r3, [r4, #24]
 3720              		.loc 1 1629 66 is_stmt 0 view .LVU991
 3721 0096 EA88     		ldrh	r2, [r5, #6]
 3722              		.loc 1 1629 39 view .LVU992
 3723 0098 1203     		lsls	r2, r2, #12
 3724              		.loc 1 1629 36 view .LVU993
 3725 009a 1343     		orrs	r3, r2
 3726 009c A361     		str	r3, [r4, #24]
1630:Drivers/GD32E23x/Source/gd32e23x_timer.c ****         /* set the CH1EN bit */
1631:Drivers/GD32E23x/Source/gd32e23x_timer.c ****         TIMER_CHCTL2(timer_periph) |= (uint32_t)TIMER_CHCTL2_CH1EN;
 3727              		.loc 1 1631 9 is_stmt 1 view .LVU994
 3728 009e 236A     		ldr	r3, [r4, #32]
 3729              		.loc 1 1631 36 is_stmt 0 view .LVU995
 3730 00a0 0B43     		orrs	r3, r1
 3731 00a2 2362     		str	r3, [r4, #32]
1632:Drivers/GD32E23x/Source/gd32e23x_timer.c ****         /* configure TIMER channel input capture prescaler value */
1633:Drivers/GD32E23x/Source/gd32e23x_timer.c ****         timer_channel_input_capture_prescaler_config(timer_periph,TIMER_CH_1,(uint16_t)(icpwm->icpr
 3732              		.loc 1 1633 9 is_stmt 1 view .LVU996
 3733              		.loc 1 1633 94 is_stmt 0 view .LVU997
 3734 00a4 AA88     		ldrh	r2, [r5, #4]
 3735              		.loc 1 1633 9 view .LVU998
 3736 00a6 0F39     		subs	r1, r1, #15
ARM GAS  D:\noval\Temp\cck0Iw0b.s 			page 100


 3737 00a8 2000     		movs	r0, r4
 3738 00aa FFF7FEFF 		bl	timer_channel_input_capture_prescaler_config
 3739              	.LVL226:
 3740              	.L211:
1634:Drivers/GD32E23x/Source/gd32e23x_timer.c ****     }else{
1635:Drivers/GD32E23x/Source/gd32e23x_timer.c ****         /* reset the CH1EN bit */
1636:Drivers/GD32E23x/Source/gd32e23x_timer.c ****         TIMER_CHCTL2(timer_periph) &= (~(uint32_t)TIMER_CHCTL2_CH1EN);
1637:Drivers/GD32E23x/Source/gd32e23x_timer.c ****         /* reset the CH1P and CH1NP bits */
1638:Drivers/GD32E23x/Source/gd32e23x_timer.c ****         TIMER_CHCTL2(timer_periph) &= (~(uint32_t)(TIMER_CHCTL2_CH1P|TIMER_CHCTL2_CH1NP));
1639:Drivers/GD32E23x/Source/gd32e23x_timer.c ****         /* set the CH1P and CH1NP bits */
1640:Drivers/GD32E23x/Source/gd32e23x_timer.c ****         TIMER_CHCTL2(timer_periph) |= (uint32_t)((uint32_t)(icpwm->icpolarity) << 4U);
1641:Drivers/GD32E23x/Source/gd32e23x_timer.c ****         /* reset the CH1MS bit */
1642:Drivers/GD32E23x/Source/gd32e23x_timer.c ****         TIMER_CHCTL0(timer_periph) &= (~(uint32_t)TIMER_CHCTL0_CH1MS);
1643:Drivers/GD32E23x/Source/gd32e23x_timer.c ****         /* set the CH1MS bit */
1644:Drivers/GD32E23x/Source/gd32e23x_timer.c ****         TIMER_CHCTL0(timer_periph) |= (uint32_t)((uint32_t)(icpwm->icselection) << 8U);
1645:Drivers/GD32E23x/Source/gd32e23x_timer.c ****         /* reset the CH1CAPFLT bit */
1646:Drivers/GD32E23x/Source/gd32e23x_timer.c ****         TIMER_CHCTL0(timer_periph) &= (~(uint32_t)TIMER_CHCTL0_CH1CAPFLT);
1647:Drivers/GD32E23x/Source/gd32e23x_timer.c ****         /* set the CH1CAPFLT bit */
1648:Drivers/GD32E23x/Source/gd32e23x_timer.c ****         TIMER_CHCTL0(timer_periph) |= (uint32_t)((uint32_t)(icpwm->icfilter) << 12U);
1649:Drivers/GD32E23x/Source/gd32e23x_timer.c ****         /* set the CH1EN bit */
1650:Drivers/GD32E23x/Source/gd32e23x_timer.c ****         TIMER_CHCTL2(timer_periph) |= (uint32_t)TIMER_CHCTL2_CH1EN;
1651:Drivers/GD32E23x/Source/gd32e23x_timer.c ****         /* configure TIMER channel input capture prescaler value */
1652:Drivers/GD32E23x/Source/gd32e23x_timer.c ****         timer_channel_input_capture_prescaler_config(timer_periph, TIMER_CH_1, (uint16_t)(icpwm->ic
1653:Drivers/GD32E23x/Source/gd32e23x_timer.c **** 
1654:Drivers/GD32E23x/Source/gd32e23x_timer.c ****         /* reset the CH0EN bit */
1655:Drivers/GD32E23x/Source/gd32e23x_timer.c ****         TIMER_CHCTL2(timer_periph) &= (~(uint32_t)TIMER_CHCTL2_CH0EN);
1656:Drivers/GD32E23x/Source/gd32e23x_timer.c ****         /* reset the CH0P and CH0NP bits */
1657:Drivers/GD32E23x/Source/gd32e23x_timer.c ****         TIMER_CHCTL2(timer_periph) &= (~(uint32_t)(TIMER_CHCTL2_CH0P|TIMER_CHCTL2_CH0NP));
1658:Drivers/GD32E23x/Source/gd32e23x_timer.c ****         /* set the CH0P and CH0NP bits */
1659:Drivers/GD32E23x/Source/gd32e23x_timer.c ****         TIMER_CHCTL2(timer_periph) |= (uint32_t)icpolarity;
1660:Drivers/GD32E23x/Source/gd32e23x_timer.c ****         /* reset the CH0MS bit */
1661:Drivers/GD32E23x/Source/gd32e23x_timer.c ****         TIMER_CHCTL0(timer_periph) &= (~(uint32_t)TIMER_CHCTL0_CH0MS);
1662:Drivers/GD32E23x/Source/gd32e23x_timer.c ****         /* set the CH0MS bit */
1663:Drivers/GD32E23x/Source/gd32e23x_timer.c ****         TIMER_CHCTL0(timer_periph) |= (uint32_t)icselection;
1664:Drivers/GD32E23x/Source/gd32e23x_timer.c ****         /* reset the CH0CAPFLT bit */
1665:Drivers/GD32E23x/Source/gd32e23x_timer.c ****         TIMER_CHCTL0(timer_periph) &= (~(uint32_t)TIMER_CHCTL0_CH0CAPFLT);
1666:Drivers/GD32E23x/Source/gd32e23x_timer.c ****         /* set the CH0CAPFLT bit */
1667:Drivers/GD32E23x/Source/gd32e23x_timer.c ****         TIMER_CHCTL0(timer_periph) |= ((uint32_t)(icpwm->icfilter) << 4U);
1668:Drivers/GD32E23x/Source/gd32e23x_timer.c ****         /* set the CH0EN bit */
1669:Drivers/GD32E23x/Source/gd32e23x_timer.c ****         TIMER_CHCTL2(timer_periph) |= (uint32_t)TIMER_CHCTL2_CH0EN;
1670:Drivers/GD32E23x/Source/gd32e23x_timer.c ****         /* configure TIMER channel input capture prescaler value */
1671:Drivers/GD32E23x/Source/gd32e23x_timer.c ****         timer_channel_input_capture_prescaler_config(timer_periph, TIMER_CH_0, (uint16_t)(icpwm->ic
1672:Drivers/GD32E23x/Source/gd32e23x_timer.c ****     }
1673:Drivers/GD32E23x/Source/gd32e23x_timer.c **** }
 3741              		.loc 1 1673 1 view .LVU999
 3742              		@ sp needed
 3743              	.LVL227:
 3744              	.LVL228:
 3745              		.loc 1 1673 1 view .LVU1000
 3746 00ae F8BD     		pop	{r3, r4, r5, r6, r7, pc}
 3747              	.LVL229:
 3748              	.L216:
1586:Drivers/GD32E23x/Source/gd32e23x_timer.c ****     }
 3749              		.loc 1 1586 20 view .LVU1001
 3750 00b0 0027     		movs	r7, #0
 3751 00b2 ACE7     		b	.L212
 3752              	.LVL230:
ARM GAS  D:\noval\Temp\cck0Iw0b.s 			page 101


 3753              	.L218:
1591:Drivers/GD32E23x/Source/gd32e23x_timer.c ****     }else{
 3754              		.loc 1 1591 21 view .LVU1002
 3755 00b4 0226     		movs	r6, #2
 3756 00b6 AEE7     		b	.L213
 3757              	.LVL231:
 3758              	.L214:
1636:Drivers/GD32E23x/Source/gd32e23x_timer.c ****         /* reset the CH1P and CH1NP bits */
 3759              		.loc 1 1636 9 is_stmt 1 view .LVU1003
 3760 00b8 236A     		ldr	r3, [r4, #32]
1636:Drivers/GD32E23x/Source/gd32e23x_timer.c ****         /* reset the CH1P and CH1NP bits */
 3761              		.loc 1 1636 36 is_stmt 0 view .LVU1004
 3762 00ba 1021     		movs	r1, #16
 3763              	.LVL232:
1636:Drivers/GD32E23x/Source/gd32e23x_timer.c ****         /* reset the CH1P and CH1NP bits */
 3764              		.loc 1 1636 36 view .LVU1005
 3765 00bc 8B43     		bics	r3, r1
 3766 00be 2362     		str	r3, [r4, #32]
1638:Drivers/GD32E23x/Source/gd32e23x_timer.c ****         /* set the CH1P and CH1NP bits */
 3767              		.loc 1 1638 9 is_stmt 1 view .LVU1006
 3768 00c0 236A     		ldr	r3, [r4, #32]
1638:Drivers/GD32E23x/Source/gd32e23x_timer.c ****         /* set the CH1P and CH1NP bits */
 3769              		.loc 1 1638 36 is_stmt 0 view .LVU1007
 3770 00c2 A022     		movs	r2, #160
 3771              	.LVL233:
1638:Drivers/GD32E23x/Source/gd32e23x_timer.c ****         /* set the CH1P and CH1NP bits */
 3772              		.loc 1 1638 36 view .LVU1008
 3773 00c4 9343     		bics	r3, r2
 3774 00c6 2362     		str	r3, [r4, #32]
1640:Drivers/GD32E23x/Source/gd32e23x_timer.c ****         /* reset the CH1MS bit */
 3775              		.loc 1 1640 9 is_stmt 1 view .LVU1009
 3776 00c8 236A     		ldr	r3, [r4, #32]
1640:Drivers/GD32E23x/Source/gd32e23x_timer.c ****         /* reset the CH1MS bit */
 3777              		.loc 1 1640 66 is_stmt 0 view .LVU1010
 3778 00ca 2A88     		ldrh	r2, [r5]
1640:Drivers/GD32E23x/Source/gd32e23x_timer.c ****         /* reset the CH1MS bit */
 3779              		.loc 1 1640 39 view .LVU1011
 3780 00cc 1201     		lsls	r2, r2, #4
1640:Drivers/GD32E23x/Source/gd32e23x_timer.c ****         /* reset the CH1MS bit */
 3781              		.loc 1 1640 36 view .LVU1012
 3782 00ce 1343     		orrs	r3, r2
 3783 00d0 2362     		str	r3, [r4, #32]
1642:Drivers/GD32E23x/Source/gd32e23x_timer.c ****         /* set the CH1MS bit */
 3784              		.loc 1 1642 9 is_stmt 1 view .LVU1013
 3785 00d2 A369     		ldr	r3, [r4, #24]
1642:Drivers/GD32E23x/Source/gd32e23x_timer.c ****         /* set the CH1MS bit */
 3786              		.loc 1 1642 36 is_stmt 0 view .LVU1014
 3787 00d4 1E4A     		ldr	r2, .L219
 3788 00d6 1340     		ands	r3, r2
 3789 00d8 A361     		str	r3, [r4, #24]
1644:Drivers/GD32E23x/Source/gd32e23x_timer.c ****         /* reset the CH1CAPFLT bit */
 3790              		.loc 1 1644 9 is_stmt 1 view .LVU1015
 3791 00da A369     		ldr	r3, [r4, #24]
1644:Drivers/GD32E23x/Source/gd32e23x_timer.c ****         /* reset the CH1CAPFLT bit */
 3792              		.loc 1 1644 66 is_stmt 0 view .LVU1016
 3793 00dc 6A88     		ldrh	r2, [r5, #2]
1644:Drivers/GD32E23x/Source/gd32e23x_timer.c ****         /* reset the CH1CAPFLT bit */
ARM GAS  D:\noval\Temp\cck0Iw0b.s 			page 102


 3794              		.loc 1 1644 39 view .LVU1017
 3795 00de 1202     		lsls	r2, r2, #8
1644:Drivers/GD32E23x/Source/gd32e23x_timer.c ****         /* reset the CH1CAPFLT bit */
 3796              		.loc 1 1644 36 view .LVU1018
 3797 00e0 1343     		orrs	r3, r2
 3798 00e2 A361     		str	r3, [r4, #24]
1646:Drivers/GD32E23x/Source/gd32e23x_timer.c ****         /* set the CH1CAPFLT bit */
 3799              		.loc 1 1646 9 is_stmt 1 view .LVU1019
 3800 00e4 A369     		ldr	r3, [r4, #24]
1646:Drivers/GD32E23x/Source/gd32e23x_timer.c ****         /* set the CH1CAPFLT bit */
 3801              		.loc 1 1646 36 is_stmt 0 view .LVU1020
 3802 00e6 1B4A     		ldr	r2, .L219+4
 3803 00e8 1340     		ands	r3, r2
 3804 00ea A361     		str	r3, [r4, #24]
1648:Drivers/GD32E23x/Source/gd32e23x_timer.c ****         /* set the CH1EN bit */
 3805              		.loc 1 1648 9 is_stmt 1 view .LVU1021
 3806 00ec A369     		ldr	r3, [r4, #24]
1648:Drivers/GD32E23x/Source/gd32e23x_timer.c ****         /* set the CH1EN bit */
 3807              		.loc 1 1648 66 is_stmt 0 view .LVU1022
 3808 00ee EA88     		ldrh	r2, [r5, #6]
1648:Drivers/GD32E23x/Source/gd32e23x_timer.c ****         /* set the CH1EN bit */
 3809              		.loc 1 1648 39 view .LVU1023
 3810 00f0 1203     		lsls	r2, r2, #12
1648:Drivers/GD32E23x/Source/gd32e23x_timer.c ****         /* set the CH1EN bit */
 3811              		.loc 1 1648 36 view .LVU1024
 3812 00f2 1343     		orrs	r3, r2
 3813 00f4 A361     		str	r3, [r4, #24]
1650:Drivers/GD32E23x/Source/gd32e23x_timer.c ****         /* configure TIMER channel input capture prescaler value */
 3814              		.loc 1 1650 9 is_stmt 1 view .LVU1025
 3815 00f6 236A     		ldr	r3, [r4, #32]
1650:Drivers/GD32E23x/Source/gd32e23x_timer.c ****         /* configure TIMER channel input capture prescaler value */
 3816              		.loc 1 1650 36 is_stmt 0 view .LVU1026
 3817 00f8 0B43     		orrs	r3, r1
 3818 00fa 2362     		str	r3, [r4, #32]
1652:Drivers/GD32E23x/Source/gd32e23x_timer.c **** 
 3819              		.loc 1 1652 9 is_stmt 1 view .LVU1027
1652:Drivers/GD32E23x/Source/gd32e23x_timer.c **** 
 3820              		.loc 1 1652 96 is_stmt 0 view .LVU1028
 3821 00fc AA88     		ldrh	r2, [r5, #4]
1652:Drivers/GD32E23x/Source/gd32e23x_timer.c **** 
 3822              		.loc 1 1652 9 view .LVU1029
 3823 00fe 0F39     		subs	r1, r1, #15
 3824 0100 2000     		movs	r0, r4
 3825              	.LVL234:
1652:Drivers/GD32E23x/Source/gd32e23x_timer.c **** 
 3826              		.loc 1 1652 9 view .LVU1030
 3827 0102 FFF7FEFF 		bl	timer_channel_input_capture_prescaler_config
 3828              	.LVL235:
1655:Drivers/GD32E23x/Source/gd32e23x_timer.c ****         /* reset the CH0P and CH0NP bits */
 3829              		.loc 1 1655 9 is_stmt 1 view .LVU1031
 3830 0106 236A     		ldr	r3, [r4, #32]
1655:Drivers/GD32E23x/Source/gd32e23x_timer.c ****         /* reset the CH0P and CH0NP bits */
 3831              		.loc 1 1655 36 is_stmt 0 view .LVU1032
 3832 0108 0121     		movs	r1, #1
 3833 010a 8B43     		bics	r3, r1
 3834 010c 2362     		str	r3, [r4, #32]
1657:Drivers/GD32E23x/Source/gd32e23x_timer.c ****         /* set the CH0P and CH0NP bits */
ARM GAS  D:\noval\Temp\cck0Iw0b.s 			page 103


 3835              		.loc 1 1657 9 is_stmt 1 view .LVU1033
 3836 010e 236A     		ldr	r3, [r4, #32]
1657:Drivers/GD32E23x/Source/gd32e23x_timer.c ****         /* set the CH0P and CH0NP bits */
 3837              		.loc 1 1657 36 is_stmt 0 view .LVU1034
 3838 0110 0A22     		movs	r2, #10
 3839 0112 9343     		bics	r3, r2
 3840 0114 2362     		str	r3, [r4, #32]
1659:Drivers/GD32E23x/Source/gd32e23x_timer.c ****         /* reset the CH0MS bit */
 3841              		.loc 1 1659 9 is_stmt 1 view .LVU1035
 3842 0116 236A     		ldr	r3, [r4, #32]
1659:Drivers/GD32E23x/Source/gd32e23x_timer.c ****         /* reset the CH0MS bit */
 3843              		.loc 1 1659 36 is_stmt 0 view .LVU1036
 3844 0118 3B43     		orrs	r3, r7
 3845 011a 2362     		str	r3, [r4, #32]
1661:Drivers/GD32E23x/Source/gd32e23x_timer.c ****         /* set the CH0MS bit */
 3846              		.loc 1 1661 9 is_stmt 1 view .LVU1037
 3847 011c A369     		ldr	r3, [r4, #24]
1661:Drivers/GD32E23x/Source/gd32e23x_timer.c ****         /* set the CH0MS bit */
 3848              		.loc 1 1661 36 is_stmt 0 view .LVU1038
 3849 011e 073A     		subs	r2, r2, #7
 3850 0120 9343     		bics	r3, r2
 3851 0122 A361     		str	r3, [r4, #24]
1663:Drivers/GD32E23x/Source/gd32e23x_timer.c ****         /* reset the CH0CAPFLT bit */
 3852              		.loc 1 1663 9 is_stmt 1 view .LVU1039
 3853 0124 A369     		ldr	r3, [r4, #24]
1663:Drivers/GD32E23x/Source/gd32e23x_timer.c ****         /* reset the CH0CAPFLT bit */
 3854              		.loc 1 1663 36 is_stmt 0 view .LVU1040
 3855 0126 3343     		orrs	r3, r6
 3856 0128 A361     		str	r3, [r4, #24]
1665:Drivers/GD32E23x/Source/gd32e23x_timer.c ****         /* set the CH0CAPFLT bit */
 3857              		.loc 1 1665 9 is_stmt 1 view .LVU1041
 3858 012a A369     		ldr	r3, [r4, #24]
1665:Drivers/GD32E23x/Source/gd32e23x_timer.c ****         /* set the CH0CAPFLT bit */
 3859              		.loc 1 1665 36 is_stmt 0 view .LVU1042
 3860 012c ED32     		adds	r2, r2, #237
 3861 012e 9343     		bics	r3, r2
 3862 0130 A361     		str	r3, [r4, #24]
1667:Drivers/GD32E23x/Source/gd32e23x_timer.c ****         /* set the CH0EN bit */
 3863              		.loc 1 1667 9 is_stmt 1 view .LVU1043
 3864 0132 A369     		ldr	r3, [r4, #24]
1667:Drivers/GD32E23x/Source/gd32e23x_timer.c ****         /* set the CH0EN bit */
 3865              		.loc 1 1667 56 is_stmt 0 view .LVU1044
 3866 0134 EA88     		ldrh	r2, [r5, #6]
1667:Drivers/GD32E23x/Source/gd32e23x_timer.c ****         /* set the CH0EN bit */
 3867              		.loc 1 1667 68 view .LVU1045
 3868 0136 1201     		lsls	r2, r2, #4
1667:Drivers/GD32E23x/Source/gd32e23x_timer.c ****         /* set the CH0EN bit */
 3869              		.loc 1 1667 36 view .LVU1046
 3870 0138 1343     		orrs	r3, r2
 3871 013a A361     		str	r3, [r4, #24]
1669:Drivers/GD32E23x/Source/gd32e23x_timer.c ****         /* configure TIMER channel input capture prescaler value */
 3872              		.loc 1 1669 9 is_stmt 1 view .LVU1047
 3873 013c 236A     		ldr	r3, [r4, #32]
1669:Drivers/GD32E23x/Source/gd32e23x_timer.c ****         /* configure TIMER channel input capture prescaler value */
 3874              		.loc 1 1669 36 is_stmt 0 view .LVU1048
 3875 013e 0B43     		orrs	r3, r1
 3876 0140 2362     		str	r3, [r4, #32]
ARM GAS  D:\noval\Temp\cck0Iw0b.s 			page 104


1671:Drivers/GD32E23x/Source/gd32e23x_timer.c ****     }
 3877              		.loc 1 1671 9 is_stmt 1 view .LVU1049
1671:Drivers/GD32E23x/Source/gd32e23x_timer.c ****     }
 3878              		.loc 1 1671 96 is_stmt 0 view .LVU1050
 3879 0142 AA88     		ldrh	r2, [r5, #4]
1671:Drivers/GD32E23x/Source/gd32e23x_timer.c ****     }
 3880              		.loc 1 1671 9 view .LVU1051
 3881 0144 0021     		movs	r1, #0
 3882 0146 2000     		movs	r0, r4
 3883 0148 FFF7FEFF 		bl	timer_channel_input_capture_prescaler_config
 3884              	.LVL236:
 3885              		.loc 1 1673 1 view .LVU1052
 3886 014c AFE7     		b	.L211
 3887              	.L220:
 3888 014e C046     		.align	2
 3889              	.L219:
 3890 0150 FFFCFFFF 		.word	-769
 3891 0154 FF0FFFFF 		.word	-61441
 3892              		.cfi_endproc
 3893              	.LFE116:
 3895              		.section	.text.timer_hall_mode_config,"ax",%progbits
 3896              		.align	1
 3897              		.global	timer_hall_mode_config
 3898              		.syntax unified
 3899              		.code	16
 3900              		.thumb_func
 3902              	timer_hall_mode_config:
 3903              	.LVL237:
 3904              	.LFB117:
1674:Drivers/GD32E23x/Source/gd32e23x_timer.c **** 
1675:Drivers/GD32E23x/Source/gd32e23x_timer.c **** /*!
1676:Drivers/GD32E23x/Source/gd32e23x_timer.c ****     \brief      configure TIMER hall sensor mode
1677:Drivers/GD32E23x/Source/gd32e23x_timer.c ****     \param[in]  timer_periph: TIMERx(x=0,2)
1678:Drivers/GD32E23x/Source/gd32e23x_timer.c ****     \param[in]  hallmode: 
1679:Drivers/GD32E23x/Source/gd32e23x_timer.c ****                 only one parameter can be selected which is shown as below:
1680:Drivers/GD32E23x/Source/gd32e23x_timer.c ****       \arg        TIMER_HALLINTERFACE_ENABLE: TIMER hall sensor mode enable
1681:Drivers/GD32E23x/Source/gd32e23x_timer.c ****       \arg        TIMER_HALLINTERFACE_DISABLE: TIMER hall sensor mode disable
1682:Drivers/GD32E23x/Source/gd32e23x_timer.c ****     \param[out] none
1683:Drivers/GD32E23x/Source/gd32e23x_timer.c ****     \retval     none
1684:Drivers/GD32E23x/Source/gd32e23x_timer.c **** */
1685:Drivers/GD32E23x/Source/gd32e23x_timer.c **** void timer_hall_mode_config(uint32_t timer_periph, uint32_t hallmode)
1686:Drivers/GD32E23x/Source/gd32e23x_timer.c **** {
 3905              		.loc 1 1686 1 is_stmt 1 view -0
 3906              		.cfi_startproc
 3907              		@ args = 0, pretend = 0, frame = 0
 3908              		@ frame_needed = 0, uses_anonymous_args = 0
 3909              		@ link register save eliminated.
1687:Drivers/GD32E23x/Source/gd32e23x_timer.c ****     if(TIMER_HALLINTERFACE_ENABLE == hallmode){
 3910              		.loc 1 1687 5 view .LVU1054
 3911              		.loc 1 1687 7 is_stmt 0 view .LVU1055
 3912 0000 8029     		cmp	r1, #128
 3913 0002 05D0     		beq	.L224
1688:Drivers/GD32E23x/Source/gd32e23x_timer.c ****         TIMER_CTL1(timer_periph) |= (uint32_t)TIMER_CTL1_TI0S;
1689:Drivers/GD32E23x/Source/gd32e23x_timer.c ****     }else if(TIMER_HALLINTERFACE_DISABLE == hallmode){
 3914              		.loc 1 1689 11 is_stmt 1 view .LVU1056
 3915              		.loc 1 1689 13 is_stmt 0 view .LVU1057
 3916 0004 41B9     		cbnz	r1, .L221
ARM GAS  D:\noval\Temp\cck0Iw0b.s 			page 105


1690:Drivers/GD32E23x/Source/gd32e23x_timer.c ****         TIMER_CTL1(timer_periph) &= ~(uint32_t)TIMER_CTL1_TI0S;
 3917              		.loc 1 1690 9 is_stmt 1 view .LVU1058
 3918 0006 4368     		ldr	r3, [r0, #4]
 3919              		.loc 1 1690 34 is_stmt 0 view .LVU1059
 3920 0008 8022     		movs	r2, #128
 3921 000a 9343     		bics	r3, r2
 3922 000c 4360     		str	r3, [r0, #4]
1691:Drivers/GD32E23x/Source/gd32e23x_timer.c ****     }else{
1692:Drivers/GD32E23x/Source/gd32e23x_timer.c ****         /* illegal parameters */
1693:Drivers/GD32E23x/Source/gd32e23x_timer.c ****     }
 3923              		.loc 1 1693 5 is_stmt 1 view .LVU1060
1694:Drivers/GD32E23x/Source/gd32e23x_timer.c **** }
 3924              		.loc 1 1694 1 is_stmt 0 view .LVU1061
 3925 000e 03E0     		b	.L221
 3926              	.L224:
1688:Drivers/GD32E23x/Source/gd32e23x_timer.c ****     }else if(TIMER_HALLINTERFACE_DISABLE == hallmode){
 3927              		.loc 1 1688 9 is_stmt 1 view .LVU1062
 3928 0010 4368     		ldr	r3, [r0, #4]
1688:Drivers/GD32E23x/Source/gd32e23x_timer.c ****     }else if(TIMER_HALLINTERFACE_DISABLE == hallmode){
 3929              		.loc 1 1688 34 is_stmt 0 view .LVU1063
 3930 0012 8022     		movs	r2, #128
 3931 0014 1343     		orrs	r3, r2
 3932 0016 4360     		str	r3, [r0, #4]
 3933              	.L221:
 3934              		.loc 1 1694 1 view .LVU1064
 3935              		@ sp needed
 3936 0018 7047     		bx	lr
 3937              		.cfi_endproc
 3938              	.LFE117:
 3940              		.section	.text.timer_input_trigger_source_select,"ax",%progbits
 3941              		.align	1
 3942              		.global	timer_input_trigger_source_select
 3943              		.syntax unified
 3944              		.code	16
 3945              		.thumb_func
 3947              	timer_input_trigger_source_select:
 3948              	.LVL238:
 3949              	.LFB118:
1695:Drivers/GD32E23x/Source/gd32e23x_timer.c **** 
1696:Drivers/GD32E23x/Source/gd32e23x_timer.c **** /*!
1697:Drivers/GD32E23x/Source/gd32e23x_timer.c ****     \brief      select TIMER input trigger source 
1698:Drivers/GD32E23x/Source/gd32e23x_timer.c ****     \param[in]  timer_periph: TIMERx(x=0,2,14)
1699:Drivers/GD32E23x/Source/gd32e23x_timer.c ****     \param[in]  intrigger:
1700:Drivers/GD32E23x/Source/gd32e23x_timer.c ****                 only one parameter can be selected which is shown as below:
1701:Drivers/GD32E23x/Source/gd32e23x_timer.c ****       \arg        TIMER_SMCFG_TRGSEL_ITI0: internal trigger 0(TIMERx(x=0,2,14))
1702:Drivers/GD32E23x/Source/gd32e23x_timer.c ****       \arg        TIMER_SMCFG_TRGSEL_ITI1: internal trigger 1(TIMERx(x=0,2,14))
1703:Drivers/GD32E23x/Source/gd32e23x_timer.c ****       \arg        TIMER_SMCFG_TRGSEL_ITI2: internal trigger 2(TIMERx(x=0,2))
1704:Drivers/GD32E23x/Source/gd32e23x_timer.c ****       \arg        TIMER_SMCFG_TRGSEL_CI0F_ED: TI0 edge detector(TIMERx(x=0,2,14))
1705:Drivers/GD32E23x/Source/gd32e23x_timer.c ****       \arg        TIMER_SMCFG_TRGSEL_CI0FE0: filtered TIMER input 0(TIMERx(x=0,2,14))
1706:Drivers/GD32E23x/Source/gd32e23x_timer.c ****       \arg        TIMER_SMCFG_TRGSEL_CI1FE1: filtered TIMER input 1(TIMERx(x=0,2,14))
1707:Drivers/GD32E23x/Source/gd32e23x_timer.c ****       \arg        TIMER_SMCFG_TRGSEL_ETIFP: external trigger(TIMERx(x=0,2))
1708:Drivers/GD32E23x/Source/gd32e23x_timer.c ****     \param[out] none
1709:Drivers/GD32E23x/Source/gd32e23x_timer.c ****     \retval     none
1710:Drivers/GD32E23x/Source/gd32e23x_timer.c **** */
1711:Drivers/GD32E23x/Source/gd32e23x_timer.c **** void timer_input_trigger_source_select(uint32_t timer_periph, uint32_t intrigger)
1712:Drivers/GD32E23x/Source/gd32e23x_timer.c **** {
 3950              		.loc 1 1712 1 is_stmt 1 view -0
ARM GAS  D:\noval\Temp\cck0Iw0b.s 			page 106


 3951              		.cfi_startproc
 3952              		@ args = 0, pretend = 0, frame = 0
 3953              		@ frame_needed = 0, uses_anonymous_args = 0
 3954              		@ link register save eliminated.
1713:Drivers/GD32E23x/Source/gd32e23x_timer.c ****     TIMER_SMCFG(timer_periph) &= (~(uint32_t)TIMER_SMCFG_TRGS);
 3955              		.loc 1 1713 5 view .LVU1066
 3956 0000 8368     		ldr	r3, [r0, #8]
 3957              		.loc 1 1713 31 is_stmt 0 view .LVU1067
 3958 0002 7022     		movs	r2, #112
 3959 0004 9343     		bics	r3, r2
 3960 0006 8360     		str	r3, [r0, #8]
1714:Drivers/GD32E23x/Source/gd32e23x_timer.c ****     TIMER_SMCFG(timer_periph) |= (uint32_t)intrigger;
 3961              		.loc 1 1714 5 is_stmt 1 view .LVU1068
 3962 0008 8368     		ldr	r3, [r0, #8]
 3963              		.loc 1 1714 31 is_stmt 0 view .LVU1069
 3964 000a 0B43     		orrs	r3, r1
 3965 000c 8360     		str	r3, [r0, #8]
1715:Drivers/GD32E23x/Source/gd32e23x_timer.c **** }
 3966              		.loc 1 1715 1 view .LVU1070
 3967              		@ sp needed
 3968 000e 7047     		bx	lr
 3969              		.cfi_endproc
 3970              	.LFE118:
 3972              		.section	.text.timer_master_output_trigger_source_select,"ax",%progbits
 3973              		.align	1
 3974              		.global	timer_master_output_trigger_source_select
 3975              		.syntax unified
 3976              		.code	16
 3977              		.thumb_func
 3979              	timer_master_output_trigger_source_select:
 3980              	.LVL239:
 3981              	.LFB119:
1716:Drivers/GD32E23x/Source/gd32e23x_timer.c **** 
1717:Drivers/GD32E23x/Source/gd32e23x_timer.c **** /*!
1718:Drivers/GD32E23x/Source/gd32e23x_timer.c ****     \brief      select TIMER master mode output trigger source 
1719:Drivers/GD32E23x/Source/gd32e23x_timer.c ****     \param[in]  timer_periph: TIMERx(x=0,2,5,14)
1720:Drivers/GD32E23x/Source/gd32e23x_timer.c ****     \param[in]  outrigger:
1721:Drivers/GD32E23x/Source/gd32e23x_timer.c ****                 only one parameter can be selected which is shown as below:
1722:Drivers/GD32E23x/Source/gd32e23x_timer.c ****       \arg        TIMER_TRI_OUT_SRC_RESET: the UPG bit as trigger output(TIMERx(x=0,2,5,14))
1723:Drivers/GD32E23x/Source/gd32e23x_timer.c ****       \arg        TIMER_TRI_OUT_SRC_ENABLE: the counter enable signal TIMER_CTL0_CEN as trigger out
1724:Drivers/GD32E23x/Source/gd32e23x_timer.c ****       \arg        TIMER_TRI_OUT_SRC_UPDATE: update event as trigger output(TIMERx(x=0,2,5,14))
1725:Drivers/GD32E23x/Source/gd32e23x_timer.c ****       \arg        TIMER_TRI_OUT_SRC_CH0: a capture or a compare match occurred in channal0 as trigg
1726:Drivers/GD32E23x/Source/gd32e23x_timer.c ****       \arg        TIMER_TRI_OUT_SRC_O0CPRE: O0CPRE as trigger output(TIMERx(x=0,2,14))
1727:Drivers/GD32E23x/Source/gd32e23x_timer.c ****       \arg        TIMER_TRI_OUT_SRC_O1CPRE: O1CPRE as trigger output(TIMERx(x=0,2,14))
1728:Drivers/GD32E23x/Source/gd32e23x_timer.c ****       \arg        TIMER_TRI_OUT_SRC_O2CPRE: O2CPRE as trigger output(TIMERx(x=0,2,14))
1729:Drivers/GD32E23x/Source/gd32e23x_timer.c ****       \arg        TIMER_TRI_OUT_SRC_O3CPRE: O3CPRE as trigger output(TIMERx(x=0,2,14))
1730:Drivers/GD32E23x/Source/gd32e23x_timer.c ****     \param[out] none
1731:Drivers/GD32E23x/Source/gd32e23x_timer.c ****     \retval     none
1732:Drivers/GD32E23x/Source/gd32e23x_timer.c **** */
1733:Drivers/GD32E23x/Source/gd32e23x_timer.c **** void timer_master_output_trigger_source_select(uint32_t timer_periph, uint32_t outrigger)
1734:Drivers/GD32E23x/Source/gd32e23x_timer.c **** {
 3982              		.loc 1 1734 1 is_stmt 1 view -0
 3983              		.cfi_startproc
 3984              		@ args = 0, pretend = 0, frame = 0
 3985              		@ frame_needed = 0, uses_anonymous_args = 0
 3986              		@ link register save eliminated.
1735:Drivers/GD32E23x/Source/gd32e23x_timer.c ****     TIMER_CTL1(timer_periph) &= (~(uint32_t)TIMER_CTL1_MMC);
ARM GAS  D:\noval\Temp\cck0Iw0b.s 			page 107


 3987              		.loc 1 1735 5 view .LVU1072
 3988 0000 4368     		ldr	r3, [r0, #4]
 3989              		.loc 1 1735 30 is_stmt 0 view .LVU1073
 3990 0002 7022     		movs	r2, #112
 3991 0004 9343     		bics	r3, r2
 3992 0006 4360     		str	r3, [r0, #4]
1736:Drivers/GD32E23x/Source/gd32e23x_timer.c ****     TIMER_CTL1(timer_periph) |= (uint32_t)outrigger;
 3993              		.loc 1 1736 5 is_stmt 1 view .LVU1074
 3994 0008 4368     		ldr	r3, [r0, #4]
 3995              		.loc 1 1736 30 is_stmt 0 view .LVU1075
 3996 000a 0B43     		orrs	r3, r1
 3997 000c 4360     		str	r3, [r0, #4]
1737:Drivers/GD32E23x/Source/gd32e23x_timer.c **** }
 3998              		.loc 1 1737 1 view .LVU1076
 3999              		@ sp needed
 4000 000e 7047     		bx	lr
 4001              		.cfi_endproc
 4002              	.LFE119:
 4004              		.section	.text.timer_slave_mode_select,"ax",%progbits
 4005              		.align	1
 4006              		.global	timer_slave_mode_select
 4007              		.syntax unified
 4008              		.code	16
 4009              		.thumb_func
 4011              	timer_slave_mode_select:
 4012              	.LVL240:
 4013              	.LFB120:
1738:Drivers/GD32E23x/Source/gd32e23x_timer.c **** 
1739:Drivers/GD32E23x/Source/gd32e23x_timer.c **** /*!
1740:Drivers/GD32E23x/Source/gd32e23x_timer.c ****     \brief      select TIMER slave mode 
1741:Drivers/GD32E23x/Source/gd32e23x_timer.c ****     \param[in]  timer_periph: TIMERx(x=0,2,14)
1742:Drivers/GD32E23x/Source/gd32e23x_timer.c ****     \param[in]  slavemode:
1743:Drivers/GD32E23x/Source/gd32e23x_timer.c ****                 only one parameter can be selected which is shown as below:
1744:Drivers/GD32E23x/Source/gd32e23x_timer.c ****       \arg        TIMER_SLAVE_MODE_DISABLE: slave mode disable(TIMERx(x=0,2,14))
1745:Drivers/GD32E23x/Source/gd32e23x_timer.c ****       \arg        TIMER_QUAD_DECODER_MODE0: quadrature decoder mode 0(TIMERx(x=0,2))
1746:Drivers/GD32E23x/Source/gd32e23x_timer.c ****       \arg        TIMER_QUAD_DECODER_MODE1: quadrature decoder mode 1(TIMERx(x=0,2))
1747:Drivers/GD32E23x/Source/gd32e23x_timer.c ****       \arg        TIMER_QUAD_DECODER_MODE2: quadrature decoder mode 2(TIMERx(x=0,2))
1748:Drivers/GD32E23x/Source/gd32e23x_timer.c ****       \arg        TIMER_SLAVE_MODE_RESTART: restart mode(TIMERx(x=0,2,14))
1749:Drivers/GD32E23x/Source/gd32e23x_timer.c ****       \arg        TIMER_SLAVE_MODE_PAUSE: pause mode(TIMERx(x=0,2,14))
1750:Drivers/GD32E23x/Source/gd32e23x_timer.c ****       \arg        TIMER_SLAVE_MODE_EVENT: event mode(TIMERx(x=0,2,14))
1751:Drivers/GD32E23x/Source/gd32e23x_timer.c ****       \arg        TIMER_SLAVE_MODE_EXTERNAL0: external clock mode 0(TIMERx(x=0,2,14))
1752:Drivers/GD32E23x/Source/gd32e23x_timer.c ****     \param[out] none
1753:Drivers/GD32E23x/Source/gd32e23x_timer.c ****     \retval     none
1754:Drivers/GD32E23x/Source/gd32e23x_timer.c **** */
1755:Drivers/GD32E23x/Source/gd32e23x_timer.c **** 
1756:Drivers/GD32E23x/Source/gd32e23x_timer.c **** void timer_slave_mode_select(uint32_t timer_periph, uint32_t slavemode)
1757:Drivers/GD32E23x/Source/gd32e23x_timer.c **** {
 4014              		.loc 1 1757 1 is_stmt 1 view -0
 4015              		.cfi_startproc
 4016              		@ args = 0, pretend = 0, frame = 0
 4017              		@ frame_needed = 0, uses_anonymous_args = 0
 4018              		@ link register save eliminated.
1758:Drivers/GD32E23x/Source/gd32e23x_timer.c ****     TIMER_SMCFG(timer_periph) &= (~(uint32_t)TIMER_SMCFG_SMC);
 4019              		.loc 1 1758 5 view .LVU1078
 4020 0000 8368     		ldr	r3, [r0, #8]
 4021              		.loc 1 1758 31 is_stmt 0 view .LVU1079
 4022 0002 0722     		movs	r2, #7
ARM GAS  D:\noval\Temp\cck0Iw0b.s 			page 108


 4023 0004 9343     		bics	r3, r2
 4024 0006 8360     		str	r3, [r0, #8]
1759:Drivers/GD32E23x/Source/gd32e23x_timer.c **** 
1760:Drivers/GD32E23x/Source/gd32e23x_timer.c ****     TIMER_SMCFG(timer_periph) |= (uint32_t)slavemode;
 4025              		.loc 1 1760 5 is_stmt 1 view .LVU1080
 4026 0008 8368     		ldr	r3, [r0, #8]
 4027              		.loc 1 1760 31 is_stmt 0 view .LVU1081
 4028 000a 0B43     		orrs	r3, r1
 4029 000c 8360     		str	r3, [r0, #8]
1761:Drivers/GD32E23x/Source/gd32e23x_timer.c **** }
 4030              		.loc 1 1761 1 view .LVU1082
 4031              		@ sp needed
 4032 000e 7047     		bx	lr
 4033              		.cfi_endproc
 4034              	.LFE120:
 4036              		.section	.text.timer_master_slave_mode_config,"ax",%progbits
 4037              		.align	1
 4038              		.global	timer_master_slave_mode_config
 4039              		.syntax unified
 4040              		.code	16
 4041              		.thumb_func
 4043              	timer_master_slave_mode_config:
 4044              	.LVL241:
 4045              	.LFB121:
1762:Drivers/GD32E23x/Source/gd32e23x_timer.c **** 
1763:Drivers/GD32E23x/Source/gd32e23x_timer.c **** /*!
1764:Drivers/GD32E23x/Source/gd32e23x_timer.c ****     \brief      configure TIMER master slave mode 
1765:Drivers/GD32E23x/Source/gd32e23x_timer.c ****     \param[in]  timer_periph: TIMERx(x=0,2,14)
1766:Drivers/GD32E23x/Source/gd32e23x_timer.c ****     \param[in]  masterslave:
1767:Drivers/GD32E23x/Source/gd32e23x_timer.c ****                 only one parameter can be selected which is shown as below:
1768:Drivers/GD32E23x/Source/gd32e23x_timer.c ****       \arg        TIMER_MASTER_SLAVE_MODE_ENABLE: master slave mode enable
1769:Drivers/GD32E23x/Source/gd32e23x_timer.c ****       \arg        TIMER_MASTER_SLAVE_MODE_DISABLE: master slave mode disable
1770:Drivers/GD32E23x/Source/gd32e23x_timer.c ****     \param[out] none
1771:Drivers/GD32E23x/Source/gd32e23x_timer.c ****     \retval     none
1772:Drivers/GD32E23x/Source/gd32e23x_timer.c **** */ 
1773:Drivers/GD32E23x/Source/gd32e23x_timer.c **** void timer_master_slave_mode_config(uint32_t timer_periph, uint32_t masterslave)
1774:Drivers/GD32E23x/Source/gd32e23x_timer.c **** {
 4046              		.loc 1 1774 1 is_stmt 1 view -0
 4047              		.cfi_startproc
 4048              		@ args = 0, pretend = 0, frame = 0
 4049              		@ frame_needed = 0, uses_anonymous_args = 0
 4050              		@ link register save eliminated.
1775:Drivers/GD32E23x/Source/gd32e23x_timer.c ****     if(TIMER_MASTER_SLAVE_MODE_ENABLE == masterslave){
 4051              		.loc 1 1775 5 view .LVU1084
 4052              		.loc 1 1775 7 is_stmt 0 view .LVU1085
 4053 0000 8029     		cmp	r1, #128
 4054 0002 05D0     		beq	.L231
1776:Drivers/GD32E23x/Source/gd32e23x_timer.c ****         TIMER_SMCFG(timer_periph) |= (uint32_t)TIMER_SMCFG_MSM;
1777:Drivers/GD32E23x/Source/gd32e23x_timer.c ****     }else if(TIMER_MASTER_SLAVE_MODE_DISABLE == masterslave){
 4055              		.loc 1 1777 11 is_stmt 1 view .LVU1086
 4056              		.loc 1 1777 13 is_stmt 0 view .LVU1087
 4057 0004 41B9     		cbnz	r1, .L228
1778:Drivers/GD32E23x/Source/gd32e23x_timer.c ****         TIMER_SMCFG(timer_periph) &= ~(uint32_t)TIMER_SMCFG_MSM;
 4058              		.loc 1 1778 9 is_stmt 1 view .LVU1088
 4059 0006 8368     		ldr	r3, [r0, #8]
 4060              		.loc 1 1778 35 is_stmt 0 view .LVU1089
 4061 0008 8022     		movs	r2, #128
ARM GAS  D:\noval\Temp\cck0Iw0b.s 			page 109


 4062 000a 9343     		bics	r3, r2
 4063 000c 8360     		str	r3, [r0, #8]
1779:Drivers/GD32E23x/Source/gd32e23x_timer.c ****     }else{
1780:Drivers/GD32E23x/Source/gd32e23x_timer.c ****         /* illegal parameters */
1781:Drivers/GD32E23x/Source/gd32e23x_timer.c ****     }
 4064              		.loc 1 1781 5 is_stmt 1 view .LVU1090
1782:Drivers/GD32E23x/Source/gd32e23x_timer.c **** }
 4065              		.loc 1 1782 1 is_stmt 0 view .LVU1091
 4066 000e 03E0     		b	.L228
 4067              	.L231:
1776:Drivers/GD32E23x/Source/gd32e23x_timer.c ****     }else if(TIMER_MASTER_SLAVE_MODE_DISABLE == masterslave){
 4068              		.loc 1 1776 9 is_stmt 1 view .LVU1092
 4069 0010 8368     		ldr	r3, [r0, #8]
1776:Drivers/GD32E23x/Source/gd32e23x_timer.c ****     }else if(TIMER_MASTER_SLAVE_MODE_DISABLE == masterslave){
 4070              		.loc 1 1776 35 is_stmt 0 view .LVU1093
 4071 0012 8022     		movs	r2, #128
 4072 0014 1343     		orrs	r3, r2
 4073 0016 8360     		str	r3, [r0, #8]
 4074              	.L228:
 4075              		.loc 1 1782 1 view .LVU1094
 4076              		@ sp needed
 4077 0018 7047     		bx	lr
 4078              		.cfi_endproc
 4079              	.LFE121:
 4081              		.section	.text.timer_external_trigger_config,"ax",%progbits
 4082              		.align	1
 4083              		.global	timer_external_trigger_config
 4084              		.syntax unified
 4085              		.code	16
 4086              		.thumb_func
 4088              	timer_external_trigger_config:
 4089              	.LVL242:
 4090              	.LFB122:
1783:Drivers/GD32E23x/Source/gd32e23x_timer.c **** 
1784:Drivers/GD32E23x/Source/gd32e23x_timer.c **** /*!
1785:Drivers/GD32E23x/Source/gd32e23x_timer.c ****     \brief      configure TIMER external trigger input
1786:Drivers/GD32E23x/Source/gd32e23x_timer.c ****     \param[in]  timer_periph: TIMERx(x=0,2)
1787:Drivers/GD32E23x/Source/gd32e23x_timer.c ****     \param[in]  extprescaler:
1788:Drivers/GD32E23x/Source/gd32e23x_timer.c ****                 only one parameter can be selected which is shown as below:
1789:Drivers/GD32E23x/Source/gd32e23x_timer.c ****       \arg        TIMER_EXT_TRI_PSC_OFF: no divided
1790:Drivers/GD32E23x/Source/gd32e23x_timer.c ****       \arg        TIMER_EXT_TRI_PSC_DIV2: divided by 2
1791:Drivers/GD32E23x/Source/gd32e23x_timer.c ****       \arg        TIMER_EXT_TRI_PSC_DIV4: divided by 4
1792:Drivers/GD32E23x/Source/gd32e23x_timer.c ****       \arg        TIMER_EXT_TRI_PSC_DIV8: divided by 8
1793:Drivers/GD32E23x/Source/gd32e23x_timer.c ****     \param[in]  extpolarity:
1794:Drivers/GD32E23x/Source/gd32e23x_timer.c ****                 only one parameter can be selected which is shown as below:
1795:Drivers/GD32E23x/Source/gd32e23x_timer.c ****       \arg        TIMER_ETP_FALLING: active low or falling edge active
1796:Drivers/GD32E23x/Source/gd32e23x_timer.c ****       \arg        TIMER_ETP_RISING: active high or rising edge active
1797:Drivers/GD32E23x/Source/gd32e23x_timer.c ****     \param[in]  extfilter: a value between 0 and 15
1798:Drivers/GD32E23x/Source/gd32e23x_timer.c ****     \param[out] none
1799:Drivers/GD32E23x/Source/gd32e23x_timer.c ****     \retval     none
1800:Drivers/GD32E23x/Source/gd32e23x_timer.c **** */
1801:Drivers/GD32E23x/Source/gd32e23x_timer.c **** void timer_external_trigger_config(uint32_t timer_periph, uint32_t extprescaler,
1802:Drivers/GD32E23x/Source/gd32e23x_timer.c ****                                    uint32_t extpolarity, uint32_t extfilter)
1803:Drivers/GD32E23x/Source/gd32e23x_timer.c **** {
 4091              		.loc 1 1803 1 is_stmt 1 view -0
 4092              		.cfi_startproc
 4093              		@ args = 0, pretend = 0, frame = 0
ARM GAS  D:\noval\Temp\cck0Iw0b.s 			page 110


 4094              		@ frame_needed = 0, uses_anonymous_args = 0
 4095              		.loc 1 1803 1 is_stmt 0 view .LVU1096
 4096 0000 30B5     		push	{r4, r5, lr}
 4097              	.LCFI5:
 4098              		.cfi_def_cfa_offset 12
 4099              		.cfi_offset 4, -12
 4100              		.cfi_offset 5, -8
 4101              		.cfi_offset 14, -4
1804:Drivers/GD32E23x/Source/gd32e23x_timer.c ****     TIMER_SMCFG(timer_periph) &= (~(uint32_t)(TIMER_SMCFG_ETP | TIMER_SMCFG_ETPSC | TIMER_SMCFG_ETF
 4102              		.loc 1 1804 5 is_stmt 1 view .LVU1097
 4103 0002 8468     		ldr	r4, [r0, #8]
 4104              		.loc 1 1804 31 is_stmt 0 view .LVU1098
 4105 0004 054D     		ldr	r5, .L233
 4106 0006 2C40     		ands	r4, r5
 4107 0008 8460     		str	r4, [r0, #8]
1805:Drivers/GD32E23x/Source/gd32e23x_timer.c ****     TIMER_SMCFG(timer_periph) |= (uint32_t)(extprescaler | extpolarity);
 4108              		.loc 1 1805 5 is_stmt 1 view .LVU1099
 4109 000a 8468     		ldr	r4, [r0, #8]
 4110              		.loc 1 1805 58 is_stmt 0 view .LVU1100
 4111 000c 1143     		orrs	r1, r2
 4112              	.LVL243:
 4113              		.loc 1 1805 31 view .LVU1101
 4114 000e 0C43     		orrs	r4, r1
 4115 0010 8460     		str	r4, [r0, #8]
1806:Drivers/GD32E23x/Source/gd32e23x_timer.c ****     TIMER_SMCFG(timer_periph) |= (uint32_t)(extfilter << 8U);
 4116              		.loc 1 1806 5 is_stmt 1 view .LVU1102
 4117 0012 8268     		ldr	r2, [r0, #8]
 4118              	.LVL244:
 4119              		.loc 1 1806 34 is_stmt 0 view .LVU1103
 4120 0014 1B02     		lsls	r3, r3, #8
 4121              	.LVL245:
 4122              		.loc 1 1806 31 view .LVU1104
 4123 0016 1A43     		orrs	r2, r3
 4124 0018 8260     		str	r2, [r0, #8]
1807:Drivers/GD32E23x/Source/gd32e23x_timer.c **** }
 4125              		.loc 1 1807 1 view .LVU1105
 4126              		@ sp needed
 4127 001a 30BD     		pop	{r4, r5, pc}
 4128              	.L234:
 4129              		.align	2
 4130              	.L233:
 4131 001c FF40FFFF 		.word	-48897
 4132              		.cfi_endproc
 4133              	.LFE122:
 4135              		.section	.text.timer_quadrature_decoder_mode_config,"ax",%progbits
 4136              		.align	1
 4137              		.global	timer_quadrature_decoder_mode_config
 4138              		.syntax unified
 4139              		.code	16
 4140              		.thumb_func
 4142              	timer_quadrature_decoder_mode_config:
 4143              	.LVL246:
 4144              	.LFB123:
1808:Drivers/GD32E23x/Source/gd32e23x_timer.c **** 
1809:Drivers/GD32E23x/Source/gd32e23x_timer.c **** /*!
1810:Drivers/GD32E23x/Source/gd32e23x_timer.c ****     \brief      configure TIMER quadrature decoder mode
1811:Drivers/GD32E23x/Source/gd32e23x_timer.c ****     \param[in]  timer_periph: TIMERx(x=0,2)
ARM GAS  D:\noval\Temp\cck0Iw0b.s 			page 111


1812:Drivers/GD32E23x/Source/gd32e23x_timer.c ****     \param[in]  decomode: 
1813:Drivers/GD32E23x/Source/gd32e23x_timer.c ****                 only one parameter can be selected which is shown as below:
1814:Drivers/GD32E23x/Source/gd32e23x_timer.c ****       \arg        TIMER_QUAD_DECODER_MODE0: counter counts on CI0FE0 edge depending on CI1FE1 level
1815:Drivers/GD32E23x/Source/gd32e23x_timer.c ****       \arg        TIMER_QUAD_DECODER_MODE1: counter counts on CI1FE1 edge depending on CI0FE0 level
1816:Drivers/GD32E23x/Source/gd32e23x_timer.c ****       \arg        TIMER_QUAD_DECODER_MODE2: counter counts on both CI0FE0 and CI1FE1 edges dependin
1817:Drivers/GD32E23x/Source/gd32e23x_timer.c ****     \param[in]  ic0polarity: 
1818:Drivers/GD32E23x/Source/gd32e23x_timer.c ****                 only one parameter can be selected which is shown as below:
1819:Drivers/GD32E23x/Source/gd32e23x_timer.c ****       \arg        TIMER_IC_POLARITY_RISING: capture rising edge
1820:Drivers/GD32E23x/Source/gd32e23x_timer.c ****       \arg        TIMER_IC_POLARITY_FALLING: capture falling edge
1821:Drivers/GD32E23x/Source/gd32e23x_timer.c ****     \param[in]  ic1polarity:
1822:Drivers/GD32E23x/Source/gd32e23x_timer.c ****                 only one parameter can be selected which is shown as below:
1823:Drivers/GD32E23x/Source/gd32e23x_timer.c ****       \arg        TIMER_IC_POLARITY_RISING: capture rising edge
1824:Drivers/GD32E23x/Source/gd32e23x_timer.c ****       \arg        TIMER_IC_POLARITY_FALLING: capture falling edge
1825:Drivers/GD32E23x/Source/gd32e23x_timer.c ****     \param[out] none
1826:Drivers/GD32E23x/Source/gd32e23x_timer.c ****     \retval     none
1827:Drivers/GD32E23x/Source/gd32e23x_timer.c **** */
1828:Drivers/GD32E23x/Source/gd32e23x_timer.c **** void timer_quadrature_decoder_mode_config(uint32_t timer_periph, uint32_t decomode,
1829:Drivers/GD32E23x/Source/gd32e23x_timer.c ****                                    uint16_t ic0polarity, uint16_t ic1polarity)
1830:Drivers/GD32E23x/Source/gd32e23x_timer.c **** {
 4145              		.loc 1 1830 1 is_stmt 1 view -0
 4146              		.cfi_startproc
 4147              		@ args = 0, pretend = 0, frame = 0
 4148              		@ frame_needed = 0, uses_anonymous_args = 0
 4149              		.loc 1 1830 1 is_stmt 0 view .LVU1107
 4150 0000 30B5     		push	{r4, r5, lr}
 4151              	.LCFI6:
 4152              		.cfi_def_cfa_offset 12
 4153              		.cfi_offset 4, -12
 4154              		.cfi_offset 5, -8
 4155              		.cfi_offset 14, -4
1831:Drivers/GD32E23x/Source/gd32e23x_timer.c ****     TIMER_SMCFG(timer_periph) &= (~(uint32_t)TIMER_SMCFG_SMC);
 4156              		.loc 1 1831 5 is_stmt 1 view .LVU1108
 4157 0002 8468     		ldr	r4, [r0, #8]
 4158              		.loc 1 1831 31 is_stmt 0 view .LVU1109
 4159 0004 0725     		movs	r5, #7
 4160 0006 AC43     		bics	r4, r5
 4161 0008 8460     		str	r4, [r0, #8]
1832:Drivers/GD32E23x/Source/gd32e23x_timer.c ****     TIMER_SMCFG(timer_periph) |= (uint32_t)decomode;
 4162              		.loc 1 1832 5 is_stmt 1 view .LVU1110
 4163 000a 8468     		ldr	r4, [r0, #8]
 4164              		.loc 1 1832 31 is_stmt 0 view .LVU1111
 4165 000c 0C43     		orrs	r4, r1
 4166 000e 8460     		str	r4, [r0, #8]
1833:Drivers/GD32E23x/Source/gd32e23x_timer.c **** 
1834:Drivers/GD32E23x/Source/gd32e23x_timer.c ****     TIMER_CHCTL0(timer_periph) &= (uint32_t)(((~(uint32_t)TIMER_CHCTL0_CH0MS))&((~(uint32_t)TIMER_C
 4167              		.loc 1 1834 5 is_stmt 1 view .LVU1112
 4168 0010 8169     		ldr	r1, [r0, #24]
 4169              	.LVL247:
 4170              		.loc 1 1834 32 is_stmt 0 view .LVU1113
 4171 0012 0B4C     		ldr	r4, .L236
 4172 0014 2140     		ands	r1, r4
 4173 0016 8161     		str	r1, [r0, #24]
1835:Drivers/GD32E23x/Source/gd32e23x_timer.c ****     TIMER_CHCTL0(timer_periph) |= (uint32_t)(TIMER_IC_SELECTION_DIRECTTI|((uint32_t)TIMER_IC_SELECT
 4174              		.loc 1 1835 5 is_stmt 1 view .LVU1114
 4175 0018 8169     		ldr	r1, [r0, #24]
 4176              		.loc 1 1835 32 is_stmt 0 view .LVU1115
 4177 001a 40F20114 		movw	r4, #257
ARM GAS  D:\noval\Temp\cck0Iw0b.s 			page 112


 4178 001e 2143     		orrs	r1, r4
 4179 0020 8161     		str	r1, [r0, #24]
1836:Drivers/GD32E23x/Source/gd32e23x_timer.c **** 
1837:Drivers/GD32E23x/Source/gd32e23x_timer.c ****     TIMER_CHCTL2(timer_periph) &= (~(uint32_t)(TIMER_CHCTL2_CH0P|TIMER_CHCTL2_CH0NP));
 4180              		.loc 1 1837 5 is_stmt 1 view .LVU1116
 4181 0022 016A     		ldr	r1, [r0, #32]
 4182              		.loc 1 1837 32 is_stmt 0 view .LVU1117
 4183 0024 F73C     		subs	r4, r4, #247
 4184 0026 A143     		bics	r1, r4
 4185 0028 0162     		str	r1, [r0, #32]
1838:Drivers/GD32E23x/Source/gd32e23x_timer.c ****     TIMER_CHCTL2(timer_periph) &= (~(uint32_t)(TIMER_CHCTL2_CH1P|TIMER_CHCTL2_CH1NP));
 4186              		.loc 1 1838 5 is_stmt 1 view .LVU1118
 4187 002a 016A     		ldr	r1, [r0, #32]
 4188              		.loc 1 1838 32 is_stmt 0 view .LVU1119
 4189 002c 9634     		adds	r4, r4, #150
 4190 002e A143     		bics	r1, r4
 4191 0030 0162     		str	r1, [r0, #32]
1839:Drivers/GD32E23x/Source/gd32e23x_timer.c ****     TIMER_CHCTL2(timer_periph) |= ((uint32_t)ic0polarity|((uint32_t)ic1polarity << 4U));
 4192              		.loc 1 1839 5 is_stmt 1 view .LVU1120
 4193 0032 016A     		ldr	r1, [r0, #32]
 4194              		.loc 1 1839 81 is_stmt 0 view .LVU1121
 4195 0034 1B01     		lsls	r3, r3, #4
 4196              	.LVL248:
 4197              		.loc 1 1839 57 view .LVU1122
 4198 0036 1A43     		orrs	r2, r3
 4199              	.LVL249:
 4200              		.loc 1 1839 32 view .LVU1123
 4201 0038 1143     		orrs	r1, r2
 4202 003a 0162     		str	r1, [r0, #32]
1840:Drivers/GD32E23x/Source/gd32e23x_timer.c **** }
 4203              		.loc 1 1840 1 view .LVU1124
 4204              		@ sp needed
 4205 003c 30BD     		pop	{r4, r5, pc}
 4206              	.L237:
 4207 003e C046     		.align	2
 4208              	.L236:
 4209 0040 FCFCFFFF 		.word	-772
 4210              		.cfi_endproc
 4211              	.LFE123:
 4213              		.section	.text.timer_internal_clock_config,"ax",%progbits
 4214              		.align	1
 4215              		.global	timer_internal_clock_config
 4216              		.syntax unified
 4217              		.code	16
 4218              		.thumb_func
 4220              	timer_internal_clock_config:
 4221              	.LVL250:
 4222              	.LFB124:
1841:Drivers/GD32E23x/Source/gd32e23x_timer.c **** 
1842:Drivers/GD32E23x/Source/gd32e23x_timer.c **** /*!
1843:Drivers/GD32E23x/Source/gd32e23x_timer.c ****     \brief      configure TIMER internal clock mode
1844:Drivers/GD32E23x/Source/gd32e23x_timer.c ****     \param[in]  timer_periph: TIMERx(x=0,2,14)
1845:Drivers/GD32E23x/Source/gd32e23x_timer.c ****     \param[out] none
1846:Drivers/GD32E23x/Source/gd32e23x_timer.c ****     \retval     none
1847:Drivers/GD32E23x/Source/gd32e23x_timer.c **** */
1848:Drivers/GD32E23x/Source/gd32e23x_timer.c **** void timer_internal_clock_config(uint32_t timer_periph)
1849:Drivers/GD32E23x/Source/gd32e23x_timer.c **** {
ARM GAS  D:\noval\Temp\cck0Iw0b.s 			page 113


 4223              		.loc 1 1849 1 is_stmt 1 view -0
 4224              		.cfi_startproc
 4225              		@ args = 0, pretend = 0, frame = 0
 4226              		@ frame_needed = 0, uses_anonymous_args = 0
 4227              		@ link register save eliminated.
1850:Drivers/GD32E23x/Source/gd32e23x_timer.c ****     TIMER_SMCFG(timer_periph) &= ~(uint32_t)TIMER_SMCFG_SMC;
 4228              		.loc 1 1850 5 view .LVU1126
 4229 0000 8368     		ldr	r3, [r0, #8]
 4230              		.loc 1 1850 31 is_stmt 0 view .LVU1127
 4231 0002 0722     		movs	r2, #7
 4232 0004 9343     		bics	r3, r2
 4233 0006 8360     		str	r3, [r0, #8]
1851:Drivers/GD32E23x/Source/gd32e23x_timer.c **** }
 4234              		.loc 1 1851 1 view .LVU1128
 4235              		@ sp needed
 4236 0008 7047     		bx	lr
 4237              		.cfi_endproc
 4238              	.LFE124:
 4240              		.section	.text.timer_internal_trigger_as_external_clock_config,"ax",%progbits
 4241              		.align	1
 4242              		.global	timer_internal_trigger_as_external_clock_config
 4243              		.syntax unified
 4244              		.code	16
 4245              		.thumb_func
 4247              	timer_internal_trigger_as_external_clock_config:
 4248              	.LVL251:
 4249              	.LFB125:
1852:Drivers/GD32E23x/Source/gd32e23x_timer.c **** 
1853:Drivers/GD32E23x/Source/gd32e23x_timer.c **** /*!
1854:Drivers/GD32E23x/Source/gd32e23x_timer.c ****     \brief      configure TIMER the internal trigger as external clock input
1855:Drivers/GD32E23x/Source/gd32e23x_timer.c ****     \param[in]  timer_periph: TIMERx(x=0,2,14)
1856:Drivers/GD32E23x/Source/gd32e23x_timer.c ****     \param[in]  intrigger: 
1857:Drivers/GD32E23x/Source/gd32e23x_timer.c ****                 only one parameter can be selected which is shown as below:
1858:Drivers/GD32E23x/Source/gd32e23x_timer.c ****       \arg        TIMER_SMCFG_TRGSEL_ITI0: internal trigger 0(TIMERx(x=0,2,14))
1859:Drivers/GD32E23x/Source/gd32e23x_timer.c ****       \arg        TIMER_SMCFG_TRGSEL_ITI1: internal trigger 1(TIMERx(x=0,2,14))
1860:Drivers/GD32E23x/Source/gd32e23x_timer.c ****       \arg        TIMER_SMCFG_TRGSEL_ITI2: internal trigger 2(TIMERx(x=0,2))
1861:Drivers/GD32E23x/Source/gd32e23x_timer.c ****     \param[out] none
1862:Drivers/GD32E23x/Source/gd32e23x_timer.c ****     \retval     none
1863:Drivers/GD32E23x/Source/gd32e23x_timer.c **** */
1864:Drivers/GD32E23x/Source/gd32e23x_timer.c **** void timer_internal_trigger_as_external_clock_config(uint32_t timer_periph, uint32_t intrigger)
1865:Drivers/GD32E23x/Source/gd32e23x_timer.c **** {
 4250              		.loc 1 1865 1 is_stmt 1 view -0
 4251              		.cfi_startproc
 4252              		@ args = 0, pretend = 0, frame = 0
 4253              		@ frame_needed = 0, uses_anonymous_args = 0
 4254              		.loc 1 1865 1 is_stmt 0 view .LVU1130
 4255 0000 10B5     		push	{r4, lr}
 4256              	.LCFI7:
 4257              		.cfi_def_cfa_offset 8
 4258              		.cfi_offset 4, -8
 4259              		.cfi_offset 14, -4
 4260 0002 0400     		movs	r4, r0
1866:Drivers/GD32E23x/Source/gd32e23x_timer.c ****     timer_input_trigger_source_select(timer_periph, intrigger);
 4261              		.loc 1 1866 5 is_stmt 1 view .LVU1131
 4262 0004 FFF7FEFF 		bl	timer_input_trigger_source_select
 4263              	.LVL252:
1867:Drivers/GD32E23x/Source/gd32e23x_timer.c ****     TIMER_SMCFG(timer_periph) &= ~(uint32_t)TIMER_SMCFG_SMC;
ARM GAS  D:\noval\Temp\cck0Iw0b.s 			page 114


 4264              		.loc 1 1867 5 view .LVU1132
 4265 0008 A368     		ldr	r3, [r4, #8]
 4266              		.loc 1 1867 31 is_stmt 0 view .LVU1133
 4267 000a 0722     		movs	r2, #7
 4268 000c 9343     		bics	r3, r2
 4269 000e A360     		str	r3, [r4, #8]
1868:Drivers/GD32E23x/Source/gd32e23x_timer.c ****     TIMER_SMCFG(timer_periph) |= (uint32_t)TIMER_SLAVE_MODE_EXTERNAL0;
 4270              		.loc 1 1868 5 is_stmt 1 view .LVU1134
 4271 0010 A368     		ldr	r3, [r4, #8]
 4272              		.loc 1 1868 31 is_stmt 0 view .LVU1135
 4273 0012 1343     		orrs	r3, r2
 4274 0014 A360     		str	r3, [r4, #8]
1869:Drivers/GD32E23x/Source/gd32e23x_timer.c **** }
 4275              		.loc 1 1869 1 view .LVU1136
 4276              		@ sp needed
 4277              	.LVL253:
 4278              		.loc 1 1869 1 view .LVU1137
 4279 0016 10BD     		pop	{r4, pc}
 4280              		.cfi_endproc
 4281              	.LFE125:
 4283              		.section	.text.timer_external_trigger_as_external_clock_config,"ax",%progbits
 4284              		.align	1
 4285              		.global	timer_external_trigger_as_external_clock_config
 4286              		.syntax unified
 4287              		.code	16
 4288              		.thumb_func
 4290              	timer_external_trigger_as_external_clock_config:
 4291              	.LVL254:
 4292              	.LFB126:
1870:Drivers/GD32E23x/Source/gd32e23x_timer.c **** 
1871:Drivers/GD32E23x/Source/gd32e23x_timer.c **** /*!
1872:Drivers/GD32E23x/Source/gd32e23x_timer.c ****     \brief      configure TIMER the external trigger as external clock input
1873:Drivers/GD32E23x/Source/gd32e23x_timer.c ****     \param[in]  timer_periph: TIMERx(x=0,2,14)
1874:Drivers/GD32E23x/Source/gd32e23x_timer.c ****     \param[in]  extrigger: 
1875:Drivers/GD32E23x/Source/gd32e23x_timer.c ****                 only one parameter can be selected which is shown as below:
1876:Drivers/GD32E23x/Source/gd32e23x_timer.c ****       \arg        TIMER_SMCFG_TRGSEL_CI0F_ED: TI0 edge detector
1877:Drivers/GD32E23x/Source/gd32e23x_timer.c ****       \arg        TIMER_SMCFG_TRGSEL_CI0FE0: filtered TIMER input 0
1878:Drivers/GD32E23x/Source/gd32e23x_timer.c ****       \arg        TIMER_SMCFG_TRGSEL_CI1FE1: filtered TIMER input 1
1879:Drivers/GD32E23x/Source/gd32e23x_timer.c ****     \param[in]  extpolarity: 
1880:Drivers/GD32E23x/Source/gd32e23x_timer.c ****                 only one parameter can be selected which is shown as below:
1881:Drivers/GD32E23x/Source/gd32e23x_timer.c ****       \arg        TIMER_IC_POLARITY_RISING: active high or rising edge active
1882:Drivers/GD32E23x/Source/gd32e23x_timer.c ****       \arg        TIMER_IC_POLARITY_FALLING: active low or falling edge active
1883:Drivers/GD32E23x/Source/gd32e23x_timer.c ****       \arg        TIMER_IC_POLARITY_BOTH_EDGE: active both edge
1884:Drivers/GD32E23x/Source/gd32e23x_timer.c ****     \param[in]  extfilter: a value between 0 and 15
1885:Drivers/GD32E23x/Source/gd32e23x_timer.c ****     \param[out] none
1886:Drivers/GD32E23x/Source/gd32e23x_timer.c ****     \retval     none
1887:Drivers/GD32E23x/Source/gd32e23x_timer.c **** */
1888:Drivers/GD32E23x/Source/gd32e23x_timer.c **** void timer_external_trigger_as_external_clock_config(uint32_t timer_periph, uint32_t extrigger,
1889:Drivers/GD32E23x/Source/gd32e23x_timer.c ****                                        uint16_t extpolarity, uint32_t extfilter)
1890:Drivers/GD32E23x/Source/gd32e23x_timer.c **** {
 4293              		.loc 1 1890 1 is_stmt 1 view -0
 4294              		.cfi_startproc
 4295              		@ args = 0, pretend = 0, frame = 0
 4296              		@ frame_needed = 0, uses_anonymous_args = 0
 4297              		.loc 1 1890 1 is_stmt 0 view .LVU1139
 4298 0000 70B5     		push	{r4, r5, r6, lr}
 4299              	.LCFI8:
ARM GAS  D:\noval\Temp\cck0Iw0b.s 			page 115


 4300              		.cfi_def_cfa_offset 16
 4301              		.cfi_offset 4, -16
 4302              		.cfi_offset 5, -12
 4303              		.cfi_offset 6, -8
 4304              		.cfi_offset 14, -4
 4305 0002 0400     		movs	r4, r0
1891:Drivers/GD32E23x/Source/gd32e23x_timer.c ****     if(TIMER_SMCFG_TRGSEL_CI1FE1 == extrigger){
 4306              		.loc 1 1891 5 is_stmt 1 view .LVU1140
 4307              		.loc 1 1891 7 is_stmt 0 view .LVU1141
 4308 0004 6029     		cmp	r1, #96
 4309 0006 27D0     		beq	.L243
1892:Drivers/GD32E23x/Source/gd32e23x_timer.c ****         /* reset the CH1EN bit */
1893:Drivers/GD32E23x/Source/gd32e23x_timer.c ****         TIMER_CHCTL2(timer_periph) &= (~(uint32_t)TIMER_CHCTL2_CH1EN);
1894:Drivers/GD32E23x/Source/gd32e23x_timer.c ****         /* reset the CH1NP bit */
1895:Drivers/GD32E23x/Source/gd32e23x_timer.c ****         TIMER_CHCTL2(timer_periph) &= (~(uint32_t)(TIMER_CHCTL2_CH1P|TIMER_CHCTL2_CH1NP));
1896:Drivers/GD32E23x/Source/gd32e23x_timer.c ****         /* set the CH1NP bit */
1897:Drivers/GD32E23x/Source/gd32e23x_timer.c ****         TIMER_CHCTL2(timer_periph) |= (uint32_t)((uint32_t)extpolarity << 4U);
1898:Drivers/GD32E23x/Source/gd32e23x_timer.c ****         /* reset the CH1MS bit */
1899:Drivers/GD32E23x/Source/gd32e23x_timer.c ****         TIMER_CHCTL0(timer_periph) &= (~(uint32_t)TIMER_CHCTL0_CH1MS);
1900:Drivers/GD32E23x/Source/gd32e23x_timer.c ****         /* set the CH1MS bit */
1901:Drivers/GD32E23x/Source/gd32e23x_timer.c ****         TIMER_CHCTL0(timer_periph) |= (uint32_t)((uint32_t)TIMER_IC_SELECTION_DIRECTTI << 8U);
1902:Drivers/GD32E23x/Source/gd32e23x_timer.c ****         /* reset the CH1CAPFLT bit */
1903:Drivers/GD32E23x/Source/gd32e23x_timer.c ****         TIMER_CHCTL0(timer_periph) &= (~(uint32_t)TIMER_CHCTL0_CH1CAPFLT);
1904:Drivers/GD32E23x/Source/gd32e23x_timer.c ****         /* set the CH1CAPFLT bit */
1905:Drivers/GD32E23x/Source/gd32e23x_timer.c ****         TIMER_CHCTL0(timer_periph) |= (uint32_t)(extfilter << 12U);
1906:Drivers/GD32E23x/Source/gd32e23x_timer.c ****         /* set the CH1EN bit */
1907:Drivers/GD32E23x/Source/gd32e23x_timer.c ****         TIMER_CHCTL2(timer_periph) |= (uint32_t)TIMER_CHCTL2_CH1EN;
1908:Drivers/GD32E23x/Source/gd32e23x_timer.c ****     }else{
1909:Drivers/GD32E23x/Source/gd32e23x_timer.c ****         /* reset the CH0EN bit */
1910:Drivers/GD32E23x/Source/gd32e23x_timer.c ****         TIMER_CHCTL2(timer_periph) &= (~(uint32_t)TIMER_CHCTL2_CH0EN);
 4310              		.loc 1 1910 9 is_stmt 1 view .LVU1142
 4311 0008 056A     		ldr	r5, [r0, #32]
 4312              		.loc 1 1910 36 is_stmt 0 view .LVU1143
 4313 000a 0120     		movs	r0, #1
 4314              	.LVL255:
 4315              		.loc 1 1910 36 view .LVU1144
 4316 000c 8543     		bics	r5, r0
 4317 000e 2562     		str	r5, [r4, #32]
1911:Drivers/GD32E23x/Source/gd32e23x_timer.c ****         /* reset the CH0P and CH0NP bits */
1912:Drivers/GD32E23x/Source/gd32e23x_timer.c ****         TIMER_CHCTL2(timer_periph) &= (~(uint32_t)(TIMER_CHCTL2_CH0P|TIMER_CHCTL2_CH0NP));
 4318              		.loc 1 1912 9 is_stmt 1 view .LVU1145
 4319 0010 256A     		ldr	r5, [r4, #32]
 4320              		.loc 1 1912 36 is_stmt 0 view .LVU1146
 4321 0012 0A26     		movs	r6, #10
 4322 0014 B543     		bics	r5, r6
 4323 0016 2562     		str	r5, [r4, #32]
1913:Drivers/GD32E23x/Source/gd32e23x_timer.c ****         /* set the CH0P and CH0NP bits */
1914:Drivers/GD32E23x/Source/gd32e23x_timer.c ****         TIMER_CHCTL2(timer_periph) |= (uint32_t)extpolarity;
 4324              		.loc 1 1914 9 is_stmt 1 view .LVU1147
 4325 0018 256A     		ldr	r5, [r4, #32]
 4326              		.loc 1 1914 36 is_stmt 0 view .LVU1148
 4327 001a 2A43     		orrs	r2, r5
 4328              	.LVL256:
 4329              		.loc 1 1914 36 view .LVU1149
 4330 001c 2262     		str	r2, [r4, #32]
1915:Drivers/GD32E23x/Source/gd32e23x_timer.c ****         /* reset the CH0MS bit */
1916:Drivers/GD32E23x/Source/gd32e23x_timer.c ****         TIMER_CHCTL0(timer_periph) &= (~(uint32_t)TIMER_CHCTL0_CH0MS);
ARM GAS  D:\noval\Temp\cck0Iw0b.s 			page 116


 4331              		.loc 1 1916 9 is_stmt 1 view .LVU1150
 4332 001e A269     		ldr	r2, [r4, #24]
 4333              		.loc 1 1916 36 is_stmt 0 view .LVU1151
 4334 0020 0325     		movs	r5, #3
 4335 0022 AA43     		bics	r2, r5
 4336 0024 A261     		str	r2, [r4, #24]
1917:Drivers/GD32E23x/Source/gd32e23x_timer.c ****         /* set the CH0MS bit */
1918:Drivers/GD32E23x/Source/gd32e23x_timer.c ****         TIMER_CHCTL0(timer_periph) |= (uint32_t)TIMER_IC_SELECTION_DIRECTTI;
 4337              		.loc 1 1918 9 is_stmt 1 view .LVU1152
 4338 0026 A269     		ldr	r2, [r4, #24]
 4339              		.loc 1 1918 36 is_stmt 0 view .LVU1153
 4340 0028 0243     		orrs	r2, r0
 4341 002a A261     		str	r2, [r4, #24]
1919:Drivers/GD32E23x/Source/gd32e23x_timer.c ****         /* reset the CH0CAPFLT bit */
1920:Drivers/GD32E23x/Source/gd32e23x_timer.c ****         TIMER_CHCTL0(timer_periph) &= (~(uint32_t)TIMER_CHCTL0_CH0CAPFLT);
 4342              		.loc 1 1920 9 is_stmt 1 view .LVU1154
 4343 002c A269     		ldr	r2, [r4, #24]
 4344              		.loc 1 1920 36 is_stmt 0 view .LVU1155
 4345 002e ED35     		adds	r5, r5, #237
 4346 0030 AA43     		bics	r2, r5
 4347 0032 A261     		str	r2, [r4, #24]
1921:Drivers/GD32E23x/Source/gd32e23x_timer.c ****         /* reset the CH0CAPFLT bit */
1922:Drivers/GD32E23x/Source/gd32e23x_timer.c ****         TIMER_CHCTL0(timer_periph) |= (uint32_t)(extfilter << 4U);
 4348              		.loc 1 1922 9 is_stmt 1 view .LVU1156
 4349 0034 A269     		ldr	r2, [r4, #24]
 4350              		.loc 1 1922 39 is_stmt 0 view .LVU1157
 4351 0036 1B01     		lsls	r3, r3, #4
 4352              	.LVL257:
 4353              		.loc 1 1922 36 view .LVU1158
 4354 0038 1343     		orrs	r3, r2
 4355 003a A361     		str	r3, [r4, #24]
1923:Drivers/GD32E23x/Source/gd32e23x_timer.c ****         /* set the CH0EN bit */
1924:Drivers/GD32E23x/Source/gd32e23x_timer.c ****         TIMER_CHCTL2(timer_periph) |= (uint32_t)TIMER_CHCTL2_CH0EN;
 4356              		.loc 1 1924 9 is_stmt 1 view .LVU1159
 4357 003c 236A     		ldr	r3, [r4, #32]
 4358              		.loc 1 1924 36 is_stmt 0 view .LVU1160
 4359 003e 0343     		orrs	r3, r0
 4360 0040 2362     		str	r3, [r4, #32]
 4361              	.L242:
1925:Drivers/GD32E23x/Source/gd32e23x_timer.c ****     }
1926:Drivers/GD32E23x/Source/gd32e23x_timer.c ****     /* select TIMER input trigger source */
1927:Drivers/GD32E23x/Source/gd32e23x_timer.c ****     timer_input_trigger_source_select(timer_periph,extrigger);
 4362              		.loc 1 1927 5 is_stmt 1 view .LVU1161
 4363 0042 2000     		movs	r0, r4
 4364 0044 FFF7FEFF 		bl	timer_input_trigger_source_select
 4365              	.LVL258:
1928:Drivers/GD32E23x/Source/gd32e23x_timer.c ****     /* reset the SMC bit */
1929:Drivers/GD32E23x/Source/gd32e23x_timer.c ****     TIMER_SMCFG(timer_periph) &= (~(uint32_t)TIMER_SMCFG_SMC);
 4366              		.loc 1 1929 5 view .LVU1162
 4367 0048 A368     		ldr	r3, [r4, #8]
 4368              		.loc 1 1929 31 is_stmt 0 view .LVU1163
 4369 004a 0722     		movs	r2, #7
 4370 004c 9343     		bics	r3, r2
 4371 004e A360     		str	r3, [r4, #8]
1930:Drivers/GD32E23x/Source/gd32e23x_timer.c ****     /* set the SMC bit */
1931:Drivers/GD32E23x/Source/gd32e23x_timer.c ****     TIMER_SMCFG(timer_periph) |= (uint32_t)TIMER_SLAVE_MODE_EXTERNAL0;
 4372              		.loc 1 1931 5 is_stmt 1 view .LVU1164
ARM GAS  D:\noval\Temp\cck0Iw0b.s 			page 117


 4373 0050 A368     		ldr	r3, [r4, #8]
 4374              		.loc 1 1931 31 is_stmt 0 view .LVU1165
 4375 0052 1343     		orrs	r3, r2
 4376 0054 A360     		str	r3, [r4, #8]
1932:Drivers/GD32E23x/Source/gd32e23x_timer.c **** }
 4377              		.loc 1 1932 1 view .LVU1166
 4378              		@ sp needed
 4379              	.LVL259:
 4380              		.loc 1 1932 1 view .LVU1167
 4381 0056 70BD     		pop	{r4, r5, r6, pc}
 4382              	.LVL260:
 4383              	.L243:
1893:Drivers/GD32E23x/Source/gd32e23x_timer.c ****         /* reset the CH1NP bit */
 4384              		.loc 1 1893 9 is_stmt 1 view .LVU1168
 4385 0058 056A     		ldr	r5, [r0, #32]
1893:Drivers/GD32E23x/Source/gd32e23x_timer.c ****         /* reset the CH1NP bit */
 4386              		.loc 1 1893 36 is_stmt 0 view .LVU1169
 4387 005a 1020     		movs	r0, #16
 4388              	.LVL261:
1893:Drivers/GD32E23x/Source/gd32e23x_timer.c ****         /* reset the CH1NP bit */
 4389              		.loc 1 1893 36 view .LVU1170
 4390 005c 8543     		bics	r5, r0
 4391 005e 2562     		str	r5, [r4, #32]
1895:Drivers/GD32E23x/Source/gd32e23x_timer.c ****         /* set the CH1NP bit */
 4392              		.loc 1 1895 9 is_stmt 1 view .LVU1171
 4393 0060 256A     		ldr	r5, [r4, #32]
1895:Drivers/GD32E23x/Source/gd32e23x_timer.c ****         /* set the CH1NP bit */
 4394              		.loc 1 1895 36 is_stmt 0 view .LVU1172
 4395 0062 A026     		movs	r6, #160
 4396 0064 B543     		bics	r5, r6
 4397 0066 2562     		str	r5, [r4, #32]
1897:Drivers/GD32E23x/Source/gd32e23x_timer.c ****         /* reset the CH1MS bit */
 4398              		.loc 1 1897 9 is_stmt 1 view .LVU1173
 4399 0068 256A     		ldr	r5, [r4, #32]
1897:Drivers/GD32E23x/Source/gd32e23x_timer.c ****         /* reset the CH1MS bit */
 4400              		.loc 1 1897 39 is_stmt 0 view .LVU1174
 4401 006a 1201     		lsls	r2, r2, #4
 4402              	.LVL262:
1897:Drivers/GD32E23x/Source/gd32e23x_timer.c ****         /* reset the CH1MS bit */
 4403              		.loc 1 1897 36 view .LVU1175
 4404 006c 2A43     		orrs	r2, r5
 4405 006e 2262     		str	r2, [r4, #32]
1899:Drivers/GD32E23x/Source/gd32e23x_timer.c ****         /* set the CH1MS bit */
 4406              		.loc 1 1899 9 is_stmt 1 view .LVU1176
 4407 0070 A269     		ldr	r2, [r4, #24]
1899:Drivers/GD32E23x/Source/gd32e23x_timer.c ****         /* set the CH1MS bit */
 4408              		.loc 1 1899 36 is_stmt 0 view .LVU1177
 4409 0072 0A4D     		ldr	r5, .L244
 4410 0074 2A40     		ands	r2, r5
 4411 0076 A261     		str	r2, [r4, #24]
1901:Drivers/GD32E23x/Source/gd32e23x_timer.c ****         /* reset the CH1CAPFLT bit */
 4412              		.loc 1 1901 9 is_stmt 1 view .LVU1178
 4413 0078 A269     		ldr	r2, [r4, #24]
1901:Drivers/GD32E23x/Source/gd32e23x_timer.c ****         /* reset the CH1CAPFLT bit */
 4414              		.loc 1 1901 36 is_stmt 0 view .LVU1179
 4415 007a 40F20015 		movw	r5, #256
 4416 007e 2A43     		orrs	r2, r5
ARM GAS  D:\noval\Temp\cck0Iw0b.s 			page 118


 4417 0080 A261     		str	r2, [r4, #24]
1903:Drivers/GD32E23x/Source/gd32e23x_timer.c ****         /* set the CH1CAPFLT bit */
 4418              		.loc 1 1903 9 is_stmt 1 view .LVU1180
 4419 0082 A269     		ldr	r2, [r4, #24]
1903:Drivers/GD32E23x/Source/gd32e23x_timer.c ****         /* set the CH1CAPFLT bit */
 4420              		.loc 1 1903 36 is_stmt 0 view .LVU1181
 4421 0084 064D     		ldr	r5, .L244+4
 4422 0086 2A40     		ands	r2, r5
 4423 0088 A261     		str	r2, [r4, #24]
1905:Drivers/GD32E23x/Source/gd32e23x_timer.c ****         /* set the CH1EN bit */
 4424              		.loc 1 1905 9 is_stmt 1 view .LVU1182
 4425 008a A269     		ldr	r2, [r4, #24]
1905:Drivers/GD32E23x/Source/gd32e23x_timer.c ****         /* set the CH1EN bit */
 4426              		.loc 1 1905 39 is_stmt 0 view .LVU1183
 4427 008c 1B03     		lsls	r3, r3, #12
 4428              	.LVL263:
1905:Drivers/GD32E23x/Source/gd32e23x_timer.c ****         /* set the CH1EN bit */
 4429              		.loc 1 1905 36 view .LVU1184
 4430 008e 1343     		orrs	r3, r2
 4431 0090 A361     		str	r3, [r4, #24]
1907:Drivers/GD32E23x/Source/gd32e23x_timer.c ****     }else{
 4432              		.loc 1 1907 9 is_stmt 1 view .LVU1185
 4433 0092 236A     		ldr	r3, [r4, #32]
1907:Drivers/GD32E23x/Source/gd32e23x_timer.c ****     }else{
 4434              		.loc 1 1907 36 is_stmt 0 view .LVU1186
 4435 0094 0343     		orrs	r3, r0
 4436 0096 2362     		str	r3, [r4, #32]
 4437 0098 D3E7     		b	.L242
 4438              	.L245:
 4439 009a C046     		.align	2
 4440              	.L244:
 4441 009c FFFCFFFF 		.word	-769
 4442 00a0 FF0FFFFF 		.word	-61441
 4443              		.cfi_endproc
 4444              	.LFE126:
 4446              		.section	.text.timer_external_clock_mode0_config,"ax",%progbits
 4447              		.align	1
 4448              		.global	timer_external_clock_mode0_config
 4449              		.syntax unified
 4450              		.code	16
 4451              		.thumb_func
 4453              	timer_external_clock_mode0_config:
 4454              	.LVL264:
 4455              	.LFB127:
1933:Drivers/GD32E23x/Source/gd32e23x_timer.c **** 
1934:Drivers/GD32E23x/Source/gd32e23x_timer.c **** /*!
1935:Drivers/GD32E23x/Source/gd32e23x_timer.c ****     \brief      configure TIMER the external clock mode0
1936:Drivers/GD32E23x/Source/gd32e23x_timer.c ****     \param[in]  timer_periph: TIMERx(x=0,2)
1937:Drivers/GD32E23x/Source/gd32e23x_timer.c ****     \param[in]  extprescaler: 
1938:Drivers/GD32E23x/Source/gd32e23x_timer.c ****                 only one parameter can be selected which is shown as below:
1939:Drivers/GD32E23x/Source/gd32e23x_timer.c ****       \arg        TIMER_EXT_TRI_PSC_OFF: no divided
1940:Drivers/GD32E23x/Source/gd32e23x_timer.c ****       \arg        TIMER_EXT_TRI_PSC_DIV2: divided by 2
1941:Drivers/GD32E23x/Source/gd32e23x_timer.c ****       \arg        TIMER_EXT_TRI_PSC_DIV4: divided by 4
1942:Drivers/GD32E23x/Source/gd32e23x_timer.c ****       \arg        TIMER_EXT_TRI_PSC_DIV8: divided by 8
1943:Drivers/GD32E23x/Source/gd32e23x_timer.c ****     \param[in]  extpolarity: 
1944:Drivers/GD32E23x/Source/gd32e23x_timer.c ****                 only one parameter can be selected which is shown as below:
1945:Drivers/GD32E23x/Source/gd32e23x_timer.c ****       \arg        TIMER_ETP_FALLING: active low or falling edge active
ARM GAS  D:\noval\Temp\cck0Iw0b.s 			page 119


1946:Drivers/GD32E23x/Source/gd32e23x_timer.c ****       \arg        TIMER_ETP_RISING: active high or rising edge active
1947:Drivers/GD32E23x/Source/gd32e23x_timer.c ****     \param[in]  extfilter: a value between 0 and 15
1948:Drivers/GD32E23x/Source/gd32e23x_timer.c ****     \param[out] none
1949:Drivers/GD32E23x/Source/gd32e23x_timer.c ****     \retval     none
1950:Drivers/GD32E23x/Source/gd32e23x_timer.c **** */
1951:Drivers/GD32E23x/Source/gd32e23x_timer.c **** void timer_external_clock_mode0_config(uint32_t timer_periph, uint32_t extprescaler,
1952:Drivers/GD32E23x/Source/gd32e23x_timer.c ****                                        uint32_t extpolarity, uint32_t extfilter)
1953:Drivers/GD32E23x/Source/gd32e23x_timer.c **** {
 4456              		.loc 1 1953 1 is_stmt 1 view -0
 4457              		.cfi_startproc
 4458              		@ args = 0, pretend = 0, frame = 0
 4459              		@ frame_needed = 0, uses_anonymous_args = 0
 4460              		.loc 1 1953 1 is_stmt 0 view .LVU1188
 4461 0000 10B5     		push	{r4, lr}
 4462              	.LCFI9:
 4463              		.cfi_def_cfa_offset 8
 4464              		.cfi_offset 4, -8
 4465              		.cfi_offset 14, -4
 4466 0002 0400     		movs	r4, r0
1954:Drivers/GD32E23x/Source/gd32e23x_timer.c ****     /* configure TIMER external trigger input */
1955:Drivers/GD32E23x/Source/gd32e23x_timer.c ****     timer_external_trigger_config(timer_periph, extprescaler, extpolarity, extfilter);
 4467              		.loc 1 1955 5 is_stmt 1 view .LVU1189
 4468 0004 FFF7FEFF 		bl	timer_external_trigger_config
 4469              	.LVL265:
1956:Drivers/GD32E23x/Source/gd32e23x_timer.c **** 
1957:Drivers/GD32E23x/Source/gd32e23x_timer.c ****     /* reset the SMC bit,TRGS bit */
1958:Drivers/GD32E23x/Source/gd32e23x_timer.c ****     TIMER_SMCFG(timer_periph) &= (~(uint32_t)(TIMER_SMCFG_SMC | TIMER_SMCFG_TRGS));
 4470              		.loc 1 1958 5 view .LVU1190
 4471 0008 A368     		ldr	r3, [r4, #8]
 4472              		.loc 1 1958 31 is_stmt 0 view .LVU1191
 4473 000a 7722     		movs	r2, #119
 4474 000c 9343     		bics	r3, r2
 4475 000e A360     		str	r3, [r4, #8]
1959:Drivers/GD32E23x/Source/gd32e23x_timer.c ****     /* set the SMC bit,TRGS bit */
1960:Drivers/GD32E23x/Source/gd32e23x_timer.c ****     TIMER_SMCFG(timer_periph) |= (uint32_t)(TIMER_SLAVE_MODE_EXTERNAL0 | TIMER_SMCFG_TRGSEL_ETIFP);
 4476              		.loc 1 1960 5 is_stmt 1 view .LVU1192
 4477 0010 A368     		ldr	r3, [r4, #8]
 4478              		.loc 1 1960 31 is_stmt 0 view .LVU1193
 4479 0012 1343     		orrs	r3, r2
 4480 0014 A360     		str	r3, [r4, #8]
1961:Drivers/GD32E23x/Source/gd32e23x_timer.c **** }
 4481              		.loc 1 1961 1 view .LVU1194
 4482              		@ sp needed
 4483              	.LVL266:
 4484              		.loc 1 1961 1 view .LVU1195
 4485 0016 10BD     		pop	{r4, pc}
 4486              		.cfi_endproc
 4487              	.LFE127:
 4489              		.section	.text.timer_external_clock_mode1_config,"ax",%progbits
 4490              		.align	1
 4491              		.global	timer_external_clock_mode1_config
 4492              		.syntax unified
 4493              		.code	16
 4494              		.thumb_func
 4496              	timer_external_clock_mode1_config:
 4497              	.LVL267:
 4498              	.LFB128:
ARM GAS  D:\noval\Temp\cck0Iw0b.s 			page 120


1962:Drivers/GD32E23x/Source/gd32e23x_timer.c **** 
1963:Drivers/GD32E23x/Source/gd32e23x_timer.c **** /*!
1964:Drivers/GD32E23x/Source/gd32e23x_timer.c ****     \brief      configure TIMER the external clock mode1
1965:Drivers/GD32E23x/Source/gd32e23x_timer.c ****     \param[in]  timer_periph: TIMERx(x=0,2)
1966:Drivers/GD32E23x/Source/gd32e23x_timer.c ****     \param[in]  extprescaler: 
1967:Drivers/GD32E23x/Source/gd32e23x_timer.c ****                 only one parameter can be selected which is shown as below:
1968:Drivers/GD32E23x/Source/gd32e23x_timer.c ****       \arg        TIMER_EXT_TRI_PSC_OFF: no divided
1969:Drivers/GD32E23x/Source/gd32e23x_timer.c ****       \arg        TIMER_EXT_TRI_PSC_DIV2: divided by 2
1970:Drivers/GD32E23x/Source/gd32e23x_timer.c ****       \arg        TIMER_EXT_TRI_PSC_DIV4: divided by 4
1971:Drivers/GD32E23x/Source/gd32e23x_timer.c ****       \arg        TIMER_EXT_TRI_PSC_DIV8: divided by 8
1972:Drivers/GD32E23x/Source/gd32e23x_timer.c ****     \param[in]  extpolarity: 
1973:Drivers/GD32E23x/Source/gd32e23x_timer.c ****                 only one parameter can be selected which is shown as below:
1974:Drivers/GD32E23x/Source/gd32e23x_timer.c ****       \arg        TIMER_ETP_FALLING: active low or falling edge active
1975:Drivers/GD32E23x/Source/gd32e23x_timer.c ****       \arg        TIMER_ETP_RISING: active high or rising edge active
1976:Drivers/GD32E23x/Source/gd32e23x_timer.c ****     \param[in]  extfilter: a value between 0 and 15
1977:Drivers/GD32E23x/Source/gd32e23x_timer.c ****     \param[out] none
1978:Drivers/GD32E23x/Source/gd32e23x_timer.c ****     \retval     none
1979:Drivers/GD32E23x/Source/gd32e23x_timer.c **** */
1980:Drivers/GD32E23x/Source/gd32e23x_timer.c **** void timer_external_clock_mode1_config(uint32_t timer_periph, uint32_t extprescaler,
1981:Drivers/GD32E23x/Source/gd32e23x_timer.c ****                                        uint32_t extpolarity, uint32_t extfilter)
1982:Drivers/GD32E23x/Source/gd32e23x_timer.c **** {
 4499              		.loc 1 1982 1 is_stmt 1 view -0
 4500              		.cfi_startproc
 4501              		@ args = 0, pretend = 0, frame = 0
 4502              		@ frame_needed = 0, uses_anonymous_args = 0
 4503              		.loc 1 1982 1 is_stmt 0 view .LVU1197
 4504 0000 10B5     		push	{r4, lr}
 4505              	.LCFI10:
 4506              		.cfi_def_cfa_offset 8
 4507              		.cfi_offset 4, -8
 4508              		.cfi_offset 14, -4
 4509 0002 0400     		movs	r4, r0
1983:Drivers/GD32E23x/Source/gd32e23x_timer.c ****     /* configure TIMER external trigger input */
1984:Drivers/GD32E23x/Source/gd32e23x_timer.c ****     timer_external_trigger_config(timer_periph, extprescaler, extpolarity, extfilter);
 4510              		.loc 1 1984 5 is_stmt 1 view .LVU1198
 4511 0004 FFF7FEFF 		bl	timer_external_trigger_config
 4512              	.LVL268:
1985:Drivers/GD32E23x/Source/gd32e23x_timer.c **** 
1986:Drivers/GD32E23x/Source/gd32e23x_timer.c ****     TIMER_SMCFG(timer_periph) |= (uint32_t)TIMER_SMCFG_SMC1;
 4513              		.loc 1 1986 5 view .LVU1199
 4514 0008 A368     		ldr	r3, [r4, #8]
 4515              		.loc 1 1986 31 is_stmt 0 view .LVU1200
 4516 000a 44F20002 		movw	r2, #16384
 4517 000e 1343     		orrs	r3, r2
 4518 0010 A360     		str	r3, [r4, #8]
1987:Drivers/GD32E23x/Source/gd32e23x_timer.c **** }
 4519              		.loc 1 1987 1 view .LVU1201
 4520              		@ sp needed
 4521              	.LVL269:
 4522              		.loc 1 1987 1 view .LVU1202
 4523 0012 10BD     		pop	{r4, pc}
 4524              		.cfi_endproc
 4525              	.LFE128:
 4527              		.section	.text.timer_external_clock_mode1_disable,"ax",%progbits
 4528              		.align	1
 4529              		.global	timer_external_clock_mode1_disable
 4530              		.syntax unified
ARM GAS  D:\noval\Temp\cck0Iw0b.s 			page 121


 4531              		.code	16
 4532              		.thumb_func
 4534              	timer_external_clock_mode1_disable:
 4535              	.LVL270:
 4536              	.LFB129:
1988:Drivers/GD32E23x/Source/gd32e23x_timer.c **** 
1989:Drivers/GD32E23x/Source/gd32e23x_timer.c **** /*!
1990:Drivers/GD32E23x/Source/gd32e23x_timer.c ****     \brief      disable TIMER the external clock mode1
1991:Drivers/GD32E23x/Source/gd32e23x_timer.c ****     \param[in]  timer_periph: TIMERx(x=0,2)
1992:Drivers/GD32E23x/Source/gd32e23x_timer.c ****     \param[out] none
1993:Drivers/GD32E23x/Source/gd32e23x_timer.c ****     \retval     none
1994:Drivers/GD32E23x/Source/gd32e23x_timer.c **** */
1995:Drivers/GD32E23x/Source/gd32e23x_timer.c **** void timer_external_clock_mode1_disable(uint32_t timer_periph)
1996:Drivers/GD32E23x/Source/gd32e23x_timer.c **** {
 4537              		.loc 1 1996 1 is_stmt 1 view -0
 4538              		.cfi_startproc
 4539              		@ args = 0, pretend = 0, frame = 0
 4540              		@ frame_needed = 0, uses_anonymous_args = 0
 4541              		@ link register save eliminated.
1997:Drivers/GD32E23x/Source/gd32e23x_timer.c ****     TIMER_SMCFG(timer_periph) &= ~(uint32_t)TIMER_SMCFG_SMC1;
 4542              		.loc 1 1997 5 view .LVU1204
 4543 0000 8368     		ldr	r3, [r0, #8]
 4544              		.loc 1 1997 31 is_stmt 0 view .LVU1205
 4545 0002 024A     		ldr	r2, .L249
 4546 0004 1340     		ands	r3, r2
 4547 0006 8360     		str	r3, [r0, #8]
1998:Drivers/GD32E23x/Source/gd32e23x_timer.c **** }
 4548              		.loc 1 1998 1 view .LVU1206
 4549              		@ sp needed
 4550 0008 7047     		bx	lr
 4551              	.L250:
 4552 000a C046     		.align	2
 4553              	.L249:
 4554 000c FFBFFFFF 		.word	-16385
 4555              		.cfi_endproc
 4556              	.LFE129:
 4558              		.section	.text.timer_channel_remap_config,"ax",%progbits
 4559              		.align	1
 4560              		.global	timer_channel_remap_config
 4561              		.syntax unified
 4562              		.code	16
 4563              		.thumb_func
 4565              	timer_channel_remap_config:
 4566              	.LVL271:
 4567              	.LFB130:
1999:Drivers/GD32E23x/Source/gd32e23x_timer.c **** 
2000:Drivers/GD32E23x/Source/gd32e23x_timer.c **** /*!
2001:Drivers/GD32E23x/Source/gd32e23x_timer.c ****     \brief      configure TIMER channel remap function
2002:Drivers/GD32E23x/Source/gd32e23x_timer.c ****     \param[in]  timer_periph: TIMERx(x=13)
2003:Drivers/GD32E23x/Source/gd32e23x_timer.c ****     \param[in]  remap: 
2004:Drivers/GD32E23x/Source/gd32e23x_timer.c ****                 only one parameter can be selected which is shown as below:
2005:Drivers/GD32E23x/Source/gd32e23x_timer.c ****       \arg        TIMER13_CI0_RMP_GPIO: timer13 channel 0 input is connected to GPIO(TIMER13_CH0)
2006:Drivers/GD32E23x/Source/gd32e23x_timer.c ****       \arg        TIMER13_CI0_RMP_RTCCLK: timer13 channel 0 input is connected to the RTCCLK
2007:Drivers/GD32E23x/Source/gd32e23x_timer.c ****       \arg        TIMER13_CI0_RMP_HXTAL_DIV32: timer13 channel 0 input is connected to HXTAL/32 clo
2008:Drivers/GD32E23x/Source/gd32e23x_timer.c ****       \arg        TIMER13_CI0_RMP_CKOUTSEL: timer13 channel 0 input is connected to CKOUTSEL
2009:Drivers/GD32E23x/Source/gd32e23x_timer.c ****     \param[out] none
2010:Drivers/GD32E23x/Source/gd32e23x_timer.c ****     \retval     none
ARM GAS  D:\noval\Temp\cck0Iw0b.s 			page 122


2011:Drivers/GD32E23x/Source/gd32e23x_timer.c **** */
2012:Drivers/GD32E23x/Source/gd32e23x_timer.c **** void timer_channel_remap_config(uint32_t timer_periph, uint32_t remap)
2013:Drivers/GD32E23x/Source/gd32e23x_timer.c **** {
 4568              		.loc 1 2013 1 is_stmt 1 view -0
 4569              		.cfi_startproc
 4570              		@ args = 0, pretend = 0, frame = 0
 4571              		@ frame_needed = 0, uses_anonymous_args = 0
 4572              		@ link register save eliminated.
2014:Drivers/GD32E23x/Source/gd32e23x_timer.c ****     TIMER_IRMP(timer_periph) = (uint32_t)remap;
 4573              		.loc 1 2014 5 view .LVU1208
 4574              		.loc 1 2014 30 is_stmt 0 view .LVU1209
 4575 0000 0165     		str	r1, [r0, #80]
2015:Drivers/GD32E23x/Source/gd32e23x_timer.c **** }
 4576              		.loc 1 2015 1 view .LVU1210
 4577              		@ sp needed
 4578 0002 7047     		bx	lr
 4579              		.cfi_endproc
 4580              	.LFE130:
 4582              		.section	.text.timer_write_chxval_register_config,"ax",%progbits
 4583              		.align	1
 4584              		.global	timer_write_chxval_register_config
 4585              		.syntax unified
 4586              		.code	16
 4587              		.thumb_func
 4589              	timer_write_chxval_register_config:
 4590              	.LVL272:
 4591              	.LFB131:
2016:Drivers/GD32E23x/Source/gd32e23x_timer.c **** 
2017:Drivers/GD32E23x/Source/gd32e23x_timer.c **** /*!
2018:Drivers/GD32E23x/Source/gd32e23x_timer.c ****     \brief      configure TIMER write CHxVAL register selection
2019:Drivers/GD32E23x/Source/gd32e23x_timer.c ****     \param[in]  timer_periph: TIMERx(x=0,2,13..16)
2020:Drivers/GD32E23x/Source/gd32e23x_timer.c ****     \param[in]  ccsel: 
2021:Drivers/GD32E23x/Source/gd32e23x_timer.c ****                 only one parameter can be selected which is shown as below:
2022:Drivers/GD32E23x/Source/gd32e23x_timer.c ****       \arg        TIMER_CHVSEL_DISABLE: no effect
2023:Drivers/GD32E23x/Source/gd32e23x_timer.c ****       \arg        TIMER_CHVSEL_ENABLE:  when write the CHxVAL register, if the write value is same 
2024:Drivers/GD32E23x/Source/gd32e23x_timer.c ****     \param[out] none
2025:Drivers/GD32E23x/Source/gd32e23x_timer.c ****     \retval     none
2026:Drivers/GD32E23x/Source/gd32e23x_timer.c **** */
2027:Drivers/GD32E23x/Source/gd32e23x_timer.c **** void timer_write_chxval_register_config(uint32_t timer_periph, uint16_t ccsel)
2028:Drivers/GD32E23x/Source/gd32e23x_timer.c **** {
 4592              		.loc 1 2028 1 is_stmt 1 view -0
 4593              		.cfi_startproc
 4594              		@ args = 0, pretend = 0, frame = 0
 4595              		@ frame_needed = 0, uses_anonymous_args = 0
 4596              		@ link register save eliminated.
2029:Drivers/GD32E23x/Source/gd32e23x_timer.c ****     if(TIMER_CHVSEL_ENABLE == ccsel){
 4597              		.loc 1 2029 5 view .LVU1212
 4598              		.loc 1 2029 7 is_stmt 0 view .LVU1213
 4599 0000 0129     		cmp	r1, #1
 4600 0002 06D0     		beq	.L255
2030:Drivers/GD32E23x/Source/gd32e23x_timer.c ****         TIMER_CFG(timer_periph) |= (uint32_t)TIMER_CFG_CHVSEL;
2031:Drivers/GD32E23x/Source/gd32e23x_timer.c ****     }else if(TIMER_CHVSEL_DISABLE == ccsel){
 4601              		.loc 1 2031 11 is_stmt 1 view .LVU1214
 4602              		.loc 1 2031 13 is_stmt 0 view .LVU1215
 4603 0004 51B9     		cbnz	r1, .L252
2032:Drivers/GD32E23x/Source/gd32e23x_timer.c ****         TIMER_CFG(timer_periph) &= ~(uint32_t)TIMER_CFG_CHVSEL;
 4604              		.loc 1 2032 9 is_stmt 1 view .LVU1216
ARM GAS  D:\noval\Temp\cck0Iw0b.s 			page 123


 4605 0006 FC30     		adds	r0, r0, #252
 4606              	.LVL273:
 4607              		.loc 1 2032 9 is_stmt 0 view .LVU1217
 4608 0008 0368     		ldr	r3, [r0]
 4609              		.loc 1 2032 33 view .LVU1218
 4610 000a 0222     		movs	r2, #2
 4611 000c 9343     		bics	r3, r2
 4612 000e 0360     		str	r3, [r0]
2033:Drivers/GD32E23x/Source/gd32e23x_timer.c ****     }else{
2034:Drivers/GD32E23x/Source/gd32e23x_timer.c ****         /* illegal parameters */
2035:Drivers/GD32E23x/Source/gd32e23x_timer.c ****     }
 4613              		.loc 1 2035 5 is_stmt 1 view .LVU1219
2036:Drivers/GD32E23x/Source/gd32e23x_timer.c **** }
 4614              		.loc 1 2036 1 is_stmt 0 view .LVU1220
 4615 0010 04E0     		b	.L252
 4616              	.LVL274:
 4617              	.L255:
2030:Drivers/GD32E23x/Source/gd32e23x_timer.c ****     }else if(TIMER_CHVSEL_DISABLE == ccsel){
 4618              		.loc 1 2030 9 is_stmt 1 view .LVU1221
 4619 0012 FC30     		adds	r0, r0, #252
 4620              	.LVL275:
2030:Drivers/GD32E23x/Source/gd32e23x_timer.c ****     }else if(TIMER_CHVSEL_DISABLE == ccsel){
 4621              		.loc 1 2030 9 is_stmt 0 view .LVU1222
 4622 0014 0368     		ldr	r3, [r0]
2030:Drivers/GD32E23x/Source/gd32e23x_timer.c ****     }else if(TIMER_CHVSEL_DISABLE == ccsel){
 4623              		.loc 1 2030 33 view .LVU1223
 4624 0016 0222     		movs	r2, #2
 4625 0018 1343     		orrs	r3, r2
 4626 001a 0360     		str	r3, [r0]
 4627              	.LVL276:
 4628              	.L252:
 4629              		.loc 1 2036 1 view .LVU1224
 4630              		@ sp needed
 4631 001c 7047     		bx	lr
 4632              		.cfi_endproc
 4633              	.LFE131:
 4635              		.section	.text.timer_output_value_selection_config,"ax",%progbits
 4636              		.align	1
 4637              		.global	timer_output_value_selection_config
 4638              		.syntax unified
 4639              		.code	16
 4640              		.thumb_func
 4642              	timer_output_value_selection_config:
 4643              	.LVL277:
 4644              	.LFB132:
2037:Drivers/GD32E23x/Source/gd32e23x_timer.c **** 
2038:Drivers/GD32E23x/Source/gd32e23x_timer.c **** /*!
2039:Drivers/GD32E23x/Source/gd32e23x_timer.c ****     \brief      configure TIMER output value selection
2040:Drivers/GD32E23x/Source/gd32e23x_timer.c ****     \param[in]  timer_periph: TIMERx(x=0,14..16)
2041:Drivers/GD32E23x/Source/gd32e23x_timer.c ****     \param[in]  outsel:
2042:Drivers/GD32E23x/Source/gd32e23x_timer.c ****                 only one parameter can be selected which is shown as below:
2043:Drivers/GD32E23x/Source/gd32e23x_timer.c ****       \arg        TIMER_OUTSEL_DISABLE: no effect
2044:Drivers/GD32E23x/Source/gd32e23x_timer.c ****       \arg        TIMER_OUTSEL_ENABLE: if POEN and IOS is 0, the output disabled
2045:Drivers/GD32E23x/Source/gd32e23x_timer.c ****     \param[out] none
2046:Drivers/GD32E23x/Source/gd32e23x_timer.c ****     \retval     none
2047:Drivers/GD32E23x/Source/gd32e23x_timer.c **** */
2048:Drivers/GD32E23x/Source/gd32e23x_timer.c **** void timer_output_value_selection_config(uint32_t timer_periph, uint16_t outsel)
ARM GAS  D:\noval\Temp\cck0Iw0b.s 			page 124


2049:Drivers/GD32E23x/Source/gd32e23x_timer.c **** {
 4645              		.loc 1 2049 1 is_stmt 1 view -0
 4646              		.cfi_startproc
 4647              		@ args = 0, pretend = 0, frame = 0
 4648              		@ frame_needed = 0, uses_anonymous_args = 0
 4649              		@ link register save eliminated.
2050:Drivers/GD32E23x/Source/gd32e23x_timer.c ****     if(TIMER_OUTSEL_ENABLE == outsel){
 4650              		.loc 1 2050 5 view .LVU1226
 4651              		.loc 1 2050 7 is_stmt 0 view .LVU1227
 4652 0000 0129     		cmp	r1, #1
 4653 0002 06D0     		beq	.L259
2051:Drivers/GD32E23x/Source/gd32e23x_timer.c ****         TIMER_CFG(timer_periph) |= (uint32_t)TIMER_CFG_OUTSEL;
2052:Drivers/GD32E23x/Source/gd32e23x_timer.c ****     }else if(TIMER_OUTSEL_DISABLE == outsel){
 4654              		.loc 1 2052 11 is_stmt 1 view .LVU1228
 4655              		.loc 1 2052 13 is_stmt 0 view .LVU1229
 4656 0004 51B9     		cbnz	r1, .L256
2053:Drivers/GD32E23x/Source/gd32e23x_timer.c ****         TIMER_CFG(timer_periph) &= ~(uint32_t)TIMER_CFG_OUTSEL;
 4657              		.loc 1 2053 9 is_stmt 1 view .LVU1230
 4658 0006 FC30     		adds	r0, r0, #252
 4659              	.LVL278:
 4660              		.loc 1 2053 9 is_stmt 0 view .LVU1231
 4661 0008 0368     		ldr	r3, [r0]
 4662              		.loc 1 2053 33 view .LVU1232
 4663 000a 0122     		movs	r2, #1
 4664 000c 9343     		bics	r3, r2
 4665 000e 0360     		str	r3, [r0]
2054:Drivers/GD32E23x/Source/gd32e23x_timer.c ****     }else{
2055:Drivers/GD32E23x/Source/gd32e23x_timer.c ****         /* illegal parameters */
2056:Drivers/GD32E23x/Source/gd32e23x_timer.c ****     }
 4666              		.loc 1 2056 5 is_stmt 1 view .LVU1233
2057:Drivers/GD32E23x/Source/gd32e23x_timer.c **** }
 4667              		.loc 1 2057 1 is_stmt 0 view .LVU1234
 4668 0010 04E0     		b	.L256
 4669              	.LVL279:
 4670              	.L259:
2051:Drivers/GD32E23x/Source/gd32e23x_timer.c ****     }else if(TIMER_OUTSEL_DISABLE == outsel){
 4671              		.loc 1 2051 9 is_stmt 1 view .LVU1235
 4672 0012 FC30     		adds	r0, r0, #252
 4673              	.LVL280:
2051:Drivers/GD32E23x/Source/gd32e23x_timer.c ****     }else if(TIMER_OUTSEL_DISABLE == outsel){
 4674              		.loc 1 2051 9 is_stmt 0 view .LVU1236
 4675 0014 0368     		ldr	r3, [r0]
2051:Drivers/GD32E23x/Source/gd32e23x_timer.c ****     }else if(TIMER_OUTSEL_DISABLE == outsel){
 4676              		.loc 1 2051 33 view .LVU1237
 4677 0016 0122     		movs	r2, #1
 4678 0018 1343     		orrs	r3, r2
 4679 001a 0360     		str	r3, [r0]
 4680              	.LVL281:
 4681              	.L256:
 4682              		.loc 1 2057 1 view .LVU1238
 4683              		@ sp needed
 4684 001c 7047     		bx	lr
 4685              		.cfi_endproc
 4686              	.LFE132:
 4688              		.text
 4689              	.Letext0:
 4690              		.file 2 "D:/AppData/arm-gnu-toolchain-13.3.rel1-mingw-w64-i686-arm-none-eabi/arm-none-eabi/include
ARM GAS  D:\noval\Temp\cck0Iw0b.s 			page 125


 4691              		.file 3 "D:/AppData/arm-gnu-toolchain-13.3.rel1-mingw-w64-i686-arm-none-eabi/arm-none-eabi/include
 4692              		.file 4 "Drivers/CMSIS/GD/GD32E23x/Include/gd32e23x.h"
 4693              		.file 5 "Drivers/GD32E23x/Include/gd32e23x_rcu.h"
 4694              		.file 6 "Drivers/GD32E23x/Include/gd32e23x_timer.h"
ARM GAS  D:\noval\Temp\cck0Iw0b.s 			page 126


DEFINED SYMBOLS
                            *ABS*:00000000 gd32e23x_timer.c
D:\noval\Temp\cck0Iw0b.s:19     .text.timer_deinit:00000000 $t
D:\noval\Temp\cck0Iw0b.s:25     .text.timer_deinit:00000000 timer_deinit
D:\noval\Temp\cck0Iw0b.s:176    .text.timer_struct_para_init:00000000 $t
D:\noval\Temp\cck0Iw0b.s:182    .text.timer_struct_para_init:00000000 timer_struct_para_init
D:\noval\Temp\cck0Iw0b.s:217    .text.timer_init:00000000 $t
D:\noval\Temp\cck0Iw0b.s:223    .text.timer_init:00000000 timer_init
D:\noval\Temp\cck0Iw0b.s:360    .text.timer_init:000000d0 $d
D:\noval\Temp\cck0Iw0b.s:365    .text.timer_enable:00000000 $t
D:\noval\Temp\cck0Iw0b.s:371    .text.timer_enable:00000000 timer_enable
D:\noval\Temp\cck0Iw0b.s:392    .text.timer_disable:00000000 $t
D:\noval\Temp\cck0Iw0b.s:398    .text.timer_disable:00000000 timer_disable
D:\noval\Temp\cck0Iw0b.s:419    .text.timer_auto_reload_shadow_enable:00000000 $t
D:\noval\Temp\cck0Iw0b.s:425    .text.timer_auto_reload_shadow_enable:00000000 timer_auto_reload_shadow_enable
D:\noval\Temp\cck0Iw0b.s:446    .text.timer_auto_reload_shadow_disable:00000000 $t
D:\noval\Temp\cck0Iw0b.s:452    .text.timer_auto_reload_shadow_disable:00000000 timer_auto_reload_shadow_disable
D:\noval\Temp\cck0Iw0b.s:473    .text.timer_update_event_enable:00000000 $t
D:\noval\Temp\cck0Iw0b.s:479    .text.timer_update_event_enable:00000000 timer_update_event_enable
D:\noval\Temp\cck0Iw0b.s:500    .text.timer_update_event_disable:00000000 $t
D:\noval\Temp\cck0Iw0b.s:506    .text.timer_update_event_disable:00000000 timer_update_event_disable
D:\noval\Temp\cck0Iw0b.s:527    .text.timer_counter_alignment:00000000 $t
D:\noval\Temp\cck0Iw0b.s:533    .text.timer_counter_alignment:00000000 timer_counter_alignment
D:\noval\Temp\cck0Iw0b.s:559    .text.timer_counter_up_direction:00000000 $t
D:\noval\Temp\cck0Iw0b.s:565    .text.timer_counter_up_direction:00000000 timer_counter_up_direction
D:\noval\Temp\cck0Iw0b.s:586    .text.timer_counter_down_direction:00000000 $t
D:\noval\Temp\cck0Iw0b.s:592    .text.timer_counter_down_direction:00000000 timer_counter_down_direction
D:\noval\Temp\cck0Iw0b.s:613    .text.timer_prescaler_config:00000000 $t
D:\noval\Temp\cck0Iw0b.s:619    .text.timer_prescaler_config:00000000 timer_prescaler_config
D:\noval\Temp\cck0Iw0b.s:650    .text.timer_repetition_value_config:00000000 $t
D:\noval\Temp\cck0Iw0b.s:656    .text.timer_repetition_value_config:00000000 timer_repetition_value_config
D:\noval\Temp\cck0Iw0b.s:674    .text.timer_autoreload_value_config:00000000 $t
D:\noval\Temp\cck0Iw0b.s:680    .text.timer_autoreload_value_config:00000000 timer_autoreload_value_config
D:\noval\Temp\cck0Iw0b.s:698    .text.timer_counter_value_config:00000000 $t
D:\noval\Temp\cck0Iw0b.s:704    .text.timer_counter_value_config:00000000 timer_counter_value_config
D:\noval\Temp\cck0Iw0b.s:722    .text.timer_counter_read:00000000 $t
D:\noval\Temp\cck0Iw0b.s:728    .text.timer_counter_read:00000000 timer_counter_read
D:\noval\Temp\cck0Iw0b.s:749    .text.timer_prescaler_read:00000000 $t
D:\noval\Temp\cck0Iw0b.s:755    .text.timer_prescaler_read:00000000 timer_prescaler_read
D:\noval\Temp\cck0Iw0b.s:779    .text.timer_single_pulse_mode_config:00000000 $t
D:\noval\Temp\cck0Iw0b.s:785    .text.timer_single_pulse_mode_config:00000000 timer_single_pulse_mode_config
D:\noval\Temp\cck0Iw0b.s:824    .text.timer_update_source_config:00000000 $t
D:\noval\Temp\cck0Iw0b.s:830    .text.timer_update_source_config:00000000 timer_update_source_config
D:\noval\Temp\cck0Iw0b.s:869    .text.timer_ocpre_clear_source_config:00000000 $t
D:\noval\Temp\cck0Iw0b.s:875    .text.timer_ocpre_clear_source_config:00000000 timer_ocpre_clear_source_config
D:\noval\Temp\cck0Iw0b.s:914    .text.timer_interrupt_enable:00000000 $t
D:\noval\Temp\cck0Iw0b.s:920    .text.timer_interrupt_enable:00000000 timer_interrupt_enable
D:\noval\Temp\cck0Iw0b.s:940    .text.timer_interrupt_disable:00000000 $t
D:\noval\Temp\cck0Iw0b.s:946    .text.timer_interrupt_disable:00000000 timer_interrupt_disable
D:\noval\Temp\cck0Iw0b.s:966    .text.timer_interrupt_flag_get:00000000 $t
D:\noval\Temp\cck0Iw0b.s:972    .text.timer_interrupt_flag_get:00000000 timer_interrupt_flag_get
D:\noval\Temp\cck0Iw0b.s:1020   .text.timer_interrupt_flag_clear:00000000 $t
D:\noval\Temp\cck0Iw0b.s:1026   .text.timer_interrupt_flag_clear:00000000 timer_interrupt_flag_clear
D:\noval\Temp\cck0Iw0b.s:1047   .text.timer_flag_get:00000000 $t
D:\noval\Temp\cck0Iw0b.s:1053   .text.timer_flag_get:00000000 timer_flag_get
D:\noval\Temp\cck0Iw0b.s:1085   .text.timer_flag_clear:00000000 $t
D:\noval\Temp\cck0Iw0b.s:1091   .text.timer_flag_clear:00000000 timer_flag_clear
ARM GAS  D:\noval\Temp\cck0Iw0b.s 			page 127


D:\noval\Temp\cck0Iw0b.s:1112   .text.timer_dma_enable:00000000 $t
D:\noval\Temp\cck0Iw0b.s:1118   .text.timer_dma_enable:00000000 timer_dma_enable
D:\noval\Temp\cck0Iw0b.s:1138   .text.timer_dma_disable:00000000 $t
D:\noval\Temp\cck0Iw0b.s:1144   .text.timer_dma_disable:00000000 timer_dma_disable
D:\noval\Temp\cck0Iw0b.s:1164   .text.timer_channel_dma_request_source_select:00000000 $t
D:\noval\Temp\cck0Iw0b.s:1170   .text.timer_channel_dma_request_source_select:00000000 timer_channel_dma_request_source_select
D:\noval\Temp\cck0Iw0b.s:1209   .text.timer_dma_transfer_config:00000000 $t
D:\noval\Temp\cck0Iw0b.s:1215   .text.timer_dma_transfer_config:00000000 timer_dma_transfer_config
D:\noval\Temp\cck0Iw0b.s:1248   .text.timer_dma_transfer_config:00000014 $d
D:\noval\Temp\cck0Iw0b.s:1253   .text.timer_event_software_generate:00000000 $t
D:\noval\Temp\cck0Iw0b.s:1259   .text.timer_event_software_generate:00000000 timer_event_software_generate
D:\noval\Temp\cck0Iw0b.s:1279   .text.timer_break_struct_para_init:00000000 $t
D:\noval\Temp\cck0Iw0b.s:1285   .text.timer_break_struct_para_init:00000000 timer_break_struct_para_init
D:\noval\Temp\cck0Iw0b.s:1322   .text.timer_break_config:00000000 $t
D:\noval\Temp\cck0Iw0b.s:1328   .text.timer_break_config:00000000 timer_break_config
D:\noval\Temp\cck0Iw0b.s:1379   .text.timer_break_enable:00000000 $t
D:\noval\Temp\cck0Iw0b.s:1385   .text.timer_break_enable:00000000 timer_break_enable
D:\noval\Temp\cck0Iw0b.s:1406   .text.timer_break_disable:00000000 $t
D:\noval\Temp\cck0Iw0b.s:1412   .text.timer_break_disable:00000000 timer_break_disable
D:\noval\Temp\cck0Iw0b.s:1432   .text.timer_break_disable:0000000c $d
D:\noval\Temp\cck0Iw0b.s:1437   .text.timer_automatic_output_enable:00000000 $t
D:\noval\Temp\cck0Iw0b.s:1443   .text.timer_automatic_output_enable:00000000 timer_automatic_output_enable
D:\noval\Temp\cck0Iw0b.s:1464   .text.timer_automatic_output_disable:00000000 $t
D:\noval\Temp\cck0Iw0b.s:1470   .text.timer_automatic_output_disable:00000000 timer_automatic_output_disable
D:\noval\Temp\cck0Iw0b.s:1490   .text.timer_automatic_output_disable:0000000c $d
D:\noval\Temp\cck0Iw0b.s:1495   .text.timer_primary_output_config:00000000 $t
D:\noval\Temp\cck0Iw0b.s:1501   .text.timer_primary_output_config:00000000 timer_primary_output_config
D:\noval\Temp\cck0Iw0b.s:1534   .text.timer_primary_output_config:0000001c $d
D:\noval\Temp\cck0Iw0b.s:1539   .text.timer_channel_control_shadow_config:00000000 $t
D:\noval\Temp\cck0Iw0b.s:1545   .text.timer_channel_control_shadow_config:00000000 timer_channel_control_shadow_config
D:\noval\Temp\cck0Iw0b.s:1579   .text.timer_channel_control_shadow_update_config:00000000 $t
D:\noval\Temp\cck0Iw0b.s:1585   .text.timer_channel_control_shadow_update_config:00000000 timer_channel_control_shadow_update_config
D:\noval\Temp\cck0Iw0b.s:1624   .text.timer_channel_output_struct_para_init:00000000 $t
D:\noval\Temp\cck0Iw0b.s:1630   .text.timer_channel_output_struct_para_init:00000000 timer_channel_output_struct_para_init
D:\noval\Temp\cck0Iw0b.s:1664   .text.timer_channel_output_config:00000000 $t
D:\noval\Temp\cck0Iw0b.s:1670   .text.timer_channel_output_config:00000000 timer_channel_output_config
D:\noval\Temp\cck0Iw0b.s:2119   .text.timer_channel_output_config:00000228 $d
D:\noval\Temp\cck0Iw0b.s:2131   .text.timer_channel_output_mode_config:00000000 $t
D:\noval\Temp\cck0Iw0b.s:2137   .text.timer_channel_output_mode_config:00000000 timer_channel_output_mode_config
D:\noval\Temp\cck0Iw0b.s:2235   .text.timer_channel_output_mode_config:00000054 $d
D:\noval\Temp\cck0Iw0b.s:2240   .text.timer_channel_output_pulse_value_config:00000000 $t
D:\noval\Temp\cck0Iw0b.s:2246   .text.timer_channel_output_pulse_value_config:00000000 timer_channel_output_pulse_value_config
D:\noval\Temp\cck0Iw0b.s:2295   .text.timer_channel_output_shadow_config:00000000 $t
D:\noval\Temp\cck0Iw0b.s:2301   .text.timer_channel_output_shadow_config:00000000 timer_channel_output_shadow_config
D:\noval\Temp\cck0Iw0b.s:2399   .text.timer_channel_output_shadow_config:00000054 $d
D:\noval\Temp\cck0Iw0b.s:2404   .text.timer_channel_output_fast_config:00000000 $t
D:\noval\Temp\cck0Iw0b.s:2410   .text.timer_channel_output_fast_config:00000000 timer_channel_output_fast_config
D:\noval\Temp\cck0Iw0b.s:2508   .text.timer_channel_output_fast_config:00000054 $d
D:\noval\Temp\cck0Iw0b.s:2513   .text.timer_channel_output_clear_config:00000000 $t
D:\noval\Temp\cck0Iw0b.s:2519   .text.timer_channel_output_clear_config:00000000 timer_channel_output_clear_config
D:\noval\Temp\cck0Iw0b.s:2617   .text.timer_channel_output_clear_config:00000054 $d
D:\noval\Temp\cck0Iw0b.s:2622   .text.timer_channel_output_polarity_config:00000000 $t
D:\noval\Temp\cck0Iw0b.s:2628   .text.timer_channel_output_polarity_config:00000000 timer_channel_output_polarity_config
D:\noval\Temp\cck0Iw0b.s:2729   .text.timer_channel_output_polarity_config:00000058 $d
D:\noval\Temp\cck0Iw0b.s:2735   .text.timer_channel_complementary_output_polarity_config:00000000 $t
D:\noval\Temp\cck0Iw0b.s:2741   .text.timer_channel_complementary_output_polarity_config:00000000 timer_channel_complementary_output_polarity_config
D:\noval\Temp\cck0Iw0b.s:2842   .text.timer_channel_complementary_output_polarity_config:00000058 $d
ARM GAS  D:\noval\Temp\cck0Iw0b.s 			page 128


D:\noval\Temp\cck0Iw0b.s:2848   .text.timer_channel_output_state_config:00000000 $t
D:\noval\Temp\cck0Iw0b.s:2854   .text.timer_channel_output_state_config:00000000 timer_channel_output_state_config
D:\noval\Temp\cck0Iw0b.s:2955   .text.timer_channel_output_state_config:00000058 $d
D:\noval\Temp\cck0Iw0b.s:2961   .text.timer_channel_complementary_output_state_config:00000000 $t
D:\noval\Temp\cck0Iw0b.s:2967   .text.timer_channel_complementary_output_state_config:00000000 timer_channel_complementary_output_state_config
D:\noval\Temp\cck0Iw0b.s:3044   .text.timer_channel_complementary_output_state_config:00000040 $d
D:\noval\Temp\cck0Iw0b.s:3049   .text.timer_channel_input_struct_para_init:00000000 $t
D:\noval\Temp\cck0Iw0b.s:3055   .text.timer_channel_input_struct_para_init:00000000 timer_channel_input_struct_para_init
D:\noval\Temp\cck0Iw0b.s:3084   .text.timer_channel_input_capture_prescaler_config:00000000 $t
D:\noval\Temp\cck0Iw0b.s:3090   .text.timer_channel_input_capture_prescaler_config:00000000 timer_channel_input_capture_prescaler_config
D:\noval\Temp\cck0Iw0b.s:3188   .text.timer_channel_input_capture_prescaler_config:00000054 $d
D:\noval\Temp\cck0Iw0b.s:3193   .text.timer_input_capture_config:00000000 $t
D:\noval\Temp\cck0Iw0b.s:3199   .text.timer_input_capture_config:00000000 timer_input_capture_config
D:\noval\Temp\cck0Iw0b.s:3472   .text.timer_input_capture_config:00000138 $d
D:\noval\Temp\cck0Iw0b.s:3482   .text.timer_channel_capture_value_register_read:00000000 $t
D:\noval\Temp\cck0Iw0b.s:3488   .text.timer_channel_capture_value_register_read:00000000 timer_channel_capture_value_register_read
D:\noval\Temp\cck0Iw0b.s:3560   .text.timer_input_pwm_capture_config:00000000 $t
D:\noval\Temp\cck0Iw0b.s:3566   .text.timer_input_pwm_capture_config:00000000 timer_input_pwm_capture_config
D:\noval\Temp\cck0Iw0b.s:3890   .text.timer_input_pwm_capture_config:00000150 $d
D:\noval\Temp\cck0Iw0b.s:3896   .text.timer_hall_mode_config:00000000 $t
D:\noval\Temp\cck0Iw0b.s:3902   .text.timer_hall_mode_config:00000000 timer_hall_mode_config
D:\noval\Temp\cck0Iw0b.s:3941   .text.timer_input_trigger_source_select:00000000 $t
D:\noval\Temp\cck0Iw0b.s:3947   .text.timer_input_trigger_source_select:00000000 timer_input_trigger_source_select
D:\noval\Temp\cck0Iw0b.s:3973   .text.timer_master_output_trigger_source_select:00000000 $t
D:\noval\Temp\cck0Iw0b.s:3979   .text.timer_master_output_trigger_source_select:00000000 timer_master_output_trigger_source_select
D:\noval\Temp\cck0Iw0b.s:4005   .text.timer_slave_mode_select:00000000 $t
D:\noval\Temp\cck0Iw0b.s:4011   .text.timer_slave_mode_select:00000000 timer_slave_mode_select
D:\noval\Temp\cck0Iw0b.s:4037   .text.timer_master_slave_mode_config:00000000 $t
D:\noval\Temp\cck0Iw0b.s:4043   .text.timer_master_slave_mode_config:00000000 timer_master_slave_mode_config
D:\noval\Temp\cck0Iw0b.s:4082   .text.timer_external_trigger_config:00000000 $t
D:\noval\Temp\cck0Iw0b.s:4088   .text.timer_external_trigger_config:00000000 timer_external_trigger_config
D:\noval\Temp\cck0Iw0b.s:4131   .text.timer_external_trigger_config:0000001c $d
D:\noval\Temp\cck0Iw0b.s:4136   .text.timer_quadrature_decoder_mode_config:00000000 $t
D:\noval\Temp\cck0Iw0b.s:4142   .text.timer_quadrature_decoder_mode_config:00000000 timer_quadrature_decoder_mode_config
D:\noval\Temp\cck0Iw0b.s:4209   .text.timer_quadrature_decoder_mode_config:00000040 $d
D:\noval\Temp\cck0Iw0b.s:4214   .text.timer_internal_clock_config:00000000 $t
D:\noval\Temp\cck0Iw0b.s:4220   .text.timer_internal_clock_config:00000000 timer_internal_clock_config
D:\noval\Temp\cck0Iw0b.s:4241   .text.timer_internal_trigger_as_external_clock_config:00000000 $t
D:\noval\Temp\cck0Iw0b.s:4247   .text.timer_internal_trigger_as_external_clock_config:00000000 timer_internal_trigger_as_external_clock_config
D:\noval\Temp\cck0Iw0b.s:4284   .text.timer_external_trigger_as_external_clock_config:00000000 $t
D:\noval\Temp\cck0Iw0b.s:4290   .text.timer_external_trigger_as_external_clock_config:00000000 timer_external_trigger_as_external_clock_config
D:\noval\Temp\cck0Iw0b.s:4441   .text.timer_external_trigger_as_external_clock_config:0000009c $d
D:\noval\Temp\cck0Iw0b.s:4447   .text.timer_external_clock_mode0_config:00000000 $t
D:\noval\Temp\cck0Iw0b.s:4453   .text.timer_external_clock_mode0_config:00000000 timer_external_clock_mode0_config
D:\noval\Temp\cck0Iw0b.s:4490   .text.timer_external_clock_mode1_config:00000000 $t
D:\noval\Temp\cck0Iw0b.s:4496   .text.timer_external_clock_mode1_config:00000000 timer_external_clock_mode1_config
D:\noval\Temp\cck0Iw0b.s:4528   .text.timer_external_clock_mode1_disable:00000000 $t
D:\noval\Temp\cck0Iw0b.s:4534   .text.timer_external_clock_mode1_disable:00000000 timer_external_clock_mode1_disable
D:\noval\Temp\cck0Iw0b.s:4554   .text.timer_external_clock_mode1_disable:0000000c $d
D:\noval\Temp\cck0Iw0b.s:4559   .text.timer_channel_remap_config:00000000 $t
D:\noval\Temp\cck0Iw0b.s:4565   .text.timer_channel_remap_config:00000000 timer_channel_remap_config
D:\noval\Temp\cck0Iw0b.s:4583   .text.timer_write_chxval_register_config:00000000 $t
D:\noval\Temp\cck0Iw0b.s:4589   .text.timer_write_chxval_register_config:00000000 timer_write_chxval_register_config
D:\noval\Temp\cck0Iw0b.s:4636   .text.timer_output_value_selection_config:00000000 $t
D:\noval\Temp\cck0Iw0b.s:4642   .text.timer_output_value_selection_config:00000000 timer_output_value_selection_config

UNDEFINED SYMBOLS
ARM GAS  D:\noval\Temp\cck0Iw0b.s 			page 129


rcu_periph_reset_enable
rcu_periph_reset_disable
