ARM GAS  D:\noval\Temp\cck0Iw0b.s 			page 1


   1              		.cpu cortex-m23
   2              		.arch armv8-m.base
   3              		.fpu softvfp
   4              		.eabi_attribute 20, 1
   5              		.eabi_attribute 21, 1
   6              		.eabi_attribute 23, 3
   7              		.eabi_attribute 24, 1
   8              		.eabi_attribute 25, 1
   9              		.eabi_attribute 26, 1
  10              		.eabi_attribute 30, 1
  11              		.eabi_attribute 34, 0
  12              		.eabi_attribute 18, 4
  13              		.file	"gd32e23x_timer.c"
  14              		.text
  15              	.Ltext0:
  16              		.cfi_sections	.debug_frame
  17              		.file 1 "Drivers/GD32E23x/Source/gd32e23x_timer.c"
  18              		.section	.text.timer_deinit,"ax",%progbits
  19              		.align	1
  20              		.global	timer_deinit
  21              		.syntax unified
  22              		.code	16
  23              		.thumb_func
  25              	timer_deinit:
  26              	.LVL0:
  27              	.LFB60:
   1:Drivers/GD32E23x/Source/gd32e23x_timer.c **** /*!
   2:Drivers/GD32E23x/Source/gd32e23x_timer.c ****     \file    gd32e23x_timer.c
   3:Drivers/GD32E23x/Source/gd32e23x_timer.c ****     \brief   TIMER driver
   4:Drivers/GD32E23x/Source/gd32e23x_timer.c **** 
   5:Drivers/GD32E23x/Source/gd32e23x_timer.c ****     \version 2024-02-22, V2.1.0, firmware for GD32E23x
   6:Drivers/GD32E23x/Source/gd32e23x_timer.c **** */
   7:Drivers/GD32E23x/Source/gd32e23x_timer.c **** 
   8:Drivers/GD32E23x/Source/gd32e23x_timer.c **** /*
   9:Drivers/GD32E23x/Source/gd32e23x_timer.c ****     Copyright (c) 2024, GigaDevice Semiconductor Inc.
  10:Drivers/GD32E23x/Source/gd32e23x_timer.c **** 
  11:Drivers/GD32E23x/Source/gd32e23x_timer.c ****     Redistribution and use in source and binary forms, with or without modification, 
  12:Drivers/GD32E23x/Source/gd32e23x_timer.c **** are permitted provided that the following conditions are met:
  13:Drivers/GD32E23x/Source/gd32e23x_timer.c **** 
  14:Drivers/GD32E23x/Source/gd32e23x_timer.c ****     1. Redistributions of source code must retain the above copyright notice, this 
  15:Drivers/GD32E23x/Source/gd32e23x_timer.c ****        list of conditions and the following disclaimer.
  16:Drivers/GD32E23x/Source/gd32e23x_timer.c ****     2. Redistributions in binary form must reproduce the above copyright notice, 
  17:Drivers/GD32E23x/Source/gd32e23x_timer.c ****        this list of conditions and the following disclaimer in the documentation 
  18:Drivers/GD32E23x/Source/gd32e23x_timer.c ****        and/or other materials provided with the distribution.
  19:Drivers/GD32E23x/Source/gd32e23x_timer.c ****     3. Neither the name of the copyright holder nor the names of its contributors 
  20:Drivers/GD32E23x/Source/gd32e23x_timer.c ****        may be used to endorse or promote products derived from this software without 
  21:Drivers/GD32E23x/Source/gd32e23x_timer.c ****        specific prior written permission.
  22:Drivers/GD32E23x/Source/gd32e23x_timer.c **** 
  23:Drivers/GD32E23x/Source/gd32e23x_timer.c ****     THIS SOFTWARE IS PROVIDED BY THE COPYRIGHT HOLDERS AND CONTRIBUTORS "AS IS" 
  24:Drivers/GD32E23x/Source/gd32e23x_timer.c **** AND ANY EXPRESS OR IMPLIED WARRANTIES, INCLUDING, BUT NOT LIMITED TO, THE IMPLIED 
  25:Drivers/GD32E23x/Source/gd32e23x_timer.c **** WARRANTIES OF MERCHANTABILITY AND FITNESS FOR A PARTICULAR PURPOSE ARE DISCLAIMED. 
  26:Drivers/GD32E23x/Source/gd32e23x_timer.c **** IN NO EVENT SHALL THE COPYRIGHT HOLDER OR CONTRIBUTORS BE LIABLE FOR ANY DIRECT, 
  27:Drivers/GD32E23x/Source/gd32e23x_timer.c **** INDIRECT, INCIDENTAL, SPECIAL, EXEMPLARY, OR CONSEQUENTIAL DAMAGES (INCLUDING, BUT 
  28:Drivers/GD32E23x/Source/gd32e23x_timer.c **** NOT LIMITED TO, PROCUREMENT OF SUBSTITUTE GOODS OR SERVICES; LOSS OF USE, DATA, OR 
  29:Drivers/GD32E23x/Source/gd32e23x_timer.c **** PROFITS; OR BUSINESS INTERRUPTION) HOWEVER CAUSED AND ON ANY THEORY OF LIABILITY, 
  30:Drivers/GD32E23x/Source/gd32e23x_timer.c **** WHETHER IN CONTRACT, STRICT LIABILITY, OR TORT (INCLUDING NEGLIGENCE OR OTHERWISE) 
  31:Drivers/GD32E23x/Source/gd32e23x_timer.c **** ARISING IN ANY WAY OUT OF THE USE OF THIS SOFTWARE, EVEN IF ADVISED OF THE POSSIBILITY 
ARM GAS  D:\noval\Temp\cck0Iw0b.s 			page 2


  32:Drivers/GD32E23x/Source/gd32e23x_timer.c **** OF SUCH DAMAGE.
  33:Drivers/GD32E23x/Source/gd32e23x_timer.c **** */
  34:Drivers/GD32E23x/Source/gd32e23x_timer.c **** 
  35:Drivers/GD32E23x/Source/gd32e23x_timer.c **** #include "gd32e23x_timer.h"
  36:Drivers/GD32E23x/Source/gd32e23x_timer.c **** 
  37:Drivers/GD32E23x/Source/gd32e23x_timer.c **** /* TIMER init parameter mask */
  38:Drivers/GD32E23x/Source/gd32e23x_timer.c **** #define ALIGNEDMODE_MASK            ((uint32_t)0x00000060U)   /*!< TIMER init parameter aligne dmod
  39:Drivers/GD32E23x/Source/gd32e23x_timer.c **** #define COUNTERDIRECTION_MASK       ((uint32_t)0x00000010U)   /*!< TIMER init parameter counter dir
  40:Drivers/GD32E23x/Source/gd32e23x_timer.c **** #define CLOCKDIVISION_MASK          ((uint32_t)0x00000300U)   /*!< TIMER init parameter clock divis
  41:Drivers/GD32E23x/Source/gd32e23x_timer.c **** 
  42:Drivers/GD32E23x/Source/gd32e23x_timer.c **** /*!
  43:Drivers/GD32E23x/Source/gd32e23x_timer.c ****     \brief      deinit a TIMER
  44:Drivers/GD32E23x/Source/gd32e23x_timer.c ****     \param[in]  timer_periph: TIMERx(x=0,2,5,13..16)
  45:Drivers/GD32E23x/Source/gd32e23x_timer.c ****     \param[out] none
  46:Drivers/GD32E23x/Source/gd32e23x_timer.c ****     \retval     none
  47:Drivers/GD32E23x/Source/gd32e23x_timer.c **** */
  48:Drivers/GD32E23x/Source/gd32e23x_timer.c **** void timer_deinit(uint32_t timer_periph)
  49:Drivers/GD32E23x/Source/gd32e23x_timer.c **** {
  28              		.loc 1 49 1 view -0
  29              		.cfi_startproc
  30              		@ args = 0, pretend = 0, frame = 0
  31              		@ frame_needed = 0, uses_anonymous_args = 0
  32              		.loc 1 49 1 is_stmt 0 view .LVU1
  33 0000 10B5     		push	{r4, lr}
  34              	.LCFI0:
  35              		.cfi_def_cfa_offset 8
  36              		.cfi_offset 4, -8
  37              		.cfi_offset 14, -4
  50:Drivers/GD32E23x/Source/gd32e23x_timer.c ****     switch(timer_periph){
  38              		.loc 1 50 5 is_stmt 1 view .LVU2
  39 0002 42F60043 		movw	r3, #11264
  40 0006 C4F20103 		movt	r3, 16385
  41 000a 9842     		cmp	r0, r3
  42 000c 3BD0     		beq	.L2
  43 000e 42F60043 		movw	r3, #11264
  44 0012 C4F20103 		movt	r3, 16385
  45 0016 9842     		cmp	r0, r3
  46 0018 1AD8     		bhi	.L3
  47 001a 41F20003 		movw	r3, #4096
  48 001e C4F20003 		movt	r3, 16384
  49 0022 9842     		cmp	r0, r3
  50 0024 38D0     		beq	.L4
  51 0026 42F20003 		movw	r3, #8192
  52 002a C4F20003 		movt	r3, 16384
  53 002e 9842     		cmp	r0, r3
  54 0030 3BD0     		beq	.L5
  55 0032 40F20043 		movw	r3, #1024
  56 0036 C4F20003 		movt	r3, 16384
  57 003a 9842     		cmp	r0, r3
  58 003c 2BD1     		bne	.L1
  51:Drivers/GD32E23x/Source/gd32e23x_timer.c ****     case TIMER0:
  52:Drivers/GD32E23x/Source/gd32e23x_timer.c ****         /* reset TIMER0 */
  53:Drivers/GD32E23x/Source/gd32e23x_timer.c ****         rcu_periph_reset_enable(RCU_TIMER0RST);
  54:Drivers/GD32E23x/Source/gd32e23x_timer.c ****         rcu_periph_reset_disable(RCU_TIMER0RST);
  55:Drivers/GD32E23x/Source/gd32e23x_timer.c ****         break;
  56:Drivers/GD32E23x/Source/gd32e23x_timer.c ****     case TIMER2:
  57:Drivers/GD32E23x/Source/gd32e23x_timer.c ****         /* reset TIMER2 */
ARM GAS  D:\noval\Temp\cck0Iw0b.s 			page 3


  58:Drivers/GD32E23x/Source/gd32e23x_timer.c ****         rcu_periph_reset_enable(RCU_TIMER2RST);
  59              		.loc 1 58 9 view .LVU3
  60 003e 40F20140 		movw	r0, #1025
  61              	.LVL1:
  62              		.loc 1 58 9 is_stmt 0 view .LVU4
  63 0042 FFF7FEFF 		bl	rcu_periph_reset_enable
  64              	.LVL2:
  59:Drivers/GD32E23x/Source/gd32e23x_timer.c ****         rcu_periph_reset_disable(RCU_TIMER2RST);
  65              		.loc 1 59 9 is_stmt 1 view .LVU5
  66 0046 40F20140 		movw	r0, #1025
  67 004a FFF7FEFF 		bl	rcu_periph_reset_disable
  68              	.LVL3:
  60:Drivers/GD32E23x/Source/gd32e23x_timer.c ****         break;
  69              		.loc 1 60 9 view .LVU6
  70 004e 22E0     		b	.L1
  71              	.LVL4:
  72              	.L3:
  50:Drivers/GD32E23x/Source/gd32e23x_timer.c ****     case TIMER0:
  73              		.loc 1 50 5 is_stmt 0 view .LVU7
  74 0050 44F20043 		movw	r3, #17408
  75 0054 C4F20103 		movt	r3, 16385
  76 0058 9842     		cmp	r0, r3
  77 005a 2FD0     		beq	.L8
  78 005c 44F60003 		movw	r3, #18432
  79 0060 C4F20103 		movt	r3, 16385
  80 0064 9842     		cmp	r0, r3
  81 0066 32D0     		beq	.L9
  82 0068 44F20003 		movw	r3, #16384
  83 006c C4F20103 		movt	r3, 16385
  84 0070 9842     		cmp	r0, r3
  85 0072 10D1     		bne	.L1
  61:Drivers/GD32E23x/Source/gd32e23x_timer.c ****     case TIMER5:
  62:Drivers/GD32E23x/Source/gd32e23x_timer.c ****         /* reset TIMER5 */
  63:Drivers/GD32E23x/Source/gd32e23x_timer.c ****         rcu_periph_reset_enable(RCU_TIMER5RST);
  64:Drivers/GD32E23x/Source/gd32e23x_timer.c ****         rcu_periph_reset_disable(RCU_TIMER5RST);
  65:Drivers/GD32E23x/Source/gd32e23x_timer.c ****         break;
  66:Drivers/GD32E23x/Source/gd32e23x_timer.c ****     case TIMER13:
  67:Drivers/GD32E23x/Source/gd32e23x_timer.c ****         /* reset TIMER13 */
  68:Drivers/GD32E23x/Source/gd32e23x_timer.c ****         rcu_periph_reset_enable(RCU_TIMER13RST);
  69:Drivers/GD32E23x/Source/gd32e23x_timer.c ****         rcu_periph_reset_disable(RCU_TIMER13RST);
  70:Drivers/GD32E23x/Source/gd32e23x_timer.c ****         break;
  71:Drivers/GD32E23x/Source/gd32e23x_timer.c ****     case TIMER14:
  72:Drivers/GD32E23x/Source/gd32e23x_timer.c ****         /* reset TIMER14 */
  73:Drivers/GD32E23x/Source/gd32e23x_timer.c ****         rcu_periph_reset_enable(RCU_TIMER14RST);
  86              		.loc 1 73 9 is_stmt 1 view .LVU8
  87 0074 40F21030 		movw	r0, #784
  88              	.LVL5:
  89              		.loc 1 73 9 is_stmt 0 view .LVU9
  90 0078 FFF7FEFF 		bl	rcu_periph_reset_enable
  91              	.LVL6:
  74:Drivers/GD32E23x/Source/gd32e23x_timer.c ****         rcu_periph_reset_disable(RCU_TIMER14RST);
  92              		.loc 1 74 9 is_stmt 1 view .LVU10
  93 007c 40F21030 		movw	r0, #784
  94 0080 FFF7FEFF 		bl	rcu_periph_reset_disable
  95              	.LVL7:
  75:Drivers/GD32E23x/Source/gd32e23x_timer.c ****         break;
  96              		.loc 1 75 9 view .LVU11
ARM GAS  D:\noval\Temp\cck0Iw0b.s 			page 4


  97 0084 07E0     		b	.L1
  98              	.LVL8:
  99              	.L2:
  53:Drivers/GD32E23x/Source/gd32e23x_timer.c ****         rcu_periph_reset_disable(RCU_TIMER0RST);
 100              		.loc 1 53 9 view .LVU12
 101 0086 40F20B30 		movw	r0, #779
 102              	.LVL9:
  53:Drivers/GD32E23x/Source/gd32e23x_timer.c ****         rcu_periph_reset_disable(RCU_TIMER0RST);
 103              		.loc 1 53 9 is_stmt 0 view .LVU13
 104 008a FFF7FEFF 		bl	rcu_periph_reset_enable
 105              	.LVL10:
  54:Drivers/GD32E23x/Source/gd32e23x_timer.c ****         break;
 106              		.loc 1 54 9 is_stmt 1 view .LVU14
 107 008e 40F20B30 		movw	r0, #779
 108 0092 FFF7FEFF 		bl	rcu_periph_reset_disable
 109              	.LVL11:
  55:Drivers/GD32E23x/Source/gd32e23x_timer.c ****     case TIMER2:
 110              		.loc 1 55 9 view .LVU15
 111              	.L1:
  76:Drivers/GD32E23x/Source/gd32e23x_timer.c ****     case TIMER15:
  77:Drivers/GD32E23x/Source/gd32e23x_timer.c ****         /* reset TIMER15 */
  78:Drivers/GD32E23x/Source/gd32e23x_timer.c ****         rcu_periph_reset_enable(RCU_TIMER15RST);
  79:Drivers/GD32E23x/Source/gd32e23x_timer.c ****         rcu_periph_reset_disable(RCU_TIMER15RST);
  80:Drivers/GD32E23x/Source/gd32e23x_timer.c ****         break;
  81:Drivers/GD32E23x/Source/gd32e23x_timer.c ****     case TIMER16:
  82:Drivers/GD32E23x/Source/gd32e23x_timer.c ****         /* reset TIMER16 */
  83:Drivers/GD32E23x/Source/gd32e23x_timer.c ****         rcu_periph_reset_enable(RCU_TIMER16RST);
  84:Drivers/GD32E23x/Source/gd32e23x_timer.c ****         rcu_periph_reset_disable(RCU_TIMER16RST);
  85:Drivers/GD32E23x/Source/gd32e23x_timer.c ****         break;
  86:Drivers/GD32E23x/Source/gd32e23x_timer.c ****     default:
  87:Drivers/GD32E23x/Source/gd32e23x_timer.c ****         break;
  88:Drivers/GD32E23x/Source/gd32e23x_timer.c ****     }
  89:Drivers/GD32E23x/Source/gd32e23x_timer.c **** }
 112              		.loc 1 89 1 is_stmt 0 view .LVU16
 113              		@ sp needed
 114 0096 10BD     		pop	{r4, pc}
 115              	.LVL12:
 116              	.L4:
  63:Drivers/GD32E23x/Source/gd32e23x_timer.c ****         rcu_periph_reset_disable(RCU_TIMER5RST);
 117              		.loc 1 63 9 is_stmt 1 view .LVU17
 118 0098 40F20440 		movw	r0, #1028
 119              	.LVL13:
  63:Drivers/GD32E23x/Source/gd32e23x_timer.c ****         rcu_periph_reset_disable(RCU_TIMER5RST);
 120              		.loc 1 63 9 is_stmt 0 view .LVU18
 121 009c FFF7FEFF 		bl	rcu_periph_reset_enable
 122              	.LVL14:
  64:Drivers/GD32E23x/Source/gd32e23x_timer.c ****         break;
 123              		.loc 1 64 9 is_stmt 1 view .LVU19
 124 00a0 40F20440 		movw	r0, #1028
 125 00a4 FFF7FEFF 		bl	rcu_periph_reset_disable
 126              	.LVL15:
  65:Drivers/GD32E23x/Source/gd32e23x_timer.c ****     case TIMER13:
 127              		.loc 1 65 9 view .LVU20
 128 00a8 F5E7     		b	.L1
 129              	.LVL16:
 130              	.L5:
  68:Drivers/GD32E23x/Source/gd32e23x_timer.c ****         rcu_periph_reset_disable(RCU_TIMER13RST);
ARM GAS  D:\noval\Temp\cck0Iw0b.s 			page 5


 131              		.loc 1 68 9 view .LVU21
 132 00aa 40F20840 		movw	r0, #1032
 133              	.LVL17:
  68:Drivers/GD32E23x/Source/gd32e23x_timer.c ****         rcu_periph_reset_disable(RCU_TIMER13RST);
 134              		.loc 1 68 9 is_stmt 0 view .LVU22
 135 00ae FFF7FEFF 		bl	rcu_periph_reset_enable
 136              	.LVL18:
  69:Drivers/GD32E23x/Source/gd32e23x_timer.c ****         break;
 137              		.loc 1 69 9 is_stmt 1 view .LVU23
 138 00b2 40F20840 		movw	r0, #1032
 139 00b6 FFF7FEFF 		bl	rcu_periph_reset_disable
 140              	.LVL19:
  70:Drivers/GD32E23x/Source/gd32e23x_timer.c ****     case TIMER14:
 141              		.loc 1 70 9 view .LVU24
 142 00ba ECE7     		b	.L1
 143              	.LVL20:
 144              	.L8:
  78:Drivers/GD32E23x/Source/gd32e23x_timer.c ****         rcu_periph_reset_disable(RCU_TIMER15RST);
 145              		.loc 1 78 9 view .LVU25
 146 00bc 40F21130 		movw	r0, #785
 147              	.LVL21:
  78:Drivers/GD32E23x/Source/gd32e23x_timer.c ****         rcu_periph_reset_disable(RCU_TIMER15RST);
 148              		.loc 1 78 9 is_stmt 0 view .LVU26
 149 00c0 FFF7FEFF 		bl	rcu_periph_reset_enable
 150              	.LVL22:
  79:Drivers/GD32E23x/Source/gd32e23x_timer.c ****         break;
 151              		.loc 1 79 9 is_stmt 1 view .LVU27
 152 00c4 40F21130 		movw	r0, #785
 153 00c8 FFF7FEFF 		bl	rcu_periph_reset_disable
 154              	.LVL23:
  80:Drivers/GD32E23x/Source/gd32e23x_timer.c ****     case TIMER16:
 155              		.loc 1 80 9 view .LVU28
 156 00cc E3E7     		b	.L1
 157              	.LVL24:
 158              	.L9:
  83:Drivers/GD32E23x/Source/gd32e23x_timer.c ****         rcu_periph_reset_disable(RCU_TIMER16RST);
 159              		.loc 1 83 9 view .LVU29
 160 00ce 40F21230 		movw	r0, #786
 161              	.LVL25:
  83:Drivers/GD32E23x/Source/gd32e23x_timer.c ****         rcu_periph_reset_disable(RCU_TIMER16RST);
 162              		.loc 1 83 9 is_stmt 0 view .LVU30
 163 00d2 FFF7FEFF 		bl	rcu_periph_reset_enable
 164              	.LVL26:
  84:Drivers/GD32E23x/Source/gd32e23x_timer.c ****         break;
 165              		.loc 1 84 9 is_stmt 1 view .LVU31
 166 00d6 40F21230 		movw	r0, #786
 167 00da FFF7FEFF 		bl	rcu_periph_reset_disable
 168              	.LVL27:
  85:Drivers/GD32E23x/Source/gd32e23x_timer.c ****     default:
 169              		.loc 1 85 9 view .LVU32
 170              		.loc 1 89 1 is_stmt 0 view .LVU33
 171 00de DAE7     		b	.L1
 172              		.cfi_endproc
 173              	.LFE60:
 175              		.section	.text.timer_struct_para_init,"ax",%progbits
 176              		.align	1
 177              		.global	timer_struct_para_init
ARM GAS  D:\noval\Temp\cck0Iw0b.s 			page 6


 178              		.syntax unified
 179              		.code	16
 180              		.thumb_func
 182              	timer_struct_para_init:
 183              	.LVL28:
 184              	.LFB61:
  90:Drivers/GD32E23x/Source/gd32e23x_timer.c **** 
  91:Drivers/GD32E23x/Source/gd32e23x_timer.c **** /*!
  92:Drivers/GD32E23x/Source/gd32e23x_timer.c ****     \brief      initialize TIMER init parameter struct with a default value
  93:Drivers/GD32E23x/Source/gd32e23x_timer.c ****     \param[in]  initpara: init parameter struct
  94:Drivers/GD32E23x/Source/gd32e23x_timer.c ****     \param[out] none
  95:Drivers/GD32E23x/Source/gd32e23x_timer.c ****     \retval     none
  96:Drivers/GD32E23x/Source/gd32e23x_timer.c **** */
  97:Drivers/GD32E23x/Source/gd32e23x_timer.c **** void timer_struct_para_init(timer_parameter_struct* initpara)
  98:Drivers/GD32E23x/Source/gd32e23x_timer.c **** {
 185              		.loc 1 98 1 is_stmt 1 view -0
 186              		.cfi_startproc
 187              		@ args = 0, pretend = 0, frame = 0
 188              		@ frame_needed = 0, uses_anonymous_args = 0
 189              		@ link register save eliminated.
  99:Drivers/GD32E23x/Source/gd32e23x_timer.c ****     /* initialize the init parameter struct member with the default value */
 100:Drivers/GD32E23x/Source/gd32e23x_timer.c ****     initpara->prescaler         = 0U;
 190              		.loc 1 100 5 view .LVU35
 191              		.loc 1 100 33 is_stmt 0 view .LVU36
 192 0000 0023     		movs	r3, #0
 193 0002 0380     		strh	r3, [r0]
 101:Drivers/GD32E23x/Source/gd32e23x_timer.c ****     initpara->alignedmode       = TIMER_COUNTER_EDGE;
 194              		.loc 1 101 5 is_stmt 1 view .LVU37
 195              		.loc 1 101 33 is_stmt 0 view .LVU38
 196 0004 4380     		strh	r3, [r0, #2]
 102:Drivers/GD32E23x/Source/gd32e23x_timer.c ****     initpara->counterdirection  = TIMER_COUNTER_UP;
 197              		.loc 1 102 5 is_stmt 1 view .LVU39
 198              		.loc 1 102 33 is_stmt 0 view .LVU40
 199 0006 8380     		strh	r3, [r0, #4]
 103:Drivers/GD32E23x/Source/gd32e23x_timer.c ****     initpara->period            = 65535U;
 200              		.loc 1 103 5 is_stmt 1 view .LVU41
 201              		.loc 1 103 33 is_stmt 0 view .LVU42
 202 0008 4FF6FF72 		movw	r2, #65535
 203 000c 8260     		str	r2, [r0, #8]
 104:Drivers/GD32E23x/Source/gd32e23x_timer.c ****     initpara->clockdivision     = TIMER_CKDIV_DIV1;
 204              		.loc 1 104 5 is_stmt 1 view .LVU43
 205              		.loc 1 104 33 is_stmt 0 view .LVU44
 206 000e C380     		strh	r3, [r0, #6]
 105:Drivers/GD32E23x/Source/gd32e23x_timer.c ****     initpara->repetitioncounter = 0U;
 207              		.loc 1 105 5 is_stmt 1 view .LVU45
 208              		.loc 1 105 33 is_stmt 0 view .LVU46
 209 0010 0373     		strb	r3, [r0, #12]
 106:Drivers/GD32E23x/Source/gd32e23x_timer.c **** }
 210              		.loc 1 106 1 view .LVU47
 211              		@ sp needed
 212 0012 7047     		bx	lr
 213              		.cfi_endproc
 214              	.LFE61:
 216              		.section	.text.timer_init,"ax",%progbits
 217              		.align	1
 218              		.global	timer_init
 219              		.syntax unified
ARM GAS  D:\noval\Temp\cck0Iw0b.s 			page 7


 220              		.code	16
 221              		.thumb_func
 223              	timer_init:
 224              	.LVL29:
 225              	.LFB62:
 107:Drivers/GD32E23x/Source/gd32e23x_timer.c **** 
 108:Drivers/GD32E23x/Source/gd32e23x_timer.c **** /*!
 109:Drivers/GD32E23x/Source/gd32e23x_timer.c ****     \brief      initialize TIMER counter
 110:Drivers/GD32E23x/Source/gd32e23x_timer.c ****     \param[in]  timer_periph: TIMERx(x=0,2,5,13..16)
 111:Drivers/GD32E23x/Source/gd32e23x_timer.c ****     \param[in]  initpara: init parameter struct
 112:Drivers/GD32E23x/Source/gd32e23x_timer.c ****                   prescaler: prescaler value of the counter clock, 0~65535
 113:Drivers/GD32E23x/Source/gd32e23x_timer.c ****                   alignedmode: TIMER_COUNTER_EDGE, TIMER_COUNTER_CENTER_DOWN, TIMER_COUNTER_CENTER_
 114:Drivers/GD32E23x/Source/gd32e23x_timer.c ****                   counterdirection: TIMER_COUNTER_UP, TIMER_COUNTER_DOWN
 115:Drivers/GD32E23x/Source/gd32e23x_timer.c ****                   period: counter auto reload value, 0~65535
 116:Drivers/GD32E23x/Source/gd32e23x_timer.c ****                   clockdivision: TIMER_CKDIV_DIV1, TIMER_CKDIV_DIV2, TIMER_CKDIV_DIV4
 117:Drivers/GD32E23x/Source/gd32e23x_timer.c ****                   repetitioncounter: counter repetition value, 0~255
 118:Drivers/GD32E23x/Source/gd32e23x_timer.c ****     \param[out] none
 119:Drivers/GD32E23x/Source/gd32e23x_timer.c ****     \retval     none
 120:Drivers/GD32E23x/Source/gd32e23x_timer.c **** */
 121:Drivers/GD32E23x/Source/gd32e23x_timer.c **** void timer_init(uint32_t timer_periph, timer_parameter_struct* initpara)
 122:Drivers/GD32E23x/Source/gd32e23x_timer.c **** {
 226              		.loc 1 122 1 is_stmt 1 view -0
 227              		.cfi_startproc
 228              		@ args = 0, pretend = 0, frame = 0
 229              		@ frame_needed = 0, uses_anonymous_args = 0
 230              		@ link register save eliminated.
 123:Drivers/GD32E23x/Source/gd32e23x_timer.c ****     /* configure the counter prescaler value */
 124:Drivers/GD32E23x/Source/gd32e23x_timer.c ****     TIMER_PSC(timer_periph) = (uint16_t)initpara->prescaler;
 231              		.loc 1 124 5 view .LVU49
 232              		.loc 1 124 49 is_stmt 0 view .LVU50
 233 0000 0B88     		ldrh	r3, [r1]
 234              		.loc 1 124 29 view .LVU51
 235 0002 8362     		str	r3, [r0, #40]
 125:Drivers/GD32E23x/Source/gd32e23x_timer.c **** 
 126:Drivers/GD32E23x/Source/gd32e23x_timer.c ****     /* configure the counter direction and aligned mode */
 127:Drivers/GD32E23x/Source/gd32e23x_timer.c ****     if((TIMER0 == timer_periph) || (TIMER2 == timer_periph)){
 236              		.loc 1 127 5 is_stmt 1 view .LVU52
 237              		.loc 1 127 7 is_stmt 0 view .LVU53
 238 0004 42F60043 		movw	r3, #11264
 239 0008 C4F20103 		movt	r3, 16385
 240 000c 9842     		cmp	r0, r3
 241 000e 05D0     		beq	.L13
 242              		.loc 1 127 33 discriminator 1 view .LVU54
 243 0010 40F20043 		movw	r3, #1024
 244 0014 C4F20003 		movt	r3, 16384
 245 0018 9842     		cmp	r0, r3
 246 001a 0BD1     		bne	.L14
 247              	.L13:
 128:Drivers/GD32E23x/Source/gd32e23x_timer.c ****         TIMER_CTL0(timer_periph) &= ~(uint32_t)(TIMER_CTL0_DIR|TIMER_CTL0_CAM);
 248              		.loc 1 128 9 is_stmt 1 view .LVU55
 249 001c 0368     		ldr	r3, [r0]
 250              		.loc 1 128 34 is_stmt 0 view .LVU56
 251 001e 7022     		movs	r2, #112
 252 0020 9343     		bics	r3, r2
 253 0022 0360     		str	r3, [r0]
 129:Drivers/GD32E23x/Source/gd32e23x_timer.c ****         TIMER_CTL0(timer_periph) |= (uint32_t)initpara->alignedmode;
 254              		.loc 1 129 9 is_stmt 1 view .LVU57
ARM GAS  D:\noval\Temp\cck0Iw0b.s 			page 8


 255 0024 0368     		ldr	r3, [r0]
 256              		.loc 1 129 55 is_stmt 0 view .LVU58
 257 0026 4A88     		ldrh	r2, [r1, #2]
 258              		.loc 1 129 34 view .LVU59
 259 0028 1343     		orrs	r3, r2
 260 002a 0360     		str	r3, [r0]
 130:Drivers/GD32E23x/Source/gd32e23x_timer.c ****         TIMER_CTL0(timer_periph) |= (uint32_t)initpara->counterdirection;
 261              		.loc 1 130 9 is_stmt 1 view .LVU60
 262 002c 0368     		ldr	r3, [r0]
 263              		.loc 1 130 55 is_stmt 0 view .LVU61
 264 002e 8A88     		ldrh	r2, [r1, #4]
 265              		.loc 1 130 34 view .LVU62
 266 0030 1343     		orrs	r3, r2
 267 0032 0360     		str	r3, [r0]
 268              	.L14:
 131:Drivers/GD32E23x/Source/gd32e23x_timer.c ****     }
 132:Drivers/GD32E23x/Source/gd32e23x_timer.c **** 
 133:Drivers/GD32E23x/Source/gd32e23x_timer.c ****     /* configure the autoreload value */
 134:Drivers/GD32E23x/Source/gd32e23x_timer.c ****     TIMER_CAR(timer_periph) = (uint32_t)initpara->period;
 269              		.loc 1 134 5 is_stmt 1 view .LVU63
 270              		.loc 1 134 49 is_stmt 0 view .LVU64
 271 0034 8B68     		ldr	r3, [r1, #8]
 272              		.loc 1 134 29 view .LVU65
 273 0036 C362     		str	r3, [r0, #44]
 135:Drivers/GD32E23x/Source/gd32e23x_timer.c ****     
 136:Drivers/GD32E23x/Source/gd32e23x_timer.c ****     if((TIMER0 == timer_periph) || (TIMER2 == timer_periph) || (TIMER13 == timer_periph)
 274              		.loc 1 136 5 is_stmt 1 view .LVU66
 275              		.loc 1 136 7 is_stmt 0 view .LVU67
 276 0038 42F60043 		movw	r3, #11264
 277 003c C4F20103 		movt	r3, 16385
 278 0040 9842     		cmp	r0, r3
 279 0042 1DD0     		beq	.L15
 280              		.loc 1 136 33 discriminator 1 view .LVU68
 281 0044 40F20043 		movw	r3, #1024
 282 0048 C4F20003 		movt	r3, 16384
 283 004c 9842     		cmp	r0, r3
 284 004e 17D0     		beq	.L15
 285              		.loc 1 136 61 discriminator 2 view .LVU69
 286 0050 42F20003 		movw	r3, #8192
 287 0054 C4F20003 		movt	r3, 16384
 288 0058 9842     		cmp	r0, r3
 289 005a 11D0     		beq	.L15
 137:Drivers/GD32E23x/Source/gd32e23x_timer.c ****         || (TIMER14 == timer_periph) || (TIMER15 == timer_periph) || (TIMER16 == timer_periph)){
 290              		.loc 1 137 9 view .LVU70
 291 005c 44F20003 		movw	r3, #16384
 292 0060 C4F20103 		movt	r3, 16385
 293 0064 9842     		cmp	r0, r3
 294 0066 0BD0     		beq	.L15
 295              		.loc 1 137 38 discriminator 1 view .LVU71
 296 0068 44F20043 		movw	r3, #17408
 297 006c C4F20103 		movt	r3, 16385
 298 0070 9842     		cmp	r0, r3
 299 0072 05D0     		beq	.L15
 300              		.loc 1 137 67 discriminator 2 view .LVU72
 301 0074 44F60003 		movw	r3, #18432
 302 0078 C4F20103 		movt	r3, 16385
 303 007c 9842     		cmp	r0, r3
ARM GAS  D:\noval\Temp\cck0Iw0b.s 			page 9


 304 007e 07D1     		bne	.L16
 305              	.L15:
 138:Drivers/GD32E23x/Source/gd32e23x_timer.c ****         /* reset the CKDIV bit */
 139:Drivers/GD32E23x/Source/gd32e23x_timer.c ****         TIMER_CTL0(timer_periph) &= ~(uint32_t)TIMER_CTL0_CKDIV;
 306              		.loc 1 139 9 is_stmt 1 view .LVU73
 307 0080 0368     		ldr	r3, [r0]
 308              		.loc 1 139 34 is_stmt 0 view .LVU74
 309 0082 134A     		ldr	r2, .L19
 310 0084 1340     		ands	r3, r2
 311 0086 0360     		str	r3, [r0]
 140:Drivers/GD32E23x/Source/gd32e23x_timer.c ****         TIMER_CTL0(timer_periph) |= (uint32_t)initpara->clockdivision;
 312              		.loc 1 140 9 is_stmt 1 view .LVU75
 313 0088 0368     		ldr	r3, [r0]
 314              		.loc 1 140 55 is_stmt 0 view .LVU76
 315 008a CA88     		ldrh	r2, [r1, #6]
 316              		.loc 1 140 34 view .LVU77
 317 008c 1343     		orrs	r3, r2
 318 008e 0360     		str	r3, [r0]
 319              	.L16:
 141:Drivers/GD32E23x/Source/gd32e23x_timer.c ****     }
 142:Drivers/GD32E23x/Source/gd32e23x_timer.c **** 
 143:Drivers/GD32E23x/Source/gd32e23x_timer.c ****     if((TIMER0 == timer_periph) || (TIMER14 == timer_periph) || (TIMER15 == timer_periph) || (TIMER
 320              		.loc 1 143 5 is_stmt 1 view .LVU78
 321              		.loc 1 143 7 is_stmt 0 view .LVU79
 322 0090 42F60043 		movw	r3, #11264
 323 0094 C4F20103 		movt	r3, 16385
 324 0098 9842     		cmp	r0, r3
 325 009a 11D0     		beq	.L17
 326              		.loc 1 143 33 discriminator 1 view .LVU80
 327 009c 44F20003 		movw	r3, #16384
 328 00a0 C4F20103 		movt	r3, 16385
 329 00a4 9842     		cmp	r0, r3
 330 00a6 0BD0     		beq	.L17
 331              		.loc 1 143 62 discriminator 2 view .LVU81
 332 00a8 44F20043 		movw	r3, #17408
 333 00ac C4F20103 		movt	r3, 16385
 334 00b0 9842     		cmp	r0, r3
 335 00b2 05D0     		beq	.L17
 336              		.loc 1 143 91 discriminator 3 view .LVU82
 337 00b4 44F60003 		movw	r3, #18432
 338 00b8 C4F20103 		movt	r3, 16385
 339 00bc 9842     		cmp	r0, r3
 340 00be 01D1     		bne	.L18
 341              	.L17:
 144:Drivers/GD32E23x/Source/gd32e23x_timer.c ****         /* configure the repetition counter value */
 145:Drivers/GD32E23x/Source/gd32e23x_timer.c ****         TIMER_CREP(timer_periph) = (uint32_t)initpara->repetitioncounter;
 342              		.loc 1 145 9 is_stmt 1 view .LVU83
 343              		.loc 1 145 54 is_stmt 0 view .LVU84
 344 00c0 0B7B     		ldrb	r3, [r1, #12]
 345              		.loc 1 145 34 view .LVU85
 346 00c2 0363     		str	r3, [r0, #48]
 347              	.L18:
 146:Drivers/GD32E23x/Source/gd32e23x_timer.c ****     }
 147:Drivers/GD32E23x/Source/gd32e23x_timer.c **** 
 148:Drivers/GD32E23x/Source/gd32e23x_timer.c ****     /* generate an update event */
 149:Drivers/GD32E23x/Source/gd32e23x_timer.c ****     TIMER_SWEVG(timer_periph) |= (uint32_t)TIMER_SWEVG_UPG;
 348              		.loc 1 149 5 is_stmt 1 view .LVU86
ARM GAS  D:\noval\Temp\cck0Iw0b.s 			page 10


 349 00c4 4369     		ldr	r3, [r0, #20]
 350              		.loc 1 149 31 is_stmt 0 view .LVU87
 351 00c6 0122     		movs	r2, #1
 352 00c8 1343     		orrs	r3, r2
 353 00ca 4361     		str	r3, [r0, #20]
 150:Drivers/GD32E23x/Source/gd32e23x_timer.c **** }
 354              		.loc 1 150 1 view .LVU88
 355              		@ sp needed
 356 00cc 7047     		bx	lr
 357              	.L20:
 358 00ce C046     		.align	2
 359              	.L19:
 360 00d0 FFFCFFFF 		.word	-769
 361              		.cfi_endproc
 362              	.LFE62:
 364              		.section	.text.timer_enable,"ax",%progbits
 365              		.align	1
 366              		.global	timer_enable
 367              		.syntax unified
 368              		.code	16
 369              		.thumb_func
 371              	timer_enable:
 372              	.LVL30:
 373              	.LFB63:
 151:Drivers/GD32E23x/Source/gd32e23x_timer.c **** 
 152:Drivers/GD32E23x/Source/gd32e23x_timer.c **** /*!
 153:Drivers/GD32E23x/Source/gd32e23x_timer.c ****     \brief      enable a TIMER
 154:Drivers/GD32E23x/Source/gd32e23x_timer.c ****     \param[in]  timer_periph: TIMERx(x=0,2,5,13..16)
 155:Drivers/GD32E23x/Source/gd32e23x_timer.c ****     \param[out] none
 156:Drivers/GD32E23x/Source/gd32e23x_timer.c ****     \retval     none
 157:Drivers/GD32E23x/Source/gd32e23x_timer.c **** */
 158:Drivers/GD32E23x/Source/gd32e23x_timer.c **** void timer_enable(uint32_t timer_periph)
 159:Drivers/GD32E23x/Source/gd32e23x_timer.c **** {
 374              		.loc 1 159 1 is_stmt 1 view -0
 375              		.cfi_startproc
 376              		@ args = 0, pretend = 0, frame = 0
 377              		@ frame_needed = 0, uses_anonymous_args = 0
 378              		@ link register save eliminated.
 160:Drivers/GD32E23x/Source/gd32e23x_timer.c ****     TIMER_CTL0(timer_periph) |= (uint32_t)TIMER_CTL0_CEN;
 379              		.loc 1 160 5 view .LVU90
 380 0000 0368     		ldr	r3, [r0]
 381              		.loc 1 160 30 is_stmt 0 view .LVU91
 382 0002 0122     		movs	r2, #1
 383 0004 1343     		orrs	r3, r2
 384 0006 0360     		str	r3, [r0]
 161:Drivers/GD32E23x/Source/gd32e23x_timer.c **** }
 385              		.loc 1 161 1 view .LVU92
 386              		@ sp needed
 387 0008 7047     		bx	lr
 388              		.cfi_endproc
 389              	.LFE63:
 391              		.section	.text.timer_disable,"ax",%progbits
 392              		.align	1
 393              		.global	timer_disable
 394              		.syntax unified
 395              		.code	16
 396              		.thumb_func
ARM GAS  D:\noval\Temp\cck0Iw0b.s 			page 11


 398              	timer_disable:
 399              	.LVL31:
 400              	.LFB64:
 162:Drivers/GD32E23x/Source/gd32e23x_timer.c **** 
 163:Drivers/GD32E23x/Source/gd32e23x_timer.c **** /*!
 164:Drivers/GD32E23x/Source/gd32e23x_timer.c ****     \brief      disable a TIMER
 165:Drivers/GD32E23x/Source/gd32e23x_timer.c ****     \param[in]  timer_periph: TIMERx(x=0,2,5,13..16)
 166:Drivers/GD32E23x/Source/gd32e23x_timer.c ****     \param[out] none
 167:Drivers/GD32E23x/Source/gd32e23x_timer.c ****     \retval     none
 168:Drivers/GD32E23x/Source/gd32e23x_timer.c **** */
 169:Drivers/GD32E23x/Source/gd32e23x_timer.c **** void timer_disable(uint32_t timer_periph)
 170:Drivers/GD32E23x/Source/gd32e23x_timer.c **** {
 401              		.loc 1 170 1 is_stmt 1 view -0
 402              		.cfi_startproc
 403              		@ args = 0, pretend = 0, frame = 0
 404              		@ frame_needed = 0, uses_anonymous_args = 0
 405              		@ link register save eliminated.
 171:Drivers/GD32E23x/Source/gd32e23x_timer.c ****     TIMER_CTL0(timer_periph) &= ~(uint32_t)TIMER_CTL0_CEN;
 406              		.loc 1 171 5 view .LVU94
 407 0000 0368     		ldr	r3, [r0]
 408              		.loc 1 171 30 is_stmt 0 view .LVU95
 409 0002 0122     		movs	r2, #1
 410 0004 9343     		bics	r3, r2
 411 0006 0360     		str	r3, [r0]
 172:Drivers/GD32E23x/Source/gd32e23x_timer.c **** }
 412              		.loc 1 172 1 view .LVU96
 413              		@ sp needed
 414 0008 7047     		bx	lr
 415              		.cfi_endproc
 416              	.LFE64:
 418              		.section	.text.timer_auto_reload_shadow_enable,"ax",%progbits
 419              		.align	1
 420              		.global	timer_auto_reload_shadow_enable
 421              		.syntax unified
 422              		.code	16
 423              		.thumb_func
 425              	timer_auto_reload_shadow_enable:
 426              	.LVL32:
 427              	.LFB65:
 173:Drivers/GD32E23x/Source/gd32e23x_timer.c **** 
 174:Drivers/GD32E23x/Source/gd32e23x_timer.c **** /*!
 175:Drivers/GD32E23x/Source/gd32e23x_timer.c ****     \brief      enable the auto reload shadow function
 176:Drivers/GD32E23x/Source/gd32e23x_timer.c ****     \param[in]  timer_periph: TIMERx(x=0,2,5,13..16)
 177:Drivers/GD32E23x/Source/gd32e23x_timer.c ****     \param[out] none
 178:Drivers/GD32E23x/Source/gd32e23x_timer.c ****     \retval     none
 179:Drivers/GD32E23x/Source/gd32e23x_timer.c **** */
 180:Drivers/GD32E23x/Source/gd32e23x_timer.c **** void timer_auto_reload_shadow_enable(uint32_t timer_periph)
 181:Drivers/GD32E23x/Source/gd32e23x_timer.c **** {
 428              		.loc 1 181 1 is_stmt 1 view -0
 429              		.cfi_startproc
 430              		@ args = 0, pretend = 0, frame = 0
 431              		@ frame_needed = 0, uses_anonymous_args = 0
 432              		@ link register save eliminated.
 182:Drivers/GD32E23x/Source/gd32e23x_timer.c ****     TIMER_CTL0(timer_periph) |= (uint32_t)TIMER_CTL0_ARSE;
 433              		.loc 1 182 5 view .LVU98
 434 0000 0368     		ldr	r3, [r0]
 435              		.loc 1 182 30 is_stmt 0 view .LVU99
ARM GAS  D:\noval\Temp\cck0Iw0b.s 			page 12


 436 0002 8022     		movs	r2, #128
 437 0004 1343     		orrs	r3, r2
 438 0006 0360     		str	r3, [r0]
 183:Drivers/GD32E23x/Source/gd32e23x_timer.c **** }
 439              		.loc 1 183 1 view .LVU100
 440              		@ sp needed
 441 0008 7047     		bx	lr
 442              		.cfi_endproc
 443              	.LFE65:
 445              		.section	.text.timer_auto_reload_shadow_disable,"ax",%progbits
 446              		.align	1
 447              		.global	timer_auto_reload_shadow_disable
 448              		.syntax unified
 449              		.code	16
 450              		.thumb_func
 452              	timer_auto_reload_shadow_disable:
 453              	.LVL33:
 454              	.LFB66:
 184:Drivers/GD32E23x/Source/gd32e23x_timer.c **** 
 185:Drivers/GD32E23x/Source/gd32e23x_timer.c **** /*!
 186:Drivers/GD32E23x/Source/gd32e23x_timer.c ****     \brief      disable the auto reload shadow function
 187:Drivers/GD32E23x/Source/gd32e23x_timer.c ****     \param[in]  timer_periph: TIMERx(x=0,2,5,13..16)
 188:Drivers/GD32E23x/Source/gd32e23x_timer.c ****     \param[out] none
 189:Drivers/GD32E23x/Source/gd32e23x_timer.c ****     \retval     none
 190:Drivers/GD32E23x/Source/gd32e23x_timer.c **** */
 191:Drivers/GD32E23x/Source/gd32e23x_timer.c **** void timer_auto_reload_shadow_disable(uint32_t timer_periph)
 192:Drivers/GD32E23x/Source/gd32e23x_timer.c **** {
 455              		.loc 1 192 1 is_stmt 1 view -0
 456              		.cfi_startproc
 457              		@ args = 0, pretend = 0, frame = 0
 458              		@ frame_needed = 0, uses_anonymous_args = 0
 459              		@ link register save eliminated.
 193:Drivers/GD32E23x/Source/gd32e23x_timer.c ****     TIMER_CTL0(timer_periph) &= ~(uint32_t)TIMER_CTL0_ARSE;
 460              		.loc 1 193 5 view .LVU102
 461 0000 0368     		ldr	r3, [r0]
 462              		.loc 1 193 30 is_stmt 0 view .LVU103
 463 0002 8022     		movs	r2, #128
 464 0004 9343     		bics	r3, r2
 465 0006 0360     		str	r3, [r0]
 194:Drivers/GD32E23x/Source/gd32e23x_timer.c **** }
 466              		.loc 1 194 1 view .LVU104
 467              		@ sp needed
 468 0008 7047     		bx	lr
 469              		.cfi_endproc
 470              	.LFE66:
 472              		.section	.text.timer_update_event_enable,"ax",%progbits
 473              		.align	1
 474              		.global	timer_update_event_enable
 475              		.syntax unified
 476              		.code	16
 477              		.thumb_func
 479              	timer_update_event_enable:
 480              	.LVL34:
 481              	.LFB67:
 195:Drivers/GD32E23x/Source/gd32e23x_timer.c **** 
 196:Drivers/GD32E23x/Source/gd32e23x_timer.c **** /*!
 197:Drivers/GD32E23x/Source/gd32e23x_timer.c ****     \brief      enable the update event
ARM GAS  D:\noval\Temp\cck0Iw0b.s 			page 13


 198:Drivers/GD32E23x/Source/gd32e23x_timer.c ****     \param[in]  timer_periph: TIMERx(x=0,2,5,13..16)
 199:Drivers/GD32E23x/Source/gd32e23x_timer.c ****     \param[out] none
 200:Drivers/GD32E23x/Source/gd32e23x_timer.c ****     \retval     none
 201:Drivers/GD32E23x/Source/gd32e23x_timer.c **** */
 202:Drivers/GD32E23x/Source/gd32e23x_timer.c **** void timer_update_event_enable(uint32_t timer_periph)
 203:Drivers/GD32E23x/Source/gd32e23x_timer.c **** {
 482              		.loc 1 203 1 is_stmt 1 view -0
 483              		.cfi_startproc
 484              		@ args = 0, pretend = 0, frame = 0
 485              		@ frame_needed = 0, uses_anonymous_args = 0
 486              		@ link register save eliminated.
 204:Drivers/GD32E23x/Source/gd32e23x_timer.c ****     TIMER_CTL0(timer_periph) &= ~(uint32_t)TIMER_CTL0_UPDIS;
 487              		.loc 1 204 5 view .LVU106
 488 0000 0368     		ldr	r3, [r0]
 489              		.loc 1 204 30 is_stmt 0 view .LVU107
 490 0002 0222     		movs	r2, #2
 491 0004 9343     		bics	r3, r2
 492 0006 0360     		str	r3, [r0]
 205:Drivers/GD32E23x/Source/gd32e23x_timer.c **** }
 493              		.loc 1 205 1 view .LVU108
 494              		@ sp needed
 495 0008 7047     		bx	lr
 496              		.cfi_endproc
 497              	.LFE67:
 499              		.section	.text.timer_update_event_disable,"ax",%progbits
 500              		.align	1
 501              		.global	timer_update_event_disable
 502              		.syntax unified
 503              		.code	16
 504              		.thumb_func
 506              	timer_update_event_disable:
 507              	.LVL35:
 508              	.LFB68:
 206:Drivers/GD32E23x/Source/gd32e23x_timer.c **** 
 207:Drivers/GD32E23x/Source/gd32e23x_timer.c **** /*!
 208:Drivers/GD32E23x/Source/gd32e23x_timer.c ****     \brief      disable the update event
 209:Drivers/GD32E23x/Source/gd32e23x_timer.c ****     \param[in]  timer_periph: TIMERx(x=0,2,5,13..16)
 210:Drivers/GD32E23x/Source/gd32e23x_timer.c ****     \param[out] none
 211:Drivers/GD32E23x/Source/gd32e23x_timer.c ****     \retval     none
 212:Drivers/GD32E23x/Source/gd32e23x_timer.c **** */
 213:Drivers/GD32E23x/Source/gd32e23x_timer.c **** void timer_update_event_disable(uint32_t timer_periph)
 214:Drivers/GD32E23x/Source/gd32e23x_timer.c **** {
 509              		.loc 1 214 1 is_stmt 1 view -0
 510              		.cfi_startproc
 511              		@ args = 0, pretend = 0, frame = 0
 512              		@ frame_needed = 0, uses_anonymous_args = 0
 513              		@ link register save eliminated.
 215:Drivers/GD32E23x/Source/gd32e23x_timer.c ****     TIMER_CTL0(timer_periph) |= (uint32_t) TIMER_CTL0_UPDIS;
 514              		.loc 1 215 5 view .LVU110
 515 0000 0368     		ldr	r3, [r0]
 516              		.loc 1 215 30 is_stmt 0 view .LVU111
 517 0002 0222     		movs	r2, #2
 518 0004 1343     		orrs	r3, r2
 519 0006 0360     		str	r3, [r0]
 216:Drivers/GD32E23x/Source/gd32e23x_timer.c **** }
 520              		.loc 1 216 1 view .LVU112
 521              		@ sp needed
ARM GAS  D:\noval\Temp\cck0Iw0b.s 			page 14


 522 0008 7047     		bx	lr
 523              		.cfi_endproc
 524              	.LFE68:
 526              		.section	.text.timer_counter_alignment,"ax",%progbits
 527              		.align	1
 528              		.global	timer_counter_alignment
 529              		.syntax unified
 530              		.code	16
 531              		.thumb_func
 533              	timer_counter_alignment:
 534              	.LVL36:
 535              	.LFB69:
 217:Drivers/GD32E23x/Source/gd32e23x_timer.c **** 
 218:Drivers/GD32E23x/Source/gd32e23x_timer.c **** /*!
 219:Drivers/GD32E23x/Source/gd32e23x_timer.c ****     \brief      set TIMER counter alignment mode
 220:Drivers/GD32E23x/Source/gd32e23x_timer.c ****     \param[in]  timer_periph: TIMERx(x=0,2)
 221:Drivers/GD32E23x/Source/gd32e23x_timer.c ****     \param[in]  aligned:
 222:Drivers/GD32E23x/Source/gd32e23x_timer.c ****                 only one parameter can be selected which is shown as below:
 223:Drivers/GD32E23x/Source/gd32e23x_timer.c ****       \arg        TIMER_COUNTER_EDGE: edge-aligned mode
 224:Drivers/GD32E23x/Source/gd32e23x_timer.c ****       \arg        TIMER_COUNTER_CENTER_DOWN: center-aligned and counting down assert mode
 225:Drivers/GD32E23x/Source/gd32e23x_timer.c ****       \arg        TIMER_COUNTER_CENTER_UP: center-aligned and counting up assert mode
 226:Drivers/GD32E23x/Source/gd32e23x_timer.c ****       \arg        TIMER_COUNTER_CENTER_BOTH: center-aligned and counting up/down assert mode
 227:Drivers/GD32E23x/Source/gd32e23x_timer.c ****     \param[out] none
 228:Drivers/GD32E23x/Source/gd32e23x_timer.c ****     \retval     none
 229:Drivers/GD32E23x/Source/gd32e23x_timer.c **** */
 230:Drivers/GD32E23x/Source/gd32e23x_timer.c **** void timer_counter_alignment(uint32_t timer_periph, uint16_t aligned)
 231:Drivers/GD32E23x/Source/gd32e23x_timer.c **** {
 536              		.loc 1 231 1 is_stmt 1 view -0
 537              		.cfi_startproc
 538              		@ args = 0, pretend = 0, frame = 0
 539              		@ frame_needed = 0, uses_anonymous_args = 0
 540              		@ link register save eliminated.
 232:Drivers/GD32E23x/Source/gd32e23x_timer.c ****     TIMER_CTL0(timer_periph) &= ~(uint32_t)TIMER_CTL0_CAM;
 541              		.loc 1 232 5 view .LVU114
 542 0000 0368     		ldr	r3, [r0]
 543              		.loc 1 232 30 is_stmt 0 view .LVU115
 544 0002 6022     		movs	r2, #96
 545 0004 9343     		bics	r3, r2
 546 0006 0360     		str	r3, [r0]
 233:Drivers/GD32E23x/Source/gd32e23x_timer.c ****     TIMER_CTL0(timer_periph) |= (uint32_t)aligned;
 547              		.loc 1 233 5 is_stmt 1 view .LVU116
 548 0008 0368     		ldr	r3, [r0]
 549              		.loc 1 233 30 is_stmt 0 view .LVU117
 550 000a 0B43     		orrs	r3, r1
 551 000c 0360     		str	r3, [r0]
 234:Drivers/GD32E23x/Source/gd32e23x_timer.c **** }
 552              		.loc 1 234 1 view .LVU118
 553              		@ sp needed
 554 000e 7047     		bx	lr
 555              		.cfi_endproc
 556              	.LFE69:
 558              		.section	.text.timer_counter_up_direction,"ax",%progbits
 559              		.align	1
 560              		.global	timer_counter_up_direction
 561              		.syntax unified
 562              		.code	16
 563              		.thumb_func
ARM GAS  D:\noval\Temp\cck0Iw0b.s 			page 15


 565              	timer_counter_up_direction:
 566              	.LVL37:
 567              	.LFB70:
 235:Drivers/GD32E23x/Source/gd32e23x_timer.c **** 
 236:Drivers/GD32E23x/Source/gd32e23x_timer.c **** /*!
 237:Drivers/GD32E23x/Source/gd32e23x_timer.c ****     \brief      set TIMER counter up direction
 238:Drivers/GD32E23x/Source/gd32e23x_timer.c ****     \param[in]  timer_periph: TIMERx(x=0,2)
 239:Drivers/GD32E23x/Source/gd32e23x_timer.c ****     \param[out] none
 240:Drivers/GD32E23x/Source/gd32e23x_timer.c ****     \retval     none
 241:Drivers/GD32E23x/Source/gd32e23x_timer.c **** */
 242:Drivers/GD32E23x/Source/gd32e23x_timer.c **** void timer_counter_up_direction(uint32_t timer_periph)
 243:Drivers/GD32E23x/Source/gd32e23x_timer.c **** {
 568              		.loc 1 243 1 is_stmt 1 view -0
 569              		.cfi_startproc
 570              		@ args = 0, pretend = 0, frame = 0
 571              		@ frame_needed = 0, uses_anonymous_args = 0
 572              		@ link register save eliminated.
 244:Drivers/GD32E23x/Source/gd32e23x_timer.c ****     TIMER_CTL0(timer_periph) &= ~(uint32_t)TIMER_CTL0_DIR;
 573              		.loc 1 244 5 view .LVU120
 574 0000 0368     		ldr	r3, [r0]
 575              		.loc 1 244 30 is_stmt 0 view .LVU121
 576 0002 1022     		movs	r2, #16
 577 0004 9343     		bics	r3, r2
 578 0006 0360     		str	r3, [r0]
 245:Drivers/GD32E23x/Source/gd32e23x_timer.c **** }
 579              		.loc 1 245 1 view .LVU122
 580              		@ sp needed
 581 0008 7047     		bx	lr
 582              		.cfi_endproc
 583              	.LFE70:
 585              		.section	.text.timer_counter_down_direction,"ax",%progbits
 586              		.align	1
 587              		.global	timer_counter_down_direction
 588              		.syntax unified
 589              		.code	16
 590              		.thumb_func
 592              	timer_counter_down_direction:
 593              	.LVL38:
 594              	.LFB71:
 246:Drivers/GD32E23x/Source/gd32e23x_timer.c **** 
 247:Drivers/GD32E23x/Source/gd32e23x_timer.c **** /*!
 248:Drivers/GD32E23x/Source/gd32e23x_timer.c ****     \brief      set TIMER counter down direction
 249:Drivers/GD32E23x/Source/gd32e23x_timer.c ****     \param[in]  timer_periph: TIMERx(x=0,2)
 250:Drivers/GD32E23x/Source/gd32e23x_timer.c ****     \param[out] none
 251:Drivers/GD32E23x/Source/gd32e23x_timer.c ****     \retval     none
 252:Drivers/GD32E23x/Source/gd32e23x_timer.c **** */
 253:Drivers/GD32E23x/Source/gd32e23x_timer.c **** void timer_counter_down_direction(uint32_t timer_periph)
 254:Drivers/GD32E23x/Source/gd32e23x_timer.c **** {
 595              		.loc 1 254 1 is_stmt 1 view -0
 596              		.cfi_startproc
 597              		@ args = 0, pretend = 0, frame = 0
 598              		@ frame_needed = 0, uses_anonymous_args = 0
 599              		@ link register save eliminated.
 255:Drivers/GD32E23x/Source/gd32e23x_timer.c ****     TIMER_CTL0(timer_periph) |= (uint32_t)TIMER_CTL0_DIR;
 600              		.loc 1 255 5 view .LVU124
 601 0000 0368     		ldr	r3, [r0]
 602              		.loc 1 255 30 is_stmt 0 view .LVU125
ARM GAS  D:\noval\Temp\cck0Iw0b.s 			page 16


 603 0002 1022     		movs	r2, #16
 604 0004 1343     		orrs	r3, r2
 605 0006 0360     		str	r3, [r0]
 256:Drivers/GD32E23x/Source/gd32e23x_timer.c **** }
 606              		.loc 1 256 1 view .LVU126
 607              		@ sp needed
 608 0008 7047     		bx	lr
 609              		.cfi_endproc
 610              	.LFE71:
 612              		.section	.text.timer_prescaler_config,"ax",%progbits
 613              		.align	1
 614              		.global	timer_prescaler_config
 615              		.syntax unified
 616              		.code	16
 617              		.thumb_func
 619              	timer_prescaler_config:
 620              	.LVL39:
 621              	.LFB72:
 257:Drivers/GD32E23x/Source/gd32e23x_timer.c **** 
 258:Drivers/GD32E23x/Source/gd32e23x_timer.c **** /*!
 259:Drivers/GD32E23x/Source/gd32e23x_timer.c ****     \brief      configure TIMER prescaler
 260:Drivers/GD32E23x/Source/gd32e23x_timer.c ****     \param[in]  timer_periph: TIMERx(x=0,2,5,13..16)
 261:Drivers/GD32E23x/Source/gd32e23x_timer.c ****     \param[in]  prescaler: prescaler value,0~65535
 262:Drivers/GD32E23x/Source/gd32e23x_timer.c ****     \param[in]  pscreload: prescaler reload mode
 263:Drivers/GD32E23x/Source/gd32e23x_timer.c ****                 only one parameter can be selected which is shown as below:
 264:Drivers/GD32E23x/Source/gd32e23x_timer.c ****       \arg        TIMER_PSC_RELOAD_NOW: the prescaler is loaded right now
 265:Drivers/GD32E23x/Source/gd32e23x_timer.c ****       \arg        TIMER_PSC_RELOAD_UPDATE: the prescaler is loaded at the next update event
 266:Drivers/GD32E23x/Source/gd32e23x_timer.c ****     \param[out] none
 267:Drivers/GD32E23x/Source/gd32e23x_timer.c ****     \retval     none
 268:Drivers/GD32E23x/Source/gd32e23x_timer.c **** */
 269:Drivers/GD32E23x/Source/gd32e23x_timer.c **** void timer_prescaler_config(uint32_t timer_periph, uint16_t prescaler, uint8_t pscreload)
 270:Drivers/GD32E23x/Source/gd32e23x_timer.c **** {
 622              		.loc 1 270 1 is_stmt 1 view -0
 623              		.cfi_startproc
 624              		@ args = 0, pretend = 0, frame = 0
 625              		@ frame_needed = 0, uses_anonymous_args = 0
 626              		@ link register save eliminated.
 271:Drivers/GD32E23x/Source/gd32e23x_timer.c ****     TIMER_PSC(timer_periph) = (uint32_t)prescaler;
 627              		.loc 1 271 5 view .LVU128
 628              		.loc 1 271 29 is_stmt 0 view .LVU129
 629 0000 8162     		str	r1, [r0, #40]
 272:Drivers/GD32E23x/Source/gd32e23x_timer.c ****     
 273:Drivers/GD32E23x/Source/gd32e23x_timer.c ****     if(TIMER_PSC_RELOAD_NOW == pscreload){
 630              		.loc 1 273 5 is_stmt 1 view .LVU130
 631              		.loc 1 273 7 is_stmt 0 view .LVU131
 632 0002 012A     		cmp	r2, #1
 633 0004 00D0     		beq	.L32
 634              	.L30:
 274:Drivers/GD32E23x/Source/gd32e23x_timer.c ****         TIMER_SWEVG(timer_periph) |= (uint32_t)TIMER_SWEVG_UPG;
 275:Drivers/GD32E23x/Source/gd32e23x_timer.c ****     }
 276:Drivers/GD32E23x/Source/gd32e23x_timer.c **** }
 635              		.loc 1 276 1 view .LVU132
 636              		@ sp needed
 637 0006 7047     		bx	lr
 638              	.L32:
 274:Drivers/GD32E23x/Source/gd32e23x_timer.c ****         TIMER_SWEVG(timer_periph) |= (uint32_t)TIMER_SWEVG_UPG;
 639              		.loc 1 274 9 is_stmt 1 view .LVU133
ARM GAS  D:\noval\Temp\cck0Iw0b.s 			page 17


 640 0008 4369     		ldr	r3, [r0, #20]
 274:Drivers/GD32E23x/Source/gd32e23x_timer.c ****         TIMER_SWEVG(timer_periph) |= (uint32_t)TIMER_SWEVG_UPG;
 641              		.loc 1 274 35 is_stmt 0 view .LVU134
 642 000a 1343     		orrs	r3, r2
 643 000c 4361     		str	r3, [r0, #20]
 644              		.loc 1 276 1 view .LVU135
 645 000e FAE7     		b	.L30
 646              		.cfi_endproc
 647              	.LFE72:
 649              		.section	.text.timer_repetition_value_config,"ax",%progbits
 650              		.align	1
 651              		.global	timer_repetition_value_config
 652              		.syntax unified
 653              		.code	16
 654              		.thumb_func
 656              	timer_repetition_value_config:
 657              	.LVL40:
 658              	.LFB73:
 277:Drivers/GD32E23x/Source/gd32e23x_timer.c **** 
 278:Drivers/GD32E23x/Source/gd32e23x_timer.c **** /*!
 279:Drivers/GD32E23x/Source/gd32e23x_timer.c ****     \brief      configure TIMER repetition register value
 280:Drivers/GD32E23x/Source/gd32e23x_timer.c ****     \param[in]  timer_periph: TIMERx(x=0,15,16)
 281:Drivers/GD32E23x/Source/gd32e23x_timer.c ****     \param[in]  repetition: the counter repetition value,0~255
 282:Drivers/GD32E23x/Source/gd32e23x_timer.c ****     \param[out] none
 283:Drivers/GD32E23x/Source/gd32e23x_timer.c ****     \retval     none
 284:Drivers/GD32E23x/Source/gd32e23x_timer.c **** */
 285:Drivers/GD32E23x/Source/gd32e23x_timer.c **** void timer_repetition_value_config(uint32_t timer_periph, uint16_t repetition)
 286:Drivers/GD32E23x/Source/gd32e23x_timer.c **** {
 659              		.loc 1 286 1 is_stmt 1 view -0
 660              		.cfi_startproc
 661              		@ args = 0, pretend = 0, frame = 0
 662              		@ frame_needed = 0, uses_anonymous_args = 0
 663              		@ link register save eliminated.
 287:Drivers/GD32E23x/Source/gd32e23x_timer.c ****     TIMER_CREP(timer_periph) = (uint32_t)repetition;
 664              		.loc 1 287 5 view .LVU137
 665              		.loc 1 287 30 is_stmt 0 view .LVU138
 666 0000 0163     		str	r1, [r0, #48]
 288:Drivers/GD32E23x/Source/gd32e23x_timer.c **** } 
 667              		.loc 1 288 1 view .LVU139
 668              		@ sp needed
 669 0002 7047     		bx	lr
 670              		.cfi_endproc
 671              	.LFE73:
 673              		.section	.text.timer_autoreload_value_config,"ax",%progbits
 674              		.align	1
 675              		.global	timer_autoreload_value_config
 676              		.syntax unified
 677              		.code	16
 678              		.thumb_func
 680              	timer_autoreload_value_config:
 681              	.LVL41:
 682              	.LFB74:
 289:Drivers/GD32E23x/Source/gd32e23x_timer.c ****  
 290:Drivers/GD32E23x/Source/gd32e23x_timer.c **** /*!
 291:Drivers/GD32E23x/Source/gd32e23x_timer.c ****     \brief      configure TIMER autoreload register value
 292:Drivers/GD32E23x/Source/gd32e23x_timer.c ****     \param[in]  timer_periph: TIMERx(x=0,2,5,13..16)
 293:Drivers/GD32E23x/Source/gd32e23x_timer.c ****     \param[in]  autoreload: the counter auto-reload value,0~65535
ARM GAS  D:\noval\Temp\cck0Iw0b.s 			page 18


 294:Drivers/GD32E23x/Source/gd32e23x_timer.c ****     \param[out] none
 295:Drivers/GD32E23x/Source/gd32e23x_timer.c ****     \retval     none
 296:Drivers/GD32E23x/Source/gd32e23x_timer.c **** */         
 297:Drivers/GD32E23x/Source/gd32e23x_timer.c **** void timer_autoreload_value_config(uint32_t timer_periph, uint16_t autoreload)
 298:Drivers/GD32E23x/Source/gd32e23x_timer.c **** {
 683              		.loc 1 298 1 is_stmt 1 view -0
 684              		.cfi_startproc
 685              		@ args = 0, pretend = 0, frame = 0
 686              		@ frame_needed = 0, uses_anonymous_args = 0
 687              		@ link register save eliminated.
 299:Drivers/GD32E23x/Source/gd32e23x_timer.c ****     TIMER_CAR(timer_periph) = (uint32_t)autoreload;
 688              		.loc 1 299 5 view .LVU141
 689              		.loc 1 299 29 is_stmt 0 view .LVU142
 690 0000 C162     		str	r1, [r0, #44]
 300:Drivers/GD32E23x/Source/gd32e23x_timer.c **** }
 691              		.loc 1 300 1 view .LVU143
 692              		@ sp needed
 693 0002 7047     		bx	lr
 694              		.cfi_endproc
 695              	.LFE74:
 697              		.section	.text.timer_counter_value_config,"ax",%progbits
 698              		.align	1
 699              		.global	timer_counter_value_config
 700              		.syntax unified
 701              		.code	16
 702              		.thumb_func
 704              	timer_counter_value_config:
 705              	.LVL42:
 706              	.LFB75:
 301:Drivers/GD32E23x/Source/gd32e23x_timer.c **** 
 302:Drivers/GD32E23x/Source/gd32e23x_timer.c **** /*!
 303:Drivers/GD32E23x/Source/gd32e23x_timer.c ****     \brief      configure TIMER counter register value
 304:Drivers/GD32E23x/Source/gd32e23x_timer.c ****     \param[in]  timer_periph: TIMERx(x=0,2,5,13..16)
 305:Drivers/GD32E23x/Source/gd32e23x_timer.c ****     \param[in]  counter: the counter value,0~65535
 306:Drivers/GD32E23x/Source/gd32e23x_timer.c ****     \param[out] none
 307:Drivers/GD32E23x/Source/gd32e23x_timer.c ****     \retval     none
 308:Drivers/GD32E23x/Source/gd32e23x_timer.c **** */         
 309:Drivers/GD32E23x/Source/gd32e23x_timer.c **** void timer_counter_value_config(uint32_t timer_periph, uint16_t counter)
 310:Drivers/GD32E23x/Source/gd32e23x_timer.c **** {
 707              		.loc 1 310 1 is_stmt 1 view -0
 708              		.cfi_startproc
 709              		@ args = 0, pretend = 0, frame = 0
 710              		@ frame_needed = 0, uses_anonymous_args = 0
 711              		@ link register save eliminated.
 311:Drivers/GD32E23x/Source/gd32e23x_timer.c ****     TIMER_CNT(timer_periph) = (uint32_t)counter;
 712              		.loc 1 311 5 view .LVU145
 713              		.loc 1 311 29 is_stmt 0 view .LVU146
 714 0000 4162     		str	r1, [r0, #36]
 312:Drivers/GD32E23x/Source/gd32e23x_timer.c **** }
 715              		.loc 1 312 1 view .LVU147
 716              		@ sp needed
 717 0002 7047     		bx	lr
 718              		.cfi_endproc
 719              	.LFE75:
 721              		.section	.text.timer_counter_read,"ax",%progbits
 722              		.align	1
 723              		.global	timer_counter_read
ARM GAS  D:\noval\Temp\cck0Iw0b.s 			page 19


 724              		.syntax unified
 725              		.code	16
 726              		.thumb_func
 728              	timer_counter_read:
 729              	.LVL43:
 730              	.LFB76:
 313:Drivers/GD32E23x/Source/gd32e23x_timer.c **** 
 314:Drivers/GD32E23x/Source/gd32e23x_timer.c **** /*!
 315:Drivers/GD32E23x/Source/gd32e23x_timer.c ****     \brief      read TIMER counter value
 316:Drivers/GD32E23x/Source/gd32e23x_timer.c ****     \param[in]  timer_periph: TIMERx(x=0,2,5,13..16)
 317:Drivers/GD32E23x/Source/gd32e23x_timer.c ****     \param[out] none
 318:Drivers/GD32E23x/Source/gd32e23x_timer.c ****     \retval     counter value
 319:Drivers/GD32E23x/Source/gd32e23x_timer.c **** */         
 320:Drivers/GD32E23x/Source/gd32e23x_timer.c **** uint32_t timer_counter_read(uint32_t timer_periph)
 321:Drivers/GD32E23x/Source/gd32e23x_timer.c **** {
 731              		.loc 1 321 1 is_stmt 1 view -0
 732              		.cfi_startproc
 733              		@ args = 0, pretend = 0, frame = 0
 734              		@ frame_needed = 0, uses_anonymous_args = 0
 735              		@ link register save eliminated.
 322:Drivers/GD32E23x/Source/gd32e23x_timer.c ****     uint32_t count_value = 0U;
 736              		.loc 1 322 5 view .LVU149
 323:Drivers/GD32E23x/Source/gd32e23x_timer.c ****     count_value = TIMER_CNT(timer_periph);
 737              		.loc 1 323 5 view .LVU150
 738              		.loc 1 323 17 is_stmt 0 view .LVU151
 739 0000 406A     		ldr	r0, [r0, #36]
 740              	.LVL44:
 324:Drivers/GD32E23x/Source/gd32e23x_timer.c ****     return (count_value);
 741              		.loc 1 324 5 is_stmt 1 view .LVU152
 325:Drivers/GD32E23x/Source/gd32e23x_timer.c **** }
 742              		.loc 1 325 1 is_stmt 0 view .LVU153
 743              		@ sp needed
 744 0002 7047     		bx	lr
 745              		.cfi_endproc
 746              	.LFE76:
 748              		.section	.text.timer_prescaler_read,"ax",%progbits
 749              		.align	1
 750              		.global	timer_prescaler_read
 751              		.syntax unified
 752              		.code	16
 753              		.thumb_func
 755              	timer_prescaler_read:
 756              	.LVL45:
 757              	.LFB77:
 326:Drivers/GD32E23x/Source/gd32e23x_timer.c **** 
 327:Drivers/GD32E23x/Source/gd32e23x_timer.c **** /*!
 328:Drivers/GD32E23x/Source/gd32e23x_timer.c ****     \brief      read TIMER prescaler value
 329:Drivers/GD32E23x/Source/gd32e23x_timer.c ****     \param[in]  timer_periph: TIMERx(x=0,2,5,13..16)
 330:Drivers/GD32E23x/Source/gd32e23x_timer.c ****     \param[out] none
 331:Drivers/GD32E23x/Source/gd32e23x_timer.c ****     \retval     prescaler register value
 332:Drivers/GD32E23x/Source/gd32e23x_timer.c **** */         
 333:Drivers/GD32E23x/Source/gd32e23x_timer.c **** uint16_t timer_prescaler_read(uint32_t timer_periph)
 334:Drivers/GD32E23x/Source/gd32e23x_timer.c **** {
 758              		.loc 1 334 1 is_stmt 1 view -0
 759              		.cfi_startproc
 760              		@ args = 0, pretend = 0, frame = 0
 761              		@ frame_needed = 0, uses_anonymous_args = 0
ARM GAS  D:\noval\Temp\cck0Iw0b.s 			page 20


 762              		@ link register save eliminated.
 335:Drivers/GD32E23x/Source/gd32e23x_timer.c ****     uint16_t prescaler_value = 0U;
 763              		.loc 1 335 5 view .LVU155
 336:Drivers/GD32E23x/Source/gd32e23x_timer.c ****     prescaler_value = (uint16_t)(TIMER_PSC(timer_periph));
 764              		.loc 1 336 5 view .LVU156
 765              		.loc 1 336 34 is_stmt 0 view .LVU157
 766 0000 806A     		ldr	r0, [r0, #40]
 767              	.LVL46:
 768              		.loc 1 336 21 view .LVU158
 769 0002 80B2     		uxth	r0, r0
 770              	.LVL47:
 337:Drivers/GD32E23x/Source/gd32e23x_timer.c ****     return (prescaler_value);
 771              		.loc 1 337 5 is_stmt 1 view .LVU159
 338:Drivers/GD32E23x/Source/gd32e23x_timer.c **** }
 772              		.loc 1 338 1 is_stmt 0 view .LVU160
 773              		@ sp needed
 774 0004 7047     		bx	lr
 775              		.cfi_endproc
 776              	.LFE77:
 778              		.section	.text.timer_single_pulse_mode_config,"ax",%progbits
 779              		.align	1
 780              		.global	timer_single_pulse_mode_config
 781              		.syntax unified
 782              		.code	16
 783              		.thumb_func
 785              	timer_single_pulse_mode_config:
 786              	.LVL48:
 787              	.LFB78:
 339:Drivers/GD32E23x/Source/gd32e23x_timer.c **** 
 340:Drivers/GD32E23x/Source/gd32e23x_timer.c **** /*!
 341:Drivers/GD32E23x/Source/gd32e23x_timer.c ****     \brief      configure TIMER single pulse mode
 342:Drivers/GD32E23x/Source/gd32e23x_timer.c ****     \param[in]  timer_periph: TIMERx(x=0,2,5,14..16)
 343:Drivers/GD32E23x/Source/gd32e23x_timer.c ****     \param[in]  spmode:
 344:Drivers/GD32E23x/Source/gd32e23x_timer.c ****                 only one parameter can be selected which is shown as below:
 345:Drivers/GD32E23x/Source/gd32e23x_timer.c ****       \arg        TIMER_SP_MODE_SINGLE: single pulse mode
 346:Drivers/GD32E23x/Source/gd32e23x_timer.c ****       \arg        TIMER_SP_MODE_REPETITIVE: repetitive pulse mode
 347:Drivers/GD32E23x/Source/gd32e23x_timer.c ****     \param[out] none
 348:Drivers/GD32E23x/Source/gd32e23x_timer.c ****     \retval     none
 349:Drivers/GD32E23x/Source/gd32e23x_timer.c **** */
 350:Drivers/GD32E23x/Source/gd32e23x_timer.c **** void timer_single_pulse_mode_config(uint32_t timer_periph, uint32_t spmode)
 351:Drivers/GD32E23x/Source/gd32e23x_timer.c **** {
 788              		.loc 1 351 1 is_stmt 1 view -0
 789              		.cfi_startproc
 790              		@ args = 0, pretend = 0, frame = 0
 791              		@ frame_needed = 0, uses_anonymous_args = 0
 792              		@ link register save eliminated.
 352:Drivers/GD32E23x/Source/gd32e23x_timer.c ****     if(TIMER_SP_MODE_SINGLE == spmode){
 793              		.loc 1 352 5 view .LVU162
 794              		.loc 1 352 7 is_stmt 0 view .LVU163
 795 0000 0829     		cmp	r1, #8
 796 0002 05D0     		beq	.L41
 353:Drivers/GD32E23x/Source/gd32e23x_timer.c ****         TIMER_CTL0(timer_periph) |= (uint32_t)TIMER_CTL0_SPM;
 354:Drivers/GD32E23x/Source/gd32e23x_timer.c ****     }else if(TIMER_SP_MODE_REPETITIVE == spmode){
 797              		.loc 1 354 11 is_stmt 1 view .LVU164
 798              		.loc 1 354 13 is_stmt 0 view .LVU165
 799 0004 41B9     		cbnz	r1, .L38
 355:Drivers/GD32E23x/Source/gd32e23x_timer.c ****         TIMER_CTL0(timer_periph) &= ~((uint32_t)TIMER_CTL0_SPM);
ARM GAS  D:\noval\Temp\cck0Iw0b.s 			page 21


 800              		.loc 1 355 9 is_stmt 1 view .LVU166
 801 0006 0368     		ldr	r3, [r0]
 802              		.loc 1 355 34 is_stmt 0 view .LVU167
 803 0008 0822     		movs	r2, #8
 804 000a 9343     		bics	r3, r2
 805 000c 0360     		str	r3, [r0]
 356:Drivers/GD32E23x/Source/gd32e23x_timer.c ****     }else{
 357:Drivers/GD32E23x/Source/gd32e23x_timer.c ****         /* illegal parameters */
 358:Drivers/GD32E23x/Source/gd32e23x_timer.c ****     }
 806              		.loc 1 358 5 is_stmt 1 view .LVU168
 359:Drivers/GD32E23x/Source/gd32e23x_timer.c **** }
 807              		.loc 1 359 1 is_stmt 0 view .LVU169
 808 000e 03E0     		b	.L38
 809              	.L41:
 353:Drivers/GD32E23x/Source/gd32e23x_timer.c ****     }else if(TIMER_SP_MODE_REPETITIVE == spmode){
 810              		.loc 1 353 9 is_stmt 1 view .LVU170
 811 0010 0368     		ldr	r3, [r0]
 353:Drivers/GD32E23x/Source/gd32e23x_timer.c ****     }else if(TIMER_SP_MODE_REPETITIVE == spmode){
 812              		.loc 1 353 34 is_stmt 0 view .LVU171
 813 0012 0822     		movs	r2, #8
 814 0014 1343     		orrs	r3, r2
 815 0016 0360     		str	r3, [r0]
 816              	.L38:
 817              		.loc 1 359 1 view .LVU172
 818              		@ sp needed
 819 0018 7047     		bx	lr
 820              		.cfi_endproc
 821              	.LFE78:
 823              		.section	.text.timer_update_source_config,"ax",%progbits
 824              		.align	1
 825              		.global	timer_update_source_config
 826              		.syntax unified
 827              		.code	16
 828              		.thumb_func
 830              	timer_update_source_config:
 831              	.LVL49:
 832              	.LFB79:
 360:Drivers/GD32E23x/Source/gd32e23x_timer.c **** 
 361:Drivers/GD32E23x/Source/gd32e23x_timer.c **** /*!
 362:Drivers/GD32E23x/Source/gd32e23x_timer.c ****     \brief      configure TIMER update source 
 363:Drivers/GD32E23x/Source/gd32e23x_timer.c ****     \param[in]  timer_periph: TIMERx(x=0,2,5,13..16)
 364:Drivers/GD32E23x/Source/gd32e23x_timer.c ****     \param[in]  update:
 365:Drivers/GD32E23x/Source/gd32e23x_timer.c ****                 only one parameter can be selected which is shown as below:
 366:Drivers/GD32E23x/Source/gd32e23x_timer.c ****       \arg        TIMER_UPDATE_SRC_GLOBAL: update generate by setting of UPG bit or the counter ove
 367:Drivers/GD32E23x/Source/gd32e23x_timer.c ****       \arg        TIMER_UPDATE_SRC_REGULAR: update generate only by counter overflow/underflow
 368:Drivers/GD32E23x/Source/gd32e23x_timer.c ****     \param[out] none
 369:Drivers/GD32E23x/Source/gd32e23x_timer.c ****     \retval     none
 370:Drivers/GD32E23x/Source/gd32e23x_timer.c **** */
 371:Drivers/GD32E23x/Source/gd32e23x_timer.c **** void timer_update_source_config(uint32_t timer_periph, uint32_t update)
 372:Drivers/GD32E23x/Source/gd32e23x_timer.c **** {
 833              		.loc 1 372 1 is_stmt 1 view -0
 834              		.cfi_startproc
 835              		@ args = 0, pretend = 0, frame = 0
 836              		@ frame_needed = 0, uses_anonymous_args = 0
 837              		@ link register save eliminated.
 373:Drivers/GD32E23x/Source/gd32e23x_timer.c ****     if(TIMER_UPDATE_SRC_REGULAR == update){
 838              		.loc 1 373 5 view .LVU174
ARM GAS  D:\noval\Temp\cck0Iw0b.s 			page 22


 839              		.loc 1 373 7 is_stmt 0 view .LVU175
 840 0000 0429     		cmp	r1, #4
 841 0002 05D0     		beq	.L45
 374:Drivers/GD32E23x/Source/gd32e23x_timer.c ****         TIMER_CTL0(timer_periph) |= (uint32_t)TIMER_CTL0_UPS;
 375:Drivers/GD32E23x/Source/gd32e23x_timer.c ****     }else if(TIMER_UPDATE_SRC_GLOBAL == update){
 842              		.loc 1 375 11 is_stmt 1 view .LVU176
 843              		.loc 1 375 13 is_stmt 0 view .LVU177
 844 0004 41B9     		cbnz	r1, .L42
 376:Drivers/GD32E23x/Source/gd32e23x_timer.c ****         TIMER_CTL0(timer_periph) &= ~(uint32_t)TIMER_CTL0_UPS;
 845              		.loc 1 376 9 is_stmt 1 view .LVU178
 846 0006 0368     		ldr	r3, [r0]
 847              		.loc 1 376 34 is_stmt 0 view .LVU179
 848 0008 0422     		movs	r2, #4
 849 000a 9343     		bics	r3, r2
 850 000c 0360     		str	r3, [r0]
 377:Drivers/GD32E23x/Source/gd32e23x_timer.c ****     }else{
 378:Drivers/GD32E23x/Source/gd32e23x_timer.c ****         /* illegal parameters */
 379:Drivers/GD32E23x/Source/gd32e23x_timer.c ****     }
 851              		.loc 1 379 5 is_stmt 1 view .LVU180
 380:Drivers/GD32E23x/Source/gd32e23x_timer.c **** }
 852              		.loc 1 380 1 is_stmt 0 view .LVU181
 853 000e 03E0     		b	.L42
 854              	.L45:
 374:Drivers/GD32E23x/Source/gd32e23x_timer.c ****     }else if(TIMER_UPDATE_SRC_GLOBAL == update){
 855              		.loc 1 374 9 is_stmt 1 view .LVU182
 856 0010 0368     		ldr	r3, [r0]
 374:Drivers/GD32E23x/Source/gd32e23x_timer.c ****     }else if(TIMER_UPDATE_SRC_GLOBAL == update){
 857              		.loc 1 374 34 is_stmt 0 view .LVU183
 858 0012 0422     		movs	r2, #4
 859 0014 1343     		orrs	r3, r2
 860 0016 0360     		str	r3, [r0]
 861              	.L42:
 862              		.loc 1 380 1 view .LVU184
 863              		@ sp needed
 864 0018 7047     		bx	lr
 865              		.cfi_endproc
 866              	.LFE79:
 868              		.section	.text.timer_ocpre_clear_source_config,"ax",%progbits
 869              		.align	1
 870              		.global	timer_ocpre_clear_source_config
 871              		.syntax unified
 872              		.code	16
 873              		.thumb_func
 875              	timer_ocpre_clear_source_config:
 876              	.LVL50:
 877              	.LFB80:
 381:Drivers/GD32E23x/Source/gd32e23x_timer.c **** 
 382:Drivers/GD32E23x/Source/gd32e23x_timer.c **** /*!
 383:Drivers/GD32E23x/Source/gd32e23x_timer.c ****     \brief      configure TIMER OCPRE clear source selection
 384:Drivers/GD32E23x/Source/gd32e23x_timer.c ****     \param[in]  timer_periph: TIMERx(x=0,2)
 385:Drivers/GD32E23x/Source/gd32e23x_timer.c ****     \param[in]  ocpreclear:
 386:Drivers/GD32E23x/Source/gd32e23x_timer.c ****                 only one parameter can be selected which is shown as below:
 387:Drivers/GD32E23x/Source/gd32e23x_timer.c ****       \arg        TIMER_OCPRE_CLEAR_SOURCE_CLR: OCPRE_CLR_INT is connected to the OCPRE_CLR input
 388:Drivers/GD32E23x/Source/gd32e23x_timer.c ****       \arg        TIMER_OCPRE_CLEAR_SOURCE_ETIF: OCPRE_CLR_INT is connected to ETIF
 389:Drivers/GD32E23x/Source/gd32e23x_timer.c ****     \param[out] none
 390:Drivers/GD32E23x/Source/gd32e23x_timer.c ****     \retval     none
 391:Drivers/GD32E23x/Source/gd32e23x_timer.c **** */
ARM GAS  D:\noval\Temp\cck0Iw0b.s 			page 23


 392:Drivers/GD32E23x/Source/gd32e23x_timer.c **** void timer_ocpre_clear_source_config(uint32_t timer_periph, uint8_t ocpreclear)
 393:Drivers/GD32E23x/Source/gd32e23x_timer.c **** {
 878              		.loc 1 393 1 is_stmt 1 view -0
 879              		.cfi_startproc
 880              		@ args = 0, pretend = 0, frame = 0
 881              		@ frame_needed = 0, uses_anonymous_args = 0
 882              		@ link register save eliminated.
 394:Drivers/GD32E23x/Source/gd32e23x_timer.c ****     if(TIMER_OCPRE_CLEAR_SOURCE_ETIF == ocpreclear){
 883              		.loc 1 394 5 view .LVU186
 884              		.loc 1 394 7 is_stmt 0 view .LVU187
 885 0000 0129     		cmp	r1, #1
 886 0002 05D0     		beq	.L49
 395:Drivers/GD32E23x/Source/gd32e23x_timer.c ****         TIMER_SMCFG(timer_periph) |= (uint32_t)TIMER_SMCFG_OCRC;
 396:Drivers/GD32E23x/Source/gd32e23x_timer.c ****     }else if(TIMER_OCPRE_CLEAR_SOURCE_CLR == ocpreclear){
 887              		.loc 1 396 11 is_stmt 1 view .LVU188
 888              		.loc 1 396 13 is_stmt 0 view .LVU189
 889 0004 41B9     		cbnz	r1, .L46
 397:Drivers/GD32E23x/Source/gd32e23x_timer.c ****         TIMER_SMCFG(timer_periph) &= ~(uint32_t)TIMER_SMCFG_OCRC;
 890              		.loc 1 397 9 is_stmt 1 view .LVU190
 891 0006 8368     		ldr	r3, [r0, #8]
 892              		.loc 1 397 35 is_stmt 0 view .LVU191
 893 0008 0822     		movs	r2, #8
 894 000a 9343     		bics	r3, r2
 895 000c 8360     		str	r3, [r0, #8]
 398:Drivers/GD32E23x/Source/gd32e23x_timer.c ****     }else{
 399:Drivers/GD32E23x/Source/gd32e23x_timer.c ****         /* illegal parameters */
 400:Drivers/GD32E23x/Source/gd32e23x_timer.c ****     }
 896              		.loc 1 400 5 is_stmt 1 view .LVU192
 401:Drivers/GD32E23x/Source/gd32e23x_timer.c **** }
 897              		.loc 1 401 1 is_stmt 0 view .LVU193
 898 000e 03E0     		b	.L46
 899              	.L49:
 395:Drivers/GD32E23x/Source/gd32e23x_timer.c ****     }else if(TIMER_OCPRE_CLEAR_SOURCE_CLR == ocpreclear){
 900              		.loc 1 395 9 is_stmt 1 view .LVU194
 901 0010 8368     		ldr	r3, [r0, #8]
 395:Drivers/GD32E23x/Source/gd32e23x_timer.c ****     }else if(TIMER_OCPRE_CLEAR_SOURCE_CLR == ocpreclear){
 902              		.loc 1 395 35 is_stmt 0 view .LVU195
 903 0012 0822     		movs	r2, #8
 904 0014 1343     		orrs	r3, r2
 905 0016 8360     		str	r3, [r0, #8]
 906              	.L46:
 907              		.loc 1 401 1 view .LVU196
 908              		@ sp needed
 909 0018 7047     		bx	lr
 910              		.cfi_endproc
 911              	.LFE80:
 913              		.section	.text.timer_interrupt_enable,"ax",%progbits
 914              		.align	1
 915              		.global	timer_interrupt_enable
 916              		.syntax unified
 917              		.code	16
 918              		.thumb_func
 920              	timer_interrupt_enable:
 921              	.LVL51:
 922              	.LFB81:
 402:Drivers/GD32E23x/Source/gd32e23x_timer.c **** 
 403:Drivers/GD32E23x/Source/gd32e23x_timer.c **** /*!
ARM GAS  D:\noval\Temp\cck0Iw0b.s 			page 24


 404:Drivers/GD32E23x/Source/gd32e23x_timer.c ****     \brief      enable the TIMER interrupt
 405:Drivers/GD32E23x/Source/gd32e23x_timer.c ****     \param[in]  timer_periph: please refer to the following parameters 
 406:Drivers/GD32E23x/Source/gd32e23x_timer.c ****     \param[in]  interrupt: timer interrupt enable source
 407:Drivers/GD32E23x/Source/gd32e23x_timer.c ****                 only one parameter can be selected which is shown as below:
 408:Drivers/GD32E23x/Source/gd32e23x_timer.c ****       \arg        TIMER_INT_UP: update interrupt enable, TIMERx(x=0,2,5,13..16)
 409:Drivers/GD32E23x/Source/gd32e23x_timer.c ****       \arg        TIMER_INT_CH0: channel 0 interrupt enable, TIMERx(x=0,2,13..16)
 410:Drivers/GD32E23x/Source/gd32e23x_timer.c ****       \arg        TIMER_INT_CH1: channel 1 interrupt enable, TIMERx(x=0,2,14)
 411:Drivers/GD32E23x/Source/gd32e23x_timer.c ****       \arg        TIMER_INT_CH2: channel 2 interrupt enable, TIMERx(x=0,2)
 412:Drivers/GD32E23x/Source/gd32e23x_timer.c ****       \arg        TIMER_INT_CH3: channel 3 interrupt enable , TIMERx(x=0,2)
 413:Drivers/GD32E23x/Source/gd32e23x_timer.c ****       \arg        TIMER_INT_CMT: commutation interrupt enable, TIMERx(x=0,14..16)
 414:Drivers/GD32E23x/Source/gd32e23x_timer.c ****       \arg        TIMER_INT_TRG: trigger interrupt enable, TIMERx(x=0,2,14)
 415:Drivers/GD32E23x/Source/gd32e23x_timer.c ****       \arg        TIMER_INT_BRK: break interrupt enable, TIMERx(x=0,14..16)
 416:Drivers/GD32E23x/Source/gd32e23x_timer.c ****     \param[out] none
 417:Drivers/GD32E23x/Source/gd32e23x_timer.c ****     \retval     none
 418:Drivers/GD32E23x/Source/gd32e23x_timer.c **** */
 419:Drivers/GD32E23x/Source/gd32e23x_timer.c **** void timer_interrupt_enable(uint32_t timer_periph, uint32_t interrupt)
 420:Drivers/GD32E23x/Source/gd32e23x_timer.c **** {
 923              		.loc 1 420 1 is_stmt 1 view -0
 924              		.cfi_startproc
 925              		@ args = 0, pretend = 0, frame = 0
 926              		@ frame_needed = 0, uses_anonymous_args = 0
 927              		@ link register save eliminated.
 421:Drivers/GD32E23x/Source/gd32e23x_timer.c ****     TIMER_DMAINTEN(timer_periph) |= (uint32_t) interrupt; 
 928              		.loc 1 421 5 view .LVU198
 929 0000 C368     		ldr	r3, [r0, #12]
 930              		.loc 1 421 34 is_stmt 0 view .LVU199
 931 0002 0B43     		orrs	r3, r1
 932 0004 C360     		str	r3, [r0, #12]
 422:Drivers/GD32E23x/Source/gd32e23x_timer.c **** }
 933              		.loc 1 422 1 view .LVU200
 934              		@ sp needed
 935 0006 7047     		bx	lr
 936              		.cfi_endproc
 937              	.LFE81:
 939              		.section	.text.timer_interrupt_disable,"ax",%progbits
 940              		.align	1
 941              		.global	timer_interrupt_disable
 942              		.syntax unified
 943              		.code	16
 944              		.thumb_func
 946              	timer_interrupt_disable:
 947              	.LVL52:
 948              	.LFB82:
 423:Drivers/GD32E23x/Source/gd32e23x_timer.c **** 
 424:Drivers/GD32E23x/Source/gd32e23x_timer.c **** /*!
 425:Drivers/GD32E23x/Source/gd32e23x_timer.c ****     \brief      disable the TIMER interrupt
 426:Drivers/GD32E23x/Source/gd32e23x_timer.c ****     \param[in]  timer_periph: please refer to the following parameters
 427:Drivers/GD32E23x/Source/gd32e23x_timer.c ****     \param[in]  interrupt: timer interrupt source disable
 428:Drivers/GD32E23x/Source/gd32e23x_timer.c ****                 only one parameter can be selected which is shown as below:
 429:Drivers/GD32E23x/Source/gd32e23x_timer.c ****       \arg        TIMER_INT_UP: update interrupt enable, TIMERx(x=0,2,5,13..16)
 430:Drivers/GD32E23x/Source/gd32e23x_timer.c ****       \arg        TIMER_INT_CH0: channel 0 interrupt disable, TIMERx(x=0,2,13..16)
 431:Drivers/GD32E23x/Source/gd32e23x_timer.c ****       \arg        TIMER_INT_CH1: channel 1 interrupt disable, TIMERx(x=0,2,14)
 432:Drivers/GD32E23x/Source/gd32e23x_timer.c ****       \arg        TIMER_INT_CH2: channel 2 interrupt disable, TIMERx(x=0,2)
 433:Drivers/GD32E23x/Source/gd32e23x_timer.c ****       \arg        TIMER_INT_CH3: channel 3 interrupt disable , TIMERx(x=0,2)
 434:Drivers/GD32E23x/Source/gd32e23x_timer.c ****       \arg        TIMER_INT_CMT: commutation interrupt disable, TIMERx(x=0,14..16)
 435:Drivers/GD32E23x/Source/gd32e23x_timer.c ****       \arg        TIMER_INT_TRG: trigger interrupt disable, TIMERx(x=0,2,14)
 436:Drivers/GD32E23x/Source/gd32e23x_timer.c ****       \arg        TIMER_INT_BRK: break interrupt disable, TIMERx(x=0,14..16)
ARM GAS  D:\noval\Temp\cck0Iw0b.s 			page 25


 437:Drivers/GD32E23x/Source/gd32e23x_timer.c ****     \param[out] none
 438:Drivers/GD32E23x/Source/gd32e23x_timer.c ****     \retval     none
 439:Drivers/GD32E23x/Source/gd32e23x_timer.c **** */
 440:Drivers/GD32E23x/Source/gd32e23x_timer.c **** void timer_interrupt_disable(uint32_t timer_periph, uint32_t interrupt)
 441:Drivers/GD32E23x/Source/gd32e23x_timer.c **** {
 949              		.loc 1 441 1 is_stmt 1 view -0
 950              		.cfi_startproc
 951              		@ args = 0, pretend = 0, frame = 0
 952              		@ frame_needed = 0, uses_anonymous_args = 0
 953              		@ link register save eliminated.
 442:Drivers/GD32E23x/Source/gd32e23x_timer.c ****     TIMER_DMAINTEN(timer_periph) &= (~(uint32_t)interrupt); 
 954              		.loc 1 442 5 view .LVU202
 955 0000 C368     		ldr	r3, [r0, #12]
 956              		.loc 1 442 34 is_stmt 0 view .LVU203
 957 0002 8B43     		bics	r3, r1
 958 0004 C360     		str	r3, [r0, #12]
 443:Drivers/GD32E23x/Source/gd32e23x_timer.c **** }
 959              		.loc 1 443 1 view .LVU204
 960              		@ sp needed
 961 0006 7047     		bx	lr
 962              		.cfi_endproc
 963              	.LFE82:
 965              		.section	.text.timer_interrupt_flag_get,"ax",%progbits
 966              		.align	1
 967              		.global	timer_interrupt_flag_get
 968              		.syntax unified
 969              		.code	16
 970              		.thumb_func
 972              	timer_interrupt_flag_get:
 973              	.LVL53:
 974              	.LFB83:
 444:Drivers/GD32E23x/Source/gd32e23x_timer.c **** 
 445:Drivers/GD32E23x/Source/gd32e23x_timer.c **** /*!
 446:Drivers/GD32E23x/Source/gd32e23x_timer.c ****     \brief      get timer interrupt flag
 447:Drivers/GD32E23x/Source/gd32e23x_timer.c ****     \param[in]  timer_periph: please refer to the following parameters
 448:Drivers/GD32E23x/Source/gd32e23x_timer.c ****     \param[in]  interrupt: the timer interrupt bits
 449:Drivers/GD32E23x/Source/gd32e23x_timer.c ****                 only one parameter can be selected which is shown as below:
 450:Drivers/GD32E23x/Source/gd32e23x_timer.c ****       \arg        TIMER_INT_FLAG_UP: update interrupt flag,TIMERx(x=0,2,5,13..16)
 451:Drivers/GD32E23x/Source/gd32e23x_timer.c ****       \arg        TIMER_INT_FLAG_CH0: channel 0 interrupt flag,TIMERx(x=0,2,13..16)
 452:Drivers/GD32E23x/Source/gd32e23x_timer.c ****       \arg        TIMER_INT_FLAG_CH1: channel 1 interrupt flag,TIMERx(x=0,2,14)
 453:Drivers/GD32E23x/Source/gd32e23x_timer.c ****       \arg        TIMER_INT_FLAG_CH2: channel 2 interrupt flag,TIMERx(x=0,2)
 454:Drivers/GD32E23x/Source/gd32e23x_timer.c ****       \arg        TIMER_INT_FLAG_CH3: channel 3 interrupt flag,TIMERx(x=0,2)
 455:Drivers/GD32E23x/Source/gd32e23x_timer.c ****       \arg        TIMER_INT_FLAG_CMT: channel commutation interrupt flag,TIMERx(x=0,14..16)
 456:Drivers/GD32E23x/Source/gd32e23x_timer.c ****       \arg        TIMER_INT_FLAG_TRG: trigger interrupt flag,TIMERx(x=0,2,14)
 457:Drivers/GD32E23x/Source/gd32e23x_timer.c ****       \arg        TIMER_INT_FLAG_BRK:  break interrupt flag,TIMERx(x=0,14..16)
 458:Drivers/GD32E23x/Source/gd32e23x_timer.c ****     \param[out] none
 459:Drivers/GD32E23x/Source/gd32e23x_timer.c ****     \retval     FlagStatus: SET or RESET
 460:Drivers/GD32E23x/Source/gd32e23x_timer.c **** */
 461:Drivers/GD32E23x/Source/gd32e23x_timer.c **** FlagStatus timer_interrupt_flag_get(uint32_t timer_periph, uint32_t interrupt)
 462:Drivers/GD32E23x/Source/gd32e23x_timer.c **** {
 975              		.loc 1 462 1 is_stmt 1 view -0
 976              		.cfi_startproc
 977              		@ args = 0, pretend = 0, frame = 0
 978              		@ frame_needed = 0, uses_anonymous_args = 0
 979              		@ link register save eliminated.
 463:Drivers/GD32E23x/Source/gd32e23x_timer.c ****     uint32_t val;
 980              		.loc 1 463 5 view .LVU206
ARM GAS  D:\noval\Temp\cck0Iw0b.s 			page 26


 464:Drivers/GD32E23x/Source/gd32e23x_timer.c ****     val = (TIMER_DMAINTEN(timer_periph) & interrupt);
 981              		.loc 1 464 5 view .LVU207
 982              		.loc 1 464 12 is_stmt 0 view .LVU208
 983 0000 C368     		ldr	r3, [r0, #12]
 984              		.loc 1 464 9 view .LVU209
 985 0002 0B40     		ands	r3, r1
 986              	.LVL54:
 465:Drivers/GD32E23x/Source/gd32e23x_timer.c ****     if((RESET != (TIMER_INTF(timer_periph) & interrupt) ) && (RESET != val)){
 987              		.loc 1 465 5 is_stmt 1 view .LVU210
 988              		.loc 1 465 19 is_stmt 0 view .LVU211
 989 0004 0269     		ldr	r2, [r0, #16]
 990              		.loc 1 465 7 view .LVU212
 991 0006 1142     		tst	r1, r2
 992 0008 02D0     		beq	.L54
 993              		.loc 1 465 59 discriminator 1 view .LVU213
 994 000a 1BB9     		cbnz	r3, .L55
 466:Drivers/GD32E23x/Source/gd32e23x_timer.c ****         return SET;
 467:Drivers/GD32E23x/Source/gd32e23x_timer.c ****     }else{
 468:Drivers/GD32E23x/Source/gd32e23x_timer.c ****         return RESET;
 995              		.loc 1 468 16 view .LVU214
 996 000c 0020     		movs	r0, #0
 997              	.LVL55:
 998              		.loc 1 468 16 view .LVU215
 999 000e 00E0     		b	.L53
 1000              	.LVL56:
 1001              	.L54:
 1002              		.loc 1 468 16 view .LVU216
 1003 0010 0020     		movs	r0, #0
 1004              	.LVL57:
 1005              	.L53:
 469:Drivers/GD32E23x/Source/gd32e23x_timer.c ****     }
 470:Drivers/GD32E23x/Source/gd32e23x_timer.c **** }
 1006              		.loc 1 470 1 view .LVU217
 1007              		@ sp needed
 1008 0012 7047     		bx	lr
 1009              	.LVL58:
 1010              	.L55:
 466:Drivers/GD32E23x/Source/gd32e23x_timer.c ****         return SET;
 1011              		.loc 1 466 16 view .LVU218
 1012 0014 0120     		movs	r0, #1
 1013              	.LVL59:
 466:Drivers/GD32E23x/Source/gd32e23x_timer.c ****         return SET;
 1014              		.loc 1 466 16 view .LVU219
 1015 0016 FCE7     		b	.L53
 1016              		.cfi_endproc
 1017              	.LFE83:
 1019              		.section	.text.timer_interrupt_flag_clear,"ax",%progbits
 1020              		.align	1
 1021              		.global	timer_interrupt_flag_clear
 1022              		.syntax unified
 1023              		.code	16
 1024              		.thumb_func
 1026              	timer_interrupt_flag_clear:
 1027              	.LVL60:
 1028              	.LFB84:
 471:Drivers/GD32E23x/Source/gd32e23x_timer.c **** 
 472:Drivers/GD32E23x/Source/gd32e23x_timer.c **** /*!
ARM GAS  D:\noval\Temp\cck0Iw0b.s 			page 27


 473:Drivers/GD32E23x/Source/gd32e23x_timer.c ****     \brief      clear TIMER interrupt flag
 474:Drivers/GD32E23x/Source/gd32e23x_timer.c ****     \param[in]  timer_periph: please refer to the following parameters
 475:Drivers/GD32E23x/Source/gd32e23x_timer.c ****     \param[in]  interrupt: the timer interrupt bits
 476:Drivers/GD32E23x/Source/gd32e23x_timer.c ****                 only one parameter can be selected which is shown as below:
 477:Drivers/GD32E23x/Source/gd32e23x_timer.c ****       \arg        TIMER_INT_FLAG_UP: update interrupt flag, TIMERx(x=0,2,5,13..16)
 478:Drivers/GD32E23x/Source/gd32e23x_timer.c ****       \arg        TIMER_INT_FLAG_CH0: channel 0 interrupt flag, TIMERx(x=0,2,13..16)
 479:Drivers/GD32E23x/Source/gd32e23x_timer.c ****       \arg        TIMER_INT_FLAG_CH1: channel 1 interrupt flag, TIMERx(x=0,2,14)
 480:Drivers/GD32E23x/Source/gd32e23x_timer.c ****       \arg        TIMER_INT_FLAG_CH2: channel 2 interrupt flag, TIMERx(x=0,2)
 481:Drivers/GD32E23x/Source/gd32e23x_timer.c ****       \arg        TIMER_INT_FLAG_CH3: channel 3 interrupt flag, TIMERx(x=0,2)
 482:Drivers/GD32E23x/Source/gd32e23x_timer.c ****       \arg        TIMER_INT_FLAG_CMT: channel commutation interrupt flag, TIMERx(x=0,14..16)
 483:Drivers/GD32E23x/Source/gd32e23x_timer.c ****       \arg        TIMER_INT_FLAG_TRG: trigger interrupt flag, TIMERx(x=0,2,14)
 484:Drivers/GD32E23x/Source/gd32e23x_timer.c ****       \arg        TIMER_INT_FLAG_BRK:  break interrupt flag, TIMERx(x=0,14..16)
 485:Drivers/GD32E23x/Source/gd32e23x_timer.c ****     \param[out] none
 486:Drivers/GD32E23x/Source/gd32e23x_timer.c ****     \retval     none
 487:Drivers/GD32E23x/Source/gd32e23x_timer.c **** */
 488:Drivers/GD32E23x/Source/gd32e23x_timer.c **** void timer_interrupt_flag_clear(uint32_t timer_periph, uint32_t interrupt)
 489:Drivers/GD32E23x/Source/gd32e23x_timer.c **** {
 1029              		.loc 1 489 1 is_stmt 1 view -0
 1030              		.cfi_startproc
 1031              		@ args = 0, pretend = 0, frame = 0
 1032              		@ frame_needed = 0, uses_anonymous_args = 0
 1033              		@ link register save eliminated.
 490:Drivers/GD32E23x/Source/gd32e23x_timer.c ****     TIMER_INTF(timer_periph) = (~(uint32_t)interrupt);
 1034              		.loc 1 490 5 view .LVU221
 1035              		.loc 1 490 33 is_stmt 0 view .LVU222
 1036 0000 C943     		mvns	r1, r1
 1037              	.LVL61:
 1038              		.loc 1 490 30 view .LVU223
 1039 0002 0161     		str	r1, [r0, #16]
 491:Drivers/GD32E23x/Source/gd32e23x_timer.c **** }
 1040              		.loc 1 491 1 view .LVU224
 1041              		@ sp needed
 1042 0004 7047     		bx	lr
 1043              		.cfi_endproc
 1044              	.LFE84:
 1046              		.section	.text.timer_flag_get,"ax",%progbits
 1047              		.align	1
 1048              		.global	timer_flag_get
 1049              		.syntax unified
 1050              		.code	16
 1051              		.thumb_func
 1053              	timer_flag_get:
 1054              	.LVL62:
 1055              	.LFB85:
 492:Drivers/GD32E23x/Source/gd32e23x_timer.c **** 
 493:Drivers/GD32E23x/Source/gd32e23x_timer.c **** /*!
 494:Drivers/GD32E23x/Source/gd32e23x_timer.c ****     \brief      get TIMER flags
 495:Drivers/GD32E23x/Source/gd32e23x_timer.c ****     \param[in]  timer_periph: please refer to the following parameters
 496:Drivers/GD32E23x/Source/gd32e23x_timer.c ****     \param[in]  flag: the timer interrupt flags
 497:Drivers/GD32E23x/Source/gd32e23x_timer.c ****                 only one parameter can be selected which is shown as below:
 498:Drivers/GD32E23x/Source/gd32e23x_timer.c ****       \arg        TIMER_FLAG_UP: update flag, TIMERx(x=0,2,5,13..16)
 499:Drivers/GD32E23x/Source/gd32e23x_timer.c ****       \arg        TIMER_FLAG_CH0: channel 0 flag, TIMERx(x=0,2,13..16)
 500:Drivers/GD32E23x/Source/gd32e23x_timer.c ****       \arg        TIMER_FLAG_CH1: channel 1 flag, TIMERx(x=0,2,14)
 501:Drivers/GD32E23x/Source/gd32e23x_timer.c ****       \arg        TIMER_FLAG_CH2: channel 2 flag, TIMERx(x=0,2)
 502:Drivers/GD32E23x/Source/gd32e23x_timer.c ****       \arg        TIMER_FLAG_CH3: channel 3 flag, TIMERx(x=0,2)
 503:Drivers/GD32E23x/Source/gd32e23x_timer.c ****       \arg        TIMER_FLAG_CMT: channel control update flag, TIMERx(x=0,14..16)
 504:Drivers/GD32E23x/Source/gd32e23x_timer.c ****       \arg        TIMER_FLAG_TRG: trigger flag, TIMERx(x=0,2,14)
ARM GAS  D:\noval\Temp\cck0Iw0b.s 			page 28


 505:Drivers/GD32E23x/Source/gd32e23x_timer.c ****       \arg        TIMER_FLAG_BRK: break flag,TIMERx(x=0,14..16)
 506:Drivers/GD32E23x/Source/gd32e23x_timer.c ****       \arg        TIMER_FLAG_CH0O: channel 0 overcapture flag, TIMERx(x=0,2,13..16)
 507:Drivers/GD32E23x/Source/gd32e23x_timer.c ****       \arg        TIMER_FLAG_CH1O: channel 1 overcapture flag, TIMERx(x=0,2,14)
 508:Drivers/GD32E23x/Source/gd32e23x_timer.c ****       \arg        TIMER_FLAG_CH2O: channel 2 overcapture flag, TIMERx(x=0,2)
 509:Drivers/GD32E23x/Source/gd32e23x_timer.c ****       \arg        TIMER_FLAG_CH3O: channel 3 overcapture flag, TIMERx(x=0,2)
 510:Drivers/GD32E23x/Source/gd32e23x_timer.c ****     \param[out] none
 511:Drivers/GD32E23x/Source/gd32e23x_timer.c ****     \retval     FlagStatus: SET or RESET
 512:Drivers/GD32E23x/Source/gd32e23x_timer.c **** */
 513:Drivers/GD32E23x/Source/gd32e23x_timer.c **** FlagStatus timer_flag_get(uint32_t timer_periph, uint32_t flag)
 514:Drivers/GD32E23x/Source/gd32e23x_timer.c **** {
 1056              		.loc 1 514 1 is_stmt 1 view -0
 1057              		.cfi_startproc
 1058              		@ args = 0, pretend = 0, frame = 0
 1059              		@ frame_needed = 0, uses_anonymous_args = 0
 1060              		@ link register save eliminated.
 515:Drivers/GD32E23x/Source/gd32e23x_timer.c ****     if(RESET != (TIMER_INTF(timer_periph) & flag)){
 1061              		.loc 1 515 5 view .LVU226
 1062              		.loc 1 515 18 is_stmt 0 view .LVU227
 1063 0000 0369     		ldr	r3, [r0, #16]
 1064              		.loc 1 515 7 view .LVU228
 1065 0002 1942     		tst	r1, r3
 1066 0004 01D0     		beq	.L59
 516:Drivers/GD32E23x/Source/gd32e23x_timer.c ****         return SET;
 1067              		.loc 1 516 16 view .LVU229
 1068 0006 0120     		movs	r0, #1
 1069              	.LVL63:
 1070              	.L58:
 517:Drivers/GD32E23x/Source/gd32e23x_timer.c ****     }else{
 518:Drivers/GD32E23x/Source/gd32e23x_timer.c ****         return RESET;
 519:Drivers/GD32E23x/Source/gd32e23x_timer.c ****     }
 520:Drivers/GD32E23x/Source/gd32e23x_timer.c **** }
 1071              		.loc 1 520 1 view .LVU230
 1072              		@ sp needed
 1073 0008 7047     		bx	lr
 1074              	.LVL64:
 1075              	.L59:
 518:Drivers/GD32E23x/Source/gd32e23x_timer.c ****     }
 1076              		.loc 1 518 16 view .LVU231
 1077 000a 0020     		movs	r0, #0
 1078              	.LVL65:
 518:Drivers/GD32E23x/Source/gd32e23x_timer.c ****     }
 1079              		.loc 1 518 16 view .LVU232
 1080 000c FCE7     		b	.L58
 1081              		.cfi_endproc
 1082              	.LFE85:
 1084              		.section	.text.timer_flag_clear,"ax",%progbits
 1085              		.align	1
 1086              		.global	timer_flag_clear
 1087              		.syntax unified
 1088              		.code	16
 1089              		.thumb_func
 1091              	timer_flag_clear:
 1092              	.LVL66:
 1093              	.LFB86:
 521:Drivers/GD32E23x/Source/gd32e23x_timer.c **** 
 522:Drivers/GD32E23x/Source/gd32e23x_timer.c **** /*!
 523:Drivers/GD32E23x/Source/gd32e23x_timer.c ****     \brief      clear TIMER flags
ARM GAS  D:\noval\Temp\cck0Iw0b.s 			page 29


 524:Drivers/GD32E23x/Source/gd32e23x_timer.c ****     \param[in]  timer_periph: please refer to the following parameters
 525:Drivers/GD32E23x/Source/gd32e23x_timer.c ****     \param[in]  flag: the timer interrupt flags
 526:Drivers/GD32E23x/Source/gd32e23x_timer.c ****                 only one parameter can be selected which is shown as below:
 527:Drivers/GD32E23x/Source/gd32e23x_timer.c ****       \arg        TIMER_FLAG_UP: update flag, TIMERx(x=0,2,5,13..16)
 528:Drivers/GD32E23x/Source/gd32e23x_timer.c ****       \arg        TIMER_FLAG_CH0: channel 0 flag, TIMERx(x=0,2,13..16)
 529:Drivers/GD32E23x/Source/gd32e23x_timer.c ****       \arg        TIMER_FLAG_CH1: channel 1 flag, TIMERx(x=0,2,14)
 530:Drivers/GD32E23x/Source/gd32e23x_timer.c ****       \arg        TIMER_FLAG_CH2: channel 2 flag, TIMERx(x=0,2)
 531:Drivers/GD32E23x/Source/gd32e23x_timer.c ****       \arg        TIMER_FLAG_CH3: channel 3 flag, TIMERx(x=0,2)
 532:Drivers/GD32E23x/Source/gd32e23x_timer.c ****       \arg        TIMER_FLAG_CMT: channel control update flag, TIMERx(x=0,14..16)
 533:Drivers/GD32E23x/Source/gd32e23x_timer.c ****       \arg        TIMER_FLAG_TRG: trigger flag, TIMERx(x=0,2,14)
 534:Drivers/GD32E23x/Source/gd32e23x_timer.c ****       \arg        TIMER_FLAG_BRK: break flag,TIMERx(x=0,14..16)
 535:Drivers/GD32E23x/Source/gd32e23x_timer.c ****       \arg        TIMER_FLAG_CH0O: channel 0 overcapture flag, TIMERx(x=0,2,13..16)
 536:Drivers/GD32E23x/Source/gd32e23x_timer.c ****       \arg        TIMER_FLAG_CH1O: channel 1 overcapture flag, TIMERx(x=0,2,14)
 537:Drivers/GD32E23x/Source/gd32e23x_timer.c ****       \arg        TIMER_FLAG_CH2O: channel 2 overcapture flag, TIMERx(x=0,2)
 538:Drivers/GD32E23x/Source/gd32e23x_timer.c ****       \arg        TIMER_FLAG_CH3O: channel 3 overcapture flag, TIMERx(x=0,2)
 539:Drivers/GD32E23x/Source/gd32e23x_timer.c ****     \param[out] none
 540:Drivers/GD32E23x/Source/gd32e23x_timer.c ****     \retval     none
 541:Drivers/GD32E23x/Source/gd32e23x_timer.c **** */
 542:Drivers/GD32E23x/Source/gd32e23x_timer.c **** void timer_flag_clear(uint32_t timer_periph, uint32_t flag)
 543:Drivers/GD32E23x/Source/gd32e23x_timer.c **** {
 1094              		.loc 1 543 1 is_stmt 1 view -0
 1095              		.cfi_startproc
 1096              		@ args = 0, pretend = 0, frame = 0
 1097              		@ frame_needed = 0, uses_anonymous_args = 0
 1098              		@ link register save eliminated.
 544:Drivers/GD32E23x/Source/gd32e23x_timer.c ****     TIMER_INTF(timer_periph) = (~(uint32_t)flag);
 1099              		.loc 1 544 5 view .LVU234
 1100              		.loc 1 544 33 is_stmt 0 view .LVU235
 1101 0000 C943     		mvns	r1, r1
 1102              	.LVL67:
 1103              		.loc 1 544 30 view .LVU236
 1104 0002 0161     		str	r1, [r0, #16]
 545:Drivers/GD32E23x/Source/gd32e23x_timer.c **** }
 1105              		.loc 1 545 1 view .LVU237
 1106              		@ sp needed
 1107 0004 7047     		bx	lr
 1108              		.cfi_endproc
 1109              	.LFE86:
 1111              		.section	.text.timer_dma_enable,"ax",%progbits
 1112              		.align	1
 1113              		.global	timer_dma_enable
 1114              		.syntax unified
 1115              		.code	16
 1116              		.thumb_func
 1118              	timer_dma_enable:
 1119              	.LVL68:
 1120              	.LFB87:
 546:Drivers/GD32E23x/Source/gd32e23x_timer.c **** 
 547:Drivers/GD32E23x/Source/gd32e23x_timer.c **** /*!
 548:Drivers/GD32E23x/Source/gd32e23x_timer.c ****     \brief      enable the TIMER DMA
 549:Drivers/GD32E23x/Source/gd32e23x_timer.c ****     \param[in]  timer_periph: please refer to the following parameters
 550:Drivers/GD32E23x/Source/gd32e23x_timer.c ****     \param[in]  dma: specify which DMA to enable
 551:Drivers/GD32E23x/Source/gd32e23x_timer.c ****                 one or more parameters can be selected which is shown as below:
 552:Drivers/GD32E23x/Source/gd32e23x_timer.c ****       \arg        TIMER_DMA_UPD: update DMA, TIMERx(x=0,2,5,14..16)
 553:Drivers/GD32E23x/Source/gd32e23x_timer.c ****       \arg        TIMER_DMA_CH0D: channel 0 DMA request, TIMERx(x=0,2,14..16)
 554:Drivers/GD32E23x/Source/gd32e23x_timer.c ****       \arg        TIMER_DMA_CH1D: channel 1 DMA request, TIMERx(x=0,2,14)
 555:Drivers/GD32E23x/Source/gd32e23x_timer.c ****       \arg        TIMER_DMA_CH2D: channel 2 DMA request, TIMERx(x=0,2)
ARM GAS  D:\noval\Temp\cck0Iw0b.s 			page 30


 556:Drivers/GD32E23x/Source/gd32e23x_timer.c ****       \arg        TIMER_DMA_CH3D: channel 3 DMA request, TIMERx(x=0,2)
 557:Drivers/GD32E23x/Source/gd32e23x_timer.c ****       \arg        TIMER_DMA_CMTD: commutation DMA request, TIMERx(x=0,14)
 558:Drivers/GD32E23x/Source/gd32e23x_timer.c ****       \arg        TIMER_DMA_TRGD: trigger DMA request, TIMERx(x=0,2,14)
 559:Drivers/GD32E23x/Source/gd32e23x_timer.c ****     \param[out] none
 560:Drivers/GD32E23x/Source/gd32e23x_timer.c ****     \retval     none
 561:Drivers/GD32E23x/Source/gd32e23x_timer.c **** */
 562:Drivers/GD32E23x/Source/gd32e23x_timer.c **** void timer_dma_enable(uint32_t timer_periph, uint16_t dma)
 563:Drivers/GD32E23x/Source/gd32e23x_timer.c **** {
 1121              		.loc 1 563 1 is_stmt 1 view -0
 1122              		.cfi_startproc
 1123              		@ args = 0, pretend = 0, frame = 0
 1124              		@ frame_needed = 0, uses_anonymous_args = 0
 1125              		@ link register save eliminated.
 564:Drivers/GD32E23x/Source/gd32e23x_timer.c ****     TIMER_DMAINTEN(timer_periph) |= (uint32_t) dma; 
 1126              		.loc 1 564 5 view .LVU239
 1127 0000 C368     		ldr	r3, [r0, #12]
 1128              		.loc 1 564 34 is_stmt 0 view .LVU240
 1129 0002 0B43     		orrs	r3, r1
 1130 0004 C360     		str	r3, [r0, #12]
 565:Drivers/GD32E23x/Source/gd32e23x_timer.c **** }
 1131              		.loc 1 565 1 view .LVU241
 1132              		@ sp needed
 1133 0006 7047     		bx	lr
 1134              		.cfi_endproc
 1135              	.LFE87:
 1137              		.section	.text.timer_dma_disable,"ax",%progbits
 1138              		.align	1
 1139              		.global	timer_dma_disable
 1140              		.syntax unified
 1141              		.code	16
 1142              		.thumb_func
 1144              	timer_dma_disable:
 1145              	.LVL69:
 1146              	.LFB88:
 566:Drivers/GD32E23x/Source/gd32e23x_timer.c **** 
 567:Drivers/GD32E23x/Source/gd32e23x_timer.c **** /*!
 568:Drivers/GD32E23x/Source/gd32e23x_timer.c ****     \brief      disable the TIMER DMA
 569:Drivers/GD32E23x/Source/gd32e23x_timer.c ****     \param[in]  timer_periph: please refer to the following parameters
 570:Drivers/GD32E23x/Source/gd32e23x_timer.c ****     \param[in]  dma: specify which DMA to disable
 571:Drivers/GD32E23x/Source/gd32e23x_timer.c ****                 one or more parameters can be selected which are shown as below:
 572:Drivers/GD32E23x/Source/gd32e23x_timer.c ****       \arg        TIMER_DMA_UPD: update DMA, TIMERx(x=0,2,5,14..16)
 573:Drivers/GD32E23x/Source/gd32e23x_timer.c ****       \arg        TIMER_DMA_CH0D: channel 0 DMA request, TIMERx(x=0,2,14..16)
 574:Drivers/GD32E23x/Source/gd32e23x_timer.c ****       \arg        TIMER_DMA_CH1D: channel 1 DMA request, TIMERx(x=0,2,14)
 575:Drivers/GD32E23x/Source/gd32e23x_timer.c ****       \arg        TIMER_DMA_CH2D: channel 2 DMA request, TIMERx(x=0,2)
 576:Drivers/GD32E23x/Source/gd32e23x_timer.c ****       \arg        TIMER_DMA_CH3D: channel 3 DMA request, TIMERx(x=0,2)
 577:Drivers/GD32E23x/Source/gd32e23x_timer.c ****       \arg        TIMER_DMA_CMTD: commutation DMA request , TIMERx(x=0,14)
 578:Drivers/GD32E23x/Source/gd32e23x_timer.c ****       \arg        TIMER_DMA_TRGD: trigger DMA request, TIMERx(x=0,2,14)
 579:Drivers/GD32E23x/Source/gd32e23x_timer.c ****     \param[out] none
 580:Drivers/GD32E23x/Source/gd32e23x_timer.c ****     \retval     none
 581:Drivers/GD32E23x/Source/gd32e23x_timer.c **** */
 582:Drivers/GD32E23x/Source/gd32e23x_timer.c **** void timer_dma_disable(uint32_t timer_periph, uint16_t dma)
 583:Drivers/GD32E23x/Source/gd32e23x_timer.c **** {
 1147              		.loc 1 583 1 is_stmt 1 view -0
 1148              		.cfi_startproc
 1149              		@ args = 0, pretend = 0, frame = 0
 1150              		@ frame_needed = 0, uses_anonymous_args = 0
 1151              		@ link register save eliminated.
ARM GAS  D:\noval\Temp\cck0Iw0b.s 			page 31


 584:Drivers/GD32E23x/Source/gd32e23x_timer.c ****     TIMER_DMAINTEN(timer_periph) &= (~(uint32_t)(dma)); 
 1152              		.loc 1 584 5 view .LVU243
 1153 0000 C368     		ldr	r3, [r0, #12]
 1154              		.loc 1 584 34 is_stmt 0 view .LVU244
 1155 0002 8B43     		bics	r3, r1
 1156 0004 C360     		str	r3, [r0, #12]
 585:Drivers/GD32E23x/Source/gd32e23x_timer.c **** }
 1157              		.loc 1 585 1 view .LVU245
 1158              		@ sp needed
 1159 0006 7047     		bx	lr
 1160              		.cfi_endproc
 1161              	.LFE88:
 1163              		.section	.text.timer_channel_dma_request_source_select,"ax",%progbits
 1164              		.align	1
 1165              		.global	timer_channel_dma_request_source_select
 1166              		.syntax unified
 1167              		.code	16
 1168              		.thumb_func
 1170              	timer_channel_dma_request_source_select:
 1171              	.LVL70:
 1172              	.LFB89:
 586:Drivers/GD32E23x/Source/gd32e23x_timer.c **** 
 587:Drivers/GD32E23x/Source/gd32e23x_timer.c **** /*!
 588:Drivers/GD32E23x/Source/gd32e23x_timer.c ****     \brief      channel DMA request source selection
 589:Drivers/GD32E23x/Source/gd32e23x_timer.c ****     \param[in]  timer_periph: TIMERx(x=0,2,14..16)
 590:Drivers/GD32E23x/Source/gd32e23x_timer.c ****     \param[in]  dma_request: channel DMA request source selection
 591:Drivers/GD32E23x/Source/gd32e23x_timer.c ****                 only one parameter can be selected which is shown as below:
 592:Drivers/GD32E23x/Source/gd32e23x_timer.c ****        \arg        TIMER_DMAREQUEST_CHANNELEVENT: DMA request of channel y is sent when channel y e
 593:Drivers/GD32E23x/Source/gd32e23x_timer.c ****        \arg        TIMER_DMAREQUEST_UPDATEEVENT: DMA request of channel y is sent when update event
 594:Drivers/GD32E23x/Source/gd32e23x_timer.c ****     \param[out] none
 595:Drivers/GD32E23x/Source/gd32e23x_timer.c ****     \retval     none
 596:Drivers/GD32E23x/Source/gd32e23x_timer.c **** */
 597:Drivers/GD32E23x/Source/gd32e23x_timer.c **** void timer_channel_dma_request_source_select(uint32_t timer_periph, uint8_t dma_request)
 598:Drivers/GD32E23x/Source/gd32e23x_timer.c **** {
 1173              		.loc 1 598 1 is_stmt 1 view -0
 1174              		.cfi_startproc
 1175              		@ args = 0, pretend = 0, frame = 0
 1176              		@ frame_needed = 0, uses_anonymous_args = 0
 1177              		@ link register save eliminated.
 599:Drivers/GD32E23x/Source/gd32e23x_timer.c ****     if(TIMER_DMAREQUEST_UPDATEEVENT == dma_request){
 1178              		.loc 1 599 5 view .LVU247
 1179              		.loc 1 599 7 is_stmt 0 view .LVU248
 1180 0000 0829     		cmp	r1, #8
 1181 0002 05D0     		beq	.L66
 600:Drivers/GD32E23x/Source/gd32e23x_timer.c ****         TIMER_CTL1(timer_periph) |= (uint32_t)TIMER_CTL1_DMAS;
 601:Drivers/GD32E23x/Source/gd32e23x_timer.c ****     }else if(TIMER_DMAREQUEST_CHANNELEVENT == dma_request){
 1182              		.loc 1 601 11 is_stmt 1 view .LVU249
 1183              		.loc 1 601 13 is_stmt 0 view .LVU250
 1184 0004 41B9     		cbnz	r1, .L63
 602:Drivers/GD32E23x/Source/gd32e23x_timer.c ****         TIMER_CTL1(timer_periph) &= ~(uint32_t)TIMER_CTL1_DMAS;
 1185              		.loc 1 602 9 is_stmt 1 view .LVU251
 1186 0006 4368     		ldr	r3, [r0, #4]
 1187              		.loc 1 602 34 is_stmt 0 view .LVU252
 1188 0008 0822     		movs	r2, #8
 1189 000a 9343     		bics	r3, r2
 1190 000c 4360     		str	r3, [r0, #4]
 603:Drivers/GD32E23x/Source/gd32e23x_timer.c ****     }else{
ARM GAS  D:\noval\Temp\cck0Iw0b.s 			page 32


 604:Drivers/GD32E23x/Source/gd32e23x_timer.c ****         /* illegal parameters */
 605:Drivers/GD32E23x/Source/gd32e23x_timer.c ****     }
 1191              		.loc 1 605 5 is_stmt 1 view .LVU253
 606:Drivers/GD32E23x/Source/gd32e23x_timer.c **** }
 1192              		.loc 1 606 1 is_stmt 0 view .LVU254
 1193 000e 03E0     		b	.L63
 1194              	.L66:
 600:Drivers/GD32E23x/Source/gd32e23x_timer.c ****     }else if(TIMER_DMAREQUEST_CHANNELEVENT == dma_request){
 1195              		.loc 1 600 9 is_stmt 1 view .LVU255
 1196 0010 4368     		ldr	r3, [r0, #4]
 600:Drivers/GD32E23x/Source/gd32e23x_timer.c ****     }else if(TIMER_DMAREQUEST_CHANNELEVENT == dma_request){
 1197              		.loc 1 600 34 is_stmt 0 view .LVU256
 1198 0012 0822     		movs	r2, #8
 1199 0014 1343     		orrs	r3, r2
 1200 0016 4360     		str	r3, [r0, #4]
 1201              	.L63:
 1202              		.loc 1 606 1 view .LVU257
 1203              		@ sp needed
 1204 0018 7047     		bx	lr
 1205              		.cfi_endproc
 1206              	.LFE89:
 1208              		.section	.text.timer_dma_transfer_config,"ax",%progbits
 1209              		.align	1
 1210              		.global	timer_dma_transfer_config
 1211              		.syntax unified
 1212              		.code	16
 1213              		.thumb_func
 1215              	timer_dma_transfer_config:
 1216              	.LVL71:
 1217              	.LFB90:
 607:Drivers/GD32E23x/Source/gd32e23x_timer.c **** 
 608:Drivers/GD32E23x/Source/gd32e23x_timer.c **** /*!
 609:Drivers/GD32E23x/Source/gd32e23x_timer.c ****     \brief      configure the TIMER DMA transfer
 610:Drivers/GD32E23x/Source/gd32e23x_timer.c ****     \param[in]  timer_periph: TIMERx(x=0,2,14..16)
 611:Drivers/GD32E23x/Source/gd32e23x_timer.c ****     \param[in]  dma_baseaddr:
 612:Drivers/GD32E23x/Source/gd32e23x_timer.c ****                 only one parameter can be selected which is shown as below:
 613:Drivers/GD32E23x/Source/gd32e23x_timer.c ****        \arg        TIMER_DMACFG_DMATA_CTL0: DMA transfer address is TIMER_CTL0, TIMERx(x=0,2,14..16
 614:Drivers/GD32E23x/Source/gd32e23x_timer.c ****        \arg        TIMER_DMACFG_DMATA_CTL1: DMA transfer address is TIMER_CTL1, TIMERx(x=0,2,14..16
 615:Drivers/GD32E23x/Source/gd32e23x_timer.c ****        \arg        TIMER_DMACFG_DMATA_SMCFG: DMA transfer address is TIMER_SMCFG, TIMERx(x=0,2,14)
 616:Drivers/GD32E23x/Source/gd32e23x_timer.c ****        \arg        TIMER_DMACFG_DMATA_DMAINTEN: DMA transfer address is TIMER_DMAINTEN, TIMERx(x=0,
 617:Drivers/GD32E23x/Source/gd32e23x_timer.c ****        \arg        TIMER_DMACFG_DMATA_INTF: DMA transfer address is TIMER_INTF, TIMERx(x=0,2,14..16
 618:Drivers/GD32E23x/Source/gd32e23x_timer.c ****        \arg        TIMER_DMACFG_DMATA_SWEVG: DMA transfer address is TIMER_SWEVG, TIMERx(x=0,2,14..
 619:Drivers/GD32E23x/Source/gd32e23x_timer.c ****        \arg        TIMER_DMACFG_DMATA_CHCTL0: DMA transfer address is TIMER_CHCTL0, TIMERx(x=0,2,14
 620:Drivers/GD32E23x/Source/gd32e23x_timer.c ****        \arg        TIMER_DMACFG_DMATA_CHCTL1: DMA transfer address is TIMER_CHCTL1, TIMERx(x=0,2)
 621:Drivers/GD32E23x/Source/gd32e23x_timer.c ****        \arg        TIMER_DMACFG_DMATA_CHCTL2: DMA transfer address is TIMER_CHCTL2, TIMERx(x=0,2,14
 622:Drivers/GD32E23x/Source/gd32e23x_timer.c ****        \arg        TIMER_DMACFG_DMATA_CNT: DMA transfer address is TIMER_CNT, TIMERx(x=0,2,14..16)
 623:Drivers/GD32E23x/Source/gd32e23x_timer.c ****        \arg        TIMER_DMACFG_DMATA_PSC: DMA transfer address is TIMER_PSC, TIMERx(x=0,2,14..16)
 624:Drivers/GD32E23x/Source/gd32e23x_timer.c ****        \arg        TIMER_DMACFG_DMATA_CAR: DMA transfer address is TIMER_CAR, TIMERx(x=0,2,14..16)
 625:Drivers/GD32E23x/Source/gd32e23x_timer.c ****        \arg        TIMER_DMACFG_DMATA_CREP: DMA transfer address is TIMER_CREP, TIMERx(x=0,14..16)
 626:Drivers/GD32E23x/Source/gd32e23x_timer.c ****        \arg        TIMER_DMACFG_DMATA_CH0CV: DMA transfer address is TIMER_CH0CV, TIMERx(x=0,2,14..
 627:Drivers/GD32E23x/Source/gd32e23x_timer.c ****        \arg        TIMER_DMACFG_DMATA_CH1CV: DMA transfer address is TIMER_CH1CV, TIMERx(x=0,2,14)
 628:Drivers/GD32E23x/Source/gd32e23x_timer.c ****        \arg        TIMER_DMACFG_DMATA_CH2CV: DMA transfer address is TIMER_CH2CV, TIMERx(x=0,2)
 629:Drivers/GD32E23x/Source/gd32e23x_timer.c ****        \arg        TIMER_DMACFG_DMATA_CH3CV: DMA transfer address is TIMER_CH3CV, TIMERx(x=0,2)
 630:Drivers/GD32E23x/Source/gd32e23x_timer.c ****        \arg        TIMER_DMACFG_DMATA_CCHP: DMA transfer address is TIMER_CCHP, TIMERx(x=0,14..16)
 631:Drivers/GD32E23x/Source/gd32e23x_timer.c ****        \arg        TIMER_DMACFG_DMATA_DMACFG: DMA transfer address is TIMER_DMACFG, TIMERx(x=0,2,14
 632:Drivers/GD32E23x/Source/gd32e23x_timer.c ****     \param[in]  dma_lenth:
 633:Drivers/GD32E23x/Source/gd32e23x_timer.c ****                 only one parameter can be selected which is shown as below:
ARM GAS  D:\noval\Temp\cck0Iw0b.s 			page 33


 634:Drivers/GD32E23x/Source/gd32e23x_timer.c ****        \arg        TIMER_DMACFG_DMATC_xTRANSFER(x=1..18): DMA transfer x time
 635:Drivers/GD32E23x/Source/gd32e23x_timer.c ****     \param[out] none
 636:Drivers/GD32E23x/Source/gd32e23x_timer.c ****     \retval     none
 637:Drivers/GD32E23x/Source/gd32e23x_timer.c **** */
 638:Drivers/GD32E23x/Source/gd32e23x_timer.c **** void timer_dma_transfer_config(uint32_t timer_periph, uint32_t dma_baseaddr, uint32_t dma_lenth)
 639:Drivers/GD32E23x/Source/gd32e23x_timer.c **** {
 1218              		.loc 1 639 1 is_stmt 1 view -0
 1219              		.cfi_startproc
 1220              		@ args = 0, pretend = 0, frame = 0
 1221              		@ frame_needed = 0, uses_anonymous_args = 0
 1222              		.loc 1 639 1 is_stmt 0 view .LVU259
 1223 0000 10B5     		push	{r4, lr}
 1224              	.LCFI1:
 1225              		.cfi_def_cfa_offset 8
 1226              		.cfi_offset 4, -8
 1227              		.cfi_offset 14, -4
 640:Drivers/GD32E23x/Source/gd32e23x_timer.c ****     TIMER_DMACFG(timer_periph) &= (~(uint32_t)(TIMER_DMACFG_DMATA | TIMER_DMACFG_DMATC));
 1228              		.loc 1 640 5 is_stmt 1 view .LVU260
 1229 0002 836C     		ldr	r3, [r0, #72]
 1230              		.loc 1 640 32 is_stmt 0 view .LVU261
 1231 0004 034C     		ldr	r4, .L68
 1232 0006 2340     		ands	r3, r4
 1233 0008 8364     		str	r3, [r0, #72]
 641:Drivers/GD32E23x/Source/gd32e23x_timer.c ****     TIMER_DMACFG(timer_periph) |= (uint32_t)(dma_baseaddr | dma_lenth);
 1234              		.loc 1 641 5 is_stmt 1 view .LVU262
 1235 000a 836C     		ldr	r3, [r0, #72]
 1236              		.loc 1 641 59 is_stmt 0 view .LVU263
 1237 000c 1143     		orrs	r1, r2
 1238              	.LVL72:
 1239              		.loc 1 641 32 view .LVU264
 1240 000e 0B43     		orrs	r3, r1
 1241 0010 8364     		str	r3, [r0, #72]
 642:Drivers/GD32E23x/Source/gd32e23x_timer.c **** }
 1242              		.loc 1 642 1 view .LVU265
 1243              		@ sp needed
 1244 0012 10BD     		pop	{r4, pc}
 1245              	.L69:
 1246              		.align	2
 1247              	.L68:
 1248 0014 E0E0FFFF 		.word	-7968
 1249              		.cfi_endproc
 1250              	.LFE90:
 1252              		.section	.text.timer_event_software_generate,"ax",%progbits
 1253              		.align	1
 1254              		.global	timer_event_software_generate
 1255              		.syntax unified
 1256              		.code	16
 1257              		.thumb_func
 1259              	timer_event_software_generate:
 1260              	.LVL73:
 1261              	.LFB91:
 643:Drivers/GD32E23x/Source/gd32e23x_timer.c **** 
 644:Drivers/GD32E23x/Source/gd32e23x_timer.c **** /*!
 645:Drivers/GD32E23x/Source/gd32e23x_timer.c ****     \brief      software generate events 
 646:Drivers/GD32E23x/Source/gd32e23x_timer.c ****     \param[in]  timer_periph: please refer to the following parameters
 647:Drivers/GD32E23x/Source/gd32e23x_timer.c ****     \param[in]  event: the timer software event generation sources
 648:Drivers/GD32E23x/Source/gd32e23x_timer.c ****                 one or more parameters can be selected which are shown as below:
ARM GAS  D:\noval\Temp\cck0Iw0b.s 			page 34


 649:Drivers/GD32E23x/Source/gd32e23x_timer.c ****       \arg        TIMER_EVENT_SRC_UPG: update event,TIMERx(x=0,2,5,13..16)
 650:Drivers/GD32E23x/Source/gd32e23x_timer.c ****       \arg        TIMER_EVENT_SRC_CH0G: channel 0 capture or compare event generation, TIMERx(x=0,2
 651:Drivers/GD32E23x/Source/gd32e23x_timer.c ****       \arg        TIMER_EVENT_SRC_CH1G: channel 1 capture or compare event generation, TIMERx(x=0,2
 652:Drivers/GD32E23x/Source/gd32e23x_timer.c ****       \arg        TIMER_EVENT_SRC_CH2G: channel 2 capture or compare event generation, TIMERx(x=0,2
 653:Drivers/GD32E23x/Source/gd32e23x_timer.c ****       \arg        TIMER_EVENT_SRC_CH3G: channel 3 capture or compare event generation, TIMERx(x=0,2
 654:Drivers/GD32E23x/Source/gd32e23x_timer.c ****       \arg        TIMER_EVENT_SRC_CMTG: channel commutation event generation, TIMERx(x=0,14..16) 
 655:Drivers/GD32E23x/Source/gd32e23x_timer.c ****       \arg        TIMER_EVENT_SRC_TRGG: trigger event generation, TIMERx(x=0,2,14)
 656:Drivers/GD32E23x/Source/gd32e23x_timer.c ****       \arg        TIMER_EVENT_SRC_BRKG:  break event generation, TIMERx(x=0,14..16)
 657:Drivers/GD32E23x/Source/gd32e23x_timer.c ****     \param[out] none
 658:Drivers/GD32E23x/Source/gd32e23x_timer.c ****     \retval     none
 659:Drivers/GD32E23x/Source/gd32e23x_timer.c **** */
 660:Drivers/GD32E23x/Source/gd32e23x_timer.c **** void timer_event_software_generate(uint32_t timer_periph, uint16_t event)
 661:Drivers/GD32E23x/Source/gd32e23x_timer.c **** {
 1262              		.loc 1 661 1 is_stmt 1 view -0
 1263              		.cfi_startproc
 1264              		@ args = 0, pretend = 0, frame = 0
 1265              		@ frame_needed = 0, uses_anonymous_args = 0
 1266              		@ link register save eliminated.
 662:Drivers/GD32E23x/Source/gd32e23x_timer.c ****     TIMER_SWEVG(timer_periph) |= (uint32_t)event;
 1267              		.loc 1 662 5 view .LVU267
 1268 0000 4369     		ldr	r3, [r0, #20]
 1269              		.loc 1 662 31 is_stmt 0 view .LVU268
 1270 0002 0B43     		orrs	r3, r1
 1271 0004 4361     		str	r3, [r0, #20]
 663:Drivers/GD32E23x/Source/gd32e23x_timer.c **** }
 1272              		.loc 1 663 1 view .LVU269
 1273              		@ sp needed
 1274 0006 7047     		bx	lr
 1275              		.cfi_endproc
 1276              	.LFE91:
 1278              		.section	.text.timer_break_struct_para_init,"ax",%progbits
 1279              		.align	1
 1280              		.global	timer_break_struct_para_init
 1281              		.syntax unified
 1282              		.code	16
 1283              		.thumb_func
 1285              	timer_break_struct_para_init:
 1286              	.LVL74:
 1287              	.LFB92:
 664:Drivers/GD32E23x/Source/gd32e23x_timer.c **** 
 665:Drivers/GD32E23x/Source/gd32e23x_timer.c **** /*!
 666:Drivers/GD32E23x/Source/gd32e23x_timer.c ****     \brief      initialize TIMER break parameter struct with a default value
 667:Drivers/GD32E23x/Source/gd32e23x_timer.c ****     \param[in]  breakpara: TIMER break parameter struct
 668:Drivers/GD32E23x/Source/gd32e23x_timer.c ****     \param[out] none
 669:Drivers/GD32E23x/Source/gd32e23x_timer.c ****     \retval     none
 670:Drivers/GD32E23x/Source/gd32e23x_timer.c **** */
 671:Drivers/GD32E23x/Source/gd32e23x_timer.c **** void timer_break_struct_para_init(timer_break_parameter_struct* breakpara)
 672:Drivers/GD32E23x/Source/gd32e23x_timer.c **** {
 1288              		.loc 1 672 1 is_stmt 1 view -0
 1289              		.cfi_startproc
 1290              		@ args = 0, pretend = 0, frame = 0
 1291              		@ frame_needed = 0, uses_anonymous_args = 0
 1292              		@ link register save eliminated.
 673:Drivers/GD32E23x/Source/gd32e23x_timer.c ****     /* initialize the break parameter struct member with the default value */
 674:Drivers/GD32E23x/Source/gd32e23x_timer.c ****     breakpara->runoffstate     = TIMER_ROS_STATE_DISABLE;
 1293              		.loc 1 674 5 view .LVU271
 1294              		.loc 1 674 32 is_stmt 0 view .LVU272
ARM GAS  D:\noval\Temp\cck0Iw0b.s 			page 35


 1295 0000 0023     		movs	r3, #0
 1296 0002 0380     		strh	r3, [r0]
 675:Drivers/GD32E23x/Source/gd32e23x_timer.c ****     breakpara->ideloffstate    = TIMER_IOS_STATE_DISABLE;
 1297              		.loc 1 675 5 is_stmt 1 view .LVU273
 1298              		.loc 1 675 32 is_stmt 0 view .LVU274
 1299 0004 4380     		strh	r3, [r0, #2]
 676:Drivers/GD32E23x/Source/gd32e23x_timer.c ****     breakpara->deadtime        = 0U;
 1300              		.loc 1 676 5 is_stmt 1 view .LVU275
 1301              		.loc 1 676 32 is_stmt 0 view .LVU276
 1302 0006 8380     		strh	r3, [r0, #4]
 677:Drivers/GD32E23x/Source/gd32e23x_timer.c ****     breakpara->breakpolarity   = TIMER_BREAK_POLARITY_LOW;
 1303              		.loc 1 677 5 is_stmt 1 view .LVU277
 1304              		.loc 1 677 32 is_stmt 0 view .LVU278
 1305 0008 C380     		strh	r3, [r0, #6]
 678:Drivers/GD32E23x/Source/gd32e23x_timer.c ****     breakpara->outputautostate = TIMER_OUTAUTO_DISABLE;
 1306              		.loc 1 678 5 is_stmt 1 view .LVU279
 1307              		.loc 1 678 32 is_stmt 0 view .LVU280
 1308 000a 0381     		strh	r3, [r0, #8]
 679:Drivers/GD32E23x/Source/gd32e23x_timer.c ****     breakpara->protectmode     = TIMER_CCHP_PROT_OFF;
 1309              		.loc 1 679 5 is_stmt 1 view .LVU281
 1310              		.loc 1 679 32 is_stmt 0 view .LVU282
 1311 000c 4381     		strh	r3, [r0, #10]
 680:Drivers/GD32E23x/Source/gd32e23x_timer.c ****     breakpara->breakstate      = TIMER_BREAK_DISABLE;
 1312              		.loc 1 680 5 is_stmt 1 view .LVU283
 1313              		.loc 1 680 32 is_stmt 0 view .LVU284
 1314 000e 8381     		strh	r3, [r0, #12]
 681:Drivers/GD32E23x/Source/gd32e23x_timer.c **** }
 1315              		.loc 1 681 1 view .LVU285
 1316              		@ sp needed
 1317 0010 7047     		bx	lr
 1318              		.cfi_endproc
 1319              	.LFE92:
 1321              		.section	.text.timer_break_config,"ax",%progbits
 1322              		.align	1
 1323              		.global	timer_break_config
 1324              		.syntax unified
 1325              		.code	16
 1326              		.thumb_func
 1328              	timer_break_config:
 1329              	.LVL75:
 1330              	.LFB93:
 682:Drivers/GD32E23x/Source/gd32e23x_timer.c **** 
 683:Drivers/GD32E23x/Source/gd32e23x_timer.c **** /*!
 684:Drivers/GD32E23x/Source/gd32e23x_timer.c ****     \brief      configure TIMER break function 
 685:Drivers/GD32E23x/Source/gd32e23x_timer.c ****     \param[in]  timer_periph: TIMERx(x=0,14..16)
 686:Drivers/GD32E23x/Source/gd32e23x_timer.c ****     \param[in]  breakpara: TIMER break parameter struct
 687:Drivers/GD32E23x/Source/gd32e23x_timer.c ****                 runoffstate: TIMER_ROS_STATE_ENABLE,TIMER_ROS_STATE_DISABLE
 688:Drivers/GD32E23x/Source/gd32e23x_timer.c ****                 ideloffstate: TIMER_IOS_STATE_ENABLE,TIMER_IOS_STATE_DISABLE
 689:Drivers/GD32E23x/Source/gd32e23x_timer.c ****                 deadtime: 0~255
 690:Drivers/GD32E23x/Source/gd32e23x_timer.c ****                 breakpolarity: TIMER_BREAK_POLARITY_LOW,TIMER_BREAK_POLARITY_HIGH
 691:Drivers/GD32E23x/Source/gd32e23x_timer.c ****                 outputautostate: TIMER_OUTAUTO_ENABLE,TIMER_OUTAUTO_DISABLE
 692:Drivers/GD32E23x/Source/gd32e23x_timer.c ****                 protectmode: TIMER_CCHP_PROT_OFF,TIMER_CCHP_PROT_0,TIMER_CCHP_PROT_1,TIMER_CCHP_PRO
 693:Drivers/GD32E23x/Source/gd32e23x_timer.c ****                 breakstate: TIMER_BREAK_ENABLE,TIMER_BREAK_DISABLE
 694:Drivers/GD32E23x/Source/gd32e23x_timer.c ****     \param[out] none
 695:Drivers/GD32E23x/Source/gd32e23x_timer.c ****     \retval     none
 696:Drivers/GD32E23x/Source/gd32e23x_timer.c **** */
 697:Drivers/GD32E23x/Source/gd32e23x_timer.c **** void timer_break_config(uint32_t timer_periph, timer_break_parameter_struct* breakpara)
ARM GAS  D:\noval\Temp\cck0Iw0b.s 			page 36


 698:Drivers/GD32E23x/Source/gd32e23x_timer.c **** {
 1331              		.loc 1 698 1 is_stmt 1 view -0
 1332              		.cfi_startproc
 1333              		@ args = 0, pretend = 0, frame = 0
 1334              		@ frame_needed = 0, uses_anonymous_args = 0
 1335              		.loc 1 698 1 is_stmt 0 view .LVU287
 1336 0000 F0B5     		push	{r4, r5, r6, r7, lr}
 1337              	.LCFI2:
 1338              		.cfi_def_cfa_offset 20
 1339              		.cfi_offset 4, -20
 1340              		.cfi_offset 5, -16
 1341              		.cfi_offset 6, -12
 1342              		.cfi_offset 7, -8
 1343              		.cfi_offset 14, -4
 699:Drivers/GD32E23x/Source/gd32e23x_timer.c ****     TIMER_CCHP(timer_periph) = (uint32_t)(((uint32_t)(breakpara->runoffstate))|
 1344              		.loc 1 699 5 is_stmt 1 view .LVU288
 1345              		.loc 1 699 64 is_stmt 0 view .LVU289
 1346 0002 0F88     		ldrh	r7, [r1]
 700:Drivers/GD32E23x/Source/gd32e23x_timer.c ****                                           ((uint32_t)(breakpara->ideloffstate))|
 1347              		.loc 1 700 64 view .LVU290
 1348 0004 4B88     		ldrh	r3, [r1, #2]
 1349 0006 9C46     		mov	ip, r3
 701:Drivers/GD32E23x/Source/gd32e23x_timer.c ****                                           ((uint32_t)(breakpara->deadtime))|
 1350              		.loc 1 701 64 view .LVU291
 1351 0008 8E88     		ldrh	r6, [r1, #4]
 702:Drivers/GD32E23x/Source/gd32e23x_timer.c ****                                           ((uint32_t)(breakpara->breakpolarity))|
 1352              		.loc 1 702 64 view .LVU292
 1353 000a CD88     		ldrh	r5, [r1, #6]
 703:Drivers/GD32E23x/Source/gd32e23x_timer.c ****                                           ((uint32_t)(breakpara->outputautostate)) |
 1354              		.loc 1 703 64 view .LVU293
 1355 000c 0C89     		ldrh	r4, [r1, #8]
 704:Drivers/GD32E23x/Source/gd32e23x_timer.c ****                                           ((uint32_t)(breakpara->protectmode))|
 1356              		.loc 1 704 64 view .LVU294
 1357 000e 4A89     		ldrh	r2, [r1, #10]
 705:Drivers/GD32E23x/Source/gd32e23x_timer.c ****                                           ((uint32_t)(breakpara->breakstate))) ;
 1358              		.loc 1 705 64 view .LVU295
 1359 0010 8B89     		ldrh	r3, [r1, #12]
 699:Drivers/GD32E23x/Source/gd32e23x_timer.c ****                                           ((uint32_t)(breakpara->ideloffstate))|
 1360              		.loc 1 699 32 view .LVU296
 1361 0012 6146     		mov	r1, ip
 1362              	.LVL76:
 699:Drivers/GD32E23x/Source/gd32e23x_timer.c ****                                           ((uint32_t)(breakpara->ideloffstate))|
 1363              		.loc 1 699 32 view .LVU297
 1364 0014 3943     		orrs	r1, r7
 1365 0016 3143     		orrs	r1, r6
 1366 0018 2943     		orrs	r1, r5
 1367 001a 2143     		orrs	r1, r4
 1368 001c 0A43     		orrs	r2, r1
 1369 001e 1343     		orrs	r3, r2
 699:Drivers/GD32E23x/Source/gd32e23x_timer.c ****                                           ((uint32_t)(breakpara->ideloffstate))|
 1370              		.loc 1 699 30 view .LVU298
 1371 0020 4364     		str	r3, [r0, #68]
 706:Drivers/GD32E23x/Source/gd32e23x_timer.c **** }
 1372              		.loc 1 706 1 view .LVU299
 1373              		@ sp needed
 1374 0022 F0BD     		pop	{r4, r5, r6, r7, pc}
 1375              		.cfi_endproc
ARM GAS  D:\noval\Temp\cck0Iw0b.s 			page 37


 1376              	.LFE93:
 1378              		.section	.text.timer_break_enable,"ax",%progbits
 1379              		.align	1
 1380              		.global	timer_break_enable
 1381              		.syntax unified
 1382              		.code	16
 1383              		.thumb_func
 1385              	timer_break_enable:
 1386              	.LVL77:
 1387              	.LFB94:
 707:Drivers/GD32E23x/Source/gd32e23x_timer.c **** 
 708:Drivers/GD32E23x/Source/gd32e23x_timer.c **** /*!
 709:Drivers/GD32E23x/Source/gd32e23x_timer.c ****     \brief      enable TIMER break function
 710:Drivers/GD32E23x/Source/gd32e23x_timer.c ****     \param[in]  timer_periph: TIMERx(x=0,14..16)
 711:Drivers/GD32E23x/Source/gd32e23x_timer.c ****     \param[out] none
 712:Drivers/GD32E23x/Source/gd32e23x_timer.c ****     \retval     none
 713:Drivers/GD32E23x/Source/gd32e23x_timer.c **** */
 714:Drivers/GD32E23x/Source/gd32e23x_timer.c **** void timer_break_enable(uint32_t timer_periph)
 715:Drivers/GD32E23x/Source/gd32e23x_timer.c **** {
 1388              		.loc 1 715 1 is_stmt 1 view -0
 1389              		.cfi_startproc
 1390              		@ args = 0, pretend = 0, frame = 0
 1391              		@ frame_needed = 0, uses_anonymous_args = 0
 1392              		@ link register save eliminated.
 716:Drivers/GD32E23x/Source/gd32e23x_timer.c ****     TIMER_CCHP(timer_periph) |= (uint32_t)TIMER_CCHP_BRKEN;
 1393              		.loc 1 716 5 view .LVU301
 1394 0000 436C     		ldr	r3, [r0, #68]
 1395              		.loc 1 716 30 is_stmt 0 view .LVU302
 1396 0002 41F20002 		movw	r2, #4096
 1397 0006 1343     		orrs	r3, r2
 1398 0008 4364     		str	r3, [r0, #68]
 717:Drivers/GD32E23x/Source/gd32e23x_timer.c **** }
 1399              		.loc 1 717 1 view .LVU303
 1400              		@ sp needed
 1401 000a 7047     		bx	lr
 1402              		.cfi_endproc
 1403              	.LFE94:
 1405              		.section	.text.timer_break_disable,"ax",%progbits
 1406              		.align	1
 1407              		.global	timer_break_disable
 1408              		.syntax unified
 1409              		.code	16
 1410              		.thumb_func
 1412              	timer_break_disable:
 1413              	.LVL78:
 1414              	.LFB95:
 718:Drivers/GD32E23x/Source/gd32e23x_timer.c **** 
 719:Drivers/GD32E23x/Source/gd32e23x_timer.c **** /*!
 720:Drivers/GD32E23x/Source/gd32e23x_timer.c ****     \brief      disable TIMER break function
 721:Drivers/GD32E23x/Source/gd32e23x_timer.c ****     \param[in]  timer_periph: TIMERx(x=0,14..16)
 722:Drivers/GD32E23x/Source/gd32e23x_timer.c ****     \param[out] none
 723:Drivers/GD32E23x/Source/gd32e23x_timer.c ****     \retval     none
 724:Drivers/GD32E23x/Source/gd32e23x_timer.c **** */
 725:Drivers/GD32E23x/Source/gd32e23x_timer.c **** void timer_break_disable(uint32_t timer_periph)
 726:Drivers/GD32E23x/Source/gd32e23x_timer.c **** {
 1415              		.loc 1 726 1 is_stmt 1 view -0
 1416              		.cfi_startproc
ARM GAS  D:\noval\Temp\cck0Iw0b.s 			page 38


 1417              		@ args = 0, pretend = 0, frame = 0
 1418              		@ frame_needed = 0, uses_anonymous_args = 0
 1419              		@ link register save eliminated.
 727:Drivers/GD32E23x/Source/gd32e23x_timer.c ****     TIMER_CCHP(timer_periph) &= ~(uint32_t)TIMER_CCHP_BRKEN;
 1420              		.loc 1 727 5 view .LVU305
 1421 0000 436C     		ldr	r3, [r0, #68]
 1422              		.loc 1 727 30 is_stmt 0 view .LVU306
 1423 0002 024A     		ldr	r2, .L75
 1424 0004 1340     		ands	r3, r2
 1425 0006 4364     		str	r3, [r0, #68]
 728:Drivers/GD32E23x/Source/gd32e23x_timer.c **** }
 1426              		.loc 1 728 1 view .LVU307
 1427              		@ sp needed
 1428 0008 7047     		bx	lr
 1429              	.L76:
 1430 000a C046     		.align	2
 1431              	.L75:
 1432 000c FFEFFFFF 		.word	-4097
 1433              		.cfi_endproc
 1434              	.LFE95:
 1436              		.section	.text.timer_automatic_output_enable,"ax",%progbits
 1437              		.align	1
 1438              		.global	timer_automatic_output_enable
 1439              		.syntax unified
 1440              		.code	16
 1441              		.thumb_func
 1443              	timer_automatic_output_enable:
 1444              	.LVL79:
 1445              	.LFB96:
 729:Drivers/GD32E23x/Source/gd32e23x_timer.c **** 
 730:Drivers/GD32E23x/Source/gd32e23x_timer.c **** /*!
 731:Drivers/GD32E23x/Source/gd32e23x_timer.c ****     \brief      enable TIMER output automatic function
 732:Drivers/GD32E23x/Source/gd32e23x_timer.c ****     \param[in]  timer_periph: TIMERx(x=0,14..16)
 733:Drivers/GD32E23x/Source/gd32e23x_timer.c ****     \param[out] none
 734:Drivers/GD32E23x/Source/gd32e23x_timer.c ****     \retval     none
 735:Drivers/GD32E23x/Source/gd32e23x_timer.c **** */
 736:Drivers/GD32E23x/Source/gd32e23x_timer.c **** void timer_automatic_output_enable(uint32_t timer_periph)
 737:Drivers/GD32E23x/Source/gd32e23x_timer.c **** {
 1446              		.loc 1 737 1 is_stmt 1 view -0
 1447              		.cfi_startproc
 1448              		@ args = 0, pretend = 0, frame = 0
 1449              		@ frame_needed = 0, uses_anonymous_args = 0
 1450              		@ link register save eliminated.
 738:Drivers/GD32E23x/Source/gd32e23x_timer.c ****     TIMER_CCHP(timer_periph) |= (uint32_t)TIMER_CCHP_OAEN;
 1451              		.loc 1 738 5 view .LVU309
 1452 0000 436C     		ldr	r3, [r0, #68]
 1453              		.loc 1 738 30 is_stmt 0 view .LVU310
 1454 0002 44F20002 		movw	r2, #16384
 1455 0006 1343     		orrs	r3, r2
 1456 0008 4364     		str	r3, [r0, #68]
 739:Drivers/GD32E23x/Source/gd32e23x_timer.c **** }
 1457              		.loc 1 739 1 view .LVU311
 1458              		@ sp needed
 1459 000a 7047     		bx	lr
 1460              		.cfi_endproc
 1461              	.LFE96:
 1463              		.section	.text.timer_automatic_output_disable,"ax",%progbits
ARM GAS  D:\noval\Temp\cck0Iw0b.s 			page 39


 1464              		.align	1
 1465              		.global	timer_automatic_output_disable
 1466              		.syntax unified
 1467              		.code	16
 1468              		.thumb_func
 1470              	timer_automatic_output_disable:
 1471              	.LVL80:
 1472              	.LFB97:
 740:Drivers/GD32E23x/Source/gd32e23x_timer.c **** 
 741:Drivers/GD32E23x/Source/gd32e23x_timer.c **** /*!
 742:Drivers/GD32E23x/Source/gd32e23x_timer.c ****     \brief      disable TIMER output automatic function
 743:Drivers/GD32E23x/Source/gd32e23x_timer.c ****     \param[in]  timer_periph: TIMERx(x=0,14..16)
 744:Drivers/GD32E23x/Source/gd32e23x_timer.c ****     \param[out] none
 745:Drivers/GD32E23x/Source/gd32e23x_timer.c ****     \retval     none
 746:Drivers/GD32E23x/Source/gd32e23x_timer.c **** */
 747:Drivers/GD32E23x/Source/gd32e23x_timer.c **** void timer_automatic_output_disable(uint32_t timer_periph)
 748:Drivers/GD32E23x/Source/gd32e23x_timer.c **** {
 1473              		.loc 1 748 1 is_stmt 1 view -0
 1474              		.cfi_startproc
 1475              		@ args = 0, pretend = 0, frame = 0
 1476              		@ frame_needed = 0, uses_anonymous_args = 0
 1477              		@ link register save eliminated.
 749:Drivers/GD32E23x/Source/gd32e23x_timer.c ****     TIMER_CCHP(timer_periph) &= ~(uint32_t)TIMER_CCHP_OAEN;
 1478              		.loc 1 749 5 view .LVU313
 1479 0000 436C     		ldr	r3, [r0, #68]
 1480              		.loc 1 749 30 is_stmt 0 view .LVU314
 1481 0002 024A     		ldr	r2, .L79
 1482 0004 1340     		ands	r3, r2
 1483 0006 4364     		str	r3, [r0, #68]
 750:Drivers/GD32E23x/Source/gd32e23x_timer.c **** }
 1484              		.loc 1 750 1 view .LVU315
 1485              		@ sp needed
 1486 0008 7047     		bx	lr
 1487              	.L80:
 1488 000a C046     		.align	2
 1489              	.L79:
 1490 000c FFBFFFFF 		.word	-16385
 1491              		.cfi_endproc
 1492              	.LFE97:
 1494              		.section	.text.timer_primary_output_config,"ax",%progbits
 1495              		.align	1
 1496              		.global	timer_primary_output_config
 1497              		.syntax unified
 1498              		.code	16
 1499              		.thumb_func
 1501              	timer_primary_output_config:
 1502              	.LVL81:
 1503              	.LFB98:
 751:Drivers/GD32E23x/Source/gd32e23x_timer.c **** 
 752:Drivers/GD32E23x/Source/gd32e23x_timer.c **** /*!
 753:Drivers/GD32E23x/Source/gd32e23x_timer.c ****     \brief      configure TIMER primary output function
 754:Drivers/GD32E23x/Source/gd32e23x_timer.c ****     \param[in]  timer_periph: TIMERx(x=0,14..16)
 755:Drivers/GD32E23x/Source/gd32e23x_timer.c ****     \param[in]  newvalue: ENABLE or DISABLE
 756:Drivers/GD32E23x/Source/gd32e23x_timer.c ****     \param[out] none
 757:Drivers/GD32E23x/Source/gd32e23x_timer.c ****     \retval     none
 758:Drivers/GD32E23x/Source/gd32e23x_timer.c **** */
 759:Drivers/GD32E23x/Source/gd32e23x_timer.c **** void timer_primary_output_config(uint32_t timer_periph, ControlStatus newvalue)
ARM GAS  D:\noval\Temp\cck0Iw0b.s 			page 40


 760:Drivers/GD32E23x/Source/gd32e23x_timer.c **** {
 1504              		.loc 1 760 1 is_stmt 1 view -0
 1505              		.cfi_startproc
 1506              		@ args = 0, pretend = 0, frame = 0
 1507              		@ frame_needed = 0, uses_anonymous_args = 0
 1508              		@ link register save eliminated.
 761:Drivers/GD32E23x/Source/gd32e23x_timer.c ****     if(ENABLE == newvalue){
 1509              		.loc 1 761 5 view .LVU317
 1510              		.loc 1 761 7 is_stmt 0 view .LVU318
 1511 0000 0129     		cmp	r1, #1
 1512 0002 04D0     		beq	.L84
 762:Drivers/GD32E23x/Source/gd32e23x_timer.c ****         TIMER_CCHP(timer_periph) |= (uint32_t)TIMER_CCHP_POEN;
 763:Drivers/GD32E23x/Source/gd32e23x_timer.c ****     }else{
 764:Drivers/GD32E23x/Source/gd32e23x_timer.c ****         TIMER_CCHP(timer_periph) &= (~(uint32_t)TIMER_CCHP_POEN);
 1513              		.loc 1 764 9 is_stmt 1 view .LVU319
 1514 0004 436C     		ldr	r3, [r0, #68]
 1515              		.loc 1 764 34 is_stmt 0 view .LVU320
 1516 0006 054A     		ldr	r2, .L85
 1517 0008 1340     		ands	r3, r2
 1518 000a 4364     		str	r3, [r0, #68]
 1519              	.L81:
 765:Drivers/GD32E23x/Source/gd32e23x_timer.c ****     }
 766:Drivers/GD32E23x/Source/gd32e23x_timer.c **** }
 1520              		.loc 1 766 1 view .LVU321
 1521              		@ sp needed
 1522 000c 7047     		bx	lr
 1523              	.L84:
 762:Drivers/GD32E23x/Source/gd32e23x_timer.c ****         TIMER_CCHP(timer_periph) |= (uint32_t)TIMER_CCHP_POEN;
 1524              		.loc 1 762 9 is_stmt 1 view .LVU322
 1525 000e 436C     		ldr	r3, [r0, #68]
 762:Drivers/GD32E23x/Source/gd32e23x_timer.c ****         TIMER_CCHP(timer_periph) |= (uint32_t)TIMER_CCHP_POEN;
 1526              		.loc 1 762 34 is_stmt 0 view .LVU323
 1527 0010 48F20002 		movw	r2, #32768
 1528 0014 1343     		orrs	r3, r2
 1529 0016 4364     		str	r3, [r0, #68]
 1530 0018 F8E7     		b	.L81
 1531              	.L86:
 1532 001a C046     		.align	2
 1533              	.L85:
 1534 001c FF7FFFFF 		.word	-32769
 1535              		.cfi_endproc
 1536              	.LFE98:
 1538              		.section	.text.timer_channel_control_shadow_config,"ax",%progbits
 1539              		.align	1
 1540              		.global	timer_channel_control_shadow_config
 1541              		.syntax unified
 1542              		.code	16
 1543              		.thumb_func
 1545              	timer_channel_control_shadow_config:
 1546              	.LVL82:
 1547              	.LFB99:
 767:Drivers/GD32E23x/Source/gd32e23x_timer.c **** 
 768:Drivers/GD32E23x/Source/gd32e23x_timer.c **** /*!
 769:Drivers/GD32E23x/Source/gd32e23x_timer.c ****     \brief      enable or disable channel capture/compare control shadow register
 770:Drivers/GD32E23x/Source/gd32e23x_timer.c ****     \param[in]  timer_periph: TIMERx(x=0,14..16)
 771:Drivers/GD32E23x/Source/gd32e23x_timer.c ****     \param[in]  newvalue: ENABLE or DISABLE 
 772:Drivers/GD32E23x/Source/gd32e23x_timer.c ****     \param[out] none
ARM GAS  D:\noval\Temp\cck0Iw0b.s 			page 41


 773:Drivers/GD32E23x/Source/gd32e23x_timer.c ****     \retval     none
 774:Drivers/GD32E23x/Source/gd32e23x_timer.c **** */
 775:Drivers/GD32E23x/Source/gd32e23x_timer.c **** void timer_channel_control_shadow_config(uint32_t timer_periph, ControlStatus newvalue)
 776:Drivers/GD32E23x/Source/gd32e23x_timer.c **** {
 1548              		.loc 1 776 1 is_stmt 1 view -0
 1549              		.cfi_startproc
 1550              		@ args = 0, pretend = 0, frame = 0
 1551              		@ frame_needed = 0, uses_anonymous_args = 0
 1552              		@ link register save eliminated.
 777:Drivers/GD32E23x/Source/gd32e23x_timer.c ****      if(ENABLE == newvalue){
 1553              		.loc 1 777 6 view .LVU325
 1554              		.loc 1 777 8 is_stmt 0 view .LVU326
 1555 0000 0129     		cmp	r1, #1
 1556 0002 04D0     		beq	.L90
 778:Drivers/GD32E23x/Source/gd32e23x_timer.c ****         TIMER_CTL1(timer_periph) |= (uint32_t)TIMER_CTL1_CCSE;
 779:Drivers/GD32E23x/Source/gd32e23x_timer.c ****     }else{
 780:Drivers/GD32E23x/Source/gd32e23x_timer.c ****         TIMER_CTL1(timer_periph) &= (~(uint32_t)TIMER_CTL1_CCSE);
 1557              		.loc 1 780 9 is_stmt 1 view .LVU327
 1558 0004 4368     		ldr	r3, [r0, #4]
 1559              		.loc 1 780 34 is_stmt 0 view .LVU328
 1560 0006 0122     		movs	r2, #1
 1561 0008 9343     		bics	r3, r2
 1562 000a 4360     		str	r3, [r0, #4]
 1563              	.L87:
 781:Drivers/GD32E23x/Source/gd32e23x_timer.c ****     }
 782:Drivers/GD32E23x/Source/gd32e23x_timer.c **** }
 1564              		.loc 1 782 1 view .LVU329
 1565              		@ sp needed
 1566 000c 7047     		bx	lr
 1567              	.L90:
 778:Drivers/GD32E23x/Source/gd32e23x_timer.c ****         TIMER_CTL1(timer_periph) |= (uint32_t)TIMER_CTL1_CCSE;
 1568              		.loc 1 778 9 is_stmt 1 view .LVU330
 1569 000e 4368     		ldr	r3, [r0, #4]
 778:Drivers/GD32E23x/Source/gd32e23x_timer.c ****         TIMER_CTL1(timer_periph) |= (uint32_t)TIMER_CTL1_CCSE;
 1570              		.loc 1 778 34 is_stmt 0 view .LVU331
 1571 0010 0122     		movs	r2, #1
 1572 0012 1343     		orrs	r3, r2
 1573 0014 4360     		str	r3, [r0, #4]
 1574 0016 F9E7     		b	.L87
 1575              		.cfi_endproc
 1576              	.LFE99:
 1578              		.section	.text.timer_channel_control_shadow_update_config,"ax",%progbits
 1579              		.align	1
 1580              		.global	timer_channel_control_shadow_update_config
 1581              		.syntax unified
 1582              		.code	16
 1583              		.thumb_func
 1585              	timer_channel_control_shadow_update_config:
 1586              	.LVL83:
 1587              	.LFB100:
 783:Drivers/GD32E23x/Source/gd32e23x_timer.c **** 
 784:Drivers/GD32E23x/Source/gd32e23x_timer.c **** /*!
 785:Drivers/GD32E23x/Source/gd32e23x_timer.c ****     \brief      configure TIMER channel control shadow register update control
 786:Drivers/GD32E23x/Source/gd32e23x_timer.c ****     \param[in]  timer_periph: TIMERx(x=0,14..16)
 787:Drivers/GD32E23x/Source/gd32e23x_timer.c ****     \param[in]  ccuctl: channel control shadow register update control
 788:Drivers/GD32E23x/Source/gd32e23x_timer.c ****                 only one parameter can be selected which is shown as below:
 789:Drivers/GD32E23x/Source/gd32e23x_timer.c ****       \arg        TIMER_UPDATECTL_CCU: the shadow registers update by when CMTG bit is set
ARM GAS  D:\noval\Temp\cck0Iw0b.s 			page 42


 790:Drivers/GD32E23x/Source/gd32e23x_timer.c ****       \arg        TIMER_UPDATECTL_CCUTRI: the shadow registers update by when CMTG bit is set or an
 791:Drivers/GD32E23x/Source/gd32e23x_timer.c ****     \param[out] none
 792:Drivers/GD32E23x/Source/gd32e23x_timer.c ****     \retval     none
 793:Drivers/GD32E23x/Source/gd32e23x_timer.c **** */              
 794:Drivers/GD32E23x/Source/gd32e23x_timer.c **** void timer_channel_control_shadow_update_config(uint32_t timer_periph, uint8_t ccuctl)
 795:Drivers/GD32E23x/Source/gd32e23x_timer.c **** {
 1588              		.loc 1 795 1 is_stmt 1 view -0
 1589              		.cfi_startproc
 1590              		@ args = 0, pretend = 0, frame = 0
 1591              		@ frame_needed = 0, uses_anonymous_args = 0
 1592              		@ link register save eliminated.
 796:Drivers/GD32E23x/Source/gd32e23x_timer.c ****     if(TIMER_UPDATECTL_CCU == ccuctl){
 1593              		.loc 1 796 5 view .LVU333
 1594              		.loc 1 796 7 is_stmt 0 view .LVU334
 1595 0000 21B9     		cbnz	r1, .L92
 797:Drivers/GD32E23x/Source/gd32e23x_timer.c ****         TIMER_CTL1(timer_periph) &= (~(uint32_t)TIMER_CTL1_CCUC);
 1596              		.loc 1 797 9 is_stmt 1 view .LVU335
 1597 0002 4368     		ldr	r3, [r0, #4]
 1598              		.loc 1 797 34 is_stmt 0 view .LVU336
 1599 0004 0422     		movs	r2, #4
 1600 0006 9343     		bics	r3, r2
 1601 0008 4360     		str	r3, [r0, #4]
 1602              	.L91:
 798:Drivers/GD32E23x/Source/gd32e23x_timer.c ****     }else if(TIMER_UPDATECTL_CCUTRI == ccuctl){
 799:Drivers/GD32E23x/Source/gd32e23x_timer.c ****         TIMER_CTL1(timer_periph) |= (uint32_t)TIMER_CTL1_CCUC;
 800:Drivers/GD32E23x/Source/gd32e23x_timer.c ****     }else{
 801:Drivers/GD32E23x/Source/gd32e23x_timer.c ****         /* illegal parameters */
 802:Drivers/GD32E23x/Source/gd32e23x_timer.c ****     }
 803:Drivers/GD32E23x/Source/gd32e23x_timer.c **** }
 1603              		.loc 1 803 1 view .LVU337
 1604              		@ sp needed
 1605 000a 7047     		bx	lr
 1606              	.L92:
 798:Drivers/GD32E23x/Source/gd32e23x_timer.c ****     }else if(TIMER_UPDATECTL_CCUTRI == ccuctl){
 1607              		.loc 1 798 11 is_stmt 1 view .LVU338
 798:Drivers/GD32E23x/Source/gd32e23x_timer.c ****     }else if(TIMER_UPDATECTL_CCUTRI == ccuctl){
 1608              		.loc 1 798 13 is_stmt 0 view .LVU339
 1609 000c 0429     		cmp	r1, #4
 1610 000e FCD1     		bne	.L91
 799:Drivers/GD32E23x/Source/gd32e23x_timer.c ****     }else{
 1611              		.loc 1 799 9 is_stmt 1 view .LVU340
 1612 0010 4368     		ldr	r3, [r0, #4]
 799:Drivers/GD32E23x/Source/gd32e23x_timer.c ****     }else{
 1613              		.loc 1 799 34 is_stmt 0 view .LVU341
 1614 0012 0422     		movs	r2, #4
 1615 0014 1343     		orrs	r3, r2
 1616 0016 4360     		str	r3, [r0, #4]
 802:Drivers/GD32E23x/Source/gd32e23x_timer.c **** }
 1617              		.loc 1 802 5 is_stmt 1 view .LVU342
 1618              		.loc 1 803 1 is_stmt 0 view .LVU343
 1619 0018 F7E7     		b	.L91
 1620              		.cfi_endproc
 1621              	.LFE100:
 1623              		.section	.text.timer_channel_output_struct_para_init,"ax",%progbits
 1624              		.align	1
 1625              		.global	timer_channel_output_struct_para_init
 1626              		.syntax unified
ARM GAS  D:\noval\Temp\cck0Iw0b.s 			page 43


 1627              		.code	16
 1628              		.thumb_func
 1630              	timer_channel_output_struct_para_init:
 1631              	.LVL84:
 1632              	.LFB101:
 804:Drivers/GD32E23x/Source/gd32e23x_timer.c **** 
 805:Drivers/GD32E23x/Source/gd32e23x_timer.c **** /*!
 806:Drivers/GD32E23x/Source/gd32e23x_timer.c ****     \brief      initialize TIMER channel output parameter struct with a default value
 807:Drivers/GD32E23x/Source/gd32e23x_timer.c ****     \param[in]  ocpara: TIMER channel n output parameter struct
 808:Drivers/GD32E23x/Source/gd32e23x_timer.c ****     \param[out] none
 809:Drivers/GD32E23x/Source/gd32e23x_timer.c ****     \retval     none
 810:Drivers/GD32E23x/Source/gd32e23x_timer.c **** */
 811:Drivers/GD32E23x/Source/gd32e23x_timer.c **** void timer_channel_output_struct_para_init(timer_oc_parameter_struct* ocpara)
 812:Drivers/GD32E23x/Source/gd32e23x_timer.c **** {
 1633              		.loc 1 812 1 is_stmt 1 view -0
 1634              		.cfi_startproc
 1635              		@ args = 0, pretend = 0, frame = 0
 1636              		@ frame_needed = 0, uses_anonymous_args = 0
 1637              		@ link register save eliminated.
 813:Drivers/GD32E23x/Source/gd32e23x_timer.c ****     /* initialize the channel output parameter struct member with the default value */
 814:Drivers/GD32E23x/Source/gd32e23x_timer.c ****     ocpara->outputstate  = (uint16_t)TIMER_CCX_DISABLE;
 1638              		.loc 1 814 5 view .LVU345
 1639              		.loc 1 814 26 is_stmt 0 view .LVU346
 1640 0000 0023     		movs	r3, #0
 1641 0002 0380     		strh	r3, [r0]
 815:Drivers/GD32E23x/Source/gd32e23x_timer.c ****     ocpara->outputnstate = TIMER_CCXN_DISABLE;
 1642              		.loc 1 815 5 is_stmt 1 view .LVU347
 1643              		.loc 1 815 26 is_stmt 0 view .LVU348
 1644 0004 4380     		strh	r3, [r0, #2]
 816:Drivers/GD32E23x/Source/gd32e23x_timer.c ****     ocpara->ocpolarity   = TIMER_OC_POLARITY_HIGH;
 1645              		.loc 1 816 5 is_stmt 1 view .LVU349
 1646              		.loc 1 816 26 is_stmt 0 view .LVU350
 1647 0006 8380     		strh	r3, [r0, #4]
 817:Drivers/GD32E23x/Source/gd32e23x_timer.c ****     ocpara->ocnpolarity  = TIMER_OCN_POLARITY_HIGH;
 1648              		.loc 1 817 5 is_stmt 1 view .LVU351
 1649              		.loc 1 817 26 is_stmt 0 view .LVU352
 1650 0008 C380     		strh	r3, [r0, #6]
 818:Drivers/GD32E23x/Source/gd32e23x_timer.c ****     ocpara->ocidlestate  = TIMER_OC_IDLE_STATE_LOW;
 1651              		.loc 1 818 5 is_stmt 1 view .LVU353
 1652              		.loc 1 818 26 is_stmt 0 view .LVU354
 1653 000a 0381     		strh	r3, [r0, #8]
 819:Drivers/GD32E23x/Source/gd32e23x_timer.c ****     ocpara->ocnidlestate = TIMER_OCN_IDLE_STATE_LOW;
 1654              		.loc 1 819 5 is_stmt 1 view .LVU355
 1655              		.loc 1 819 26 is_stmt 0 view .LVU356
 1656 000c 4381     		strh	r3, [r0, #10]
 820:Drivers/GD32E23x/Source/gd32e23x_timer.c **** }
 1657              		.loc 1 820 1 view .LVU357
 1658              		@ sp needed
 1659 000e 7047     		bx	lr
 1660              		.cfi_endproc
 1661              	.LFE101:
 1663              		.section	.text.timer_channel_output_config,"ax",%progbits
 1664              		.align	1
 1665              		.global	timer_channel_output_config
 1666              		.syntax unified
 1667              		.code	16
 1668              		.thumb_func
ARM GAS  D:\noval\Temp\cck0Iw0b.s 			page 44


 1670              	timer_channel_output_config:
 1671              	.LVL85:
 1672              	.LFB102:
 821:Drivers/GD32E23x/Source/gd32e23x_timer.c **** 
 822:Drivers/GD32E23x/Source/gd32e23x_timer.c **** /*!
 823:Drivers/GD32E23x/Source/gd32e23x_timer.c ****     \brief      configure TIMER channel output function
 824:Drivers/GD32E23x/Source/gd32e23x_timer.c ****     \param[in]  timer_periph: please refer to the following parameters
 825:Drivers/GD32E23x/Source/gd32e23x_timer.c ****     \param[in]  channel:
 826:Drivers/GD32E23x/Source/gd32e23x_timer.c ****                 only one parameter can be selected which is shown as below:
 827:Drivers/GD32E23x/Source/gd32e23x_timer.c ****       \arg        TIMER_CH_0: TIMER channel 0(TIMERx(x=0,2,13..16))
 828:Drivers/GD32E23x/Source/gd32e23x_timer.c ****       \arg        TIMER_CH_1: TIMER channel 1(TIMERx(x=0,2,14))
 829:Drivers/GD32E23x/Source/gd32e23x_timer.c ****       \arg        TIMER_CH_2: TIMER channel 2(TIMERx(x=0,2))
 830:Drivers/GD32E23x/Source/gd32e23x_timer.c ****       \arg        TIMER_CH_3: TIMER channel 3(TIMERx(x=0,2))
 831:Drivers/GD32E23x/Source/gd32e23x_timer.c ****     \param[in]  ocpara: TIMER channeln output parameter struct
 832:Drivers/GD32E23x/Source/gd32e23x_timer.c ****                 outputstate: TIMER_CCX_ENABLE,TIMER_CCX_DISABLE
 833:Drivers/GD32E23x/Source/gd32e23x_timer.c ****                 outputnstate: TIMER_CCXN_ENABLE,TIMER_CCXN_DISABLE
 834:Drivers/GD32E23x/Source/gd32e23x_timer.c ****                 ocpolarity: TIMER_OC_POLARITY_HIGH,TIMER_OC_POLARITY_LOW
 835:Drivers/GD32E23x/Source/gd32e23x_timer.c ****                 ocnpolarity: TIMER_OCN_POLARITY_HIGH,TIMER_OCN_POLARITY_LOW
 836:Drivers/GD32E23x/Source/gd32e23x_timer.c ****                 ocidlestate: TIMER_OC_IDLE_STATE_LOW,TIMER_OC_IDLE_STATE_HIGH
 837:Drivers/GD32E23x/Source/gd32e23x_timer.c ****                 ocnidlestate: TIMER_OCN_IDLE_STATE_LOW,TIMER_OCN_IDLE_STATE_HIGH
 838:Drivers/GD32E23x/Source/gd32e23x_timer.c ****     \param[out] none
 839:Drivers/GD32E23x/Source/gd32e23x_timer.c ****     \retval     none
 840:Drivers/GD32E23x/Source/gd32e23x_timer.c **** */
 841:Drivers/GD32E23x/Source/gd32e23x_timer.c **** void timer_channel_output_config(uint32_t timer_periph, uint16_t channel, timer_oc_parameter_struct
 842:Drivers/GD32E23x/Source/gd32e23x_timer.c **** {
 1673              		.loc 1 842 1 is_stmt 1 view -0
 1674              		.cfi_startproc
 1675              		@ args = 0, pretend = 0, frame = 0
 1676              		@ frame_needed = 0, uses_anonymous_args = 0
 1677              		@ link register save eliminated.
 843:Drivers/GD32E23x/Source/gd32e23x_timer.c ****     switch(channel){
 1678              		.loc 1 843 5 view .LVU359
 1679 0000 0229     		cmp	r1, #2
 1680 0002 00D1     		bne	.LCB1202
 1681 0004 CDE0     		b	.L96	@long jump
 1682              	.LCB1202:
 1683 0006 32D8     		bhi	.L97
 1684 0008 0029     		cmp	r1, #0
 1685 000a 58D0     		beq	.L98
 1686 000c 0129     		cmp	r1, #1
 1687 000e 00D0     		beq	.LCB1208
 1688 0010 A1E0     		b	.L95	@long jump
 1689              	.LCB1208:
 844:Drivers/GD32E23x/Source/gd32e23x_timer.c ****     /* configure TIMER_CH_0 */
 845:Drivers/GD32E23x/Source/gd32e23x_timer.c ****     case TIMER_CH_0:
 846:Drivers/GD32E23x/Source/gd32e23x_timer.c ****         /* reset the CH0EN bit */
 847:Drivers/GD32E23x/Source/gd32e23x_timer.c ****         TIMER_CHCTL2(timer_periph) &= (~(uint32_t)TIMER_CHCTL2_CH0EN);
 848:Drivers/GD32E23x/Source/gd32e23x_timer.c ****         TIMER_CHCTL0(timer_periph) &= ~(uint32_t)TIMER_CHCTL0_CH0MS;
 849:Drivers/GD32E23x/Source/gd32e23x_timer.c ****         /* set the CH0EN bit */
 850:Drivers/GD32E23x/Source/gd32e23x_timer.c ****         TIMER_CHCTL2(timer_periph) |= (uint32_t)ocpara->outputstate;
 851:Drivers/GD32E23x/Source/gd32e23x_timer.c ****         /* reset the CH0P bit */
 852:Drivers/GD32E23x/Source/gd32e23x_timer.c ****         TIMER_CHCTL2(timer_periph) &= (~(uint32_t)TIMER_CHCTL2_CH0P);
 853:Drivers/GD32E23x/Source/gd32e23x_timer.c ****         /* set the CH0P bit */
 854:Drivers/GD32E23x/Source/gd32e23x_timer.c ****         TIMER_CHCTL2(timer_periph) |= (uint32_t)ocpara->ocpolarity;
 855:Drivers/GD32E23x/Source/gd32e23x_timer.c **** 
 856:Drivers/GD32E23x/Source/gd32e23x_timer.c ****         if((TIMER0 == timer_periph) || (TIMER14 == timer_periph) || (TIMER15 == timer_periph) || (T
 857:Drivers/GD32E23x/Source/gd32e23x_timer.c ****             /* reset the CH0NEN bit */
ARM GAS  D:\noval\Temp\cck0Iw0b.s 			page 45


 858:Drivers/GD32E23x/Source/gd32e23x_timer.c ****             TIMER_CHCTL2(timer_periph) &= (~(uint32_t)TIMER_CHCTL2_CH0NEN);
 859:Drivers/GD32E23x/Source/gd32e23x_timer.c ****             /* set the CH0NEN bit */
 860:Drivers/GD32E23x/Source/gd32e23x_timer.c ****             TIMER_CHCTL2(timer_periph) |= (uint32_t)ocpara->outputnstate;
 861:Drivers/GD32E23x/Source/gd32e23x_timer.c ****             /* reset the CH0NP bit */
 862:Drivers/GD32E23x/Source/gd32e23x_timer.c ****             TIMER_CHCTL2(timer_periph) &= (~(uint32_t)TIMER_CHCTL2_CH0NP);
 863:Drivers/GD32E23x/Source/gd32e23x_timer.c ****             /* set the CH0NP bit */
 864:Drivers/GD32E23x/Source/gd32e23x_timer.c ****             TIMER_CHCTL2(timer_periph) |= (uint32_t)ocpara->ocnpolarity;
 865:Drivers/GD32E23x/Source/gd32e23x_timer.c ****             /* reset the ISO0 bit */
 866:Drivers/GD32E23x/Source/gd32e23x_timer.c ****             TIMER_CTL1(timer_periph) &= (~(uint32_t)TIMER_CTL1_ISO0);
 867:Drivers/GD32E23x/Source/gd32e23x_timer.c ****             /* set the ISO0 bit */
 868:Drivers/GD32E23x/Source/gd32e23x_timer.c ****             TIMER_CTL1(timer_periph) |= (uint32_t)ocpara->ocidlestate;
 869:Drivers/GD32E23x/Source/gd32e23x_timer.c ****             /* reset the ISO0N bit */
 870:Drivers/GD32E23x/Source/gd32e23x_timer.c ****             TIMER_CTL1(timer_periph) &= (~(uint32_t)TIMER_CTL1_ISO0N);
 871:Drivers/GD32E23x/Source/gd32e23x_timer.c ****             /* set the ISO0N bit */
 872:Drivers/GD32E23x/Source/gd32e23x_timer.c ****             TIMER_CTL1(timer_periph) |= (uint32_t)ocpara->ocnidlestate;
 873:Drivers/GD32E23x/Source/gd32e23x_timer.c ****         }
 874:Drivers/GD32E23x/Source/gd32e23x_timer.c ****         break;
 875:Drivers/GD32E23x/Source/gd32e23x_timer.c ****     /* configure TIMER_CH_1 */
 876:Drivers/GD32E23x/Source/gd32e23x_timer.c ****     case TIMER_CH_1:
 877:Drivers/GD32E23x/Source/gd32e23x_timer.c ****         /* reset the CH1EN bit */
 878:Drivers/GD32E23x/Source/gd32e23x_timer.c ****         TIMER_CHCTL2(timer_periph) &= (~(uint32_t)TIMER_CHCTL2_CH1EN);
 1690              		.loc 1 878 9 view .LVU360
 1691 0012 036A     		ldr	r3, [r0, #32]
 1692              		.loc 1 878 36 is_stmt 0 view .LVU361
 1693 0014 1021     		movs	r1, #16
 1694              	.LVL86:
 1695              		.loc 1 878 36 view .LVU362
 1696 0016 8B43     		bics	r3, r1
 1697 0018 0362     		str	r3, [r0, #32]
 879:Drivers/GD32E23x/Source/gd32e23x_timer.c ****         TIMER_CHCTL0(timer_periph) &= ~(uint32_t)TIMER_CHCTL0_CH1MS;
 1698              		.loc 1 879 9 is_stmt 1 view .LVU363
 1699 001a 8369     		ldr	r3, [r0, #24]
 1700              		.loc 1 879 36 is_stmt 0 view .LVU364
 1701 001c 8249     		ldr	r1, .L105
 1702 001e 0B40     		ands	r3, r1
 1703 0020 8361     		str	r3, [r0, #24]
 880:Drivers/GD32E23x/Source/gd32e23x_timer.c ****         /* set the CH1EN bit */
 881:Drivers/GD32E23x/Source/gd32e23x_timer.c ****         TIMER_CHCTL2(timer_periph) |= (uint32_t)((uint32_t)ocpara->outputstate << 4U);
 1704              		.loc 1 881 9 is_stmt 1 view .LVU365
 1705 0022 036A     		ldr	r3, [r0, #32]
 1706              		.loc 1 881 66 is_stmt 0 view .LVU366
 1707 0024 1188     		ldrh	r1, [r2]
 1708              		.loc 1 881 39 view .LVU367
 1709 0026 0901     		lsls	r1, r1, #4
 1710              		.loc 1 881 36 view .LVU368
 1711 0028 0B43     		orrs	r3, r1
 1712 002a 0362     		str	r3, [r0, #32]
 882:Drivers/GD32E23x/Source/gd32e23x_timer.c ****         /* reset the CH1P bit */
 883:Drivers/GD32E23x/Source/gd32e23x_timer.c ****         TIMER_CHCTL2(timer_periph) &= (~(uint32_t)TIMER_CHCTL2_CH1P);
 1713              		.loc 1 883 9 is_stmt 1 view .LVU369
 1714 002c 036A     		ldr	r3, [r0, #32]
 1715              		.loc 1 883 36 is_stmt 0 view .LVU370
 1716 002e 2021     		movs	r1, #32
 1717 0030 8B43     		bics	r3, r1
 1718 0032 0362     		str	r3, [r0, #32]
 884:Drivers/GD32E23x/Source/gd32e23x_timer.c ****         /* set the CH1P bit */
 885:Drivers/GD32E23x/Source/gd32e23x_timer.c ****         TIMER_CHCTL2(timer_periph) |= (uint32_t)((uint32_t)(ocpara->ocpolarity) << 4U);
ARM GAS  D:\noval\Temp\cck0Iw0b.s 			page 46


 1719              		.loc 1 885 9 is_stmt 1 view .LVU371
 1720 0034 036A     		ldr	r3, [r0, #32]
 1721              		.loc 1 885 67 is_stmt 0 view .LVU372
 1722 0036 9188     		ldrh	r1, [r2, #4]
 1723              		.loc 1 885 39 view .LVU373
 1724 0038 0901     		lsls	r1, r1, #4
 1725              		.loc 1 885 36 view .LVU374
 1726 003a 0B43     		orrs	r3, r1
 1727 003c 0362     		str	r3, [r0, #32]
 886:Drivers/GD32E23x/Source/gd32e23x_timer.c **** 
 887:Drivers/GD32E23x/Source/gd32e23x_timer.c ****         if(TIMER0 == timer_periph){
 1728              		.loc 1 887 9 is_stmt 1 view .LVU375
 1729              		.loc 1 887 11 is_stmt 0 view .LVU376
 1730 003e 42F60043 		movw	r3, #11264
 1731 0042 C4F20103 		movt	r3, 16385
 1732 0046 9842     		cmp	r0, r3
 1733 0048 00D1     		bne	.LCB1241
 1734 004a 85E0     		b	.L104	@long jump
 1735              	.LCB1241:
 1736              	.L103:
 888:Drivers/GD32E23x/Source/gd32e23x_timer.c ****             /* reset the CH1NEN bit */
 889:Drivers/GD32E23x/Source/gd32e23x_timer.c ****             TIMER_CHCTL2(timer_periph) &= (~(uint32_t)TIMER_CHCTL2_CH1NEN);
 890:Drivers/GD32E23x/Source/gd32e23x_timer.c ****             /* set the CH1NEN bit */
 891:Drivers/GD32E23x/Source/gd32e23x_timer.c ****             TIMER_CHCTL2(timer_periph) |= (uint32_t)((uint32_t)(ocpara->outputnstate) << 4U);
 892:Drivers/GD32E23x/Source/gd32e23x_timer.c ****             /* reset the CH1NP bit */
 893:Drivers/GD32E23x/Source/gd32e23x_timer.c ****             TIMER_CHCTL2(timer_periph) &= (~(uint32_t)TIMER_CHCTL2_CH1NP);
 894:Drivers/GD32E23x/Source/gd32e23x_timer.c ****             /* set the CH1NP bit */
 895:Drivers/GD32E23x/Source/gd32e23x_timer.c ****             TIMER_CHCTL2(timer_periph) |= (uint32_t)((uint32_t)(ocpara->ocnpolarity) << 4U);
 896:Drivers/GD32E23x/Source/gd32e23x_timer.c ****             /* reset the ISO1 bit */
 897:Drivers/GD32E23x/Source/gd32e23x_timer.c ****             TIMER_CTL1(timer_periph) &= (~(uint32_t)TIMER_CTL1_ISO1);
 898:Drivers/GD32E23x/Source/gd32e23x_timer.c ****             /* set the ISO1 bit */
 899:Drivers/GD32E23x/Source/gd32e23x_timer.c ****             TIMER_CTL1(timer_periph) |= (uint32_t)((uint32_t)(ocpara->ocidlestate) << 2U);
 900:Drivers/GD32E23x/Source/gd32e23x_timer.c ****             /* reset the ISO1N bit */
 901:Drivers/GD32E23x/Source/gd32e23x_timer.c ****             TIMER_CTL1(timer_periph) &= (~(uint32_t)TIMER_CTL1_ISO1N);
 902:Drivers/GD32E23x/Source/gd32e23x_timer.c ****             /* set the ISO1N bit */
 903:Drivers/GD32E23x/Source/gd32e23x_timer.c ****             TIMER_CTL1(timer_periph) |= (uint32_t)((uint32_t)(ocpara->ocnidlestate) << 2U);
 904:Drivers/GD32E23x/Source/gd32e23x_timer.c ****         }
 905:Drivers/GD32E23x/Source/gd32e23x_timer.c ****         
 906:Drivers/GD32E23x/Source/gd32e23x_timer.c ****         if(TIMER14 == timer_periph){
 1737              		.loc 1 906 9 is_stmt 1 view .LVU377
 1738              		.loc 1 906 11 is_stmt 0 view .LVU378
 1739 004c 44F20003 		movw	r3, #16384
 1740 0050 C4F20103 		movt	r3, 16385
 1741 0054 9842     		cmp	r0, r3
 1742 0056 00D0     		beq	.LCB1247
 1743 0058 7DE0     		b	.L95	@long jump
 1744              	.LCB1247:
 907:Drivers/GD32E23x/Source/gd32e23x_timer.c ****             /* reset the ISO1 bit */
 908:Drivers/GD32E23x/Source/gd32e23x_timer.c ****             TIMER_CTL1(timer_periph) &= (~(uint32_t)TIMER_CTL1_ISO1);
 1745              		.loc 1 908 13 is_stmt 1 view .LVU379
 1746 005a 4368     		ldr	r3, [r0, #4]
 1747              		.loc 1 908 38 is_stmt 0 view .LVU380
 1748 005c 7349     		ldr	r1, .L105+4
 1749 005e 0B40     		ands	r3, r1
 1750 0060 4360     		str	r3, [r0, #4]
 909:Drivers/GD32E23x/Source/gd32e23x_timer.c ****             /* set the ISO1 bit */
 910:Drivers/GD32E23x/Source/gd32e23x_timer.c ****             TIMER_CTL1(timer_periph) |= (uint32_t)((uint32_t)(ocpara->ocidlestate) << 2U);
ARM GAS  D:\noval\Temp\cck0Iw0b.s 			page 47


 1751              		.loc 1 910 13 is_stmt 1 view .LVU381
 1752 0062 4368     		ldr	r3, [r0, #4]
 1753              		.loc 1 910 69 is_stmt 0 view .LVU382
 1754 0064 1289     		ldrh	r2, [r2, #8]
 1755              	.LVL87:
 1756              		.loc 1 910 41 view .LVU383
 1757 0066 9200     		lsls	r2, r2, #2
 1758              		.loc 1 910 38 view .LVU384
 1759 0068 1343     		orrs	r3, r2
 1760 006a 4360     		str	r3, [r0, #4]
 1761 006c 73E0     		b	.L95
 1762              	.LVL88:
 1763              	.L97:
 843:Drivers/GD32E23x/Source/gd32e23x_timer.c ****     /* configure TIMER_CH_0 */
 1764              		.loc 1 843 5 view .LVU385
 1765 006e 0329     		cmp	r1, #3
 1766 0070 71D1     		bne	.L95
 911:Drivers/GD32E23x/Source/gd32e23x_timer.c ****         }
 912:Drivers/GD32E23x/Source/gd32e23x_timer.c ****         
 913:Drivers/GD32E23x/Source/gd32e23x_timer.c ****         break;
 914:Drivers/GD32E23x/Source/gd32e23x_timer.c ****     /* configure TIMER_CH_2 */
 915:Drivers/GD32E23x/Source/gd32e23x_timer.c ****     case TIMER_CH_2:
 916:Drivers/GD32E23x/Source/gd32e23x_timer.c ****         /* reset the CH2EN bit */
 917:Drivers/GD32E23x/Source/gd32e23x_timer.c ****         TIMER_CHCTL2(timer_periph) &= (~(uint32_t)TIMER_CHCTL2_CH2EN);
 918:Drivers/GD32E23x/Source/gd32e23x_timer.c ****         TIMER_CHCTL1(timer_periph) &= ~(uint32_t)TIMER_CHCTL1_CH2MS;
 919:Drivers/GD32E23x/Source/gd32e23x_timer.c ****         /* set the CH2EN bit */
 920:Drivers/GD32E23x/Source/gd32e23x_timer.c ****         TIMER_CHCTL2(timer_periph) |= (uint32_t)((uint32_t)ocpara->outputstate << 8U);
 921:Drivers/GD32E23x/Source/gd32e23x_timer.c ****         /* reset the CH2P bit */
 922:Drivers/GD32E23x/Source/gd32e23x_timer.c ****         TIMER_CHCTL2(timer_periph) &= (~(uint32_t)TIMER_CHCTL2_CH2P);
 923:Drivers/GD32E23x/Source/gd32e23x_timer.c ****         /* set the CH2P bit */
 924:Drivers/GD32E23x/Source/gd32e23x_timer.c ****         TIMER_CHCTL2(timer_periph) |= (uint32_t)((uint32_t)(ocpara->ocpolarity) << 8U);
 925:Drivers/GD32E23x/Source/gd32e23x_timer.c **** 
 926:Drivers/GD32E23x/Source/gd32e23x_timer.c ****         if(TIMER0 == timer_periph){
 927:Drivers/GD32E23x/Source/gd32e23x_timer.c ****             /* reset the CH2NEN bit */
 928:Drivers/GD32E23x/Source/gd32e23x_timer.c ****             TIMER_CHCTL2(timer_periph) &= (~(uint32_t)TIMER_CHCTL2_CH2NEN);
 929:Drivers/GD32E23x/Source/gd32e23x_timer.c ****             /* set the CH2NEN bit */
 930:Drivers/GD32E23x/Source/gd32e23x_timer.c ****             TIMER_CHCTL2(timer_periph) |= (uint32_t)((uint32_t)(ocpara->outputnstate) << 8U);
 931:Drivers/GD32E23x/Source/gd32e23x_timer.c ****             /* reset the CH2NP bit */
 932:Drivers/GD32E23x/Source/gd32e23x_timer.c ****             TIMER_CHCTL2(timer_periph) &= (~(uint32_t)TIMER_CHCTL2_CH2NP);
 933:Drivers/GD32E23x/Source/gd32e23x_timer.c ****             /* set the CH2NP bit */
 934:Drivers/GD32E23x/Source/gd32e23x_timer.c ****             TIMER_CHCTL2(timer_periph) |= (uint32_t)((uint32_t)(ocpara->ocnpolarity) << 8U);
 935:Drivers/GD32E23x/Source/gd32e23x_timer.c ****             /* reset the ISO2 bit */
 936:Drivers/GD32E23x/Source/gd32e23x_timer.c ****             TIMER_CTL1(timer_periph) &= (~(uint32_t)TIMER_CTL1_ISO2);
 937:Drivers/GD32E23x/Source/gd32e23x_timer.c ****             /* set the ISO2 bit */
 938:Drivers/GD32E23x/Source/gd32e23x_timer.c ****             TIMER_CTL1(timer_periph) |= (uint32_t)((uint32_t)(ocpara->ocidlestate) << 4U);
 939:Drivers/GD32E23x/Source/gd32e23x_timer.c ****             /* reset the ISO2N bit */
 940:Drivers/GD32E23x/Source/gd32e23x_timer.c ****             TIMER_CTL1(timer_periph) &= (~(uint32_t)TIMER_CTL1_ISO2N);
 941:Drivers/GD32E23x/Source/gd32e23x_timer.c ****             /* set the ISO2N bit */
 942:Drivers/GD32E23x/Source/gd32e23x_timer.c ****             TIMER_CTL1(timer_periph) |= (uint32_t)((uint32_t)(ocpara->ocnidlestate) << 4U);
 943:Drivers/GD32E23x/Source/gd32e23x_timer.c ****         }
 944:Drivers/GD32E23x/Source/gd32e23x_timer.c ****         break;
 945:Drivers/GD32E23x/Source/gd32e23x_timer.c ****     /* configure TIMER_CH_3 */
 946:Drivers/GD32E23x/Source/gd32e23x_timer.c ****     case TIMER_CH_3:
 947:Drivers/GD32E23x/Source/gd32e23x_timer.c ****         /* reset the CH3EN bit */
 948:Drivers/GD32E23x/Source/gd32e23x_timer.c ****         TIMER_CHCTL2(timer_periph) &=(~(uint32_t)TIMER_CHCTL2_CH3EN);
 1767              		.loc 1 948 9 is_stmt 1 view .LVU386
 1768 0072 036A     		ldr	r3, [r0, #32]
ARM GAS  D:\noval\Temp\cck0Iw0b.s 			page 48


 1769              		.loc 1 948 36 is_stmt 0 view .LVU387
 1770 0074 6E49     		ldr	r1, .L105+8
 1771              	.LVL89:
 1772              		.loc 1 948 36 view .LVU388
 1773 0076 0B40     		ands	r3, r1
 1774 0078 0362     		str	r3, [r0, #32]
 949:Drivers/GD32E23x/Source/gd32e23x_timer.c ****         TIMER_CHCTL1(timer_periph) &= ~(uint32_t)TIMER_CHCTL1_CH3MS;
 1775              		.loc 1 949 9 is_stmt 1 view .LVU389
 1776 007a C369     		ldr	r3, [r0, #28]
 1777              		.loc 1 949 36 is_stmt 0 view .LVU390
 1778 007c 6A49     		ldr	r1, .L105
 1779 007e 0B40     		ands	r3, r1
 1780 0080 C361     		str	r3, [r0, #28]
 950:Drivers/GD32E23x/Source/gd32e23x_timer.c ****         /* set the CH3EN bit */
 951:Drivers/GD32E23x/Source/gd32e23x_timer.c ****         TIMER_CHCTL2(timer_periph) |= (uint32_t)((uint32_t)ocpara->outputstate << 12U);
 1781              		.loc 1 951 9 is_stmt 1 view .LVU391
 1782 0082 036A     		ldr	r3, [r0, #32]
 1783              		.loc 1 951 66 is_stmt 0 view .LVU392
 1784 0084 1188     		ldrh	r1, [r2]
 1785              		.loc 1 951 39 view .LVU393
 1786 0086 0903     		lsls	r1, r1, #12
 1787              		.loc 1 951 36 view .LVU394
 1788 0088 0B43     		orrs	r3, r1
 1789 008a 0362     		str	r3, [r0, #32]
 952:Drivers/GD32E23x/Source/gd32e23x_timer.c ****         /* reset the CH3P bit */
 953:Drivers/GD32E23x/Source/gd32e23x_timer.c ****         TIMER_CHCTL2(timer_periph) &= (~(uint32_t)TIMER_CHCTL2_CH3P);
 1790              		.loc 1 953 9 is_stmt 1 view .LVU395
 1791 008c 036A     		ldr	r3, [r0, #32]
 1792              		.loc 1 953 36 is_stmt 0 view .LVU396
 1793 008e 6949     		ldr	r1, .L105+12
 1794 0090 0B40     		ands	r3, r1
 1795 0092 0362     		str	r3, [r0, #32]
 954:Drivers/GD32E23x/Source/gd32e23x_timer.c ****         /* set the CH3P bit */
 955:Drivers/GD32E23x/Source/gd32e23x_timer.c ****         TIMER_CHCTL2(timer_periph) |= (uint32_t)((uint32_t)(ocpara->ocpolarity) << 12U);
 1796              		.loc 1 955 9 is_stmt 1 view .LVU397
 1797 0094 036A     		ldr	r3, [r0, #32]
 1798              		.loc 1 955 67 is_stmt 0 view .LVU398
 1799 0096 9188     		ldrh	r1, [r2, #4]
 1800              		.loc 1 955 39 view .LVU399
 1801 0098 0903     		lsls	r1, r1, #12
 1802              		.loc 1 955 36 view .LVU400
 1803 009a 0B43     		orrs	r3, r1
 1804 009c 0362     		str	r3, [r0, #32]
 956:Drivers/GD32E23x/Source/gd32e23x_timer.c **** 
 957:Drivers/GD32E23x/Source/gd32e23x_timer.c ****         if(TIMER0 == timer_periph){
 1805              		.loc 1 957 9 is_stmt 1 view .LVU401
 1806              		.loc 1 957 11 is_stmt 0 view .LVU402
 1807 009e 42F60043 		movw	r3, #11264
 1808 00a2 C4F20103 		movt	r3, 16385
 1809 00a6 9842     		cmp	r0, r3
 1810 00a8 55D1     		bne	.L95
 958:Drivers/GD32E23x/Source/gd32e23x_timer.c ****             /* reset the ISO3 bit */
 959:Drivers/GD32E23x/Source/gd32e23x_timer.c ****             TIMER_CTL1(timer_periph) &= (~(uint32_t)TIMER_CTL1_ISO3);
 1811              		.loc 1 959 13 is_stmt 1 view .LVU403
 1812 00aa 4368     		ldr	r3, [r0, #4]
 1813              		.loc 1 959 38 is_stmt 0 view .LVU404
 1814 00ac 6249     		ldr	r1, .L105+16
ARM GAS  D:\noval\Temp\cck0Iw0b.s 			page 49


 1815 00ae 0B40     		ands	r3, r1
 1816 00b0 4360     		str	r3, [r0, #4]
 960:Drivers/GD32E23x/Source/gd32e23x_timer.c ****             /* set the ISO3 bit */
 961:Drivers/GD32E23x/Source/gd32e23x_timer.c ****             TIMER_CTL1(timer_periph) |= (uint32_t)((uint32_t)(ocpara->ocidlestate) << 6U);
 1817              		.loc 1 961 13 is_stmt 1 view .LVU405
 1818 00b2 4368     		ldr	r3, [r0, #4]
 1819              		.loc 1 961 69 is_stmt 0 view .LVU406
 1820 00b4 1289     		ldrh	r2, [r2, #8]
 1821              	.LVL90:
 1822              		.loc 1 961 41 view .LVU407
 1823 00b6 9201     		lsls	r2, r2, #6
 1824              		.loc 1 961 38 view .LVU408
 1825 00b8 1343     		orrs	r3, r2
 1826 00ba 4360     		str	r3, [r0, #4]
 962:Drivers/GD32E23x/Source/gd32e23x_timer.c ****         }
 963:Drivers/GD32E23x/Source/gd32e23x_timer.c ****         break;
 964:Drivers/GD32E23x/Source/gd32e23x_timer.c ****     default:
 965:Drivers/GD32E23x/Source/gd32e23x_timer.c ****         break;
 966:Drivers/GD32E23x/Source/gd32e23x_timer.c ****     }
 967:Drivers/GD32E23x/Source/gd32e23x_timer.c **** }
 1827              		.loc 1 967 1 view .LVU409
 1828 00bc 4BE0     		b	.L95
 1829              	.LVL91:
 1830              	.L98:
 847:Drivers/GD32E23x/Source/gd32e23x_timer.c ****         TIMER_CHCTL0(timer_periph) &= ~(uint32_t)TIMER_CHCTL0_CH0MS;
 1831              		.loc 1 847 9 is_stmt 1 view .LVU410
 1832 00be 036A     		ldr	r3, [r0, #32]
 847:Drivers/GD32E23x/Source/gd32e23x_timer.c ****         TIMER_CHCTL0(timer_periph) &= ~(uint32_t)TIMER_CHCTL0_CH0MS;
 1833              		.loc 1 847 36 is_stmt 0 view .LVU411
 1834 00c0 0121     		movs	r1, #1
 1835              	.LVL92:
 847:Drivers/GD32E23x/Source/gd32e23x_timer.c ****         TIMER_CHCTL0(timer_periph) &= ~(uint32_t)TIMER_CHCTL0_CH0MS;
 1836              		.loc 1 847 36 view .LVU412
 1837 00c2 8B43     		bics	r3, r1
 1838 00c4 0362     		str	r3, [r0, #32]
 848:Drivers/GD32E23x/Source/gd32e23x_timer.c ****         /* set the CH0EN bit */
 1839              		.loc 1 848 9 is_stmt 1 view .LVU413
 1840 00c6 8369     		ldr	r3, [r0, #24]
 848:Drivers/GD32E23x/Source/gd32e23x_timer.c ****         /* set the CH0EN bit */
 1841              		.loc 1 848 36 is_stmt 0 view .LVU414
 1842 00c8 0231     		adds	r1, r1, #2
 1843 00ca 8B43     		bics	r3, r1
 1844 00cc 8361     		str	r3, [r0, #24]
 850:Drivers/GD32E23x/Source/gd32e23x_timer.c ****         /* reset the CH0P bit */
 1845              		.loc 1 850 9 is_stmt 1 view .LVU415
 1846 00ce 036A     		ldr	r3, [r0, #32]
 850:Drivers/GD32E23x/Source/gd32e23x_timer.c ****         /* reset the CH0P bit */
 1847              		.loc 1 850 55 is_stmt 0 view .LVU416
 1848 00d0 1188     		ldrh	r1, [r2]
 850:Drivers/GD32E23x/Source/gd32e23x_timer.c ****         /* reset the CH0P bit */
 1849              		.loc 1 850 36 view .LVU417
 1850 00d2 0B43     		orrs	r3, r1
 1851 00d4 0362     		str	r3, [r0, #32]
 852:Drivers/GD32E23x/Source/gd32e23x_timer.c ****         /* set the CH0P bit */
 1852              		.loc 1 852 9 is_stmt 1 view .LVU418
 1853 00d6 036A     		ldr	r3, [r0, #32]
 852:Drivers/GD32E23x/Source/gd32e23x_timer.c ****         /* set the CH0P bit */
ARM GAS  D:\noval\Temp\cck0Iw0b.s 			page 50


 1854              		.loc 1 852 36 is_stmt 0 view .LVU419
 1855 00d8 0221     		movs	r1, #2
 1856 00da 8B43     		bics	r3, r1
 1857 00dc 0362     		str	r3, [r0, #32]
 854:Drivers/GD32E23x/Source/gd32e23x_timer.c **** 
 1858              		.loc 1 854 9 is_stmt 1 view .LVU420
 1859 00de 036A     		ldr	r3, [r0, #32]
 854:Drivers/GD32E23x/Source/gd32e23x_timer.c **** 
 1860              		.loc 1 854 55 is_stmt 0 view .LVU421
 1861 00e0 9188     		ldrh	r1, [r2, #4]
 854:Drivers/GD32E23x/Source/gd32e23x_timer.c **** 
 1862              		.loc 1 854 36 view .LVU422
 1863 00e2 0B43     		orrs	r3, r1
 1864 00e4 0362     		str	r3, [r0, #32]
 856:Drivers/GD32E23x/Source/gd32e23x_timer.c ****             /* reset the CH0NEN bit */
 1865              		.loc 1 856 9 is_stmt 1 view .LVU423
 856:Drivers/GD32E23x/Source/gd32e23x_timer.c ****             /* reset the CH0NEN bit */
 1866              		.loc 1 856 11 is_stmt 0 view .LVU424
 1867 00e6 42F60043 		movw	r3, #11264
 1868 00ea C4F20103 		movt	r3, 16385
 1869 00ee 9842     		cmp	r0, r3
 1870 00f0 11D0     		beq	.L102
 856:Drivers/GD32E23x/Source/gd32e23x_timer.c ****             /* reset the CH0NEN bit */
 1871              		.loc 1 856 37 discriminator 1 view .LVU425
 1872 00f2 44F20003 		movw	r3, #16384
 1873 00f6 C4F20103 		movt	r3, 16385
 1874 00fa 9842     		cmp	r0, r3
 1875 00fc 0BD0     		beq	.L102
 856:Drivers/GD32E23x/Source/gd32e23x_timer.c ****             /* reset the CH0NEN bit */
 1876              		.loc 1 856 66 discriminator 2 view .LVU426
 1877 00fe 44F20043 		movw	r3, #17408
 1878 0102 C4F20103 		movt	r3, 16385
 1879 0106 9842     		cmp	r0, r3
 1880 0108 05D0     		beq	.L102
 856:Drivers/GD32E23x/Source/gd32e23x_timer.c ****             /* reset the CH0NEN bit */
 1881              		.loc 1 856 95 discriminator 3 view .LVU427
 1882 010a 44F60003 		movw	r3, #18432
 1883 010e C4F20103 		movt	r3, 16385
 1884 0112 9842     		cmp	r0, r3
 1885 0114 1FD1     		bne	.L95
 1886              	.L102:
 858:Drivers/GD32E23x/Source/gd32e23x_timer.c ****             /* set the CH0NEN bit */
 1887              		.loc 1 858 13 is_stmt 1 view .LVU428
 1888 0116 036A     		ldr	r3, [r0, #32]
 858:Drivers/GD32E23x/Source/gd32e23x_timer.c ****             /* set the CH0NEN bit */
 1889              		.loc 1 858 40 is_stmt 0 view .LVU429
 1890 0118 0421     		movs	r1, #4
 1891 011a 8B43     		bics	r3, r1
 1892 011c 0362     		str	r3, [r0, #32]
 860:Drivers/GD32E23x/Source/gd32e23x_timer.c ****             /* reset the CH0NP bit */
 1893              		.loc 1 860 13 is_stmt 1 view .LVU430
 1894 011e 036A     		ldr	r3, [r0, #32]
 860:Drivers/GD32E23x/Source/gd32e23x_timer.c ****             /* reset the CH0NP bit */
 1895              		.loc 1 860 59 is_stmt 0 view .LVU431
 1896 0120 5188     		ldrh	r1, [r2, #2]
 860:Drivers/GD32E23x/Source/gd32e23x_timer.c ****             /* reset the CH0NP bit */
 1897              		.loc 1 860 40 view .LVU432
ARM GAS  D:\noval\Temp\cck0Iw0b.s 			page 51


 1898 0122 0B43     		orrs	r3, r1
 1899 0124 0362     		str	r3, [r0, #32]
 862:Drivers/GD32E23x/Source/gd32e23x_timer.c ****             /* set the CH0NP bit */
 1900              		.loc 1 862 13 is_stmt 1 view .LVU433
 1901 0126 036A     		ldr	r3, [r0, #32]
 862:Drivers/GD32E23x/Source/gd32e23x_timer.c ****             /* set the CH0NP bit */
 1902              		.loc 1 862 40 is_stmt 0 view .LVU434
 1903 0128 0821     		movs	r1, #8
 1904 012a 8B43     		bics	r3, r1
 1905 012c 0362     		str	r3, [r0, #32]
 864:Drivers/GD32E23x/Source/gd32e23x_timer.c ****             /* reset the ISO0 bit */
 1906              		.loc 1 864 13 is_stmt 1 view .LVU435
 1907 012e 036A     		ldr	r3, [r0, #32]
 864:Drivers/GD32E23x/Source/gd32e23x_timer.c ****             /* reset the ISO0 bit */
 1908              		.loc 1 864 59 is_stmt 0 view .LVU436
 1909 0130 D188     		ldrh	r1, [r2, #6]
 864:Drivers/GD32E23x/Source/gd32e23x_timer.c ****             /* reset the ISO0 bit */
 1910              		.loc 1 864 40 view .LVU437
 1911 0132 0B43     		orrs	r3, r1
 1912 0134 0362     		str	r3, [r0, #32]
 866:Drivers/GD32E23x/Source/gd32e23x_timer.c ****             /* set the ISO0 bit */
 1913              		.loc 1 866 13 is_stmt 1 view .LVU438
 1914 0136 4368     		ldr	r3, [r0, #4]
 866:Drivers/GD32E23x/Source/gd32e23x_timer.c ****             /* set the ISO0 bit */
 1915              		.loc 1 866 38 is_stmt 0 view .LVU439
 1916 0138 4049     		ldr	r1, .L105+20
 1917 013a 0B40     		ands	r3, r1
 1918 013c 4360     		str	r3, [r0, #4]
 868:Drivers/GD32E23x/Source/gd32e23x_timer.c ****             /* reset the ISO0N bit */
 1919              		.loc 1 868 13 is_stmt 1 view .LVU440
 1920 013e 4368     		ldr	r3, [r0, #4]
 868:Drivers/GD32E23x/Source/gd32e23x_timer.c ****             /* reset the ISO0N bit */
 1921              		.loc 1 868 57 is_stmt 0 view .LVU441
 1922 0140 1189     		ldrh	r1, [r2, #8]
 868:Drivers/GD32E23x/Source/gd32e23x_timer.c ****             /* reset the ISO0N bit */
 1923              		.loc 1 868 38 view .LVU442
 1924 0142 0B43     		orrs	r3, r1
 1925 0144 4360     		str	r3, [r0, #4]
 870:Drivers/GD32E23x/Source/gd32e23x_timer.c ****             /* set the ISO0N bit */
 1926              		.loc 1 870 13 is_stmt 1 view .LVU443
 1927 0146 4368     		ldr	r3, [r0, #4]
 870:Drivers/GD32E23x/Source/gd32e23x_timer.c ****             /* set the ISO0N bit */
 1928              		.loc 1 870 38 is_stmt 0 view .LVU444
 1929 0148 3D49     		ldr	r1, .L105+24
 1930 014a 0B40     		ands	r3, r1
 1931 014c 4360     		str	r3, [r0, #4]
 872:Drivers/GD32E23x/Source/gd32e23x_timer.c ****         }
 1932              		.loc 1 872 13 is_stmt 1 view .LVU445
 1933 014e 4368     		ldr	r3, [r0, #4]
 872:Drivers/GD32E23x/Source/gd32e23x_timer.c ****         }
 1934              		.loc 1 872 57 is_stmt 0 view .LVU446
 1935 0150 5289     		ldrh	r2, [r2, #10]
 1936              	.LVL93:
 872:Drivers/GD32E23x/Source/gd32e23x_timer.c ****         }
 1937              		.loc 1 872 38 view .LVU447
 1938 0152 1343     		orrs	r3, r2
 1939 0154 4360     		str	r3, [r0, #4]
ARM GAS  D:\noval\Temp\cck0Iw0b.s 			page 52


 1940              	.L95:
 1941              		.loc 1 967 1 view .LVU448
 1942              		@ sp needed
 1943 0156 7047     		bx	lr
 1944              	.LVL94:
 1945              	.L104:
 889:Drivers/GD32E23x/Source/gd32e23x_timer.c ****             /* set the CH1NEN bit */
 1946              		.loc 1 889 13 is_stmt 1 view .LVU449
 1947 0158 036A     		ldr	r3, [r0, #32]
 889:Drivers/GD32E23x/Source/gd32e23x_timer.c ****             /* set the CH1NEN bit */
 1948              		.loc 1 889 40 is_stmt 0 view .LVU450
 1949 015a 4021     		movs	r1, #64
 1950 015c 8B43     		bics	r3, r1
 1951 015e 0362     		str	r3, [r0, #32]
 891:Drivers/GD32E23x/Source/gd32e23x_timer.c ****             /* reset the CH1NP bit */
 1952              		.loc 1 891 13 is_stmt 1 view .LVU451
 1953 0160 036A     		ldr	r3, [r0, #32]
 891:Drivers/GD32E23x/Source/gd32e23x_timer.c ****             /* reset the CH1NP bit */
 1954              		.loc 1 891 71 is_stmt 0 view .LVU452
 1955 0162 5188     		ldrh	r1, [r2, #2]
 891:Drivers/GD32E23x/Source/gd32e23x_timer.c ****             /* reset the CH1NP bit */
 1956              		.loc 1 891 43 view .LVU453
 1957 0164 0901     		lsls	r1, r1, #4
 891:Drivers/GD32E23x/Source/gd32e23x_timer.c ****             /* reset the CH1NP bit */
 1958              		.loc 1 891 40 view .LVU454
 1959 0166 0B43     		orrs	r3, r1
 1960 0168 0362     		str	r3, [r0, #32]
 893:Drivers/GD32E23x/Source/gd32e23x_timer.c ****             /* set the CH1NP bit */
 1961              		.loc 1 893 13 is_stmt 1 view .LVU455
 1962 016a 036A     		ldr	r3, [r0, #32]
 893:Drivers/GD32E23x/Source/gd32e23x_timer.c ****             /* set the CH1NP bit */
 1963              		.loc 1 893 40 is_stmt 0 view .LVU456
 1964 016c 8021     		movs	r1, #128
 1965 016e 8B43     		bics	r3, r1
 1966 0170 0362     		str	r3, [r0, #32]
 895:Drivers/GD32E23x/Source/gd32e23x_timer.c ****             /* reset the ISO1 bit */
 1967              		.loc 1 895 13 is_stmt 1 view .LVU457
 1968 0172 036A     		ldr	r3, [r0, #32]
 895:Drivers/GD32E23x/Source/gd32e23x_timer.c ****             /* reset the ISO1 bit */
 1969              		.loc 1 895 71 is_stmt 0 view .LVU458
 1970 0174 D188     		ldrh	r1, [r2, #6]
 895:Drivers/GD32E23x/Source/gd32e23x_timer.c ****             /* reset the ISO1 bit */
 1971              		.loc 1 895 43 view .LVU459
 1972 0176 0901     		lsls	r1, r1, #4
 895:Drivers/GD32E23x/Source/gd32e23x_timer.c ****             /* reset the ISO1 bit */
 1973              		.loc 1 895 40 view .LVU460
 1974 0178 0B43     		orrs	r3, r1
 1975 017a 0362     		str	r3, [r0, #32]
 897:Drivers/GD32E23x/Source/gd32e23x_timer.c ****             /* set the ISO1 bit */
 1976              		.loc 1 897 13 is_stmt 1 view .LVU461
 1977 017c 4368     		ldr	r3, [r0, #4]
 897:Drivers/GD32E23x/Source/gd32e23x_timer.c ****             /* set the ISO1 bit */
 1978              		.loc 1 897 38 is_stmt 0 view .LVU462
 1979 017e 2B49     		ldr	r1, .L105+4
 1980 0180 0B40     		ands	r3, r1
 1981 0182 4360     		str	r3, [r0, #4]
 899:Drivers/GD32E23x/Source/gd32e23x_timer.c ****             /* reset the ISO1N bit */
ARM GAS  D:\noval\Temp\cck0Iw0b.s 			page 53


 1982              		.loc 1 899 13 is_stmt 1 view .LVU463
 1983 0184 4368     		ldr	r3, [r0, #4]
 899:Drivers/GD32E23x/Source/gd32e23x_timer.c ****             /* reset the ISO1N bit */
 1984              		.loc 1 899 69 is_stmt 0 view .LVU464
 1985 0186 1189     		ldrh	r1, [r2, #8]
 899:Drivers/GD32E23x/Source/gd32e23x_timer.c ****             /* reset the ISO1N bit */
 1986              		.loc 1 899 41 view .LVU465
 1987 0188 8900     		lsls	r1, r1, #2
 899:Drivers/GD32E23x/Source/gd32e23x_timer.c ****             /* reset the ISO1N bit */
 1988              		.loc 1 899 38 view .LVU466
 1989 018a 0B43     		orrs	r3, r1
 1990 018c 4360     		str	r3, [r0, #4]
 901:Drivers/GD32E23x/Source/gd32e23x_timer.c ****             /* set the ISO1N bit */
 1991              		.loc 1 901 13 is_stmt 1 view .LVU467
 1992 018e 4368     		ldr	r3, [r0, #4]
 901:Drivers/GD32E23x/Source/gd32e23x_timer.c ****             /* set the ISO1N bit */
 1993              		.loc 1 901 38 is_stmt 0 view .LVU468
 1994 0190 2C49     		ldr	r1, .L105+28
 1995 0192 0B40     		ands	r3, r1
 1996 0194 4360     		str	r3, [r0, #4]
 903:Drivers/GD32E23x/Source/gd32e23x_timer.c ****         }
 1997              		.loc 1 903 13 is_stmt 1 view .LVU469
 1998 0196 4368     		ldr	r3, [r0, #4]
 903:Drivers/GD32E23x/Source/gd32e23x_timer.c ****         }
 1999              		.loc 1 903 69 is_stmt 0 view .LVU470
 2000 0198 5189     		ldrh	r1, [r2, #10]
 903:Drivers/GD32E23x/Source/gd32e23x_timer.c ****         }
 2001              		.loc 1 903 41 view .LVU471
 2002 019a 8900     		lsls	r1, r1, #2
 903:Drivers/GD32E23x/Source/gd32e23x_timer.c ****         }
 2003              		.loc 1 903 38 view .LVU472
 2004 019c 0B43     		orrs	r3, r1
 2005 019e 4360     		str	r3, [r0, #4]
 2006 01a0 54E7     		b	.L103
 2007              	.LVL95:
 2008              	.L96:
 917:Drivers/GD32E23x/Source/gd32e23x_timer.c ****         TIMER_CHCTL1(timer_periph) &= ~(uint32_t)TIMER_CHCTL1_CH2MS;
 2009              		.loc 1 917 9 is_stmt 1 view .LVU473
 2010 01a2 036A     		ldr	r3, [r0, #32]
 917:Drivers/GD32E23x/Source/gd32e23x_timer.c ****         TIMER_CHCTL1(timer_periph) &= ~(uint32_t)TIMER_CHCTL1_CH2MS;
 2011              		.loc 1 917 36 is_stmt 0 view .LVU474
 2012 01a4 2549     		ldr	r1, .L105+20
 2013              	.LVL96:
 917:Drivers/GD32E23x/Source/gd32e23x_timer.c ****         TIMER_CHCTL1(timer_periph) &= ~(uint32_t)TIMER_CHCTL1_CH2MS;
 2014              		.loc 1 917 36 view .LVU475
 2015 01a6 0B40     		ands	r3, r1
 2016 01a8 0362     		str	r3, [r0, #32]
 918:Drivers/GD32E23x/Source/gd32e23x_timer.c ****         /* set the CH2EN bit */
 2017              		.loc 1 918 9 is_stmt 1 view .LVU476
 2018 01aa C369     		ldr	r3, [r0, #28]
 918:Drivers/GD32E23x/Source/gd32e23x_timer.c ****         /* set the CH2EN bit */
 2019              		.loc 1 918 36 is_stmt 0 view .LVU477
 2020 01ac 0531     		adds	r1, r1, #5
 2021 01ae FF31     		adds	r1, r1, #255
 2022 01b0 8B43     		bics	r3, r1
 2023 01b2 C361     		str	r3, [r0, #28]
 920:Drivers/GD32E23x/Source/gd32e23x_timer.c ****         /* reset the CH2P bit */
ARM GAS  D:\noval\Temp\cck0Iw0b.s 			page 54


 2024              		.loc 1 920 9 is_stmt 1 view .LVU478
 2025 01b4 036A     		ldr	r3, [r0, #32]
 920:Drivers/GD32E23x/Source/gd32e23x_timer.c ****         /* reset the CH2P bit */
 2026              		.loc 1 920 66 is_stmt 0 view .LVU479
 2027 01b6 1188     		ldrh	r1, [r2]
 920:Drivers/GD32E23x/Source/gd32e23x_timer.c ****         /* reset the CH2P bit */
 2028              		.loc 1 920 39 view .LVU480
 2029 01b8 0902     		lsls	r1, r1, #8
 920:Drivers/GD32E23x/Source/gd32e23x_timer.c ****         /* reset the CH2P bit */
 2030              		.loc 1 920 36 view .LVU481
 2031 01ba 0B43     		orrs	r3, r1
 2032 01bc 0362     		str	r3, [r0, #32]
 922:Drivers/GD32E23x/Source/gd32e23x_timer.c ****         /* set the CH2P bit */
 2033              		.loc 1 922 9 is_stmt 1 view .LVU482
 2034 01be 036A     		ldr	r3, [r0, #32]
 922:Drivers/GD32E23x/Source/gd32e23x_timer.c ****         /* set the CH2P bit */
 2035              		.loc 1 922 36 is_stmt 0 view .LVU483
 2036 01c0 1F49     		ldr	r1, .L105+24
 2037 01c2 0B40     		ands	r3, r1
 2038 01c4 0362     		str	r3, [r0, #32]
 924:Drivers/GD32E23x/Source/gd32e23x_timer.c **** 
 2039              		.loc 1 924 9 is_stmt 1 view .LVU484
 2040 01c6 036A     		ldr	r3, [r0, #32]
 924:Drivers/GD32E23x/Source/gd32e23x_timer.c **** 
 2041              		.loc 1 924 67 is_stmt 0 view .LVU485
 2042 01c8 9188     		ldrh	r1, [r2, #4]
 924:Drivers/GD32E23x/Source/gd32e23x_timer.c **** 
 2043              		.loc 1 924 39 view .LVU486
 2044 01ca 0902     		lsls	r1, r1, #8
 924:Drivers/GD32E23x/Source/gd32e23x_timer.c **** 
 2045              		.loc 1 924 36 view .LVU487
 2046 01cc 0B43     		orrs	r3, r1
 2047 01ce 0362     		str	r3, [r0, #32]
 926:Drivers/GD32E23x/Source/gd32e23x_timer.c ****             /* reset the CH2NEN bit */
 2048              		.loc 1 926 9 is_stmt 1 view .LVU488
 926:Drivers/GD32E23x/Source/gd32e23x_timer.c ****             /* reset the CH2NEN bit */
 2049              		.loc 1 926 11 is_stmt 0 view .LVU489
 2050 01d0 42F60043 		movw	r3, #11264
 2051 01d4 C4F20103 		movt	r3, 16385
 2052 01d8 9842     		cmp	r0, r3
 2053 01da BCD1     		bne	.L95
 928:Drivers/GD32E23x/Source/gd32e23x_timer.c ****             /* set the CH2NEN bit */
 2054              		.loc 1 928 13 is_stmt 1 view .LVU490
 2055 01dc 036A     		ldr	r3, [r0, #32]
 928:Drivers/GD32E23x/Source/gd32e23x_timer.c ****             /* set the CH2NEN bit */
 2056              		.loc 1 928 40 is_stmt 0 view .LVU491
 2057 01de 1349     		ldr	r1, .L105+4
 2058 01e0 0B40     		ands	r3, r1
 2059 01e2 0362     		str	r3, [r0, #32]
 930:Drivers/GD32E23x/Source/gd32e23x_timer.c ****             /* reset the CH2NP bit */
 2060              		.loc 1 930 13 is_stmt 1 view .LVU492
 2061 01e4 036A     		ldr	r3, [r0, #32]
 930:Drivers/GD32E23x/Source/gd32e23x_timer.c ****             /* reset the CH2NP bit */
 2062              		.loc 1 930 71 is_stmt 0 view .LVU493
 2063 01e6 5188     		ldrh	r1, [r2, #2]
 930:Drivers/GD32E23x/Source/gd32e23x_timer.c ****             /* reset the CH2NP bit */
 2064              		.loc 1 930 43 view .LVU494
ARM GAS  D:\noval\Temp\cck0Iw0b.s 			page 55


 2065 01e8 0902     		lsls	r1, r1, #8
 930:Drivers/GD32E23x/Source/gd32e23x_timer.c ****             /* reset the CH2NP bit */
 2066              		.loc 1 930 40 view .LVU495
 2067 01ea 0B43     		orrs	r3, r1
 2068 01ec 0362     		str	r3, [r0, #32]
 932:Drivers/GD32E23x/Source/gd32e23x_timer.c ****             /* set the CH2NP bit */
 2069              		.loc 1 932 13 is_stmt 1 view .LVU496
 2070 01ee 036A     		ldr	r3, [r0, #32]
 932:Drivers/GD32E23x/Source/gd32e23x_timer.c ****             /* set the CH2NP bit */
 2071              		.loc 1 932 40 is_stmt 0 view .LVU497
 2072 01f0 1449     		ldr	r1, .L105+28
 2073 01f2 0B40     		ands	r3, r1
 2074 01f4 0362     		str	r3, [r0, #32]
 934:Drivers/GD32E23x/Source/gd32e23x_timer.c ****             /* reset the ISO2 bit */
 2075              		.loc 1 934 13 is_stmt 1 view .LVU498
 2076 01f6 036A     		ldr	r3, [r0, #32]
 934:Drivers/GD32E23x/Source/gd32e23x_timer.c ****             /* reset the ISO2 bit */
 2077              		.loc 1 934 71 is_stmt 0 view .LVU499
 2078 01f8 D188     		ldrh	r1, [r2, #6]
 934:Drivers/GD32E23x/Source/gd32e23x_timer.c ****             /* reset the ISO2 bit */
 2079              		.loc 1 934 43 view .LVU500
 2080 01fa 0902     		lsls	r1, r1, #8
 934:Drivers/GD32E23x/Source/gd32e23x_timer.c ****             /* reset the ISO2 bit */
 2081              		.loc 1 934 40 view .LVU501
 2082 01fc 0B43     		orrs	r3, r1
 2083 01fe 0362     		str	r3, [r0, #32]
 936:Drivers/GD32E23x/Source/gd32e23x_timer.c ****             /* set the ISO2 bit */
 2084              		.loc 1 936 13 is_stmt 1 view .LVU502
 2085 0200 4368     		ldr	r3, [r0, #4]
 936:Drivers/GD32E23x/Source/gd32e23x_timer.c ****             /* set the ISO2 bit */
 2086              		.loc 1 936 38 is_stmt 0 view .LVU503
 2087 0202 0B49     		ldr	r1, .L105+8
 2088 0204 0B40     		ands	r3, r1
 2089 0206 4360     		str	r3, [r0, #4]
 938:Drivers/GD32E23x/Source/gd32e23x_timer.c ****             /* reset the ISO2N bit */
 2090              		.loc 1 938 13 is_stmt 1 view .LVU504
 2091 0208 4368     		ldr	r3, [r0, #4]
 938:Drivers/GD32E23x/Source/gd32e23x_timer.c ****             /* reset the ISO2N bit */
 2092              		.loc 1 938 69 is_stmt 0 view .LVU505
 2093 020a 1189     		ldrh	r1, [r2, #8]
 938:Drivers/GD32E23x/Source/gd32e23x_timer.c ****             /* reset the ISO2N bit */
 2094              		.loc 1 938 41 view .LVU506
 2095 020c 0901     		lsls	r1, r1, #4
 938:Drivers/GD32E23x/Source/gd32e23x_timer.c ****             /* reset the ISO2N bit */
 2096              		.loc 1 938 38 view .LVU507
 2097 020e 0B43     		orrs	r3, r1
 2098 0210 4360     		str	r3, [r0, #4]
 940:Drivers/GD32E23x/Source/gd32e23x_timer.c ****             /* set the ISO2N bit */
 2099              		.loc 1 940 13 is_stmt 1 view .LVU508
 2100 0212 4368     		ldr	r3, [r0, #4]
 940:Drivers/GD32E23x/Source/gd32e23x_timer.c ****             /* set the ISO2N bit */
 2101              		.loc 1 940 38 is_stmt 0 view .LVU509
 2102 0214 0749     		ldr	r1, .L105+12
 2103 0216 0B40     		ands	r3, r1
 2104 0218 4360     		str	r3, [r0, #4]
 942:Drivers/GD32E23x/Source/gd32e23x_timer.c ****         }
 2105              		.loc 1 942 13 is_stmt 1 view .LVU510
ARM GAS  D:\noval\Temp\cck0Iw0b.s 			page 56


 2106 021a 4368     		ldr	r3, [r0, #4]
 942:Drivers/GD32E23x/Source/gd32e23x_timer.c ****         }
 2107              		.loc 1 942 69 is_stmt 0 view .LVU511
 2108 021c 5289     		ldrh	r2, [r2, #10]
 2109              	.LVL97:
 942:Drivers/GD32E23x/Source/gd32e23x_timer.c ****         }
 2110              		.loc 1 942 41 view .LVU512
 2111 021e 1201     		lsls	r2, r2, #4
 942:Drivers/GD32E23x/Source/gd32e23x_timer.c ****         }
 2112              		.loc 1 942 38 view .LVU513
 2113 0220 1343     		orrs	r3, r2
 2114 0222 4360     		str	r3, [r0, #4]
 2115 0224 97E7     		b	.L95
 2116              	.L106:
 2117 0226 C046     		.align	2
 2118              	.L105:
 2119 0228 FFFCFFFF 		.word	-769
 2120 022c FFFBFFFF 		.word	-1025
 2121 0230 FFEFFFFF 		.word	-4097
 2122 0234 FFDFFFFF 		.word	-8193
 2123 0238 FFBFFFFF 		.word	-16385
 2124 023c FFFEFFFF 		.word	-257
 2125 0240 FFFDFFFF 		.word	-513
 2126 0244 FFF7FFFF 		.word	-2049
 2127              		.cfi_endproc
 2128              	.LFE102:
 2130              		.section	.text.timer_channel_output_mode_config,"ax",%progbits
 2131              		.align	1
 2132              		.global	timer_channel_output_mode_config
 2133              		.syntax unified
 2134              		.code	16
 2135              		.thumb_func
 2137              	timer_channel_output_mode_config:
 2138              	.LVL98:
 2139              	.LFB103:
 968:Drivers/GD32E23x/Source/gd32e23x_timer.c **** 
 969:Drivers/GD32E23x/Source/gd32e23x_timer.c **** /*!
 970:Drivers/GD32E23x/Source/gd32e23x_timer.c ****     \brief      configure TIMER channel output compare mode
 971:Drivers/GD32E23x/Source/gd32e23x_timer.c ****     \param[in]  timer_periph: please refer to the following parameters
 972:Drivers/GD32E23x/Source/gd32e23x_timer.c ****     \param[in]  channel:
 973:Drivers/GD32E23x/Source/gd32e23x_timer.c ****                 only one parameter can be selected which is shown as below:
 974:Drivers/GD32E23x/Source/gd32e23x_timer.c ****       \arg        TIMER_CH_0: TIMER channel0(TIMERx(x=0,2,13..16))
 975:Drivers/GD32E23x/Source/gd32e23x_timer.c ****       \arg        TIMER_CH_1: TIMER channel1(TIMERx(x=0,2,14))
 976:Drivers/GD32E23x/Source/gd32e23x_timer.c ****       \arg        TIMER_CH_2: TIMER channel2(TIMERx(x=0,2))
 977:Drivers/GD32E23x/Source/gd32e23x_timer.c ****       \arg        TIMER_CH_3: TIMER channel3(TIMERx(x=0,2))
 978:Drivers/GD32E23x/Source/gd32e23x_timer.c ****     \param[in]  ocmode: channel output compare mode
 979:Drivers/GD32E23x/Source/gd32e23x_timer.c ****                 only one parameter can be selected which is shown as below:
 980:Drivers/GD32E23x/Source/gd32e23x_timer.c ****       \arg        TIMER_OC_MODE_TIMING: timing mode
 981:Drivers/GD32E23x/Source/gd32e23x_timer.c ****       \arg        TIMER_OC_MODE_ACTIVE: active mode
 982:Drivers/GD32E23x/Source/gd32e23x_timer.c ****       \arg        TIMER_OC_MODE_INACTIVE: inactive mode
 983:Drivers/GD32E23x/Source/gd32e23x_timer.c ****       \arg        TIMER_OC_MODE_TOGGLE: toggle mode
 984:Drivers/GD32E23x/Source/gd32e23x_timer.c ****       \arg        TIMER_OC_MODE_LOW: force low mode
 985:Drivers/GD32E23x/Source/gd32e23x_timer.c ****       \arg        TIMER_OC_MODE_HIGH: force high mode
 986:Drivers/GD32E23x/Source/gd32e23x_timer.c ****       \arg        TIMER_OC_MODE_PWM0: PWM0 mode
 987:Drivers/GD32E23x/Source/gd32e23x_timer.c ****       \arg        TIMER_OC_MODE_PWM1: PWM1 mode
 988:Drivers/GD32E23x/Source/gd32e23x_timer.c ****     \param[out] none
 989:Drivers/GD32E23x/Source/gd32e23x_timer.c ****     \retval     none
ARM GAS  D:\noval\Temp\cck0Iw0b.s 			page 57


 990:Drivers/GD32E23x/Source/gd32e23x_timer.c **** */
 991:Drivers/GD32E23x/Source/gd32e23x_timer.c **** void timer_channel_output_mode_config(uint32_t timer_periph, uint16_t channel, uint16_t ocmode)
 992:Drivers/GD32E23x/Source/gd32e23x_timer.c **** {
 2140              		.loc 1 992 1 is_stmt 1 view -0
 2141              		.cfi_startproc
 2142              		@ args = 0, pretend = 0, frame = 0
 2143              		@ frame_needed = 0, uses_anonymous_args = 0
 2144              		@ link register save eliminated.
 993:Drivers/GD32E23x/Source/gd32e23x_timer.c ****     switch(channel){
 2145              		.loc 1 993 5 view .LVU515
 2146 0000 0229     		cmp	r1, #2
 2147 0002 1FD0     		beq	.L108
 2148 0004 0BD8     		bhi	.L109
 2149 0006 A9B1     		cbz	r1, .L110
 2150 0008 0129     		cmp	r1, #1
 2151 000a 1AD1     		bne	.L107
 994:Drivers/GD32E23x/Source/gd32e23x_timer.c ****     /* configure TIMER_CH_0 */
 995:Drivers/GD32E23x/Source/gd32e23x_timer.c ****     case TIMER_CH_0:
 996:Drivers/GD32E23x/Source/gd32e23x_timer.c ****         TIMER_CHCTL0(timer_periph) &= (~(uint32_t)TIMER_CHCTL0_CH0COMCTL);
 997:Drivers/GD32E23x/Source/gd32e23x_timer.c ****         TIMER_CHCTL0(timer_periph) |= (uint32_t)ocmode;
 998:Drivers/GD32E23x/Source/gd32e23x_timer.c ****         break;
 999:Drivers/GD32E23x/Source/gd32e23x_timer.c ****     /* configure TIMER_CH_1 */
1000:Drivers/GD32E23x/Source/gd32e23x_timer.c ****     case TIMER_CH_1:
1001:Drivers/GD32E23x/Source/gd32e23x_timer.c ****         TIMER_CHCTL0(timer_periph) &= (~(uint32_t)TIMER_CHCTL0_CH1COMCTL);
 2152              		.loc 1 1001 9 view .LVU516
 2153 000c 8369     		ldr	r3, [r0, #24]
 2154              		.loc 1 1001 36 is_stmt 0 view .LVU517
 2155 000e 1149     		ldr	r1, .L114
 2156              	.LVL99:
 2157              		.loc 1 1001 36 view .LVU518
 2158 0010 0B40     		ands	r3, r1
 2159 0012 8361     		str	r3, [r0, #24]
1002:Drivers/GD32E23x/Source/gd32e23x_timer.c ****         TIMER_CHCTL0(timer_periph) |= (uint32_t)((uint32_t)(ocmode) << 8U);
 2160              		.loc 1 1002 9 is_stmt 1 view .LVU519
 2161 0014 8369     		ldr	r3, [r0, #24]
 2162              		.loc 1 1002 39 is_stmt 0 view .LVU520
 2163 0016 1202     		lsls	r2, r2, #8
 2164              	.LVL100:
 2165              		.loc 1 1002 36 view .LVU521
 2166 0018 1A43     		orrs	r2, r3
 2167 001a 8261     		str	r2, [r0, #24]
1003:Drivers/GD32E23x/Source/gd32e23x_timer.c ****         break;
 2168              		.loc 1 1003 9 is_stmt 1 view .LVU522
 2169 001c 11E0     		b	.L107
 2170              	.LVL101:
 2171              	.L109:
 993:Drivers/GD32E23x/Source/gd32e23x_timer.c ****     /* configure TIMER_CH_0 */
 2172              		.loc 1 993 5 is_stmt 0 view .LVU523
 2173 001e 0329     		cmp	r1, #3
 2174 0020 0FD1     		bne	.L107
1004:Drivers/GD32E23x/Source/gd32e23x_timer.c ****     /* configure TIMER_CH_2 */
1005:Drivers/GD32E23x/Source/gd32e23x_timer.c ****     case TIMER_CH_2:
1006:Drivers/GD32E23x/Source/gd32e23x_timer.c ****         TIMER_CHCTL1(timer_periph) &= (~(uint32_t)TIMER_CHCTL1_CH2COMCTL);
1007:Drivers/GD32E23x/Source/gd32e23x_timer.c ****         TIMER_CHCTL1(timer_periph) |= (uint32_t)ocmode;
1008:Drivers/GD32E23x/Source/gd32e23x_timer.c ****         break;
1009:Drivers/GD32E23x/Source/gd32e23x_timer.c ****     /* configure TIMER_CH_3 */
1010:Drivers/GD32E23x/Source/gd32e23x_timer.c ****     case TIMER_CH_3:
ARM GAS  D:\noval\Temp\cck0Iw0b.s 			page 58


1011:Drivers/GD32E23x/Source/gd32e23x_timer.c ****         TIMER_CHCTL1(timer_periph) &= (~(uint32_t)TIMER_CHCTL1_CH3COMCTL);
 2175              		.loc 1 1011 9 is_stmt 1 view .LVU524
 2176 0022 C369     		ldr	r3, [r0, #28]
 2177              		.loc 1 1011 36 is_stmt 0 view .LVU525
 2178 0024 0B49     		ldr	r1, .L114
 2179              	.LVL102:
 2180              		.loc 1 1011 36 view .LVU526
 2181 0026 0B40     		ands	r3, r1
 2182 0028 C361     		str	r3, [r0, #28]
1012:Drivers/GD32E23x/Source/gd32e23x_timer.c ****         TIMER_CHCTL1(timer_periph) |= (uint32_t)((uint32_t)(ocmode) << 8U);
 2183              		.loc 1 1012 9 is_stmt 1 view .LVU527
 2184 002a C369     		ldr	r3, [r0, #28]
 2185              		.loc 1 1012 39 is_stmt 0 view .LVU528
 2186 002c 1202     		lsls	r2, r2, #8
 2187              	.LVL103:
 2188              		.loc 1 1012 36 view .LVU529
 2189 002e 1343     		orrs	r3, r2
 2190 0030 C361     		str	r3, [r0, #28]
1013:Drivers/GD32E23x/Source/gd32e23x_timer.c ****         break;
 2191              		.loc 1 1013 9 is_stmt 1 view .LVU530
1014:Drivers/GD32E23x/Source/gd32e23x_timer.c ****     default:
1015:Drivers/GD32E23x/Source/gd32e23x_timer.c ****         break;
1016:Drivers/GD32E23x/Source/gd32e23x_timer.c ****     }
1017:Drivers/GD32E23x/Source/gd32e23x_timer.c **** }
 2192              		.loc 1 1017 1 is_stmt 0 view .LVU531
 2193 0032 06E0     		b	.L107
 2194              	.LVL104:
 2195              	.L110:
 996:Drivers/GD32E23x/Source/gd32e23x_timer.c ****         TIMER_CHCTL0(timer_periph) |= (uint32_t)ocmode;
 2196              		.loc 1 996 9 is_stmt 1 view .LVU532
 2197 0034 8369     		ldr	r3, [r0, #24]
 996:Drivers/GD32E23x/Source/gd32e23x_timer.c ****         TIMER_CHCTL0(timer_periph) |= (uint32_t)ocmode;
 2198              		.loc 1 996 36 is_stmt 0 view .LVU533
 2199 0036 7021     		movs	r1, #112
 2200              	.LVL105:
 996:Drivers/GD32E23x/Source/gd32e23x_timer.c ****         TIMER_CHCTL0(timer_periph) |= (uint32_t)ocmode;
 2201              		.loc 1 996 36 view .LVU534
 2202 0038 8B43     		bics	r3, r1
 2203 003a 8361     		str	r3, [r0, #24]
 997:Drivers/GD32E23x/Source/gd32e23x_timer.c ****         break;
 2204              		.loc 1 997 9 is_stmt 1 view .LVU535
 2205 003c 8369     		ldr	r3, [r0, #24]
 997:Drivers/GD32E23x/Source/gd32e23x_timer.c ****         break;
 2206              		.loc 1 997 36 is_stmt 0 view .LVU536
 2207 003e 1343     		orrs	r3, r2
 2208 0040 8361     		str	r3, [r0, #24]
 998:Drivers/GD32E23x/Source/gd32e23x_timer.c ****     /* configure TIMER_CH_1 */
 2209              		.loc 1 998 9 is_stmt 1 view .LVU537
 2210              	.LVL106:
 2211              	.L107:
 2212              		.loc 1 1017 1 is_stmt 0 view .LVU538
 2213              		@ sp needed
 2214 0042 7047     		bx	lr
 2215              	.LVL107:
 2216              	.L108:
1006:Drivers/GD32E23x/Source/gd32e23x_timer.c ****         TIMER_CHCTL1(timer_periph) |= (uint32_t)ocmode;
 2217              		.loc 1 1006 9 is_stmt 1 view .LVU539
ARM GAS  D:\noval\Temp\cck0Iw0b.s 			page 59


 2218 0044 C369     		ldr	r3, [r0, #28]
1006:Drivers/GD32E23x/Source/gd32e23x_timer.c ****         TIMER_CHCTL1(timer_periph) |= (uint32_t)ocmode;
 2219              		.loc 1 1006 36 is_stmt 0 view .LVU540
 2220 0046 7021     		movs	r1, #112
 2221              	.LVL108:
1006:Drivers/GD32E23x/Source/gd32e23x_timer.c ****         TIMER_CHCTL1(timer_periph) |= (uint32_t)ocmode;
 2222              		.loc 1 1006 36 view .LVU541
 2223 0048 8B43     		bics	r3, r1
 2224 004a C361     		str	r3, [r0, #28]
1007:Drivers/GD32E23x/Source/gd32e23x_timer.c ****         break;
 2225              		.loc 1 1007 9 is_stmt 1 view .LVU542
 2226 004c C369     		ldr	r3, [r0, #28]
1007:Drivers/GD32E23x/Source/gd32e23x_timer.c ****         break;
 2227              		.loc 1 1007 36 is_stmt 0 view .LVU543
 2228 004e 1343     		orrs	r3, r2
 2229 0050 C361     		str	r3, [r0, #28]
1008:Drivers/GD32E23x/Source/gd32e23x_timer.c ****     /* configure TIMER_CH_3 */
 2230              		.loc 1 1008 9 is_stmt 1 view .LVU544
 2231 0052 F6E7     		b	.L107
 2232              	.L115:
 2233              		.align	2
 2234              	.L114:
 2235 0054 FF8FFFFF 		.word	-28673
 2236              		.cfi_endproc
 2237              	.LFE103:
 2239              		.section	.text.timer_channel_output_pulse_value_config,"ax",%progbits
 2240              		.align	1
 2241              		.global	timer_channel_output_pulse_value_config
 2242              		.syntax unified
 2243              		.code	16
 2244              		.thumb_func
 2246              	timer_channel_output_pulse_value_config:
 2247              	.LVL109:
 2248              	.LFB104:
1018:Drivers/GD32E23x/Source/gd32e23x_timer.c **** 
1019:Drivers/GD32E23x/Source/gd32e23x_timer.c **** /*!
1020:Drivers/GD32E23x/Source/gd32e23x_timer.c ****     \brief      configure TIMER channel output pulse value
1021:Drivers/GD32E23x/Source/gd32e23x_timer.c ****     \param[in]  timer_periph: please refer to the following parameters
1022:Drivers/GD32E23x/Source/gd32e23x_timer.c ****     \param[in]  channel:
1023:Drivers/GD32E23x/Source/gd32e23x_timer.c ****                 only one parameter can be selected which is shown as below:
1024:Drivers/GD32E23x/Source/gd32e23x_timer.c ****       \arg        TIMER_CH_0: TIMER channel0(TIMERx(x=0,2,13..16))
1025:Drivers/GD32E23x/Source/gd32e23x_timer.c ****       \arg        TIMER_CH_1: TIMER channel1(TIMERx(x=0,2,14))
1026:Drivers/GD32E23x/Source/gd32e23x_timer.c ****       \arg        TIMER_CH_2: TIMER channel2(TIMERx(x=0,2))
1027:Drivers/GD32E23x/Source/gd32e23x_timer.c ****       \arg        TIMER_CH_3: TIMER channel3(TIMERx(x=0,2))
1028:Drivers/GD32E23x/Source/gd32e23x_timer.c ****     \param[in]  pulse: channel output pulse value,0~65535
1029:Drivers/GD32E23x/Source/gd32e23x_timer.c ****     \param[out] none
1030:Drivers/GD32E23x/Source/gd32e23x_timer.c ****     \retval     none
1031:Drivers/GD32E23x/Source/gd32e23x_timer.c **** */
1032:Drivers/GD32E23x/Source/gd32e23x_timer.c **** void timer_channel_output_pulse_value_config(uint32_t timer_periph, uint16_t channel, uint32_t puls
1033:Drivers/GD32E23x/Source/gd32e23x_timer.c **** {
 2249              		.loc 1 1033 1 view -0
 2250              		.cfi_startproc
 2251              		@ args = 0, pretend = 0, frame = 0
 2252              		@ frame_needed = 0, uses_anonymous_args = 0
 2253              		@ link register save eliminated.
1034:Drivers/GD32E23x/Source/gd32e23x_timer.c ****     switch(channel){
 2254              		.loc 1 1034 5 view .LVU546
ARM GAS  D:\noval\Temp\cck0Iw0b.s 			page 60


 2255 0000 0229     		cmp	r1, #2
 2256 0002 0BD0     		beq	.L117
 2257 0004 04D8     		bhi	.L118
 2258 0006 39B1     		cbz	r1, .L119
 2259 0008 0129     		cmp	r1, #1
 2260 000a 06D1     		bne	.L116
1035:Drivers/GD32E23x/Source/gd32e23x_timer.c ****     /* configure TIMER_CH_0 */
1036:Drivers/GD32E23x/Source/gd32e23x_timer.c ****     case TIMER_CH_0:
1037:Drivers/GD32E23x/Source/gd32e23x_timer.c ****         TIMER_CH0CV(timer_periph) = (uint32_t)pulse;
1038:Drivers/GD32E23x/Source/gd32e23x_timer.c ****         break;
1039:Drivers/GD32E23x/Source/gd32e23x_timer.c ****     /* configure TIMER_CH_1 */
1040:Drivers/GD32E23x/Source/gd32e23x_timer.c ****     case TIMER_CH_1:
1041:Drivers/GD32E23x/Source/gd32e23x_timer.c ****         TIMER_CH1CV(timer_periph) = (uint32_t)pulse;
 2261              		.loc 1 1041 9 view .LVU547
 2262              		.loc 1 1041 35 is_stmt 0 view .LVU548
 2263 000c 8263     		str	r2, [r0, #56]
1042:Drivers/GD32E23x/Source/gd32e23x_timer.c ****         break;
 2264              		.loc 1 1042 9 is_stmt 1 view .LVU549
 2265 000e 04E0     		b	.L116
 2266              	.L118:
1034:Drivers/GD32E23x/Source/gd32e23x_timer.c ****     switch(channel){
 2267              		.loc 1 1034 5 is_stmt 0 view .LVU550
 2268 0010 0329     		cmp	r1, #3
 2269 0012 02D1     		bne	.L116
1043:Drivers/GD32E23x/Source/gd32e23x_timer.c ****     /* configure TIMER_CH_2 */
1044:Drivers/GD32E23x/Source/gd32e23x_timer.c ****     case TIMER_CH_2:
1045:Drivers/GD32E23x/Source/gd32e23x_timer.c ****         TIMER_CH2CV(timer_periph) = (uint32_t)pulse;
1046:Drivers/GD32E23x/Source/gd32e23x_timer.c ****         break;
1047:Drivers/GD32E23x/Source/gd32e23x_timer.c ****     /* configure TIMER_CH_3 */
1048:Drivers/GD32E23x/Source/gd32e23x_timer.c ****     case TIMER_CH_3:
1049:Drivers/GD32E23x/Source/gd32e23x_timer.c ****          TIMER_CH3CV(timer_periph) = (uint32_t)pulse;
 2270              		.loc 1 1049 10 is_stmt 1 view .LVU551
 2271              		.loc 1 1049 36 is_stmt 0 view .LVU552
 2272 0014 0264     		str	r2, [r0, #64]
1050:Drivers/GD32E23x/Source/gd32e23x_timer.c ****         break;
 2273              		.loc 1 1050 9 is_stmt 1 view .LVU553
1051:Drivers/GD32E23x/Source/gd32e23x_timer.c ****     default:
1052:Drivers/GD32E23x/Source/gd32e23x_timer.c ****         break;
1053:Drivers/GD32E23x/Source/gd32e23x_timer.c ****     }
1054:Drivers/GD32E23x/Source/gd32e23x_timer.c **** }
 2274              		.loc 1 1054 1 is_stmt 0 view .LVU554
 2275 0016 00E0     		b	.L116
 2276              	.L119:
1037:Drivers/GD32E23x/Source/gd32e23x_timer.c ****         break;
 2277              		.loc 1 1037 9 is_stmt 1 view .LVU555
1037:Drivers/GD32E23x/Source/gd32e23x_timer.c ****         break;
 2278              		.loc 1 1037 35 is_stmt 0 view .LVU556
 2279 0018 4263     		str	r2, [r0, #52]
1038:Drivers/GD32E23x/Source/gd32e23x_timer.c ****     /* configure TIMER_CH_1 */
 2280              		.loc 1 1038 9 is_stmt 1 view .LVU557
 2281              	.L116:
 2282              		.loc 1 1054 1 is_stmt 0 view .LVU558
 2283              		@ sp needed
 2284 001a 7047     		bx	lr
 2285              	.L117:
1045:Drivers/GD32E23x/Source/gd32e23x_timer.c ****         break;
 2286              		.loc 1 1045 9 is_stmt 1 view .LVU559
ARM GAS  D:\noval\Temp\cck0Iw0b.s 			page 61


1045:Drivers/GD32E23x/Source/gd32e23x_timer.c ****         break;
 2287              		.loc 1 1045 35 is_stmt 0 view .LVU560
 2288 001c C263     		str	r2, [r0, #60]
1046:Drivers/GD32E23x/Source/gd32e23x_timer.c ****     /* configure TIMER_CH_3 */
 2289              		.loc 1 1046 9 is_stmt 1 view .LVU561
 2290 001e FCE7     		b	.L116
 2291              		.cfi_endproc
 2292              	.LFE104:
 2294              		.section	.text.timer_channel_output_shadow_config,"ax",%progbits
 2295              		.align	1
 2296              		.global	timer_channel_output_shadow_config
 2297              		.syntax unified
 2298              		.code	16
 2299              		.thumb_func
 2301              	timer_channel_output_shadow_config:
 2302              	.LVL110:
 2303              	.LFB105:
1055:Drivers/GD32E23x/Source/gd32e23x_timer.c **** 
1056:Drivers/GD32E23x/Source/gd32e23x_timer.c **** /*!
1057:Drivers/GD32E23x/Source/gd32e23x_timer.c ****     \brief      configure TIMER channel output shadow function
1058:Drivers/GD32E23x/Source/gd32e23x_timer.c ****     \param[in]  timer_periph: please refer to the following parameters
1059:Drivers/GD32E23x/Source/gd32e23x_timer.c ****     \param[in]  channel:
1060:Drivers/GD32E23x/Source/gd32e23x_timer.c ****                 only one parameter can be selected which is shown as below:
1061:Drivers/GD32E23x/Source/gd32e23x_timer.c ****       \arg        TIMER_CH_0: TIMER channel0(TIMERx(x=0,2,13..16))
1062:Drivers/GD32E23x/Source/gd32e23x_timer.c ****       \arg        TIMER_CH_1: TIMER channel1(TIMERx(x=0,2,14))
1063:Drivers/GD32E23x/Source/gd32e23x_timer.c ****       \arg        TIMER_CH_2: TIMER channel2(TIMERx(x=0,2))
1064:Drivers/GD32E23x/Source/gd32e23x_timer.c ****       \arg        TIMER_CH_3: TIMER channel3(TIMERx(x=0,2))
1065:Drivers/GD32E23x/Source/gd32e23x_timer.c ****     \param[in]  ocshadow: channel output shadow state
1066:Drivers/GD32E23x/Source/gd32e23x_timer.c ****                 only one parameter can be selected which is shown as below:
1067:Drivers/GD32E23x/Source/gd32e23x_timer.c ****       \arg        TIMER_OC_SHADOW_ENABLE: channel output shadow state enable
1068:Drivers/GD32E23x/Source/gd32e23x_timer.c ****       \arg        TIMER_OC_SHADOW_DISABLE: channel output shadow state disable
1069:Drivers/GD32E23x/Source/gd32e23x_timer.c ****     \param[out] none
1070:Drivers/GD32E23x/Source/gd32e23x_timer.c ****     \retval     none
1071:Drivers/GD32E23x/Source/gd32e23x_timer.c **** */
1072:Drivers/GD32E23x/Source/gd32e23x_timer.c **** void timer_channel_output_shadow_config(uint32_t timer_periph, uint16_t channel, uint16_t ocshadow)
1073:Drivers/GD32E23x/Source/gd32e23x_timer.c **** {
 2304              		.loc 1 1073 1 view -0
 2305              		.cfi_startproc
 2306              		@ args = 0, pretend = 0, frame = 0
 2307              		@ frame_needed = 0, uses_anonymous_args = 0
 2308              		@ link register save eliminated.
1074:Drivers/GD32E23x/Source/gd32e23x_timer.c ****     switch(channel){
 2309              		.loc 1 1074 5 view .LVU563
 2310 0000 0229     		cmp	r1, #2
 2311 0002 1FD0     		beq	.L124
 2312 0004 0BD8     		bhi	.L125
 2313 0006 A9B1     		cbz	r1, .L126
 2314 0008 0129     		cmp	r1, #1
 2315 000a 1AD1     		bne	.L123
1075:Drivers/GD32E23x/Source/gd32e23x_timer.c ****     /* configure TIMER_CH_0 */
1076:Drivers/GD32E23x/Source/gd32e23x_timer.c ****     case TIMER_CH_0:
1077:Drivers/GD32E23x/Source/gd32e23x_timer.c ****         TIMER_CHCTL0(timer_periph) &= (~(uint32_t)TIMER_CHCTL0_CH0COMSEN);
1078:Drivers/GD32E23x/Source/gd32e23x_timer.c ****         TIMER_CHCTL0(timer_periph) |= (uint32_t)ocshadow;
1079:Drivers/GD32E23x/Source/gd32e23x_timer.c ****         break;
1080:Drivers/GD32E23x/Source/gd32e23x_timer.c ****     /* configure TIMER_CH_1 */
1081:Drivers/GD32E23x/Source/gd32e23x_timer.c ****     case TIMER_CH_1:
1082:Drivers/GD32E23x/Source/gd32e23x_timer.c ****         TIMER_CHCTL0(timer_periph) &= (~(uint32_t)TIMER_CHCTL0_CH1COMSEN);
ARM GAS  D:\noval\Temp\cck0Iw0b.s 			page 62


 2316              		.loc 1 1082 9 view .LVU564
 2317 000c 8369     		ldr	r3, [r0, #24]
 2318              		.loc 1 1082 36 is_stmt 0 view .LVU565
 2319 000e 1149     		ldr	r1, .L130
 2320              	.LVL111:
 2321              		.loc 1 1082 36 view .LVU566
 2322 0010 0B40     		ands	r3, r1
 2323 0012 8361     		str	r3, [r0, #24]
1083:Drivers/GD32E23x/Source/gd32e23x_timer.c ****         TIMER_CHCTL0(timer_periph) |= (uint32_t)((uint32_t)(ocshadow) << 8U);
 2324              		.loc 1 1083 9 is_stmt 1 view .LVU567
 2325 0014 8369     		ldr	r3, [r0, #24]
 2326              		.loc 1 1083 39 is_stmt 0 view .LVU568
 2327 0016 1202     		lsls	r2, r2, #8
 2328              	.LVL112:
 2329              		.loc 1 1083 36 view .LVU569
 2330 0018 1A43     		orrs	r2, r3
 2331 001a 8261     		str	r2, [r0, #24]
1084:Drivers/GD32E23x/Source/gd32e23x_timer.c ****         break;
 2332              		.loc 1 1084 9 is_stmt 1 view .LVU570
 2333 001c 11E0     		b	.L123
 2334              	.LVL113:
 2335              	.L125:
1074:Drivers/GD32E23x/Source/gd32e23x_timer.c ****     /* configure TIMER_CH_0 */
 2336              		.loc 1 1074 5 is_stmt 0 view .LVU571
 2337 001e 0329     		cmp	r1, #3
 2338 0020 0FD1     		bne	.L123
1085:Drivers/GD32E23x/Source/gd32e23x_timer.c ****     /* configure TIMER_CH_2 */
1086:Drivers/GD32E23x/Source/gd32e23x_timer.c ****     case TIMER_CH_2:
1087:Drivers/GD32E23x/Source/gd32e23x_timer.c ****         TIMER_CHCTL1(timer_periph) &= (~(uint32_t)TIMER_CHCTL1_CH2COMSEN);
1088:Drivers/GD32E23x/Source/gd32e23x_timer.c ****         TIMER_CHCTL1(timer_periph) |= (uint32_t)ocshadow;
1089:Drivers/GD32E23x/Source/gd32e23x_timer.c ****         break;
1090:Drivers/GD32E23x/Source/gd32e23x_timer.c ****     /* configure TIMER_CH_3 */
1091:Drivers/GD32E23x/Source/gd32e23x_timer.c ****     case TIMER_CH_3:
1092:Drivers/GD32E23x/Source/gd32e23x_timer.c ****         TIMER_CHCTL1(timer_periph) &= (~(uint32_t)TIMER_CHCTL1_CH3COMSEN);
 2339              		.loc 1 1092 9 is_stmt 1 view .LVU572
 2340 0022 C369     		ldr	r3, [r0, #28]
 2341              		.loc 1 1092 36 is_stmt 0 view .LVU573
 2342 0024 0B49     		ldr	r1, .L130
 2343              	.LVL114:
 2344              		.loc 1 1092 36 view .LVU574
 2345 0026 0B40     		ands	r3, r1
 2346 0028 C361     		str	r3, [r0, #28]
1093:Drivers/GD32E23x/Source/gd32e23x_timer.c ****         TIMER_CHCTL1(timer_periph) |= (uint32_t)((uint32_t)(ocshadow) << 8U);
 2347              		.loc 1 1093 9 is_stmt 1 view .LVU575
 2348 002a C369     		ldr	r3, [r0, #28]
 2349              		.loc 1 1093 39 is_stmt 0 view .LVU576
 2350 002c 1202     		lsls	r2, r2, #8
 2351              	.LVL115:
 2352              		.loc 1 1093 36 view .LVU577
 2353 002e 1343     		orrs	r3, r2
 2354 0030 C361     		str	r3, [r0, #28]
1094:Drivers/GD32E23x/Source/gd32e23x_timer.c ****         break;
 2355              		.loc 1 1094 9 is_stmt 1 view .LVU578
1095:Drivers/GD32E23x/Source/gd32e23x_timer.c ****     default:
1096:Drivers/GD32E23x/Source/gd32e23x_timer.c ****         break;
1097:Drivers/GD32E23x/Source/gd32e23x_timer.c ****     }
1098:Drivers/GD32E23x/Source/gd32e23x_timer.c **** }
ARM GAS  D:\noval\Temp\cck0Iw0b.s 			page 63


 2356              		.loc 1 1098 1 is_stmt 0 view .LVU579
 2357 0032 06E0     		b	.L123
 2358              	.LVL116:
 2359              	.L126:
1077:Drivers/GD32E23x/Source/gd32e23x_timer.c ****         TIMER_CHCTL0(timer_periph) |= (uint32_t)ocshadow;
 2360              		.loc 1 1077 9 is_stmt 1 view .LVU580
 2361 0034 8369     		ldr	r3, [r0, #24]
1077:Drivers/GD32E23x/Source/gd32e23x_timer.c ****         TIMER_CHCTL0(timer_periph) |= (uint32_t)ocshadow;
 2362              		.loc 1 1077 36 is_stmt 0 view .LVU581
 2363 0036 0821     		movs	r1, #8
 2364              	.LVL117:
1077:Drivers/GD32E23x/Source/gd32e23x_timer.c ****         TIMER_CHCTL0(timer_periph) |= (uint32_t)ocshadow;
 2365              		.loc 1 1077 36 view .LVU582
 2366 0038 8B43     		bics	r3, r1
 2367 003a 8361     		str	r3, [r0, #24]
1078:Drivers/GD32E23x/Source/gd32e23x_timer.c ****         break;
 2368              		.loc 1 1078 9 is_stmt 1 view .LVU583
 2369 003c 8369     		ldr	r3, [r0, #24]
1078:Drivers/GD32E23x/Source/gd32e23x_timer.c ****         break;
 2370              		.loc 1 1078 36 is_stmt 0 view .LVU584
 2371 003e 1343     		orrs	r3, r2
 2372 0040 8361     		str	r3, [r0, #24]
1079:Drivers/GD32E23x/Source/gd32e23x_timer.c ****     /* configure TIMER_CH_1 */
 2373              		.loc 1 1079 9 is_stmt 1 view .LVU585
 2374              	.LVL118:
 2375              	.L123:
 2376              		.loc 1 1098 1 is_stmt 0 view .LVU586
 2377              		@ sp needed
 2378 0042 7047     		bx	lr
 2379              	.LVL119:
 2380              	.L124:
1087:Drivers/GD32E23x/Source/gd32e23x_timer.c ****         TIMER_CHCTL1(timer_periph) |= (uint32_t)ocshadow;
 2381              		.loc 1 1087 9 is_stmt 1 view .LVU587
 2382 0044 C369     		ldr	r3, [r0, #28]
1087:Drivers/GD32E23x/Source/gd32e23x_timer.c ****         TIMER_CHCTL1(timer_periph) |= (uint32_t)ocshadow;
 2383              		.loc 1 1087 36 is_stmt 0 view .LVU588
 2384 0046 0821     		movs	r1, #8
 2385              	.LVL120:
1087:Drivers/GD32E23x/Source/gd32e23x_timer.c ****         TIMER_CHCTL1(timer_periph) |= (uint32_t)ocshadow;
 2386              		.loc 1 1087 36 view .LVU589
 2387 0048 8B43     		bics	r3, r1
 2388 004a C361     		str	r3, [r0, #28]
1088:Drivers/GD32E23x/Source/gd32e23x_timer.c ****         break;
 2389              		.loc 1 1088 9 is_stmt 1 view .LVU590
 2390 004c C369     		ldr	r3, [r0, #28]
1088:Drivers/GD32E23x/Source/gd32e23x_timer.c ****         break;
 2391              		.loc 1 1088 36 is_stmt 0 view .LVU591
 2392 004e 1343     		orrs	r3, r2
 2393 0050 C361     		str	r3, [r0, #28]
1089:Drivers/GD32E23x/Source/gd32e23x_timer.c ****     /* configure TIMER_CH_3 */
 2394              		.loc 1 1089 9 is_stmt 1 view .LVU592
 2395 0052 F6E7     		b	.L123
 2396              	.L131:
 2397              		.align	2
 2398              	.L130:
 2399 0054 FFF7FFFF 		.word	-2049
 2400              		.cfi_endproc
ARM GAS  D:\noval\Temp\cck0Iw0b.s 			page 64


 2401              	.LFE105:
 2403              		.section	.text.timer_channel_output_fast_config,"ax",%progbits
 2404              		.align	1
 2405              		.global	timer_channel_output_fast_config
 2406              		.syntax unified
 2407              		.code	16
 2408              		.thumb_func
 2410              	timer_channel_output_fast_config:
 2411              	.LVL121:
 2412              	.LFB106:
1099:Drivers/GD32E23x/Source/gd32e23x_timer.c **** 
1100:Drivers/GD32E23x/Source/gd32e23x_timer.c **** /*!
1101:Drivers/GD32E23x/Source/gd32e23x_timer.c ****     \brief      configure TIMER channel output fast function
1102:Drivers/GD32E23x/Source/gd32e23x_timer.c ****     \param[in]  timer_periph: please refer to the following parameters
1103:Drivers/GD32E23x/Source/gd32e23x_timer.c ****     \param[in]  channel:
1104:Drivers/GD32E23x/Source/gd32e23x_timer.c ****                 only one parameter can be selected which is shown as below:
1105:Drivers/GD32E23x/Source/gd32e23x_timer.c ****       \arg        TIMER_CH_0: TIMER channel0(TIMERx(x=0,2,13..16))
1106:Drivers/GD32E23x/Source/gd32e23x_timer.c ****       \arg        TIMER_CH_1: TIMER channel1(TIMERx(x=0,2,14))
1107:Drivers/GD32E23x/Source/gd32e23x_timer.c ****       \arg        TIMER_CH_2: TIMER channel2(TIMERx(x=0,2))
1108:Drivers/GD32E23x/Source/gd32e23x_timer.c ****       \arg        TIMER_CH_3: TIMER channel3(TIMERx(x=0,2))
1109:Drivers/GD32E23x/Source/gd32e23x_timer.c ****     \param[in]  ocfast: channel output fast function
1110:Drivers/GD32E23x/Source/gd32e23x_timer.c ****                 only one parameter can be selected which is shown as below:
1111:Drivers/GD32E23x/Source/gd32e23x_timer.c ****       \arg        TIMER_OC_FAST_ENABLE: channel output fast function enable
1112:Drivers/GD32E23x/Source/gd32e23x_timer.c ****       \arg        TIMER_OC_FAST_DISABLE: channel output fast function disable
1113:Drivers/GD32E23x/Source/gd32e23x_timer.c ****     \param[out] none
1114:Drivers/GD32E23x/Source/gd32e23x_timer.c ****     \retval     none
1115:Drivers/GD32E23x/Source/gd32e23x_timer.c **** */
1116:Drivers/GD32E23x/Source/gd32e23x_timer.c **** void timer_channel_output_fast_config(uint32_t timer_periph, uint16_t channel, uint16_t ocfast)
1117:Drivers/GD32E23x/Source/gd32e23x_timer.c **** {
 2413              		.loc 1 1117 1 view -0
 2414              		.cfi_startproc
 2415              		@ args = 0, pretend = 0, frame = 0
 2416              		@ frame_needed = 0, uses_anonymous_args = 0
 2417              		@ link register save eliminated.
1118:Drivers/GD32E23x/Source/gd32e23x_timer.c ****     switch(channel){
 2418              		.loc 1 1118 5 view .LVU594
 2419 0000 0229     		cmp	r1, #2
 2420 0002 1FD0     		beq	.L133
 2421 0004 0BD8     		bhi	.L134
 2422 0006 A9B1     		cbz	r1, .L135
 2423 0008 0129     		cmp	r1, #1
 2424 000a 1AD1     		bne	.L132
1119:Drivers/GD32E23x/Source/gd32e23x_timer.c ****     /* configure TIMER_CH_0 */
1120:Drivers/GD32E23x/Source/gd32e23x_timer.c ****     case TIMER_CH_0:
1121:Drivers/GD32E23x/Source/gd32e23x_timer.c ****         TIMER_CHCTL0(timer_periph) &= (~(uint32_t)TIMER_CHCTL0_CH0COMFEN);
1122:Drivers/GD32E23x/Source/gd32e23x_timer.c ****         TIMER_CHCTL0(timer_periph) |= (uint32_t)ocfast;
1123:Drivers/GD32E23x/Source/gd32e23x_timer.c ****         break;
1124:Drivers/GD32E23x/Source/gd32e23x_timer.c ****     /* configure TIMER_CH_1 */
1125:Drivers/GD32E23x/Source/gd32e23x_timer.c ****     case TIMER_CH_1:
1126:Drivers/GD32E23x/Source/gd32e23x_timer.c ****         TIMER_CHCTL0(timer_periph) &= (~(uint32_t)TIMER_CHCTL0_CH1COMFEN);
 2425              		.loc 1 1126 9 view .LVU595
 2426 000c 8369     		ldr	r3, [r0, #24]
 2427              		.loc 1 1126 36 is_stmt 0 view .LVU596
 2428 000e 1149     		ldr	r1, .L139
 2429              	.LVL122:
 2430              		.loc 1 1126 36 view .LVU597
 2431 0010 0B40     		ands	r3, r1
ARM GAS  D:\noval\Temp\cck0Iw0b.s 			page 65


 2432 0012 8361     		str	r3, [r0, #24]
1127:Drivers/GD32E23x/Source/gd32e23x_timer.c ****         TIMER_CHCTL0(timer_periph) |= (uint32_t)((uint32_t)ocfast << 8U);
 2433              		.loc 1 1127 9 is_stmt 1 view .LVU598
 2434 0014 8369     		ldr	r3, [r0, #24]
 2435              		.loc 1 1127 39 is_stmt 0 view .LVU599
 2436 0016 1202     		lsls	r2, r2, #8
 2437              	.LVL123:
 2438              		.loc 1 1127 36 view .LVU600
 2439 0018 1A43     		orrs	r2, r3
 2440 001a 8261     		str	r2, [r0, #24]
1128:Drivers/GD32E23x/Source/gd32e23x_timer.c ****         break;
 2441              		.loc 1 1128 9 is_stmt 1 view .LVU601
 2442 001c 11E0     		b	.L132
 2443              	.LVL124:
 2444              	.L134:
1118:Drivers/GD32E23x/Source/gd32e23x_timer.c ****     /* configure TIMER_CH_0 */
 2445              		.loc 1 1118 5 is_stmt 0 view .LVU602
 2446 001e 0329     		cmp	r1, #3
 2447 0020 0FD1     		bne	.L132
1129:Drivers/GD32E23x/Source/gd32e23x_timer.c ****     /* configure TIMER_CH_2 */
1130:Drivers/GD32E23x/Source/gd32e23x_timer.c ****     case TIMER_CH_2:
1131:Drivers/GD32E23x/Source/gd32e23x_timer.c ****         TIMER_CHCTL1(timer_periph) &= (~(uint32_t)TIMER_CHCTL1_CH2COMFEN);
1132:Drivers/GD32E23x/Source/gd32e23x_timer.c ****         TIMER_CHCTL1(timer_periph) |= (uint32_t)ocfast;
1133:Drivers/GD32E23x/Source/gd32e23x_timer.c ****         break;
1134:Drivers/GD32E23x/Source/gd32e23x_timer.c ****     /* configure TIMER_CH_3 */
1135:Drivers/GD32E23x/Source/gd32e23x_timer.c ****     case TIMER_CH_3:
1136:Drivers/GD32E23x/Source/gd32e23x_timer.c ****         TIMER_CHCTL1(timer_periph) &= (~(uint32_t)TIMER_CHCTL1_CH3COMFEN);
 2448              		.loc 1 1136 9 is_stmt 1 view .LVU603
 2449 0022 C369     		ldr	r3, [r0, #28]
 2450              		.loc 1 1136 36 is_stmt 0 view .LVU604
 2451 0024 0B49     		ldr	r1, .L139
 2452              	.LVL125:
 2453              		.loc 1 1136 36 view .LVU605
 2454 0026 0B40     		ands	r3, r1
 2455 0028 C361     		str	r3, [r0, #28]
1137:Drivers/GD32E23x/Source/gd32e23x_timer.c ****         TIMER_CHCTL1(timer_periph) |= (uint32_t)((uint32_t)ocfast << 8U);
 2456              		.loc 1 1137 9 is_stmt 1 view .LVU606
 2457 002a C369     		ldr	r3, [r0, #28]
 2458              		.loc 1 1137 39 is_stmt 0 view .LVU607
 2459 002c 1202     		lsls	r2, r2, #8
 2460              	.LVL126:
 2461              		.loc 1 1137 36 view .LVU608
 2462 002e 1343     		orrs	r3, r2
 2463 0030 C361     		str	r3, [r0, #28]
1138:Drivers/GD32E23x/Source/gd32e23x_timer.c ****         break;
 2464              		.loc 1 1138 9 is_stmt 1 view .LVU609
1139:Drivers/GD32E23x/Source/gd32e23x_timer.c ****     default:
1140:Drivers/GD32E23x/Source/gd32e23x_timer.c ****         break;
1141:Drivers/GD32E23x/Source/gd32e23x_timer.c ****     }
1142:Drivers/GD32E23x/Source/gd32e23x_timer.c **** }
 2465              		.loc 1 1142 1 is_stmt 0 view .LVU610
 2466 0032 06E0     		b	.L132
 2467              	.LVL127:
 2468              	.L135:
1121:Drivers/GD32E23x/Source/gd32e23x_timer.c ****         TIMER_CHCTL0(timer_periph) |= (uint32_t)ocfast;
 2469              		.loc 1 1121 9 is_stmt 1 view .LVU611
 2470 0034 8369     		ldr	r3, [r0, #24]
ARM GAS  D:\noval\Temp\cck0Iw0b.s 			page 66


1121:Drivers/GD32E23x/Source/gd32e23x_timer.c ****         TIMER_CHCTL0(timer_periph) |= (uint32_t)ocfast;
 2471              		.loc 1 1121 36 is_stmt 0 view .LVU612
 2472 0036 0421     		movs	r1, #4
 2473              	.LVL128:
1121:Drivers/GD32E23x/Source/gd32e23x_timer.c ****         TIMER_CHCTL0(timer_periph) |= (uint32_t)ocfast;
 2474              		.loc 1 1121 36 view .LVU613
 2475 0038 8B43     		bics	r3, r1
 2476 003a 8361     		str	r3, [r0, #24]
1122:Drivers/GD32E23x/Source/gd32e23x_timer.c ****         break;
 2477              		.loc 1 1122 9 is_stmt 1 view .LVU614
 2478 003c 8369     		ldr	r3, [r0, #24]
1122:Drivers/GD32E23x/Source/gd32e23x_timer.c ****         break;
 2479              		.loc 1 1122 36 is_stmt 0 view .LVU615
 2480 003e 1343     		orrs	r3, r2
 2481 0040 8361     		str	r3, [r0, #24]
1123:Drivers/GD32E23x/Source/gd32e23x_timer.c ****     /* configure TIMER_CH_1 */
 2482              		.loc 1 1123 9 is_stmt 1 view .LVU616
 2483              	.LVL129:
 2484              	.L132:
 2485              		.loc 1 1142 1 is_stmt 0 view .LVU617
 2486              		@ sp needed
 2487 0042 7047     		bx	lr
 2488              	.LVL130:
 2489              	.L133:
1131:Drivers/GD32E23x/Source/gd32e23x_timer.c ****         TIMER_CHCTL1(timer_periph) |= (uint32_t)ocfast;
 2490              		.loc 1 1131 9 is_stmt 1 view .LVU618
 2491 0044 C369     		ldr	r3, [r0, #28]
1131:Drivers/GD32E23x/Source/gd32e23x_timer.c ****         TIMER_CHCTL1(timer_periph) |= (uint32_t)ocfast;
 2492              		.loc 1 1131 36 is_stmt 0 view .LVU619
 2493 0046 0421     		movs	r1, #4
 2494              	.LVL131:
1131:Drivers/GD32E23x/Source/gd32e23x_timer.c ****         TIMER_CHCTL1(timer_periph) |= (uint32_t)ocfast;
 2495              		.loc 1 1131 36 view .LVU620
 2496 0048 8B43     		bics	r3, r1
 2497 004a C361     		str	r3, [r0, #28]
1132:Drivers/GD32E23x/Source/gd32e23x_timer.c ****         break;
 2498              		.loc 1 1132 9 is_stmt 1 view .LVU621
 2499 004c C369     		ldr	r3, [r0, #28]
1132:Drivers/GD32E23x/Source/gd32e23x_timer.c ****         break;
 2500              		.loc 1 1132 36 is_stmt 0 view .LVU622
 2501 004e 1343     		orrs	r3, r2
 2502 0050 C361     		str	r3, [r0, #28]
1133:Drivers/GD32E23x/Source/gd32e23x_timer.c ****     /* configure TIMER_CH_3 */
 2503              		.loc 1 1133 9 is_stmt 1 view .LVU623
 2504 0052 F6E7     		b	.L132
 2505              	.L140:
 2506              		.align	2
 2507              	.L139:
 2508 0054 FFFBFFFF 		.word	-1025
 2509              		.cfi_endproc
 2510              	.LFE106:
 2512              		.section	.text.timer_channel_output_clear_config,"ax",%progbits
 2513              		.align	1
 2514              		.global	timer_channel_output_clear_config
 2515              		.syntax unified
 2516              		.code	16
 2517              		.thumb_func
ARM GAS  D:\noval\Temp\cck0Iw0b.s 			page 67


 2519              	timer_channel_output_clear_config:
 2520              	.LVL132:
 2521              	.LFB107:
1143:Drivers/GD32E23x/Source/gd32e23x_timer.c **** 
1144:Drivers/GD32E23x/Source/gd32e23x_timer.c **** /*!
1145:Drivers/GD32E23x/Source/gd32e23x_timer.c ****     \brief      configure TIMER channel output clear function
1146:Drivers/GD32E23x/Source/gd32e23x_timer.c ****     \param[in]  timer_periph: please refer to the following parameters
1147:Drivers/GD32E23x/Source/gd32e23x_timer.c ****     \param[in]  channel: 
1148:Drivers/GD32E23x/Source/gd32e23x_timer.c ****                 only one parameter can be selected which is shown as below:
1149:Drivers/GD32E23x/Source/gd32e23x_timer.c ****       \arg        TIMER_CH_0: TIMER channel0(TIMERx(x=0,2))
1150:Drivers/GD32E23x/Source/gd32e23x_timer.c ****       \arg        TIMER_CH_1: TIMER channel1(TIMERx(x=0,2))
1151:Drivers/GD32E23x/Source/gd32e23x_timer.c ****       \arg        TIMER_CH_2: TIMER channel2(TIMERx(x=0,2))
1152:Drivers/GD32E23x/Source/gd32e23x_timer.c ****       \arg        TIMER_CH_3: TIMER channel3(TIMERx(x=0,2))
1153:Drivers/GD32E23x/Source/gd32e23x_timer.c ****     \param[in]  occlear: channel output clear function
1154:Drivers/GD32E23x/Source/gd32e23x_timer.c ****                 only one parameter can be selected which is shown as below:
1155:Drivers/GD32E23x/Source/gd32e23x_timer.c ****       \arg        TIMER_OC_CLEAR_ENABLE: channel output clear function enable
1156:Drivers/GD32E23x/Source/gd32e23x_timer.c ****       \arg        TIMER_OC_CLEAR_DISABLE: channel output clear function disable
1157:Drivers/GD32E23x/Source/gd32e23x_timer.c ****     \param[out] none
1158:Drivers/GD32E23x/Source/gd32e23x_timer.c ****     \retval     none
1159:Drivers/GD32E23x/Source/gd32e23x_timer.c **** */
1160:Drivers/GD32E23x/Source/gd32e23x_timer.c **** void timer_channel_output_clear_config(uint32_t timer_periph, uint16_t channel, uint16_t occlear)
1161:Drivers/GD32E23x/Source/gd32e23x_timer.c **** {
 2522              		.loc 1 1161 1 view -0
 2523              		.cfi_startproc
 2524              		@ args = 0, pretend = 0, frame = 0
 2525              		@ frame_needed = 0, uses_anonymous_args = 0
 2526              		@ link register save eliminated.
1162:Drivers/GD32E23x/Source/gd32e23x_timer.c ****     switch(channel){
 2527              		.loc 1 1162 5 view .LVU625
 2528 0000 0229     		cmp	r1, #2
 2529 0002 1FD0     		beq	.L142
 2530 0004 0BD8     		bhi	.L143
 2531 0006 A9B1     		cbz	r1, .L144
 2532 0008 0129     		cmp	r1, #1
 2533 000a 1AD1     		bne	.L141
1163:Drivers/GD32E23x/Source/gd32e23x_timer.c ****     /* configure TIMER_CH_0 */
1164:Drivers/GD32E23x/Source/gd32e23x_timer.c ****     case TIMER_CH_0:
1165:Drivers/GD32E23x/Source/gd32e23x_timer.c ****         TIMER_CHCTL0(timer_periph) &= (~(uint32_t)TIMER_CHCTL0_CH0COMCEN);
1166:Drivers/GD32E23x/Source/gd32e23x_timer.c ****         TIMER_CHCTL0(timer_periph) |= (uint32_t)occlear;
1167:Drivers/GD32E23x/Source/gd32e23x_timer.c ****         break;
1168:Drivers/GD32E23x/Source/gd32e23x_timer.c ****     /* configure TIMER_CH_1 */
1169:Drivers/GD32E23x/Source/gd32e23x_timer.c ****     case TIMER_CH_1:
1170:Drivers/GD32E23x/Source/gd32e23x_timer.c ****         TIMER_CHCTL0(timer_periph) &= (~(uint32_t)TIMER_CHCTL0_CH1COMCEN);
 2534              		.loc 1 1170 9 view .LVU626
 2535 000c 8369     		ldr	r3, [r0, #24]
 2536              		.loc 1 1170 36 is_stmt 0 view .LVU627
 2537 000e 1149     		ldr	r1, .L148
 2538              	.LVL133:
 2539              		.loc 1 1170 36 view .LVU628
 2540 0010 0B40     		ands	r3, r1
 2541 0012 8361     		str	r3, [r0, #24]
1171:Drivers/GD32E23x/Source/gd32e23x_timer.c ****         TIMER_CHCTL0(timer_periph) |= (uint32_t)((uint32_t)occlear << 8U);
 2542              		.loc 1 1171 9 is_stmt 1 view .LVU629
 2543 0014 8369     		ldr	r3, [r0, #24]
 2544              		.loc 1 1171 39 is_stmt 0 view .LVU630
 2545 0016 1202     		lsls	r2, r2, #8
 2546              	.LVL134:
ARM GAS  D:\noval\Temp\cck0Iw0b.s 			page 68


 2547              		.loc 1 1171 36 view .LVU631
 2548 0018 1A43     		orrs	r2, r3
 2549 001a 8261     		str	r2, [r0, #24]
1172:Drivers/GD32E23x/Source/gd32e23x_timer.c ****         break;
 2550              		.loc 1 1172 9 is_stmt 1 view .LVU632
 2551 001c 11E0     		b	.L141
 2552              	.LVL135:
 2553              	.L143:
1162:Drivers/GD32E23x/Source/gd32e23x_timer.c ****     /* configure TIMER_CH_0 */
 2554              		.loc 1 1162 5 is_stmt 0 view .LVU633
 2555 001e 0329     		cmp	r1, #3
 2556 0020 0FD1     		bne	.L141
1173:Drivers/GD32E23x/Source/gd32e23x_timer.c ****     /* configure TIMER_CH_2 */
1174:Drivers/GD32E23x/Source/gd32e23x_timer.c ****     case TIMER_CH_2:
1175:Drivers/GD32E23x/Source/gd32e23x_timer.c ****         TIMER_CHCTL1(timer_periph) &= (~(uint32_t)TIMER_CHCTL1_CH2COMCEN);
1176:Drivers/GD32E23x/Source/gd32e23x_timer.c ****         TIMER_CHCTL1(timer_periph) |= (uint32_t)occlear;
1177:Drivers/GD32E23x/Source/gd32e23x_timer.c ****         break;
1178:Drivers/GD32E23x/Source/gd32e23x_timer.c ****     /* configure TIMER_CH_3 */
1179:Drivers/GD32E23x/Source/gd32e23x_timer.c ****     case TIMER_CH_3:
1180:Drivers/GD32E23x/Source/gd32e23x_timer.c ****         TIMER_CHCTL1(timer_periph) &= (~(uint32_t)TIMER_CHCTL1_CH3COMCEN);
 2557              		.loc 1 1180 9 is_stmt 1 view .LVU634
 2558 0022 C369     		ldr	r3, [r0, #28]
 2559              		.loc 1 1180 36 is_stmt 0 view .LVU635
 2560 0024 0B49     		ldr	r1, .L148
 2561              	.LVL136:
 2562              		.loc 1 1180 36 view .LVU636
 2563 0026 0B40     		ands	r3, r1
 2564 0028 C361     		str	r3, [r0, #28]
1181:Drivers/GD32E23x/Source/gd32e23x_timer.c ****         TIMER_CHCTL1(timer_periph) |= (uint32_t)((uint32_t)occlear << 8U);
 2565              		.loc 1 1181 9 is_stmt 1 view .LVU637
 2566 002a C369     		ldr	r3, [r0, #28]
 2567              		.loc 1 1181 39 is_stmt 0 view .LVU638
 2568 002c 1202     		lsls	r2, r2, #8
 2569              	.LVL137:
 2570              		.loc 1 1181 36 view .LVU639
 2571 002e 1343     		orrs	r3, r2
 2572 0030 C361     		str	r3, [r0, #28]
1182:Drivers/GD32E23x/Source/gd32e23x_timer.c ****         break;
 2573              		.loc 1 1182 9 is_stmt 1 view .LVU640
1183:Drivers/GD32E23x/Source/gd32e23x_timer.c ****     default:
1184:Drivers/GD32E23x/Source/gd32e23x_timer.c ****         break;
1185:Drivers/GD32E23x/Source/gd32e23x_timer.c ****     }
1186:Drivers/GD32E23x/Source/gd32e23x_timer.c **** }
 2574              		.loc 1 1186 1 is_stmt 0 view .LVU641
 2575 0032 06E0     		b	.L141
 2576              	.LVL138:
 2577              	.L144:
1165:Drivers/GD32E23x/Source/gd32e23x_timer.c ****         TIMER_CHCTL0(timer_periph) |= (uint32_t)occlear;
 2578              		.loc 1 1165 9 is_stmt 1 view .LVU642
 2579 0034 8369     		ldr	r3, [r0, #24]
1165:Drivers/GD32E23x/Source/gd32e23x_timer.c ****         TIMER_CHCTL0(timer_periph) |= (uint32_t)occlear;
 2580              		.loc 1 1165 36 is_stmt 0 view .LVU643
 2581 0036 8021     		movs	r1, #128
 2582              	.LVL139:
1165:Drivers/GD32E23x/Source/gd32e23x_timer.c ****         TIMER_CHCTL0(timer_periph) |= (uint32_t)occlear;
 2583              		.loc 1 1165 36 view .LVU644
 2584 0038 8B43     		bics	r3, r1
ARM GAS  D:\noval\Temp\cck0Iw0b.s 			page 69


 2585 003a 8361     		str	r3, [r0, #24]
1166:Drivers/GD32E23x/Source/gd32e23x_timer.c ****         break;
 2586              		.loc 1 1166 9 is_stmt 1 view .LVU645
 2587 003c 8369     		ldr	r3, [r0, #24]
1166:Drivers/GD32E23x/Source/gd32e23x_timer.c ****         break;
 2588              		.loc 1 1166 36 is_stmt 0 view .LVU646
 2589 003e 1343     		orrs	r3, r2
 2590 0040 8361     		str	r3, [r0, #24]
1167:Drivers/GD32E23x/Source/gd32e23x_timer.c ****     /* configure TIMER_CH_1 */
 2591              		.loc 1 1167 9 is_stmt 1 view .LVU647
 2592              	.LVL140:
 2593              	.L141:
 2594              		.loc 1 1186 1 is_stmt 0 view .LVU648
 2595              		@ sp needed
 2596 0042 7047     		bx	lr
 2597              	.LVL141:
 2598              	.L142:
1175:Drivers/GD32E23x/Source/gd32e23x_timer.c ****         TIMER_CHCTL1(timer_periph) |= (uint32_t)occlear;
 2599              		.loc 1 1175 9 is_stmt 1 view .LVU649
 2600 0044 C369     		ldr	r3, [r0, #28]
1175:Drivers/GD32E23x/Source/gd32e23x_timer.c ****         TIMER_CHCTL1(timer_periph) |= (uint32_t)occlear;
 2601              		.loc 1 1175 36 is_stmt 0 view .LVU650
 2602 0046 8021     		movs	r1, #128
 2603              	.LVL142:
1175:Drivers/GD32E23x/Source/gd32e23x_timer.c ****         TIMER_CHCTL1(timer_periph) |= (uint32_t)occlear;
 2604              		.loc 1 1175 36 view .LVU651
 2605 0048 8B43     		bics	r3, r1
 2606 004a C361     		str	r3, [r0, #28]
1176:Drivers/GD32E23x/Source/gd32e23x_timer.c ****         break;
 2607              		.loc 1 1176 9 is_stmt 1 view .LVU652
 2608 004c C369     		ldr	r3, [r0, #28]
1176:Drivers/GD32E23x/Source/gd32e23x_timer.c ****         break;
 2609              		.loc 1 1176 36 is_stmt 0 view .LVU653
 2610 004e 1343     		orrs	r3, r2
 2611 0050 C361     		str	r3, [r0, #28]
1177:Drivers/GD32E23x/Source/gd32e23x_timer.c ****     /* configure TIMER_CH_3 */
 2612              		.loc 1 1177 9 is_stmt 1 view .LVU654
 2613 0052 F6E7     		b	.L141
 2614              	.L149:
 2615              		.align	2
 2616              	.L148:
 2617 0054 FF7FFFFF 		.word	-32769
 2618              		.cfi_endproc
 2619              	.LFE107:
 2621              		.section	.text.timer_channel_output_polarity_config,"ax",%progbits
 2622              		.align	1
 2623              		.global	timer_channel_output_polarity_config
 2624              		.syntax unified
 2625              		.code	16
 2626              		.thumb_func
 2628              	timer_channel_output_polarity_config:
 2629              	.LVL143:
 2630              	.LFB108:
1187:Drivers/GD32E23x/Source/gd32e23x_timer.c **** 
1188:Drivers/GD32E23x/Source/gd32e23x_timer.c **** /*!
1189:Drivers/GD32E23x/Source/gd32e23x_timer.c ****     \brief      configure TIMER channel output polarity 
1190:Drivers/GD32E23x/Source/gd32e23x_timer.c ****     \param[in]  timer_periph: please refer to the following parameters
ARM GAS  D:\noval\Temp\cck0Iw0b.s 			page 70


1191:Drivers/GD32E23x/Source/gd32e23x_timer.c ****     \param[in]  channel: 
1192:Drivers/GD32E23x/Source/gd32e23x_timer.c ****                 only one parameter can be selected which is shown as below:
1193:Drivers/GD32E23x/Source/gd32e23x_timer.c ****       \arg        TIMER_CH_0: TIMER channel0(TIMERx(x=0,2,13..16))
1194:Drivers/GD32E23x/Source/gd32e23x_timer.c ****       \arg        TIMER_CH_1: TIMER channel1(TIMERx(x=0,2,14))
1195:Drivers/GD32E23x/Source/gd32e23x_timer.c ****       \arg        TIMER_CH_2: TIMER channel2(TIMERx(x=0,2))
1196:Drivers/GD32E23x/Source/gd32e23x_timer.c ****       \arg        TIMER_CH_3: TIMER channel3(TIMERx(x=0,2))
1197:Drivers/GD32E23x/Source/gd32e23x_timer.c ****     \param[in]  ocpolarity: channel output polarity 
1198:Drivers/GD32E23x/Source/gd32e23x_timer.c ****                 only one parameter can be selected which is shown as below:
1199:Drivers/GD32E23x/Source/gd32e23x_timer.c ****       \arg        TIMER_OC_POLARITY_HIGH: channel output polarity is high
1200:Drivers/GD32E23x/Source/gd32e23x_timer.c ****       \arg        TIMER_OC_POLARITY_LOW: channel output polarity is low
1201:Drivers/GD32E23x/Source/gd32e23x_timer.c ****     \param[out] none
1202:Drivers/GD32E23x/Source/gd32e23x_timer.c ****     \retval     none
1203:Drivers/GD32E23x/Source/gd32e23x_timer.c **** */
1204:Drivers/GD32E23x/Source/gd32e23x_timer.c **** void timer_channel_output_polarity_config(uint32_t timer_periph, uint16_t channel, uint16_t ocpolar
1205:Drivers/GD32E23x/Source/gd32e23x_timer.c **** {
 2631              		.loc 1 1205 1 view -0
 2632              		.cfi_startproc
 2633              		@ args = 0, pretend = 0, frame = 0
 2634              		@ frame_needed = 0, uses_anonymous_args = 0
 2635              		@ link register save eliminated.
1206:Drivers/GD32E23x/Source/gd32e23x_timer.c ****     switch(channel){
 2636              		.loc 1 1206 5 view .LVU656
 2637 0000 0229     		cmp	r1, #2
 2638 0002 1FD0     		beq	.L151
 2639 0004 0BD8     		bhi	.L152
 2640 0006 A9B1     		cbz	r1, .L153
 2641 0008 0129     		cmp	r1, #1
 2642 000a 1AD1     		bne	.L150
1207:Drivers/GD32E23x/Source/gd32e23x_timer.c ****     /* configure TIMER_CH_0 */
1208:Drivers/GD32E23x/Source/gd32e23x_timer.c ****     case TIMER_CH_0:
1209:Drivers/GD32E23x/Source/gd32e23x_timer.c ****         TIMER_CHCTL2(timer_periph) &= (~(uint32_t)TIMER_CHCTL2_CH0P);
1210:Drivers/GD32E23x/Source/gd32e23x_timer.c ****         TIMER_CHCTL2(timer_periph) |= (uint32_t)ocpolarity;
1211:Drivers/GD32E23x/Source/gd32e23x_timer.c ****         break;
1212:Drivers/GD32E23x/Source/gd32e23x_timer.c ****     /* configure TIMER_CH_1 */
1213:Drivers/GD32E23x/Source/gd32e23x_timer.c ****     case TIMER_CH_1:
1214:Drivers/GD32E23x/Source/gd32e23x_timer.c ****         TIMER_CHCTL2(timer_periph) &= (~(uint32_t)TIMER_CHCTL2_CH1P);
 2643              		.loc 1 1214 9 view .LVU657
 2644 000c 036A     		ldr	r3, [r0, #32]
 2645              		.loc 1 1214 36 is_stmt 0 view .LVU658
 2646 000e 2021     		movs	r1, #32
 2647              	.LVL144:
 2648              		.loc 1 1214 36 view .LVU659
 2649 0010 8B43     		bics	r3, r1
 2650 0012 0362     		str	r3, [r0, #32]
1215:Drivers/GD32E23x/Source/gd32e23x_timer.c ****         TIMER_CHCTL2(timer_periph) |= (uint32_t)((uint32_t)ocpolarity << 4U);
 2651              		.loc 1 1215 9 is_stmt 1 view .LVU660
 2652 0014 036A     		ldr	r3, [r0, #32]
 2653              		.loc 1 1215 39 is_stmt 0 view .LVU661
 2654 0016 1201     		lsls	r2, r2, #4
 2655              	.LVL145:
 2656              		.loc 1 1215 36 view .LVU662
 2657 0018 1A43     		orrs	r2, r3
 2658 001a 0262     		str	r2, [r0, #32]
1216:Drivers/GD32E23x/Source/gd32e23x_timer.c ****         break;
 2659              		.loc 1 1216 9 is_stmt 1 view .LVU663
 2660 001c 11E0     		b	.L150
 2661              	.LVL146:
ARM GAS  D:\noval\Temp\cck0Iw0b.s 			page 71


 2662              	.L152:
1206:Drivers/GD32E23x/Source/gd32e23x_timer.c ****     /* configure TIMER_CH_0 */
 2663              		.loc 1 1206 5 is_stmt 0 view .LVU664
 2664 001e 0329     		cmp	r1, #3
 2665 0020 0FD1     		bne	.L150
1217:Drivers/GD32E23x/Source/gd32e23x_timer.c ****     /* configure TIMER_CH_2 */
1218:Drivers/GD32E23x/Source/gd32e23x_timer.c ****     case TIMER_CH_2:
1219:Drivers/GD32E23x/Source/gd32e23x_timer.c ****         TIMER_CHCTL2(timer_periph) &= (~(uint32_t)TIMER_CHCTL2_CH2P);
1220:Drivers/GD32E23x/Source/gd32e23x_timer.c ****         TIMER_CHCTL2(timer_periph) |= (uint32_t)((uint32_t)ocpolarity << 8U);
1221:Drivers/GD32E23x/Source/gd32e23x_timer.c ****         break;
1222:Drivers/GD32E23x/Source/gd32e23x_timer.c ****     /* configure TIMER_CH_3 */
1223:Drivers/GD32E23x/Source/gd32e23x_timer.c ****     case TIMER_CH_3:
1224:Drivers/GD32E23x/Source/gd32e23x_timer.c ****         TIMER_CHCTL2(timer_periph) &= (~(uint32_t)TIMER_CHCTL2_CH3P);
 2666              		.loc 1 1224 9 is_stmt 1 view .LVU665
 2667 0022 036A     		ldr	r3, [r0, #32]
 2668              		.loc 1 1224 36 is_stmt 0 view .LVU666
 2669 0024 0C49     		ldr	r1, .L157
 2670              	.LVL147:
 2671              		.loc 1 1224 36 view .LVU667
 2672 0026 0B40     		ands	r3, r1
 2673 0028 0362     		str	r3, [r0, #32]
1225:Drivers/GD32E23x/Source/gd32e23x_timer.c ****         TIMER_CHCTL2(timer_periph) |= (uint32_t)((uint32_t)ocpolarity << 12U);
 2674              		.loc 1 1225 9 is_stmt 1 view .LVU668
 2675 002a 036A     		ldr	r3, [r0, #32]
 2676              		.loc 1 1225 39 is_stmt 0 view .LVU669
 2677 002c 1203     		lsls	r2, r2, #12
 2678              	.LVL148:
 2679              		.loc 1 1225 36 view .LVU670
 2680 002e 1343     		orrs	r3, r2
 2681 0030 0362     		str	r3, [r0, #32]
1226:Drivers/GD32E23x/Source/gd32e23x_timer.c ****         break;
 2682              		.loc 1 1226 9 is_stmt 1 view .LVU671
1227:Drivers/GD32E23x/Source/gd32e23x_timer.c ****     default:
1228:Drivers/GD32E23x/Source/gd32e23x_timer.c ****         break;
1229:Drivers/GD32E23x/Source/gd32e23x_timer.c ****     }
1230:Drivers/GD32E23x/Source/gd32e23x_timer.c **** }
 2683              		.loc 1 1230 1 is_stmt 0 view .LVU672
 2684 0032 06E0     		b	.L150
 2685              	.LVL149:
 2686              	.L153:
1209:Drivers/GD32E23x/Source/gd32e23x_timer.c ****         TIMER_CHCTL2(timer_periph) |= (uint32_t)ocpolarity;
 2687              		.loc 1 1209 9 is_stmt 1 view .LVU673
 2688 0034 036A     		ldr	r3, [r0, #32]
1209:Drivers/GD32E23x/Source/gd32e23x_timer.c ****         TIMER_CHCTL2(timer_periph) |= (uint32_t)ocpolarity;
 2689              		.loc 1 1209 36 is_stmt 0 view .LVU674
 2690 0036 0221     		movs	r1, #2
 2691              	.LVL150:
1209:Drivers/GD32E23x/Source/gd32e23x_timer.c ****         TIMER_CHCTL2(timer_periph) |= (uint32_t)ocpolarity;
 2692              		.loc 1 1209 36 view .LVU675
 2693 0038 8B43     		bics	r3, r1
 2694 003a 0362     		str	r3, [r0, #32]
1210:Drivers/GD32E23x/Source/gd32e23x_timer.c ****         break;
 2695              		.loc 1 1210 9 is_stmt 1 view .LVU676
 2696 003c 036A     		ldr	r3, [r0, #32]
1210:Drivers/GD32E23x/Source/gd32e23x_timer.c ****         break;
 2697              		.loc 1 1210 36 is_stmt 0 view .LVU677
 2698 003e 1343     		orrs	r3, r2
ARM GAS  D:\noval\Temp\cck0Iw0b.s 			page 72


 2699 0040 0362     		str	r3, [r0, #32]
1211:Drivers/GD32E23x/Source/gd32e23x_timer.c ****     /* configure TIMER_CH_1 */
 2700              		.loc 1 1211 9 is_stmt 1 view .LVU678
 2701              	.LVL151:
 2702              	.L150:
 2703              		.loc 1 1230 1 is_stmt 0 view .LVU679
 2704              		@ sp needed
 2705 0042 7047     		bx	lr
 2706              	.LVL152:
 2707              	.L151:
1219:Drivers/GD32E23x/Source/gd32e23x_timer.c ****         TIMER_CHCTL2(timer_periph) |= (uint32_t)((uint32_t)ocpolarity << 8U);
 2708              		.loc 1 1219 9 is_stmt 1 view .LVU680
 2709 0044 036A     		ldr	r3, [r0, #32]
1219:Drivers/GD32E23x/Source/gd32e23x_timer.c ****         TIMER_CHCTL2(timer_periph) |= (uint32_t)((uint32_t)ocpolarity << 8U);
 2710              		.loc 1 1219 36 is_stmt 0 view .LVU681
 2711 0046 0549     		ldr	r1, .L157+4
 2712              	.LVL153:
1219:Drivers/GD32E23x/Source/gd32e23x_timer.c ****         TIMER_CHCTL2(timer_periph) |= (uint32_t)((uint32_t)ocpolarity << 8U);
 2713              		.loc 1 1219 36 view .LVU682
 2714 0048 0B40     		ands	r3, r1
 2715 004a 0362     		str	r3, [r0, #32]
1220:Drivers/GD32E23x/Source/gd32e23x_timer.c ****         break;
 2716              		.loc 1 1220 9 is_stmt 1 view .LVU683
 2717 004c 036A     		ldr	r3, [r0, #32]
1220:Drivers/GD32E23x/Source/gd32e23x_timer.c ****         break;
 2718              		.loc 1 1220 39 is_stmt 0 view .LVU684
 2719 004e 1202     		lsls	r2, r2, #8
 2720              	.LVL154:
1220:Drivers/GD32E23x/Source/gd32e23x_timer.c ****         break;
 2721              		.loc 1 1220 36 view .LVU685
 2722 0050 1A43     		orrs	r2, r3
 2723 0052 0262     		str	r2, [r0, #32]
1221:Drivers/GD32E23x/Source/gd32e23x_timer.c ****     /* configure TIMER_CH_3 */
 2724              		.loc 1 1221 9 is_stmt 1 view .LVU686
 2725 0054 F5E7     		b	.L150
 2726              	.L158:
 2727 0056 C046     		.align	2
 2728              	.L157:
 2729 0058 FFDFFFFF 		.word	-8193
 2730 005c FFFDFFFF 		.word	-513
 2731              		.cfi_endproc
 2732              	.LFE108:
 2734              		.section	.text.timer_channel_complementary_output_polarity_config,"ax",%progbits
 2735              		.align	1
 2736              		.global	timer_channel_complementary_output_polarity_config
 2737              		.syntax unified
 2738              		.code	16
 2739              		.thumb_func
 2741              	timer_channel_complementary_output_polarity_config:
 2742              	.LVL155:
 2743              	.LFB109:
1231:Drivers/GD32E23x/Source/gd32e23x_timer.c **** 
1232:Drivers/GD32E23x/Source/gd32e23x_timer.c **** /*!
1233:Drivers/GD32E23x/Source/gd32e23x_timer.c ****     \brief      configure TIMER channel complementary output polarity 
1234:Drivers/GD32E23x/Source/gd32e23x_timer.c ****     \param[in]  timer_periph: TIMERx(x=0,2,14)
1235:Drivers/GD32E23x/Source/gd32e23x_timer.c ****     \param[in]  channel:
1236:Drivers/GD32E23x/Source/gd32e23x_timer.c ****                 only one parameter can be selected which is shown as below:
ARM GAS  D:\noval\Temp\cck0Iw0b.s 			page 73


1237:Drivers/GD32E23x/Source/gd32e23x_timer.c ****       \arg        TIMER_CH_0: TIMER channel0(TIMERx(x=0,2,13..16))
1238:Drivers/GD32E23x/Source/gd32e23x_timer.c ****       \arg        TIMER_CH_1: TIMER channel1(TIMERx(x=0,2,14))
1239:Drivers/GD32E23x/Source/gd32e23x_timer.c ****       \arg        TIMER_CH_2: TIMER channel2(TIMERx(x=0,2))
1240:Drivers/GD32E23x/Source/gd32e23x_timer.c ****       \arg        TIMER_CH_3: TIMER channel2(TIMERx(x=0,2))
1241:Drivers/GD32E23x/Source/gd32e23x_timer.c ****     \param[in]  ocnpolarity: channel complementary output polarity 
1242:Drivers/GD32E23x/Source/gd32e23x_timer.c ****                 only one parameter can be selected which is shown as below:
1243:Drivers/GD32E23x/Source/gd32e23x_timer.c ****       \arg        TIMER_OCN_POLARITY_HIGH: channel complementary output polarity is high
1244:Drivers/GD32E23x/Source/gd32e23x_timer.c ****       \arg        TIMER_OCN_POLARITY_LOW: channel complementary output polarity is low
1245:Drivers/GD32E23x/Source/gd32e23x_timer.c ****     \param[out] none
1246:Drivers/GD32E23x/Source/gd32e23x_timer.c ****     \retval     none
1247:Drivers/GD32E23x/Source/gd32e23x_timer.c **** */
1248:Drivers/GD32E23x/Source/gd32e23x_timer.c **** void timer_channel_complementary_output_polarity_config(uint32_t timer_periph, uint16_t channel, ui
1249:Drivers/GD32E23x/Source/gd32e23x_timer.c **** {
 2744              		.loc 1 1249 1 view -0
 2745              		.cfi_startproc
 2746              		@ args = 0, pretend = 0, frame = 0
 2747              		@ frame_needed = 0, uses_anonymous_args = 0
 2748              		@ link register save eliminated.
1250:Drivers/GD32E23x/Source/gd32e23x_timer.c ****     switch(channel){
 2749              		.loc 1 1250 5 view .LVU688
 2750 0000 0229     		cmp	r1, #2
 2751 0002 1FD0     		beq	.L160
 2752 0004 0BD8     		bhi	.L161
 2753 0006 A9B1     		cbz	r1, .L162
 2754 0008 0129     		cmp	r1, #1
 2755 000a 1AD1     		bne	.L159
1251:Drivers/GD32E23x/Source/gd32e23x_timer.c ****     /* configure TIMER_CH_0 */
1252:Drivers/GD32E23x/Source/gd32e23x_timer.c ****     case TIMER_CH_0:
1253:Drivers/GD32E23x/Source/gd32e23x_timer.c ****         TIMER_CHCTL2(timer_periph) &= (~(uint32_t)TIMER_CHCTL2_CH0NP);
1254:Drivers/GD32E23x/Source/gd32e23x_timer.c ****         TIMER_CHCTL2(timer_periph) |= (uint32_t)ocnpolarity;
1255:Drivers/GD32E23x/Source/gd32e23x_timer.c ****         break;
1256:Drivers/GD32E23x/Source/gd32e23x_timer.c ****     /* configure TIMER_CH_1 */
1257:Drivers/GD32E23x/Source/gd32e23x_timer.c ****     case TIMER_CH_1:
1258:Drivers/GD32E23x/Source/gd32e23x_timer.c ****         TIMER_CHCTL2(timer_periph) &= (~(uint32_t)TIMER_CHCTL2_CH1NP);
 2756              		.loc 1 1258 9 view .LVU689
 2757 000c 036A     		ldr	r3, [r0, #32]
 2758              		.loc 1 1258 36 is_stmt 0 view .LVU690
 2759 000e 8021     		movs	r1, #128
 2760              	.LVL156:
 2761              		.loc 1 1258 36 view .LVU691
 2762 0010 8B43     		bics	r3, r1
 2763 0012 0362     		str	r3, [r0, #32]
1259:Drivers/GD32E23x/Source/gd32e23x_timer.c ****         TIMER_CHCTL2(timer_periph) |= (uint32_t)((uint32_t)ocnpolarity << 4U);
 2764              		.loc 1 1259 9 is_stmt 1 view .LVU692
 2765 0014 036A     		ldr	r3, [r0, #32]
 2766              		.loc 1 1259 39 is_stmt 0 view .LVU693
 2767 0016 1201     		lsls	r2, r2, #4
 2768              	.LVL157:
 2769              		.loc 1 1259 36 view .LVU694
 2770 0018 1A43     		orrs	r2, r3
 2771 001a 0262     		str	r2, [r0, #32]
