ARM GAS  D:\noval\Temp\ccDqp2rO.s 			page 1


   1              		.cpu cortex-m23
   2              		.arch armv8-m.base
   3              		.fpu softvfp
   4              		.eabi_attribute 20, 1
   5              		.eabi_attribute 21, 1
   6              		.eabi_attribute 23, 3
   7              		.eabi_attribute 24, 1
   8              		.eabi_attribute 25, 1
   9              		.eabi_attribute 26, 1
  10              		.eabi_attribute 30, 1
  11              		.eabi_attribute 34, 0
  12              		.eabi_attribute 18, 4
  13              		.file	"gd32e23x_usart.c"
  14              		.text
  15              	.Ltext0:
  16              		.cfi_sections	.debug_frame
  17              		.file 1 "Drivers/GD32E23x/Source/gd32e23x_usart.c"
  18              		.section	.text.usart_deinit,"ax",%progbits
  19              		.align	1
  20              		.global	usart_deinit
  21              		.syntax unified
  22              		.code	16
  23              		.thumb_func
  25              	usart_deinit:
  26              	.LVL0:
  27              	.LFB60:
   1:Drivers/GD32E23x/Source/gd32e23x_usart.c **** /*!
   2:Drivers/GD32E23x/Source/gd32e23x_usart.c ****     \file    gd32e23x_usart.c
   3:Drivers/GD32E23x/Source/gd32e23x_usart.c ****     \brief   USART driver
   4:Drivers/GD32E23x/Source/gd32e23x_usart.c ****     
   5:Drivers/GD32E23x/Source/gd32e23x_usart.c ****     \version 2024-02-22, V2.1.0, firmware for GD32E23x
   6:Drivers/GD32E23x/Source/gd32e23x_usart.c **** */
   7:Drivers/GD32E23x/Source/gd32e23x_usart.c **** 
   8:Drivers/GD32E23x/Source/gd32e23x_usart.c **** /*
   9:Drivers/GD32E23x/Source/gd32e23x_usart.c ****     Copyright (c) 2024, GigaDevice Semiconductor Inc.
  10:Drivers/GD32E23x/Source/gd32e23x_usart.c **** 
  11:Drivers/GD32E23x/Source/gd32e23x_usart.c ****     Redistribution and use in source and binary forms, with or without modification, 
  12:Drivers/GD32E23x/Source/gd32e23x_usart.c **** are permitted provided that the following conditions are met:
  13:Drivers/GD32E23x/Source/gd32e23x_usart.c **** 
  14:Drivers/GD32E23x/Source/gd32e23x_usart.c ****     1. Redistributions of source code must retain the above copyright notice, this 
  15:Drivers/GD32E23x/Source/gd32e23x_usart.c ****        list of conditions and the following disclaimer.
  16:Drivers/GD32E23x/Source/gd32e23x_usart.c ****     2. Redistributions in binary form must reproduce the above copyright notice, 
  17:Drivers/GD32E23x/Source/gd32e23x_usart.c ****        this list of conditions and the following disclaimer in the documentation 
  18:Drivers/GD32E23x/Source/gd32e23x_usart.c ****        and/or other materials provided with the distribution.
  19:Drivers/GD32E23x/Source/gd32e23x_usart.c ****     3. Neither the name of the copyright holder nor the names of its contributors 
  20:Drivers/GD32E23x/Source/gd32e23x_usart.c ****        may be used to endorse or promote products derived from this software without 
  21:Drivers/GD32E23x/Source/gd32e23x_usart.c ****        specific prior written permission.
  22:Drivers/GD32E23x/Source/gd32e23x_usart.c **** 
  23:Drivers/GD32E23x/Source/gd32e23x_usart.c ****     THIS SOFTWARE IS PROVIDED BY THE COPYRIGHT HOLDERS AND CONTRIBUTORS "AS IS" 
  24:Drivers/GD32E23x/Source/gd32e23x_usart.c **** AND ANY EXPRESS OR IMPLIED WARRANTIES, INCLUDING, BUT NOT LIMITED TO, THE IMPLIED 
  25:Drivers/GD32E23x/Source/gd32e23x_usart.c **** WARRANTIES OF MERCHANTABILITY AND FITNESS FOR A PARTICULAR PURPOSE ARE DISCLAIMED. 
  26:Drivers/GD32E23x/Source/gd32e23x_usart.c **** IN NO EVENT SHALL THE COPYRIGHT HOLDER OR CONTRIBUTORS BE LIABLE FOR ANY DIRECT, 
  27:Drivers/GD32E23x/Source/gd32e23x_usart.c **** INDIRECT, INCIDENTAL, SPECIAL, EXEMPLARY, OR CONSEQUENTIAL DAMAGES (INCLUDING, BUT 
  28:Drivers/GD32E23x/Source/gd32e23x_usart.c **** NOT LIMITED TO, PROCUREMENT OF SUBSTITUTE GOODS OR SERVICES; LOSS OF USE, DATA, OR 
  29:Drivers/GD32E23x/Source/gd32e23x_usart.c **** PROFITS; OR BUSINESS INTERRUPTION) HOWEVER CAUSED AND ON ANY THEORY OF LIABILITY, 
  30:Drivers/GD32E23x/Source/gd32e23x_usart.c **** WHETHER IN CONTRACT, STRICT LIABILITY, OR TORT (INCLUDING NEGLIGENCE OR OTHERWISE) 
  31:Drivers/GD32E23x/Source/gd32e23x_usart.c **** ARISING IN ANY WAY OUT OF THE USE OF THIS SOFTWARE, EVEN IF ADVISED OF THE POSSIBILITY 
ARM GAS  D:\noval\Temp\ccDqp2rO.s 			page 2


  32:Drivers/GD32E23x/Source/gd32e23x_usart.c **** OF SUCH DAMAGE.
  33:Drivers/GD32E23x/Source/gd32e23x_usart.c **** */
  34:Drivers/GD32E23x/Source/gd32e23x_usart.c **** 
  35:Drivers/GD32E23x/Source/gd32e23x_usart.c **** #include "gd32e23x_usart.h"
  36:Drivers/GD32E23x/Source/gd32e23x_usart.c **** 
  37:Drivers/GD32E23x/Source/gd32e23x_usart.c **** /*!
  38:Drivers/GD32E23x/Source/gd32e23x_usart.c ****     \brief      reset USART
  39:Drivers/GD32E23x/Source/gd32e23x_usart.c ****     \param[in]  usart_periph: USARTx(x=0,1)
  40:Drivers/GD32E23x/Source/gd32e23x_usart.c ****     \param[out] none
  41:Drivers/GD32E23x/Source/gd32e23x_usart.c ****     \retval     none
  42:Drivers/GD32E23x/Source/gd32e23x_usart.c **** */
  43:Drivers/GD32E23x/Source/gd32e23x_usart.c **** void usart_deinit(uint32_t usart_periph)
  44:Drivers/GD32E23x/Source/gd32e23x_usart.c **** {
  28              		.loc 1 44 1 view -0
  29              		.cfi_startproc
  30              		@ args = 0, pretend = 0, frame = 0
  31              		@ frame_needed = 0, uses_anonymous_args = 0
  32              		.loc 1 44 1 is_stmt 0 view .LVU1
  33 0000 10B5     		push	{r4, lr}
  34              	.LCFI0:
  35              		.cfi_def_cfa_offset 8
  36              		.cfi_offset 4, -8
  37              		.cfi_offset 14, -4
  45:Drivers/GD32E23x/Source/gd32e23x_usart.c ****     switch(usart_periph){
  38              		.loc 1 45 5 is_stmt 1 view .LVU2
  39 0002 44F20043 		movw	r3, #17408
  40 0006 C4F20003 		movt	r3, 16384
  41 000a 9842     		cmp	r0, r3
  42 000c 0ED0     		beq	.L2
  43 000e 43F60003 		movw	r3, #14336
  44 0012 C4F20103 		movt	r3, 16385
  45 0016 9842     		cmp	r0, r3
  46 0018 07D1     		bne	.L1
  46:Drivers/GD32E23x/Source/gd32e23x_usart.c ****     case USART0:
  47:Drivers/GD32E23x/Source/gd32e23x_usart.c ****         /* reset USART0 */
  48:Drivers/GD32E23x/Source/gd32e23x_usart.c ****         rcu_periph_reset_enable(RCU_USART0RST);
  47              		.loc 1 48 9 view .LVU3
  48 001a 40F20E30 		movw	r0, #782
  49              	.LVL1:
  50              		.loc 1 48 9 is_stmt 0 view .LVU4
  51 001e FFF7FEFF 		bl	rcu_periph_reset_enable
  52              	.LVL2:
  49:Drivers/GD32E23x/Source/gd32e23x_usart.c ****         rcu_periph_reset_disable(RCU_USART0RST);
  53              		.loc 1 49 9 is_stmt 1 view .LVU5
  54 0022 40F20E30 		movw	r0, #782
  55 0026 FFF7FEFF 		bl	rcu_periph_reset_disable
  56              	.LVL3:
  50:Drivers/GD32E23x/Source/gd32e23x_usart.c ****         break;
  57              		.loc 1 50 9 view .LVU6
  58              	.L1:
  51:Drivers/GD32E23x/Source/gd32e23x_usart.c ****     case USART1:
  52:Drivers/GD32E23x/Source/gd32e23x_usart.c ****         /* reset USART1 */
  53:Drivers/GD32E23x/Source/gd32e23x_usart.c ****         rcu_periph_reset_enable(RCU_USART1RST);
  54:Drivers/GD32E23x/Source/gd32e23x_usart.c ****         rcu_periph_reset_disable(RCU_USART1RST);
  55:Drivers/GD32E23x/Source/gd32e23x_usart.c ****         break;
  56:Drivers/GD32E23x/Source/gd32e23x_usart.c ****     default:
  57:Drivers/GD32E23x/Source/gd32e23x_usart.c ****         break;
ARM GAS  D:\noval\Temp\ccDqp2rO.s 			page 3


  58:Drivers/GD32E23x/Source/gd32e23x_usart.c ****     }
  59:Drivers/GD32E23x/Source/gd32e23x_usart.c **** }
  59              		.loc 1 59 1 is_stmt 0 view .LVU7
  60              		@ sp needed
  61 002a 10BD     		pop	{r4, pc}
  62              	.LVL4:
  63              	.L2:
  53:Drivers/GD32E23x/Source/gd32e23x_usart.c ****         rcu_periph_reset_disable(RCU_USART1RST);
  64              		.loc 1 53 9 is_stmt 1 view .LVU8
  65 002c 40F21140 		movw	r0, #1041
  66              	.LVL5:
  53:Drivers/GD32E23x/Source/gd32e23x_usart.c ****         rcu_periph_reset_disable(RCU_USART1RST);
  67              		.loc 1 53 9 is_stmt 0 view .LVU9
  68 0030 FFF7FEFF 		bl	rcu_periph_reset_enable
  69              	.LVL6:
  54:Drivers/GD32E23x/Source/gd32e23x_usart.c ****         break;
  70              		.loc 1 54 9 is_stmt 1 view .LVU10
  71 0034 40F21140 		movw	r0, #1041
  72 0038 FFF7FEFF 		bl	rcu_periph_reset_disable
  73              	.LVL7:
  55:Drivers/GD32E23x/Source/gd32e23x_usart.c ****     default:
  74              		.loc 1 55 9 view .LVU11
  75              		.loc 1 59 1 is_stmt 0 view .LVU12
  76 003c F5E7     		b	.L1
  77              		.cfi_endproc
  78              	.LFE60:
  80              		.section	.text.usart_baudrate_set,"ax",%progbits
  81              		.align	1
  82              		.global	usart_baudrate_set
  83              		.syntax unified
  84              		.code	16
  85              		.thumb_func
  87              	usart_baudrate_set:
  88              	.LVL8:
  89              	.LFB61:
  60:Drivers/GD32E23x/Source/gd32e23x_usart.c **** 
  61:Drivers/GD32E23x/Source/gd32e23x_usart.c **** /*!
  62:Drivers/GD32E23x/Source/gd32e23x_usart.c ****     \brief      configure USART baud rate value
  63:Drivers/GD32E23x/Source/gd32e23x_usart.c ****     \param[in]  usart_periph: USARTx(x=0,1)
  64:Drivers/GD32E23x/Source/gd32e23x_usart.c ****     \param[in]  baudval: baud rate value
  65:Drivers/GD32E23x/Source/gd32e23x_usart.c ****     \param[out] none
  66:Drivers/GD32E23x/Source/gd32e23x_usart.c ****     \retval     none
  67:Drivers/GD32E23x/Source/gd32e23x_usart.c **** */ 
  68:Drivers/GD32E23x/Source/gd32e23x_usart.c **** void usart_baudrate_set(uint32_t usart_periph, uint32_t baudval)
  69:Drivers/GD32E23x/Source/gd32e23x_usart.c **** {
  90              		.loc 1 69 1 is_stmt 1 view -0
  91              		.cfi_startproc
  92              		@ args = 0, pretend = 0, frame = 0
  93              		@ frame_needed = 0, uses_anonymous_args = 0
  94              		.loc 1 69 1 is_stmt 0 view .LVU14
  95 0000 70B5     		push	{r4, r5, r6, lr}
  96              	.LCFI1:
  97              		.cfi_def_cfa_offset 16
  98              		.cfi_offset 4, -16
  99              		.cfi_offset 5, -12
 100              		.cfi_offset 6, -8
 101              		.cfi_offset 14, -4
ARM GAS  D:\noval\Temp\ccDqp2rO.s 			page 4


 102 0002 0400     		movs	r4, r0
 103 0004 0D00     		movs	r5, r1
  70:Drivers/GD32E23x/Source/gd32e23x_usart.c ****     uint32_t uclk = 0U, intdiv = 0U, fradiv = 0U, udiv = 0U;
 104              		.loc 1 70 5 is_stmt 1 view .LVU15
 105              	.LVL9:
  71:Drivers/GD32E23x/Source/gd32e23x_usart.c ****     switch(usart_periph){
 106              		.loc 1 71 5 view .LVU16
 107 0006 44F20043 		movw	r3, #17408
 108 000a C4F20003 		movt	r3, 16384
 109 000e 9842     		cmp	r0, r3
 110 0010 19D0     		beq	.L5
 111 0012 43F60003 		movw	r3, #14336
 112 0016 C4F20103 		movt	r3, 16385
 113 001a 9842     		cmp	r0, r3
 114 001c 17D1     		bne	.L9
  72:Drivers/GD32E23x/Source/gd32e23x_usart.c ****          /* get clock frequency */
  73:Drivers/GD32E23x/Source/gd32e23x_usart.c ****     case USART0:
  74:Drivers/GD32E23x/Source/gd32e23x_usart.c ****          /* get USART0 clock */
  75:Drivers/GD32E23x/Source/gd32e23x_usart.c ****          uclk = rcu_clock_freq_get(CK_USART);
 115              		.loc 1 75 10 view .LVU17
 116              		.loc 1 75 17 is_stmt 0 view .LVU18
 117 001e 0520     		movs	r0, #5
 118              	.LVL10:
 119              		.loc 1 75 17 view .LVU19
 120 0020 FFF7FEFF 		bl	rcu_clock_freq_get
 121              	.LVL11:
  76:Drivers/GD32E23x/Source/gd32e23x_usart.c ****          break;
 122              		.loc 1 76 10 is_stmt 1 view .LVU20
 123              	.L6:
  77:Drivers/GD32E23x/Source/gd32e23x_usart.c ****     case USART1:
  78:Drivers/GD32E23x/Source/gd32e23x_usart.c ****          /* get USART1 clock */
  79:Drivers/GD32E23x/Source/gd32e23x_usart.c ****          uclk = rcu_clock_freq_get(CK_APB1);
  80:Drivers/GD32E23x/Source/gd32e23x_usart.c ****          break;
  81:Drivers/GD32E23x/Source/gd32e23x_usart.c ****     default:
  82:Drivers/GD32E23x/Source/gd32e23x_usart.c ****          break;
  83:Drivers/GD32E23x/Source/gd32e23x_usart.c ****     }
  84:Drivers/GD32E23x/Source/gd32e23x_usart.c ****     if(USART_CTL0(usart_periph) & USART_CTL0_OVSMOD){
 124              		.loc 1 84 5 view .LVU21
 125              		.loc 1 84 8 is_stmt 0 view .LVU22
 126 0024 2368     		ldr	r3, [r4]
 127              		.loc 1 84 7 view .LVU23
 128 0026 1B04     		lsls	r3, r3, #16
 129 0028 13D5     		bpl	.L7
  85:Drivers/GD32E23x/Source/gd32e23x_usart.c ****         /* oversampling by 8, configure the value of USART_BAUD */
  86:Drivers/GD32E23x/Source/gd32e23x_usart.c ****         udiv = ((2U*uclk)+baudval/2U)/baudval;
 130              		.loc 1 86 9 is_stmt 1 view .LVU24
 131              		.loc 1 86 20 is_stmt 0 view .LVU25
 132 002a 4300     		lsls	r3, r0, #1
 133              		.loc 1 86 34 view .LVU26
 134 002c 6A08     		lsrs	r2, r5, #1
 135              		.loc 1 86 26 view .LVU27
 136 002e 9B18     		adds	r3, r3, r2
 137              		.loc 1 86 14 view .LVU28
 138 0030 B3FBF5F1 		udiv	r1, r3, r5
 139              	.LVL12:
  87:Drivers/GD32E23x/Source/gd32e23x_usart.c ****         intdiv = udiv & 0x0000fff0U;
 140              		.loc 1 87 9 is_stmt 1 view .LVU29
ARM GAS  D:\noval\Temp\ccDqp2rO.s 			page 5


 141              		.loc 1 87 16 is_stmt 0 view .LVU30
 142 0034 4FF6F073 		movw	r3, #65520
 143 0038 0B40     		ands	r3, r1
 144              	.LVL13:
  88:Drivers/GD32E23x/Source/gd32e23x_usart.c ****         fradiv = (udiv>>1U) & 0x00000007U;
 145              		.loc 1 88 9 is_stmt 1 view .LVU31
 146              		.loc 1 88 23 is_stmt 0 view .LVU32
 147 003a 4908     		lsrs	r1, r1, #1
 148              	.LVL14:
 149              		.loc 1 88 16 view .LVU33
 150 003c 0722     		movs	r2, #7
 151              	.LVL15:
 152              		.loc 1 88 16 view .LVU34
 153 003e 0A40     		ands	r2, r1
 154              	.LVL16:
  89:Drivers/GD32E23x/Source/gd32e23x_usart.c ****         USART_BAUD(usart_periph) = ((USART_BAUD_FRADIV | USART_BAUD_INTDIV) & (intdiv | fradiv));
 155              		.loc 1 89 9 is_stmt 1 view .LVU35
 156              		.loc 1 89 77 is_stmt 0 view .LVU36
 157 0040 1343     		orrs	r3, r2
 158              	.LVL17:
 159              		.loc 1 89 34 view .LVU37
 160 0042 E360     		str	r3, [r4, #12]
 161              	.LVL18:
 162              	.L4:
  90:Drivers/GD32E23x/Source/gd32e23x_usart.c ****     }else{
  91:Drivers/GD32E23x/Source/gd32e23x_usart.c ****         /* oversampling by 16, configure the value of USART_BAUD */
  92:Drivers/GD32E23x/Source/gd32e23x_usart.c ****         udiv = (uclk+baudval/2U)/baudval;
  93:Drivers/GD32E23x/Source/gd32e23x_usart.c ****         intdiv = udiv & 0x0000fff0U;
  94:Drivers/GD32E23x/Source/gd32e23x_usart.c ****         fradiv = udiv & 0x0000000fU;
  95:Drivers/GD32E23x/Source/gd32e23x_usart.c ****         USART_BAUD(usart_periph) = ((USART_BAUD_FRADIV | USART_BAUD_INTDIV) & (intdiv | fradiv));
  96:Drivers/GD32E23x/Source/gd32e23x_usart.c ****     }
  97:Drivers/GD32E23x/Source/gd32e23x_usart.c **** }
 163              		.loc 1 97 1 view .LVU38
 164              		@ sp needed
 165              	.LVL19:
 166              	.LVL20:
 167              		.loc 1 97 1 view .LVU39
 168 0044 70BD     		pop	{r4, r5, r6, pc}
 169              	.LVL21:
 170              	.L5:
  79:Drivers/GD32E23x/Source/gd32e23x_usart.c ****          break;
 171              		.loc 1 79 10 is_stmt 1 view .LVU40
  79:Drivers/GD32E23x/Source/gd32e23x_usart.c ****          break;
 172              		.loc 1 79 17 is_stmt 0 view .LVU41
 173 0046 0220     		movs	r0, #2
 174              	.LVL22:
  79:Drivers/GD32E23x/Source/gd32e23x_usart.c ****          break;
 175              		.loc 1 79 17 view .LVU42
 176 0048 FFF7FEFF 		bl	rcu_clock_freq_get
 177              	.LVL23:
  80:Drivers/GD32E23x/Source/gd32e23x_usart.c ****     default:
 178              		.loc 1 80 10 is_stmt 1 view .LVU43
 179 004c EAE7     		b	.L6
 180              	.LVL24:
 181              	.L9:
  71:Drivers/GD32E23x/Source/gd32e23x_usart.c ****          /* get clock frequency */
 182              		.loc 1 71 5 is_stmt 0 view .LVU44
ARM GAS  D:\noval\Temp\ccDqp2rO.s 			page 6


 183 004e 0020     		movs	r0, #0
 184              	.LVL25:
  71:Drivers/GD32E23x/Source/gd32e23x_usart.c ****          /* get clock frequency */
 185              		.loc 1 71 5 view .LVU45
 186 0050 E8E7     		b	.L6
 187              	.LVL26:
 188              	.L7:
  92:Drivers/GD32E23x/Source/gd32e23x_usart.c ****         intdiv = udiv & 0x0000fff0U;
 189              		.loc 1 92 9 is_stmt 1 view .LVU46
  92:Drivers/GD32E23x/Source/gd32e23x_usart.c ****         intdiv = udiv & 0x0000fff0U;
 190              		.loc 1 92 29 is_stmt 0 view .LVU47
 191 0052 6B08     		lsrs	r3, r5, #1
  92:Drivers/GD32E23x/Source/gd32e23x_usart.c ****         intdiv = udiv & 0x0000fff0U;
 192              		.loc 1 92 21 view .LVU48
 193 0054 1B18     		adds	r3, r3, r0
  92:Drivers/GD32E23x/Source/gd32e23x_usart.c ****         intdiv = udiv & 0x0000fff0U;
 194              		.loc 1 92 14 view .LVU49
 195 0056 B3FBF5F3 		udiv	r3, r3, r5
 196              	.LVL27:
  93:Drivers/GD32E23x/Source/gd32e23x_usart.c ****         fradiv = udiv & 0x0000000fU;
 197              		.loc 1 93 9 is_stmt 1 view .LVU50
  94:Drivers/GD32E23x/Source/gd32e23x_usart.c ****         USART_BAUD(usart_periph) = ((USART_BAUD_FRADIV | USART_BAUD_INTDIV) & (intdiv | fradiv));
 198              		.loc 1 94 9 view .LVU51
  95:Drivers/GD32E23x/Source/gd32e23x_usart.c ****     }
 199              		.loc 1 95 9 view .LVU52
  95:Drivers/GD32E23x/Source/gd32e23x_usart.c ****     }
 200              		.loc 1 95 87 is_stmt 0 view .LVU53
 201 005a 4FF6FF72 		movw	r2, #65535
 202 005e 1340     		ands	r3, r2
 203              	.LVL28:
  95:Drivers/GD32E23x/Source/gd32e23x_usart.c ****     }
 204              		.loc 1 95 34 view .LVU54
 205 0060 E360     		str	r3, [r4, #12]
 206              		.loc 1 97 1 view .LVU55
 207 0062 EFE7     		b	.L4
 208              		.cfi_endproc
 209              	.LFE61:
 211              		.section	.text.usart_parity_config,"ax",%progbits
 212              		.align	1
 213              		.global	usart_parity_config
 214              		.syntax unified
 215              		.code	16
 216              		.thumb_func
 218              	usart_parity_config:
 219              	.LVL29:
 220              	.LFB62:
  98:Drivers/GD32E23x/Source/gd32e23x_usart.c **** 
  99:Drivers/GD32E23x/Source/gd32e23x_usart.c **** /*!
 100:Drivers/GD32E23x/Source/gd32e23x_usart.c ****     \brief      configure USART parity
 101:Drivers/GD32E23x/Source/gd32e23x_usart.c ****     \param[in]  usart_periph: USARTx(x=0,1)
 102:Drivers/GD32E23x/Source/gd32e23x_usart.c ****     \param[in]  paritycfg: USART parity configure
 103:Drivers/GD32E23x/Source/gd32e23x_usart.c ****                 only one parameter can be selected which is shown as below:
 104:Drivers/GD32E23x/Source/gd32e23x_usart.c ****       \arg        USART_PM_NONE: no parity
 105:Drivers/GD32E23x/Source/gd32e23x_usart.c ****       \arg        USART_PM_ODD: odd parity
 106:Drivers/GD32E23x/Source/gd32e23x_usart.c ****       \arg        USART_PM_EVEN: even parity
 107:Drivers/GD32E23x/Source/gd32e23x_usart.c ****     \param[out] none
 108:Drivers/GD32E23x/Source/gd32e23x_usart.c ****     \retval     none
ARM GAS  D:\noval\Temp\ccDqp2rO.s 			page 7


 109:Drivers/GD32E23x/Source/gd32e23x_usart.c **** */
 110:Drivers/GD32E23x/Source/gd32e23x_usart.c **** void usart_parity_config(uint32_t usart_periph, uint32_t paritycfg)
 111:Drivers/GD32E23x/Source/gd32e23x_usart.c **** {
 221              		.loc 1 111 1 is_stmt 1 view -0
 222              		.cfi_startproc
 223              		@ args = 0, pretend = 0, frame = 0
 224              		@ frame_needed = 0, uses_anonymous_args = 0
 225              		@ link register save eliminated.
 112:Drivers/GD32E23x/Source/gd32e23x_usart.c ****     /* disable USART */
 113:Drivers/GD32E23x/Source/gd32e23x_usart.c ****     USART_CTL0(usart_periph) &= ~(USART_CTL0_UEN);
 226              		.loc 1 113 5 view .LVU57
 227 0000 0368     		ldr	r3, [r0]
 228              		.loc 1 113 30 is_stmt 0 view .LVU58
 229 0002 0122     		movs	r2, #1
 230 0004 9343     		bics	r3, r2
 231 0006 0360     		str	r3, [r0]
 114:Drivers/GD32E23x/Source/gd32e23x_usart.c ****     /* clear USART_CTL0 PM,PCEN bits */
 115:Drivers/GD32E23x/Source/gd32e23x_usart.c ****     USART_CTL0(usart_periph) &= ~(USART_CTL0_PM | USART_CTL0_PCEN); 
 232              		.loc 1 115 5 is_stmt 1 view .LVU59
 233 0008 0368     		ldr	r3, [r0]
 234              		.loc 1 115 30 is_stmt 0 view .LVU60
 235 000a 034A     		ldr	r2, .L11
 236 000c 1340     		ands	r3, r2
 237 000e 0360     		str	r3, [r0]
 116:Drivers/GD32E23x/Source/gd32e23x_usart.c ****     /* configure USART parity mode */
 117:Drivers/GD32E23x/Source/gd32e23x_usart.c ****     USART_CTL0(usart_periph) |= paritycfg;
 238              		.loc 1 117 5 is_stmt 1 view .LVU61
 239 0010 0368     		ldr	r3, [r0]
 240              		.loc 1 117 30 is_stmt 0 view .LVU62
 241 0012 0B43     		orrs	r3, r1
 242 0014 0360     		str	r3, [r0]
 118:Drivers/GD32E23x/Source/gd32e23x_usart.c **** }
 243              		.loc 1 118 1 view .LVU63
 244              		@ sp needed
 245 0016 7047     		bx	lr
 246              	.L12:
 247              		.align	2
 248              	.L11:
 249 0018 FFF9FFFF 		.word	-1537
 250              		.cfi_endproc
 251              	.LFE62:
 253              		.section	.text.usart_word_length_set,"ax",%progbits
 254              		.align	1
 255              		.global	usart_word_length_set
 256              		.syntax unified
 257              		.code	16
 258              		.thumb_func
 260              	usart_word_length_set:
 261              	.LVL30:
 262              	.LFB63:
 119:Drivers/GD32E23x/Source/gd32e23x_usart.c **** 
 120:Drivers/GD32E23x/Source/gd32e23x_usart.c **** /*!
 121:Drivers/GD32E23x/Source/gd32e23x_usart.c ****     \brief      configure USART word length
 122:Drivers/GD32E23x/Source/gd32e23x_usart.c ****     \param[in]  usart_periph: USARTx(x=0,1)
 123:Drivers/GD32E23x/Source/gd32e23x_usart.c ****     \param[in]  wlen: USART word length configure
 124:Drivers/GD32E23x/Source/gd32e23x_usart.c ****                 only one parameter can be selected which is shown as below:
 125:Drivers/GD32E23x/Source/gd32e23x_usart.c ****       \arg        USART_WL_8BIT: 8 bits
ARM GAS  D:\noval\Temp\ccDqp2rO.s 			page 8


 126:Drivers/GD32E23x/Source/gd32e23x_usart.c ****       \arg        USART_WL_9BIT: 9 bits
 127:Drivers/GD32E23x/Source/gd32e23x_usart.c ****     \param[out] none
 128:Drivers/GD32E23x/Source/gd32e23x_usart.c ****     \retval     none
 129:Drivers/GD32E23x/Source/gd32e23x_usart.c **** */
 130:Drivers/GD32E23x/Source/gd32e23x_usart.c **** void usart_word_length_set(uint32_t usart_periph, uint32_t wlen)
 131:Drivers/GD32E23x/Source/gd32e23x_usart.c **** {
 263              		.loc 1 131 1 is_stmt 1 view -0
 264              		.cfi_startproc
 265              		@ args = 0, pretend = 0, frame = 0
 266              		@ frame_needed = 0, uses_anonymous_args = 0
 267              		@ link register save eliminated.
 132:Drivers/GD32E23x/Source/gd32e23x_usart.c ****     /* disable USART */
 133:Drivers/GD32E23x/Source/gd32e23x_usart.c ****     USART_CTL0(usart_periph) &= ~(USART_CTL0_UEN);
 268              		.loc 1 133 5 view .LVU65
 269 0000 0368     		ldr	r3, [r0]
 270              		.loc 1 133 30 is_stmt 0 view .LVU66
 271 0002 0122     		movs	r2, #1
 272 0004 9343     		bics	r3, r2
 273 0006 0360     		str	r3, [r0]
 134:Drivers/GD32E23x/Source/gd32e23x_usart.c ****     /* clear USART_CTL0 WL bit */
 135:Drivers/GD32E23x/Source/gd32e23x_usart.c ****     USART_CTL0(usart_periph) &= ~USART_CTL0_WL;
 274              		.loc 1 135 5 is_stmt 1 view .LVU67
 275 0008 0368     		ldr	r3, [r0]
 276              		.loc 1 135 30 is_stmt 0 view .LVU68
 277 000a 034A     		ldr	r2, .L14
 278 000c 1340     		ands	r3, r2
 279 000e 0360     		str	r3, [r0]
 136:Drivers/GD32E23x/Source/gd32e23x_usart.c ****     /* configure USART word length */
 137:Drivers/GD32E23x/Source/gd32e23x_usart.c ****     USART_CTL0(usart_periph) |= wlen;
 280              		.loc 1 137 5 is_stmt 1 view .LVU69
 281 0010 0368     		ldr	r3, [r0]
 282              		.loc 1 137 30 is_stmt 0 view .LVU70
 283 0012 0B43     		orrs	r3, r1
 284 0014 0360     		str	r3, [r0]
 138:Drivers/GD32E23x/Source/gd32e23x_usart.c **** }
 285              		.loc 1 138 1 view .LVU71
 286              		@ sp needed
 287 0016 7047     		bx	lr
 288              	.L15:
 289              		.align	2
 290              	.L14:
 291 0018 FFEFFFFF 		.word	-4097
 292              		.cfi_endproc
 293              	.LFE63:
 295              		.section	.text.usart_stop_bit_set,"ax",%progbits
 296              		.align	1
 297              		.global	usart_stop_bit_set
 298              		.syntax unified
 299              		.code	16
 300              		.thumb_func
 302              	usart_stop_bit_set:
 303              	.LVL31:
 304              	.LFB64:
 139:Drivers/GD32E23x/Source/gd32e23x_usart.c **** 
 140:Drivers/GD32E23x/Source/gd32e23x_usart.c **** /*!
 141:Drivers/GD32E23x/Source/gd32e23x_usart.c ****     \brief      configure USART stop bit length
 142:Drivers/GD32E23x/Source/gd32e23x_usart.c ****     \param[in]  usart_periph: USARTx(x=0,1)
ARM GAS  D:\noval\Temp\ccDqp2rO.s 			page 9


 143:Drivers/GD32E23x/Source/gd32e23x_usart.c ****     \param[in]  stblen: USART stop bit configure
 144:Drivers/GD32E23x/Source/gd32e23x_usart.c ****                 only one parameter can be selected which is shown as below:
 145:Drivers/GD32E23x/Source/gd32e23x_usart.c ****       \arg        USART_STB_1BIT: 1 bit
 146:Drivers/GD32E23x/Source/gd32e23x_usart.c ****       \arg        USART_STB_0_5BIT: 0.5bit
 147:Drivers/GD32E23x/Source/gd32e23x_usart.c ****       \arg        USART_STB_2BIT: 2 bits
 148:Drivers/GD32E23x/Source/gd32e23x_usart.c ****       \arg        USART_STB_1_5BIT: 1.5bit
 149:Drivers/GD32E23x/Source/gd32e23x_usart.c ****     \param[out] none
 150:Drivers/GD32E23x/Source/gd32e23x_usart.c ****     \retval     none
 151:Drivers/GD32E23x/Source/gd32e23x_usart.c **** */
 152:Drivers/GD32E23x/Source/gd32e23x_usart.c **** void usart_stop_bit_set(uint32_t usart_periph, uint32_t stblen)
 153:Drivers/GD32E23x/Source/gd32e23x_usart.c **** {
 305              		.loc 1 153 1 is_stmt 1 view -0
 306              		.cfi_startproc
 307              		@ args = 0, pretend = 0, frame = 0
 308              		@ frame_needed = 0, uses_anonymous_args = 0
 309              		@ link register save eliminated.
 154:Drivers/GD32E23x/Source/gd32e23x_usart.c ****     /* disable USART */
 155:Drivers/GD32E23x/Source/gd32e23x_usart.c ****     USART_CTL0(usart_periph) &= ~(USART_CTL0_UEN);
 310              		.loc 1 155 5 view .LVU73
 311 0000 0368     		ldr	r3, [r0]
 312              		.loc 1 155 30 is_stmt 0 view .LVU74
 313 0002 0122     		movs	r2, #1
 314 0004 9343     		bics	r3, r2
 315 0006 0360     		str	r3, [r0]
 156:Drivers/GD32E23x/Source/gd32e23x_usart.c ****     /* clear USART_CTL1 STB bits */
 157:Drivers/GD32E23x/Source/gd32e23x_usart.c ****     USART_CTL1(usart_periph) &= ~USART_CTL1_STB;
 316              		.loc 1 157 5 is_stmt 1 view .LVU75
 317 0008 4368     		ldr	r3, [r0, #4]
 318              		.loc 1 157 30 is_stmt 0 view .LVU76
 319 000a 034A     		ldr	r2, .L17
 320 000c 1340     		ands	r3, r2
 321 000e 4360     		str	r3, [r0, #4]
 158:Drivers/GD32E23x/Source/gd32e23x_usart.c ****     USART_CTL1(usart_periph) |= stblen;
 322              		.loc 1 158 5 is_stmt 1 view .LVU77
 323 0010 4368     		ldr	r3, [r0, #4]
 324              		.loc 1 158 30 is_stmt 0 view .LVU78
 325 0012 0B43     		orrs	r3, r1
 326 0014 4360     		str	r3, [r0, #4]
 159:Drivers/GD32E23x/Source/gd32e23x_usart.c **** }
 327              		.loc 1 159 1 view .LVU79
 328              		@ sp needed
 329 0016 7047     		bx	lr
 330              	.L18:
 331              		.align	2
 332              	.L17:
 333 0018 FFCFFFFF 		.word	-12289
 334              		.cfi_endproc
 335              	.LFE64:
 337              		.section	.text.usart_enable,"ax",%progbits
 338              		.align	1
 339              		.global	usart_enable
 340              		.syntax unified
 341              		.code	16
 342              		.thumb_func
 344              	usart_enable:
 345              	.LVL32:
 346              	.LFB65:
ARM GAS  D:\noval\Temp\ccDqp2rO.s 			page 10


 160:Drivers/GD32E23x/Source/gd32e23x_usart.c **** 
 161:Drivers/GD32E23x/Source/gd32e23x_usart.c **** /*!
 162:Drivers/GD32E23x/Source/gd32e23x_usart.c ****     \brief      enable USART
 163:Drivers/GD32E23x/Source/gd32e23x_usart.c ****     \param[in]  usart_periph: USARTx(x=0,1)
 164:Drivers/GD32E23x/Source/gd32e23x_usart.c ****     \param[out] none
 165:Drivers/GD32E23x/Source/gd32e23x_usart.c ****     \retval     none
 166:Drivers/GD32E23x/Source/gd32e23x_usart.c **** */
 167:Drivers/GD32E23x/Source/gd32e23x_usart.c **** void usart_enable(uint32_t usart_periph)
 168:Drivers/GD32E23x/Source/gd32e23x_usart.c **** {
 347              		.loc 1 168 1 is_stmt 1 view -0
 348              		.cfi_startproc
 349              		@ args = 0, pretend = 0, frame = 0
 350              		@ frame_needed = 0, uses_anonymous_args = 0
 351              		@ link register save eliminated.
 169:Drivers/GD32E23x/Source/gd32e23x_usart.c ****     USART_CTL0(usart_periph) |= USART_CTL0_UEN;
 352              		.loc 1 169 5 view .LVU81
 353 0000 0368     		ldr	r3, [r0]
 354              		.loc 1 169 30 is_stmt 0 view .LVU82
 355 0002 0122     		movs	r2, #1
 356 0004 1343     		orrs	r3, r2
 357 0006 0360     		str	r3, [r0]
 170:Drivers/GD32E23x/Source/gd32e23x_usart.c **** }
 358              		.loc 1 170 1 view .LVU83
 359              		@ sp needed
 360 0008 7047     		bx	lr
 361              		.cfi_endproc
 362              	.LFE65:
 364              		.section	.text.usart_disable,"ax",%progbits
 365              		.align	1
 366              		.global	usart_disable
 367              		.syntax unified
 368              		.code	16
 369              		.thumb_func
 371              	usart_disable:
 372              	.LVL33:
 373              	.LFB66:
 171:Drivers/GD32E23x/Source/gd32e23x_usart.c **** 
 172:Drivers/GD32E23x/Source/gd32e23x_usart.c **** /*!
 173:Drivers/GD32E23x/Source/gd32e23x_usart.c ****     \brief      disable USART
 174:Drivers/GD32E23x/Source/gd32e23x_usart.c ****     \param[in]  usart_periph: USARTx(x=0,1)
 175:Drivers/GD32E23x/Source/gd32e23x_usart.c ****     \param[out] none
 176:Drivers/GD32E23x/Source/gd32e23x_usart.c ****     \retval     none
 177:Drivers/GD32E23x/Source/gd32e23x_usart.c **** */
 178:Drivers/GD32E23x/Source/gd32e23x_usart.c **** void usart_disable(uint32_t usart_periph)
 179:Drivers/GD32E23x/Source/gd32e23x_usart.c **** {
 374              		.loc 1 179 1 is_stmt 1 view -0
 375              		.cfi_startproc
 376              		@ args = 0, pretend = 0, frame = 0
 377              		@ frame_needed = 0, uses_anonymous_args = 0
 378              		@ link register save eliminated.
 180:Drivers/GD32E23x/Source/gd32e23x_usart.c ****     USART_CTL0(usart_periph) &= ~(USART_CTL0_UEN);
 379              		.loc 1 180 5 view .LVU85
 380 0000 0368     		ldr	r3, [r0]
 381              		.loc 1 180 30 is_stmt 0 view .LVU86
 382 0002 0122     		movs	r2, #1
 383 0004 9343     		bics	r3, r2
 384 0006 0360     		str	r3, [r0]
ARM GAS  D:\noval\Temp\ccDqp2rO.s 			page 11


 181:Drivers/GD32E23x/Source/gd32e23x_usart.c **** }
 385              		.loc 1 181 1 view .LVU87
 386              		@ sp needed
 387 0008 7047     		bx	lr
 388              		.cfi_endproc
 389              	.LFE66:
 391              		.section	.text.usart_transmit_config,"ax",%progbits
 392              		.align	1
 393              		.global	usart_transmit_config
 394              		.syntax unified
 395              		.code	16
 396              		.thumb_func
 398              	usart_transmit_config:
 399              	.LVL34:
 400              	.LFB67:
 182:Drivers/GD32E23x/Source/gd32e23x_usart.c **** 
 183:Drivers/GD32E23x/Source/gd32e23x_usart.c **** /*!
 184:Drivers/GD32E23x/Source/gd32e23x_usart.c ****     \brief      configure USART transmitter
 185:Drivers/GD32E23x/Source/gd32e23x_usart.c ****     \param[in]  usart_periph: USARTx(x=0,1)
 186:Drivers/GD32E23x/Source/gd32e23x_usart.c ****     \param[in]  txconfig: enable or disable USART transmitter
 187:Drivers/GD32E23x/Source/gd32e23x_usart.c ****                 only one parameter can be selected which is shown as below:
 188:Drivers/GD32E23x/Source/gd32e23x_usart.c ****       \arg        USART_TRANSMIT_ENABLE: enable USART transmission
 189:Drivers/GD32E23x/Source/gd32e23x_usart.c ****       \arg        USART_TRANSMIT_DISABLE: enable USART transmission
 190:Drivers/GD32E23x/Source/gd32e23x_usart.c ****     \param[out] none
 191:Drivers/GD32E23x/Source/gd32e23x_usart.c ****     \retval     none
 192:Drivers/GD32E23x/Source/gd32e23x_usart.c **** */
 193:Drivers/GD32E23x/Source/gd32e23x_usart.c **** void usart_transmit_config(uint32_t usart_periph, uint32_t txconfig)
 194:Drivers/GD32E23x/Source/gd32e23x_usart.c **** {
 401              		.loc 1 194 1 is_stmt 1 view -0
 402              		.cfi_startproc
 403              		@ args = 0, pretend = 0, frame = 0
 404              		@ frame_needed = 0, uses_anonymous_args = 0
 405              		@ link register save eliminated.
 195:Drivers/GD32E23x/Source/gd32e23x_usart.c ****     USART_CTL0(usart_periph) &= ~USART_CTL0_TEN;
 406              		.loc 1 195 5 view .LVU89
 407 0000 0368     		ldr	r3, [r0]
 408              		.loc 1 195 30 is_stmt 0 view .LVU90
 409 0002 0822     		movs	r2, #8
 410 0004 9343     		bics	r3, r2
 411 0006 0360     		str	r3, [r0]
 196:Drivers/GD32E23x/Source/gd32e23x_usart.c ****     /* configure transfer mode */
 197:Drivers/GD32E23x/Source/gd32e23x_usart.c ****     USART_CTL0(usart_periph) |= txconfig;
 412              		.loc 1 197 5 is_stmt 1 view .LVU91
 413 0008 0368     		ldr	r3, [r0]
 414              		.loc 1 197 30 is_stmt 0 view .LVU92
 415 000a 0B43     		orrs	r3, r1
 416 000c 0360     		str	r3, [r0]
 198:Drivers/GD32E23x/Source/gd32e23x_usart.c **** }
 417              		.loc 1 198 1 view .LVU93
 418              		@ sp needed
 419 000e 7047     		bx	lr
 420              		.cfi_endproc
 421              	.LFE67:
 423              		.section	.text.usart_receive_config,"ax",%progbits
 424              		.align	1
 425              		.global	usart_receive_config
 426              		.syntax unified
ARM GAS  D:\noval\Temp\ccDqp2rO.s 			page 12


 427              		.code	16
 428              		.thumb_func
 430              	usart_receive_config:
 431              	.LVL35:
 432              	.LFB68:
 199:Drivers/GD32E23x/Source/gd32e23x_usart.c **** 
 200:Drivers/GD32E23x/Source/gd32e23x_usart.c **** /*!
 201:Drivers/GD32E23x/Source/gd32e23x_usart.c ****     \brief      configure USART receiver
 202:Drivers/GD32E23x/Source/gd32e23x_usart.c ****     \param[in]  usart_periph: USARTx(x=0,1)
 203:Drivers/GD32E23x/Source/gd32e23x_usart.c ****     \param[in]  rxconfig: enable or disable USART receiver
 204:Drivers/GD32E23x/Source/gd32e23x_usart.c ****                 only one parameter can be selected which is shown as below:
 205:Drivers/GD32E23x/Source/gd32e23x_usart.c ****       \arg        USART_RECEIVE_ENABLE: enable USART reception
 206:Drivers/GD32E23x/Source/gd32e23x_usart.c ****       \arg        USART_RECEIVE_DISABLE: disable USART reception
 207:Drivers/GD32E23x/Source/gd32e23x_usart.c ****     \param[out] none
 208:Drivers/GD32E23x/Source/gd32e23x_usart.c ****     \retval     none
 209:Drivers/GD32E23x/Source/gd32e23x_usart.c **** */
 210:Drivers/GD32E23x/Source/gd32e23x_usart.c **** void usart_receive_config(uint32_t usart_periph, uint32_t rxconfig)
 211:Drivers/GD32E23x/Source/gd32e23x_usart.c **** {
 433              		.loc 1 211 1 is_stmt 1 view -0
 434              		.cfi_startproc
 435              		@ args = 0, pretend = 0, frame = 0
 436              		@ frame_needed = 0, uses_anonymous_args = 0
 437              		@ link register save eliminated.
 212:Drivers/GD32E23x/Source/gd32e23x_usart.c ****     USART_CTL0(usart_periph) &= ~USART_CTL0_REN;
 438              		.loc 1 212 5 view .LVU95
 439 0000 0368     		ldr	r3, [r0]
 440              		.loc 1 212 30 is_stmt 0 view .LVU96
 441 0002 0422     		movs	r2, #4
 442 0004 9343     		bics	r3, r2
 443 0006 0360     		str	r3, [r0]
 213:Drivers/GD32E23x/Source/gd32e23x_usart.c ****     /* configure receiver mode */
 214:Drivers/GD32E23x/Source/gd32e23x_usart.c ****     USART_CTL0(usart_periph) |= rxconfig;
 444              		.loc 1 214 5 is_stmt 1 view .LVU97
 445 0008 0368     		ldr	r3, [r0]
 446              		.loc 1 214 30 is_stmt 0 view .LVU98
 447 000a 0B43     		orrs	r3, r1
 448 000c 0360     		str	r3, [r0]
 215:Drivers/GD32E23x/Source/gd32e23x_usart.c **** }
 449              		.loc 1 215 1 view .LVU99
 450              		@ sp needed
 451 000e 7047     		bx	lr
 452              		.cfi_endproc
 453              	.LFE68:
 455              		.section	.text.usart_data_first_config,"ax",%progbits
 456              		.align	1
 457              		.global	usart_data_first_config
 458              		.syntax unified
 459              		.code	16
 460              		.thumb_func
 462              	usart_data_first_config:
 463              	.LVL36:
 464              	.LFB69:
 216:Drivers/GD32E23x/Source/gd32e23x_usart.c **** 
 217:Drivers/GD32E23x/Source/gd32e23x_usart.c **** /*!
 218:Drivers/GD32E23x/Source/gd32e23x_usart.c ****     \brief      data is transmitted/received with the LSB/MSB first
 219:Drivers/GD32E23x/Source/gd32e23x_usart.c ****     \param[in]  usart_periph: USARTx(x=0,1)
 220:Drivers/GD32E23x/Source/gd32e23x_usart.c ****     \param[in]  msbf: LSB/MSB
ARM GAS  D:\noval\Temp\ccDqp2rO.s 			page 13


 221:Drivers/GD32E23x/Source/gd32e23x_usart.c ****                 only one parameter can be selected which is shown as below:
 222:Drivers/GD32E23x/Source/gd32e23x_usart.c ****       \arg        USART_MSBF_LSB: LSB first
 223:Drivers/GD32E23x/Source/gd32e23x_usart.c ****       \arg        USART_MSBF_MSB: MSB first
 224:Drivers/GD32E23x/Source/gd32e23x_usart.c ****     \param[out] none
 225:Drivers/GD32E23x/Source/gd32e23x_usart.c ****     \retval     none
 226:Drivers/GD32E23x/Source/gd32e23x_usart.c **** */
 227:Drivers/GD32E23x/Source/gd32e23x_usart.c **** void usart_data_first_config(uint32_t usart_periph, uint32_t msbf)
 228:Drivers/GD32E23x/Source/gd32e23x_usart.c **** {
 465              		.loc 1 228 1 is_stmt 1 view -0
 466              		.cfi_startproc
 467              		@ args = 0, pretend = 0, frame = 0
 468              		@ frame_needed = 0, uses_anonymous_args = 0
 469              		@ link register save eliminated.
 229:Drivers/GD32E23x/Source/gd32e23x_usart.c ****     USART_CTL0(usart_periph) &= ~(USART_CTL0_UEN);
 470              		.loc 1 229 5 view .LVU101
 471 0000 0368     		ldr	r3, [r0]
 472              		.loc 1 229 30 is_stmt 0 view .LVU102
 473 0002 0122     		movs	r2, #1
 474 0004 9343     		bics	r3, r2
 475 0006 0360     		str	r3, [r0]
 230:Drivers/GD32E23x/Source/gd32e23x_usart.c ****     /* configure LSB or MSB first */
 231:Drivers/GD32E23x/Source/gd32e23x_usart.c ****     USART_CTL1(usart_periph) &= ~(USART_CTL1_MSBF);
 476              		.loc 1 231 5 is_stmt 1 view .LVU103
 477 0008 4368     		ldr	r3, [r0, #4]
 478              		.loc 1 231 30 is_stmt 0 view .LVU104
 479 000a 054A     		ldr	r2, .L24
 480 000c 1340     		ands	r3, r2
 481 000e 4360     		str	r3, [r0, #4]
 232:Drivers/GD32E23x/Source/gd32e23x_usart.c ****     USART_CTL1(usart_periph) |= (USART_CTL1_MSBF & msbf);
 482              		.loc 1 232 5 is_stmt 1 view .LVU105
 483 0010 4368     		ldr	r3, [r0, #4]
 484              		.loc 1 232 50 is_stmt 0 view .LVU106
 485 0012 8022     		movs	r2, #128
 486 0014 1203     		lsls	r2, r2, #12
 487 0016 1140     		ands	r1, r2
 488              	.LVL37:
 489              		.loc 1 232 30 view .LVU107
 490 0018 0B43     		orrs	r3, r1
 491 001a 4360     		str	r3, [r0, #4]
 233:Drivers/GD32E23x/Source/gd32e23x_usart.c **** }
 492              		.loc 1 233 1 view .LVU108
 493              		@ sp needed
 494 001c 7047     		bx	lr
 495              	.L25:
 496 001e C046     		.align	2
 497              	.L24:
 498 0020 FFFFF7FF 		.word	-524289
 499              		.cfi_endproc
 500              	.LFE69:
 502              		.section	.text.usart_invert_config,"ax",%progbits
 503              		.align	1
 504              		.global	usart_invert_config
 505              		.syntax unified
 506              		.code	16
 507              		.thumb_func
 509              	usart_invert_config:
 510              	.LVL38:
ARM GAS  D:\noval\Temp\ccDqp2rO.s 			page 14


 511              	.LFB70:
 234:Drivers/GD32E23x/Source/gd32e23x_usart.c **** 
 235:Drivers/GD32E23x/Source/gd32e23x_usart.c **** /*!
 236:Drivers/GD32E23x/Source/gd32e23x_usart.c ****     \brief      USART inverted configure
 237:Drivers/GD32E23x/Source/gd32e23x_usart.c ****     \param[in]  usart_periph: USARTx(x=0,1)
 238:Drivers/GD32E23x/Source/gd32e23x_usart.c ****     \param[in]  invertpara: refer to usart_invert_enum
 239:Drivers/GD32E23x/Source/gd32e23x_usart.c ****                 only one parameter can be selected which is shown as below:
 240:Drivers/GD32E23x/Source/gd32e23x_usart.c ****       \arg        USART_DINV_ENABLE: data bit level inversion
 241:Drivers/GD32E23x/Source/gd32e23x_usart.c ****       \arg        USART_DINV_DISABLE: data bit level not inversion
 242:Drivers/GD32E23x/Source/gd32e23x_usart.c ****       \arg        USART_TXPIN_ENABLE: TX pin level inversion
 243:Drivers/GD32E23x/Source/gd32e23x_usart.c ****       \arg        USART_TXPIN_DISABLE: TX pin level not inversion
 244:Drivers/GD32E23x/Source/gd32e23x_usart.c ****       \arg        USART_RXPIN_ENABLE: RX pin level inversion
 245:Drivers/GD32E23x/Source/gd32e23x_usart.c ****       \arg        USART_RXPIN_DISABLE: RX pin level not inversion
 246:Drivers/GD32E23x/Source/gd32e23x_usart.c ****       \arg        USART_SWAP_ENABLE: swap TX/RX pins
 247:Drivers/GD32E23x/Source/gd32e23x_usart.c ****       \arg        USART_SWAP_DISABLE: not swap TX/RX pins
 248:Drivers/GD32E23x/Source/gd32e23x_usart.c ****     \param[out] none
 249:Drivers/GD32E23x/Source/gd32e23x_usart.c ****     \retval     none
 250:Drivers/GD32E23x/Source/gd32e23x_usart.c **** */
 251:Drivers/GD32E23x/Source/gd32e23x_usart.c **** void usart_invert_config(uint32_t usart_periph, usart_invert_enum invertpara)
 252:Drivers/GD32E23x/Source/gd32e23x_usart.c **** {
 512              		.loc 1 252 1 is_stmt 1 view -0
 513              		.cfi_startproc
 514              		@ args = 0, pretend = 0, frame = 0
 515              		@ frame_needed = 0, uses_anonymous_args = 0
 516              		@ link register save eliminated.
 253:Drivers/GD32E23x/Source/gd32e23x_usart.c ****     USART_CTL0(usart_periph) &= ~(USART_CTL0_UEN);
 517              		.loc 1 253 5 view .LVU110
 518 0000 0368     		ldr	r3, [r0]
 519              		.loc 1 253 30 is_stmt 0 view .LVU111
 520 0002 0122     		movs	r2, #1
 521 0004 9343     		bics	r3, r2
 522 0006 0360     		str	r3, [r0]
 254:Drivers/GD32E23x/Source/gd32e23x_usart.c ****     /* inverted or not the specified signal */
 255:Drivers/GD32E23x/Source/gd32e23x_usart.c ****     switch(invertpara){
 523              		.loc 1 255 5 is_stmt 1 view .LVU112
 524 0008 0729     		cmp	r1, #7
 525 000a 08D8     		bhi	.L26
 526 000c 8900     		lsls	r1, r1, #2
 527              	.LVL39:
 528              		.loc 1 255 5 is_stmt 0 view .LVU113
 529 000e 174B     		ldr	r3, .L37
 530 0010 5B58     		ldr	r3, [r3, r1]
 531 0012 9F46     		mov	pc, r3
 532              		.section	.rodata.usart_invert_config,"a",%progbits
 533              		.align	2
 534              	.L29:
 535 0000 14000000 		.word	.L36
 536 0004 20000000 		.word	.L35
 537 0008 2A000000 		.word	.L34
 538 000c 36000000 		.word	.L33
 539 0010 40000000 		.word	.L32
 540 0014 4C000000 		.word	.L31
 541 0018 56000000 		.word	.L30
 542 001c 62000000 		.word	.L28
 543              		.section	.text.usart_invert_config
 544              	.L36:
 256:Drivers/GD32E23x/Source/gd32e23x_usart.c ****     case USART_DINV_ENABLE:
ARM GAS  D:\noval\Temp\ccDqp2rO.s 			page 15


 257:Drivers/GD32E23x/Source/gd32e23x_usart.c ****         USART_CTL1(usart_periph) |= USART_CTL1_DINV;
 545              		.loc 1 257 9 is_stmt 1 view .LVU114
 546 0014 4268     		ldr	r2, [r0, #4]
 547              		.loc 1 257 34 is_stmt 0 view .LVU115
 548 0016 8023     		movs	r3, #128
 549 0018 DB02     		lsls	r3, r3, #11
 550 001a 1343     		orrs	r3, r2
 551 001c 4360     		str	r3, [r0, #4]
 258:Drivers/GD32E23x/Source/gd32e23x_usart.c ****         break;
 552              		.loc 1 258 9 is_stmt 1 view .LVU116
 553              	.L26:
 259:Drivers/GD32E23x/Source/gd32e23x_usart.c ****     case USART_DINV_DISABLE:
 260:Drivers/GD32E23x/Source/gd32e23x_usart.c ****         USART_CTL1(usart_periph) &= ~(USART_CTL1_DINV);
 261:Drivers/GD32E23x/Source/gd32e23x_usart.c ****         break;
 262:Drivers/GD32E23x/Source/gd32e23x_usart.c ****     case USART_TXPIN_ENABLE:
 263:Drivers/GD32E23x/Source/gd32e23x_usart.c ****         USART_CTL1(usart_periph) |= USART_CTL1_TINV;
 264:Drivers/GD32E23x/Source/gd32e23x_usart.c ****         break;
 265:Drivers/GD32E23x/Source/gd32e23x_usart.c ****     case USART_TXPIN_DISABLE:
 266:Drivers/GD32E23x/Source/gd32e23x_usart.c ****         USART_CTL1(usart_periph) &= ~(USART_CTL1_TINV);
 267:Drivers/GD32E23x/Source/gd32e23x_usart.c ****         break;
 268:Drivers/GD32E23x/Source/gd32e23x_usart.c ****     case USART_RXPIN_ENABLE:
 269:Drivers/GD32E23x/Source/gd32e23x_usart.c ****         USART_CTL1(usart_periph) |= USART_CTL1_RINV;
 270:Drivers/GD32E23x/Source/gd32e23x_usart.c ****         break;
 271:Drivers/GD32E23x/Source/gd32e23x_usart.c ****     case USART_RXPIN_DISABLE:
 272:Drivers/GD32E23x/Source/gd32e23x_usart.c ****         USART_CTL1(usart_periph) &= ~(USART_CTL1_RINV);
 273:Drivers/GD32E23x/Source/gd32e23x_usart.c ****         break;
 274:Drivers/GD32E23x/Source/gd32e23x_usart.c ****     case USART_SWAP_ENABLE:
 275:Drivers/GD32E23x/Source/gd32e23x_usart.c ****         USART_CTL1(usart_periph) |= USART_CTL1_STRP;
 276:Drivers/GD32E23x/Source/gd32e23x_usart.c ****         break;
 277:Drivers/GD32E23x/Source/gd32e23x_usart.c ****     case USART_SWAP_DISABLE:
 278:Drivers/GD32E23x/Source/gd32e23x_usart.c ****         USART_CTL1(usart_periph) &= ~(USART_CTL1_STRP);
 279:Drivers/GD32E23x/Source/gd32e23x_usart.c ****         break;
 280:Drivers/GD32E23x/Source/gd32e23x_usart.c ****     default:
 281:Drivers/GD32E23x/Source/gd32e23x_usart.c ****         break;
 282:Drivers/GD32E23x/Source/gd32e23x_usart.c ****     }
 283:Drivers/GD32E23x/Source/gd32e23x_usart.c **** }
 554              		.loc 1 283 1 is_stmt 0 view .LVU117
 555              		@ sp needed
 556 001e 7047     		bx	lr
 557              	.L35:
 260:Drivers/GD32E23x/Source/gd32e23x_usart.c ****         break;
 558              		.loc 1 260 9 is_stmt 1 view .LVU118
 559 0020 4368     		ldr	r3, [r0, #4]
 260:Drivers/GD32E23x/Source/gd32e23x_usart.c ****         break;
 560              		.loc 1 260 34 is_stmt 0 view .LVU119
 561 0022 134A     		ldr	r2, .L37+4
 562 0024 1340     		ands	r3, r2
 563 0026 4360     		str	r3, [r0, #4]
 261:Drivers/GD32E23x/Source/gd32e23x_usart.c ****     case USART_TXPIN_ENABLE:
 564              		.loc 1 261 9 is_stmt 1 view .LVU120
 565 0028 F9E7     		b	.L26
 566              	.L34:
 263:Drivers/GD32E23x/Source/gd32e23x_usart.c ****         break;
 567              		.loc 1 263 9 view .LVU121
 568 002a 4268     		ldr	r2, [r0, #4]
 263:Drivers/GD32E23x/Source/gd32e23x_usart.c ****         break;
 569              		.loc 1 263 34 is_stmt 0 view .LVU122
ARM GAS  D:\noval\Temp\ccDqp2rO.s 			page 16


 570 002c 8023     		movs	r3, #128
 571 002e 9B02     		lsls	r3, r3, #10
 572 0030 1343     		orrs	r3, r2
 573 0032 4360     		str	r3, [r0, #4]
 264:Drivers/GD32E23x/Source/gd32e23x_usart.c ****     case USART_TXPIN_DISABLE:
 574              		.loc 1 264 9 is_stmt 1 view .LVU123
 575 0034 F3E7     		b	.L26
 576              	.L33:
 266:Drivers/GD32E23x/Source/gd32e23x_usart.c ****         break;
 577              		.loc 1 266 9 view .LVU124
 578 0036 4368     		ldr	r3, [r0, #4]
 266:Drivers/GD32E23x/Source/gd32e23x_usart.c ****         break;
 579              		.loc 1 266 34 is_stmt 0 view .LVU125
 580 0038 0E4A     		ldr	r2, .L37+8
 581 003a 1340     		ands	r3, r2
 582 003c 4360     		str	r3, [r0, #4]
 267:Drivers/GD32E23x/Source/gd32e23x_usart.c ****     case USART_RXPIN_ENABLE:
 583              		.loc 1 267 9 is_stmt 1 view .LVU126
 584 003e EEE7     		b	.L26
 585              	.L32:
 269:Drivers/GD32E23x/Source/gd32e23x_usart.c ****         break;
 586              		.loc 1 269 9 view .LVU127
 587 0040 4268     		ldr	r2, [r0, #4]
 269:Drivers/GD32E23x/Source/gd32e23x_usart.c ****         break;
 588              		.loc 1 269 34 is_stmt 0 view .LVU128
 589 0042 8023     		movs	r3, #128
 590 0044 5B02     		lsls	r3, r3, #9
 591 0046 1343     		orrs	r3, r2
 592 0048 4360     		str	r3, [r0, #4]
 270:Drivers/GD32E23x/Source/gd32e23x_usart.c ****     case USART_RXPIN_DISABLE:
 593              		.loc 1 270 9 is_stmt 1 view .LVU129
 594 004a E8E7     		b	.L26
 595              	.L31:
 272:Drivers/GD32E23x/Source/gd32e23x_usart.c ****         break;
 596              		.loc 1 272 9 view .LVU130
 597 004c 4368     		ldr	r3, [r0, #4]
 272:Drivers/GD32E23x/Source/gd32e23x_usart.c ****         break;
 598              		.loc 1 272 34 is_stmt 0 view .LVU131
 599 004e 0A4A     		ldr	r2, .L37+12
 600 0050 1340     		ands	r3, r2
 601 0052 4360     		str	r3, [r0, #4]
 273:Drivers/GD32E23x/Source/gd32e23x_usart.c ****     case USART_SWAP_ENABLE:
 602              		.loc 1 273 9 is_stmt 1 view .LVU132
 603 0054 E3E7     		b	.L26
 604              	.L30:
 275:Drivers/GD32E23x/Source/gd32e23x_usart.c ****         break;
 605              		.loc 1 275 9 view .LVU133
 606 0056 4368     		ldr	r3, [r0, #4]
 275:Drivers/GD32E23x/Source/gd32e23x_usart.c ****         break;
 607              		.loc 1 275 34 is_stmt 0 view .LVU134
 608 0058 48F20002 		movw	r2, #32768
 609 005c 1343     		orrs	r3, r2
 610 005e 4360     		str	r3, [r0, #4]
 276:Drivers/GD32E23x/Source/gd32e23x_usart.c ****     case USART_SWAP_DISABLE:
 611              		.loc 1 276 9 is_stmt 1 view .LVU135
 612 0060 DDE7     		b	.L26
 613              	.L28:
ARM GAS  D:\noval\Temp\ccDqp2rO.s 			page 17


 278:Drivers/GD32E23x/Source/gd32e23x_usart.c ****         break;
 614              		.loc 1 278 9 view .LVU136
 615 0062 4368     		ldr	r3, [r0, #4]
 278:Drivers/GD32E23x/Source/gd32e23x_usart.c ****         break;
 616              		.loc 1 278 34 is_stmt 0 view .LVU137
 617 0064 054A     		ldr	r2, .L37+16
 618 0066 1340     		ands	r3, r2
 619 0068 4360     		str	r3, [r0, #4]
 279:Drivers/GD32E23x/Source/gd32e23x_usart.c ****     default:
 620              		.loc 1 279 9 is_stmt 1 view .LVU138
 621              		.loc 1 283 1 is_stmt 0 view .LVU139
 622 006a D8E7     		b	.L26
 623              	.L38:
 624              		.align	2
 625              	.L37:
 626 006c 00000000 		.word	.L29
 627 0070 FFFFFBFF 		.word	-262145
 628 0074 FFFFFDFF 		.word	-131073
 629 0078 FFFFFEFF 		.word	-65537
 630 007c FF7FFFFF 		.word	-32769
 631              		.cfi_endproc
 632              	.LFE70:
 634              		.section	.text.usart_overrun_enable,"ax",%progbits
 635              		.align	1
 636              		.global	usart_overrun_enable
 637              		.syntax unified
 638              		.code	16
 639              		.thumb_func
 641              	usart_overrun_enable:
 642              	.LVL40:
 643              	.LFB71:
 284:Drivers/GD32E23x/Source/gd32e23x_usart.c **** 
 285:Drivers/GD32E23x/Source/gd32e23x_usart.c **** /*!
 286:Drivers/GD32E23x/Source/gd32e23x_usart.c ****     \brief      enable the USART overrun function
 287:Drivers/GD32E23x/Source/gd32e23x_usart.c ****     \param[in]  usart_periph: USARTx(x=0,1)
 288:Drivers/GD32E23x/Source/gd32e23x_usart.c ****     \param[out] none
 289:Drivers/GD32E23x/Source/gd32e23x_usart.c ****     \retval     none
 290:Drivers/GD32E23x/Source/gd32e23x_usart.c **** */
 291:Drivers/GD32E23x/Source/gd32e23x_usart.c **** void usart_overrun_enable(uint32_t usart_periph)
 292:Drivers/GD32E23x/Source/gd32e23x_usart.c **** {
 644              		.loc 1 292 1 is_stmt 1 view -0
 645              		.cfi_startproc
 646              		@ args = 0, pretend = 0, frame = 0
 647              		@ frame_needed = 0, uses_anonymous_args = 0
 648              		@ link register save eliminated.
 293:Drivers/GD32E23x/Source/gd32e23x_usart.c ****     USART_CTL0(usart_periph) &= ~(USART_CTL0_UEN);
 649              		.loc 1 293 5 view .LVU141
 650 0000 0368     		ldr	r3, [r0]
 651              		.loc 1 293 30 is_stmt 0 view .LVU142
 652 0002 0122     		movs	r2, #1
 653 0004 9343     		bics	r3, r2
 654 0006 0360     		str	r3, [r0]
 294:Drivers/GD32E23x/Source/gd32e23x_usart.c ****     /* enable overrun function */
 295:Drivers/GD32E23x/Source/gd32e23x_usart.c ****     USART_CTL2(usart_periph) &= ~(USART_CTL2_OVRD);
 655              		.loc 1 295 5 is_stmt 1 view .LVU143
 656 0008 8368     		ldr	r3, [r0, #8]
 657              		.loc 1 295 30 is_stmt 0 view .LVU144
ARM GAS  D:\noval\Temp\ccDqp2rO.s 			page 18


 658 000a 024A     		ldr	r2, .L40
 659 000c 1340     		ands	r3, r2
 660 000e 8360     		str	r3, [r0, #8]
 296:Drivers/GD32E23x/Source/gd32e23x_usart.c **** }
 661              		.loc 1 296 1 view .LVU145
 662              		@ sp needed
 663 0010 7047     		bx	lr
 664              	.L41:
 665 0012 C046     		.align	2
 666              	.L40:
 667 0014 FFEFFFFF 		.word	-4097
 668              		.cfi_endproc
 669              	.LFE71:
 671              		.section	.text.usart_overrun_disable,"ax",%progbits
 672              		.align	1
 673              		.global	usart_overrun_disable
 674              		.syntax unified
 675              		.code	16
 676              		.thumb_func
 678              	usart_overrun_disable:
 679              	.LVL41:
 680              	.LFB72:
 297:Drivers/GD32E23x/Source/gd32e23x_usart.c **** 
 298:Drivers/GD32E23x/Source/gd32e23x_usart.c **** /*!
 299:Drivers/GD32E23x/Source/gd32e23x_usart.c ****     \brief      disable the USART overrun function
 300:Drivers/GD32E23x/Source/gd32e23x_usart.c ****     \param[in]  usart_periph: USARTx(x=0,1)
 301:Drivers/GD32E23x/Source/gd32e23x_usart.c ****     \param[out] none
 302:Drivers/GD32E23x/Source/gd32e23x_usart.c ****     \retval     none
 303:Drivers/GD32E23x/Source/gd32e23x_usart.c **** */
 304:Drivers/GD32E23x/Source/gd32e23x_usart.c **** void usart_overrun_disable(uint32_t usart_periph)
 305:Drivers/GD32E23x/Source/gd32e23x_usart.c **** {
 681              		.loc 1 305 1 is_stmt 1 view -0
 682              		.cfi_startproc
 683              		@ args = 0, pretend = 0, frame = 0
 684              		@ frame_needed = 0, uses_anonymous_args = 0
 685              		@ link register save eliminated.
 306:Drivers/GD32E23x/Source/gd32e23x_usart.c ****     USART_CTL0(usart_periph) &= ~(USART_CTL0_UEN);
 686              		.loc 1 306 5 view .LVU147
 687 0000 0368     		ldr	r3, [r0]
 688              		.loc 1 306 30 is_stmt 0 view .LVU148
 689 0002 0122     		movs	r2, #1
 690 0004 9343     		bics	r3, r2
 691 0006 0360     		str	r3, [r0]
 307:Drivers/GD32E23x/Source/gd32e23x_usart.c ****     /* disable overrun function */
 308:Drivers/GD32E23x/Source/gd32e23x_usart.c ****     USART_CTL2(usart_periph) |= USART_CTL2_OVRD;
 692              		.loc 1 308 5 is_stmt 1 view .LVU149
 693 0008 8368     		ldr	r3, [r0, #8]
 694              		.loc 1 308 30 is_stmt 0 view .LVU150
 695 000a 41F20002 		movw	r2, #4096
 696 000e 1343     		orrs	r3, r2
 697 0010 8360     		str	r3, [r0, #8]
 309:Drivers/GD32E23x/Source/gd32e23x_usart.c **** }
 698              		.loc 1 309 1 view .LVU151
 699              		@ sp needed
 700 0012 7047     		bx	lr
 701              		.cfi_endproc
 702              	.LFE72:
ARM GAS  D:\noval\Temp\ccDqp2rO.s 			page 19


 704              		.section	.text.usart_oversample_config,"ax",%progbits
 705              		.align	1
 706              		.global	usart_oversample_config
 707              		.syntax unified
 708              		.code	16
 709              		.thumb_func
 711              	usart_oversample_config:
 712              	.LVL42:
 713              	.LFB73:
 310:Drivers/GD32E23x/Source/gd32e23x_usart.c **** 
 311:Drivers/GD32E23x/Source/gd32e23x_usart.c **** /*!
 312:Drivers/GD32E23x/Source/gd32e23x_usart.c ****     \brief      configure the USART oversample mode
 313:Drivers/GD32E23x/Source/gd32e23x_usart.c ****     \param[in]  usart_periph: USARTx(x=0,1)
 314:Drivers/GD32E23x/Source/gd32e23x_usart.c ****     \param[in]  oversamp: oversample value
 315:Drivers/GD32E23x/Source/gd32e23x_usart.c ****                 only one parameter can be selected which is shown as below:
 316:Drivers/GD32E23x/Source/gd32e23x_usart.c ****       \arg        USART_OVSMOD_8: oversampling by 8
 317:Drivers/GD32E23x/Source/gd32e23x_usart.c ****       \arg        USART_OVSMOD_16: oversampling by 16
 318:Drivers/GD32E23x/Source/gd32e23x_usart.c ****     \param[out] none
 319:Drivers/GD32E23x/Source/gd32e23x_usart.c ****     \retval     none
 320:Drivers/GD32E23x/Source/gd32e23x_usart.c **** */
 321:Drivers/GD32E23x/Source/gd32e23x_usart.c **** void usart_oversample_config(uint32_t usart_periph, uint32_t oversamp)
 322:Drivers/GD32E23x/Source/gd32e23x_usart.c **** {
 714              		.loc 1 322 1 is_stmt 1 view -0
 715              		.cfi_startproc
 716              		@ args = 0, pretend = 0, frame = 0
 717              		@ frame_needed = 0, uses_anonymous_args = 0
 718              		@ link register save eliminated.
 323:Drivers/GD32E23x/Source/gd32e23x_usart.c ****     /* disable USART */
 324:Drivers/GD32E23x/Source/gd32e23x_usart.c ****     USART_CTL0(usart_periph) &= ~(USART_CTL0_UEN);
 719              		.loc 1 324 5 view .LVU153
 720 0000 0368     		ldr	r3, [r0]
 721              		.loc 1 324 30 is_stmt 0 view .LVU154
 722 0002 0122     		movs	r2, #1
 723 0004 9343     		bics	r3, r2
 724 0006 0360     		str	r3, [r0]
 325:Drivers/GD32E23x/Source/gd32e23x_usart.c ****     /* clear OVSMOD bit */
 326:Drivers/GD32E23x/Source/gd32e23x_usart.c ****     USART_CTL0(usart_periph) &= ~(USART_CTL0_OVSMOD);
 725              		.loc 1 326 5 is_stmt 1 view .LVU155
 726 0008 0368     		ldr	r3, [r0]
 727              		.loc 1 326 30 is_stmt 0 view .LVU156
 728 000a 034A     		ldr	r2, .L44
 729 000c 1340     		ands	r3, r2
 730 000e 0360     		str	r3, [r0]
 327:Drivers/GD32E23x/Source/gd32e23x_usart.c ****     USART_CTL0(usart_periph) |= oversamp;
 731              		.loc 1 327 5 is_stmt 1 view .LVU157
 732 0010 0368     		ldr	r3, [r0]
 733              		.loc 1 327 30 is_stmt 0 view .LVU158
 734 0012 0B43     		orrs	r3, r1
 735 0014 0360     		str	r3, [r0]
 328:Drivers/GD32E23x/Source/gd32e23x_usart.c **** }
 736              		.loc 1 328 1 view .LVU159
 737              		@ sp needed
 738 0016 7047     		bx	lr
 739              	.L45:
 740              		.align	2
 741              	.L44:
 742 0018 FF7FFFFF 		.word	-32769
ARM GAS  D:\noval\Temp\ccDqp2rO.s 			page 20


 743              		.cfi_endproc
 744              	.LFE73:
 746              		.section	.text.usart_sample_bit_config,"ax",%progbits
 747              		.align	1
 748              		.global	usart_sample_bit_config
 749              		.syntax unified
 750              		.code	16
 751              		.thumb_func
 753              	usart_sample_bit_config:
 754              	.LVL43:
 755              	.LFB74:
 329:Drivers/GD32E23x/Source/gd32e23x_usart.c **** 
 330:Drivers/GD32E23x/Source/gd32e23x_usart.c **** /*!
 331:Drivers/GD32E23x/Source/gd32e23x_usart.c ****     \brief      configure the sample bit method
 332:Drivers/GD32E23x/Source/gd32e23x_usart.c ****     \param[in]  usart_periph: USARTx(x=0,1)
 333:Drivers/GD32E23x/Source/gd32e23x_usart.c ****     \param[in]  osb: sample bit
 334:Drivers/GD32E23x/Source/gd32e23x_usart.c ****                 only one parameter can be selected which is shown as below:
 335:Drivers/GD32E23x/Source/gd32e23x_usart.c ****       \arg        USART_OSB_1BIT: 1 bit
 336:Drivers/GD32E23x/Source/gd32e23x_usart.c ****       \arg        USART_OSB_3BIT: 3 bits
 337:Drivers/GD32E23x/Source/gd32e23x_usart.c ****     \param[out] none
 338:Drivers/GD32E23x/Source/gd32e23x_usart.c ****     \retval     none
 339:Drivers/GD32E23x/Source/gd32e23x_usart.c **** */
 340:Drivers/GD32E23x/Source/gd32e23x_usart.c **** void usart_sample_bit_config(uint32_t usart_periph, uint32_t osb)
 341:Drivers/GD32E23x/Source/gd32e23x_usart.c **** {
 756              		.loc 1 341 1 is_stmt 1 view -0
 757              		.cfi_startproc
 758              		@ args = 0, pretend = 0, frame = 0
 759              		@ frame_needed = 0, uses_anonymous_args = 0
 760              		@ link register save eliminated.
 342:Drivers/GD32E23x/Source/gd32e23x_usart.c ****     /* disable USART */
 343:Drivers/GD32E23x/Source/gd32e23x_usart.c ****     USART_CTL0(usart_periph) &= ~(USART_CTL0_UEN);
 761              		.loc 1 343 5 view .LVU161
 762 0000 0368     		ldr	r3, [r0]
 763              		.loc 1 343 30 is_stmt 0 view .LVU162
 764 0002 0122     		movs	r2, #1
 765 0004 9343     		bics	r3, r2
 766 0006 0360     		str	r3, [r0]
 344:Drivers/GD32E23x/Source/gd32e23x_usart.c ****     
 345:Drivers/GD32E23x/Source/gd32e23x_usart.c ****     USART_CTL2(usart_periph) &= ~(USART_CTL2_OSB);
 767              		.loc 1 345 5 is_stmt 1 view .LVU163
 768 0008 8368     		ldr	r3, [r0, #8]
 769              		.loc 1 345 30 is_stmt 0 view .LVU164
 770 000a 034A     		ldr	r2, .L47
 771 000c 1340     		ands	r3, r2
 772 000e 8360     		str	r3, [r0, #8]
 346:Drivers/GD32E23x/Source/gd32e23x_usart.c ****     USART_CTL2(usart_periph) |= osb;
 773              		.loc 1 346 5 is_stmt 1 view .LVU165
 774 0010 8368     		ldr	r3, [r0, #8]
 775              		.loc 1 346 30 is_stmt 0 view .LVU166
 776 0012 0B43     		orrs	r3, r1
 777 0014 8360     		str	r3, [r0, #8]
 347:Drivers/GD32E23x/Source/gd32e23x_usart.c **** }
 778              		.loc 1 347 1 view .LVU167
 779              		@ sp needed
 780 0016 7047     		bx	lr
 781              	.L48:
 782              		.align	2
ARM GAS  D:\noval\Temp\ccDqp2rO.s 			page 21


 783              	.L47:
 784 0018 FFF7FFFF 		.word	-2049
 785              		.cfi_endproc
 786              	.LFE74:
 788              		.section	.text.usart_receiver_timeout_enable,"ax",%progbits
 789              		.align	1
 790              		.global	usart_receiver_timeout_enable
 791              		.syntax unified
 792              		.code	16
 793              		.thumb_func
 795              	usart_receiver_timeout_enable:
 796              	.LVL44:
 797              	.LFB75:
 348:Drivers/GD32E23x/Source/gd32e23x_usart.c **** 
 349:Drivers/GD32E23x/Source/gd32e23x_usart.c **** /*!
 350:Drivers/GD32E23x/Source/gd32e23x_usart.c ****     \brief      enable receiver timeout
 351:Drivers/GD32E23x/Source/gd32e23x_usart.c ****     \param[in]  usart_periph: USARTx(x=0)
 352:Drivers/GD32E23x/Source/gd32e23x_usart.c ****     \param[out] none
 353:Drivers/GD32E23x/Source/gd32e23x_usart.c ****     \retval     none
 354:Drivers/GD32E23x/Source/gd32e23x_usart.c **** */
 355:Drivers/GD32E23x/Source/gd32e23x_usart.c **** void usart_receiver_timeout_enable(uint32_t usart_periph)
 356:Drivers/GD32E23x/Source/gd32e23x_usart.c **** {
 798              		.loc 1 356 1 is_stmt 1 view -0
 799              		.cfi_startproc
 800              		@ args = 0, pretend = 0, frame = 0
 801              		@ frame_needed = 0, uses_anonymous_args = 0
 802              		@ link register save eliminated.
 357:Drivers/GD32E23x/Source/gd32e23x_usart.c ****     USART_CTL1(usart_periph) |= USART_CTL1_RTEN;
 803              		.loc 1 357 5 view .LVU169
 804 0000 4268     		ldr	r2, [r0, #4]
 805              		.loc 1 357 30 is_stmt 0 view .LVU170
 806 0002 8023     		movs	r3, #128
 807 0004 1B04     		lsls	r3, r3, #16
 808 0006 1343     		orrs	r3, r2
 809 0008 4360     		str	r3, [r0, #4]
 358:Drivers/GD32E23x/Source/gd32e23x_usart.c **** }
 810              		.loc 1 358 1 view .LVU171
 811              		@ sp needed
 812 000a 7047     		bx	lr
 813              		.cfi_endproc
 814              	.LFE75:
 816              		.section	.text.usart_receiver_timeout_disable,"ax",%progbits
 817              		.align	1
 818              		.global	usart_receiver_timeout_disable
 819              		.syntax unified
 820              		.code	16
 821              		.thumb_func
 823              	usart_receiver_timeout_disable:
 824              	.LVL45:
 825              	.LFB76:
 359:Drivers/GD32E23x/Source/gd32e23x_usart.c **** 
 360:Drivers/GD32E23x/Source/gd32e23x_usart.c **** /*!
 361:Drivers/GD32E23x/Source/gd32e23x_usart.c ****     \brief      disable receiver timeout
 362:Drivers/GD32E23x/Source/gd32e23x_usart.c ****     \param[in]  usart_periph: USARTx(x=0)
 363:Drivers/GD32E23x/Source/gd32e23x_usart.c ****     \param[out] none
 364:Drivers/GD32E23x/Source/gd32e23x_usart.c ****     \retval     none
 365:Drivers/GD32E23x/Source/gd32e23x_usart.c **** */
ARM GAS  D:\noval\Temp\ccDqp2rO.s 			page 22


 366:Drivers/GD32E23x/Source/gd32e23x_usart.c **** void usart_receiver_timeout_disable(uint32_t usart_periph)
 367:Drivers/GD32E23x/Source/gd32e23x_usart.c **** {
 826              		.loc 1 367 1 is_stmt 1 view -0
 827              		.cfi_startproc
 828              		@ args = 0, pretend = 0, frame = 0
 829              		@ frame_needed = 0, uses_anonymous_args = 0
 830              		@ link register save eliminated.
 368:Drivers/GD32E23x/Source/gd32e23x_usart.c ****     USART_CTL1(usart_periph) &= ~(USART_CTL1_RTEN);
 831              		.loc 1 368 5 view .LVU173
 832 0000 4368     		ldr	r3, [r0, #4]
 833              		.loc 1 368 30 is_stmt 0 view .LVU174
 834 0002 024A     		ldr	r2, .L51
 835 0004 1340     		ands	r3, r2
 836 0006 4360     		str	r3, [r0, #4]
 369:Drivers/GD32E23x/Source/gd32e23x_usart.c **** }
 837              		.loc 1 369 1 view .LVU175
 838              		@ sp needed
 839 0008 7047     		bx	lr
 840              	.L52:
 841 000a C046     		.align	2
 842              	.L51:
 843 000c FFFF7FFF 		.word	-8388609
 844              		.cfi_endproc
 845              	.LFE76:
 847              		.section	.text.usart_receiver_timeout_threshold_config,"ax",%progbits
 848              		.align	1
 849              		.global	usart_receiver_timeout_threshold_config
 850              		.syntax unified
 851              		.code	16
 852              		.thumb_func
 854              	usart_receiver_timeout_threshold_config:
 855              	.LVL46:
 856              	.LFB77:
 370:Drivers/GD32E23x/Source/gd32e23x_usart.c **** 
 371:Drivers/GD32E23x/Source/gd32e23x_usart.c **** /*!
 372:Drivers/GD32E23x/Source/gd32e23x_usart.c ****     \brief      configure receiver timeout threshold
 373:Drivers/GD32E23x/Source/gd32e23x_usart.c ****     \param[in]  usart_periph: USARTx(x=0)
 374:Drivers/GD32E23x/Source/gd32e23x_usart.c ****     \param[in]  rtimeout: 0x00000000-0x00FFFFFF, receiver timeout value in terms of number of baud 
 375:Drivers/GD32E23x/Source/gd32e23x_usart.c ****     \param[out] none
 376:Drivers/GD32E23x/Source/gd32e23x_usart.c ****     \retval     none
 377:Drivers/GD32E23x/Source/gd32e23x_usart.c **** */
 378:Drivers/GD32E23x/Source/gd32e23x_usart.c **** void usart_receiver_timeout_threshold_config(uint32_t usart_periph, uint32_t rtimeout)
 379:Drivers/GD32E23x/Source/gd32e23x_usart.c **** {
 857              		.loc 1 379 1 is_stmt 1 view -0
 858              		.cfi_startproc
 859              		@ args = 0, pretend = 0, frame = 0
 860              		@ frame_needed = 0, uses_anonymous_args = 0
 861              		@ link register save eliminated.
 380:Drivers/GD32E23x/Source/gd32e23x_usart.c ****     USART_RT(usart_periph) &= ~(USART_RT_RT);
 862              		.loc 1 380 5 view .LVU177
 863 0000 4369     		ldr	r3, [r0, #20]
 864              		.loc 1 380 28 is_stmt 0 view .LVU178
 865 0002 1B0E     		lsrs	r3, r3, #24
 866 0004 1B06     		lsls	r3, r3, #24
 867 0006 4361     		str	r3, [r0, #20]
 381:Drivers/GD32E23x/Source/gd32e23x_usart.c ****     USART_RT(usart_periph) |= rtimeout;
 868              		.loc 1 381 5 is_stmt 1 view .LVU179
ARM GAS  D:\noval\Temp\ccDqp2rO.s 			page 23


 869 0008 4369     		ldr	r3, [r0, #20]
 870              		.loc 1 381 28 is_stmt 0 view .LVU180
 871 000a 0B43     		orrs	r3, r1
 872 000c 4361     		str	r3, [r0, #20]
 382:Drivers/GD32E23x/Source/gd32e23x_usart.c **** }
 873              		.loc 1 382 1 view .LVU181
 874              		@ sp needed
 875 000e 7047     		bx	lr
 876              		.cfi_endproc
 877              	.LFE77:
 879              		.section	.text.usart_data_transmit,"ax",%progbits
 880              		.align	1
 881              		.global	usart_data_transmit
 882              		.syntax unified
 883              		.code	16
 884              		.thumb_func
 886              	usart_data_transmit:
 887              	.LVL47:
 888              	.LFB78:
 383:Drivers/GD32E23x/Source/gd32e23x_usart.c **** 
 384:Drivers/GD32E23x/Source/gd32e23x_usart.c **** /*!
 385:Drivers/GD32E23x/Source/gd32e23x_usart.c ****     \brief      USART transmit data function
 386:Drivers/GD32E23x/Source/gd32e23x_usart.c ****     \param[in]  usart_periph: USARTx(x=0,1)
 387:Drivers/GD32E23x/Source/gd32e23x_usart.c ****     \param[in]  data: data of transmission
 388:Drivers/GD32E23x/Source/gd32e23x_usart.c ****     \param[out] none
 389:Drivers/GD32E23x/Source/gd32e23x_usart.c ****     \retval     none
 390:Drivers/GD32E23x/Source/gd32e23x_usart.c **** */
 391:Drivers/GD32E23x/Source/gd32e23x_usart.c **** void usart_data_transmit(uint32_t usart_periph, uint32_t data)
 392:Drivers/GD32E23x/Source/gd32e23x_usart.c **** {
 889              		.loc 1 392 1 is_stmt 1 view -0
 890              		.cfi_startproc
 891              		@ args = 0, pretend = 0, frame = 0
 892              		@ frame_needed = 0, uses_anonymous_args = 0
 893              		@ link register save eliminated.
 393:Drivers/GD32E23x/Source/gd32e23x_usart.c ****     USART_TDATA(usart_periph) = (USART_TDATA_TDATA & data);
 894              		.loc 1 393 5 view .LVU183
 895              		.loc 1 393 52 is_stmt 0 view .LVU184
 896 0000 40F2FF13 		movw	r3, #511
 897 0004 0B40     		ands	r3, r1
 898              		.loc 1 393 31 view .LVU185
 899 0006 8362     		str	r3, [r0, #40]
 394:Drivers/GD32E23x/Source/gd32e23x_usart.c **** }
 900              		.loc 1 394 1 view .LVU186
 901              		@ sp needed
 902 0008 7047     		bx	lr
 903              		.cfi_endproc
 904              	.LFE78:
 906              		.section	.text.usart_data_receive,"ax",%progbits
 907              		.align	1
 908              		.global	usart_data_receive
 909              		.syntax unified
 910              		.code	16
 911              		.thumb_func
 913              	usart_data_receive:
 914              	.LVL48:
 915              	.LFB79:
 395:Drivers/GD32E23x/Source/gd32e23x_usart.c **** 
ARM GAS  D:\noval\Temp\ccDqp2rO.s 			page 24


 396:Drivers/GD32E23x/Source/gd32e23x_usart.c **** /*!
 397:Drivers/GD32E23x/Source/gd32e23x_usart.c ****     \brief      USART receive data function
 398:Drivers/GD32E23x/Source/gd32e23x_usart.c ****     \param[in]  usart_periph: USARTx(x=0,1)
 399:Drivers/GD32E23x/Source/gd32e23x_usart.c ****     \param[out] none
 400:Drivers/GD32E23x/Source/gd32e23x_usart.c ****     \retval     data of received
 401:Drivers/GD32E23x/Source/gd32e23x_usart.c **** */
 402:Drivers/GD32E23x/Source/gd32e23x_usart.c **** uint16_t usart_data_receive(uint32_t usart_periph)
 403:Drivers/GD32E23x/Source/gd32e23x_usart.c **** {
 916              		.loc 1 403 1 is_stmt 1 view -0
 917              		.cfi_startproc
 918              		@ args = 0, pretend = 0, frame = 0
 919              		@ frame_needed = 0, uses_anonymous_args = 0
 920              		@ link register save eliminated.
 404:Drivers/GD32E23x/Source/gd32e23x_usart.c ****     return (uint16_t)(GET_BITS(USART_RDATA(usart_periph), 0U, 8U));
 921              		.loc 1 404 5 view .LVU188
 922              		.loc 1 404 23 is_stmt 0 view .LVU189
 923 0000 436A     		ldr	r3, [r0, #36]
 924              		.loc 1 404 12 discriminator 1 view .LVU190
 925 0002 40F2FF10 		movw	r0, #511
 926              	.LVL49:
 927              		.loc 1 404 12 discriminator 1 view .LVU191
 928 0006 1840     		ands	r0, r3
 405:Drivers/GD32E23x/Source/gd32e23x_usart.c **** }
 929              		.loc 1 405 1 view .LVU192
 930              		@ sp needed
 931 0008 7047     		bx	lr
 932              		.cfi_endproc
 933              	.LFE79:
 935              		.section	.text.usart_address_config,"ax",%progbits
 936              		.align	1
 937              		.global	usart_address_config
 938              		.syntax unified
 939              		.code	16
 940              		.thumb_func
 942              	usart_address_config:
 943              	.LVL50:
 944              	.LFB80:
 406:Drivers/GD32E23x/Source/gd32e23x_usart.c **** 
 407:Drivers/GD32E23x/Source/gd32e23x_usart.c **** /*!
 408:Drivers/GD32E23x/Source/gd32e23x_usart.c ****     \brief      address of the USART terminal
 409:Drivers/GD32E23x/Source/gd32e23x_usart.c ****     \param[in]  usart_periph: USARTx(x=0,1)
 410:Drivers/GD32E23x/Source/gd32e23x_usart.c ****     \param[in]  addr: 0x00-0xFF, address of USART terminal
 411:Drivers/GD32E23x/Source/gd32e23x_usart.c ****     \param[out] none
 412:Drivers/GD32E23x/Source/gd32e23x_usart.c ****     \retval     none
 413:Drivers/GD32E23x/Source/gd32e23x_usart.c **** */
 414:Drivers/GD32E23x/Source/gd32e23x_usart.c **** void usart_address_config(uint32_t usart_periph, uint8_t addr)
 415:Drivers/GD32E23x/Source/gd32e23x_usart.c **** {
 945              		.loc 1 415 1 is_stmt 1 view -0
 946              		.cfi_startproc
 947              		@ args = 0, pretend = 0, frame = 0
 948              		@ frame_needed = 0, uses_anonymous_args = 0
 949              		@ link register save eliminated.
 416:Drivers/GD32E23x/Source/gd32e23x_usart.c ****     /* disable USART */
 417:Drivers/GD32E23x/Source/gd32e23x_usart.c ****     USART_CTL0(usart_periph) &= ~(USART_CTL0_UEN);
 950              		.loc 1 417 5 view .LVU194
 951 0000 0368     		ldr	r3, [r0]
 952              		.loc 1 417 30 is_stmt 0 view .LVU195
ARM GAS  D:\noval\Temp\ccDqp2rO.s 			page 25


 953 0002 0122     		movs	r2, #1
 954 0004 9343     		bics	r3, r2
 955 0006 0360     		str	r3, [r0]
 418:Drivers/GD32E23x/Source/gd32e23x_usart.c **** 
 419:Drivers/GD32E23x/Source/gd32e23x_usart.c ****     USART_CTL1(usart_periph) &= ~(USART_CTL1_ADDR);
 956              		.loc 1 419 5 is_stmt 1 view .LVU196
 957 0008 4368     		ldr	r3, [r0, #4]
 958              		.loc 1 419 30 is_stmt 0 view .LVU197
 959 000a 1B02     		lsls	r3, r3, #8
 960 000c 1B0A     		lsrs	r3, r3, #8
 961 000e 4360     		str	r3, [r0, #4]
 420:Drivers/GD32E23x/Source/gd32e23x_usart.c ****     USART_CTL1(usart_periph) |= (USART_CTL1_ADDR & (((uint32_t)addr) << 24));
 962              		.loc 1 420 5 is_stmt 1 view .LVU198
 963 0010 4368     		ldr	r3, [r0, #4]
 964              		.loc 1 420 50 is_stmt 0 view .LVU199
 965 0012 0906     		lsls	r1, r1, #24
 966              	.LVL51:
 967              		.loc 1 420 30 view .LVU200
 968 0014 0B43     		orrs	r3, r1
 969 0016 4360     		str	r3, [r0, #4]
 421:Drivers/GD32E23x/Source/gd32e23x_usart.c **** }
 970              		.loc 1 421 1 view .LVU201
 971              		@ sp needed
 972 0018 7047     		bx	lr
 973              		.cfi_endproc
 974              	.LFE80:
 976              		.section	.text.usart_address_detection_mode_config,"ax",%progbits
 977              		.align	1
 978              		.global	usart_address_detection_mode_config
 979              		.syntax unified
 980              		.code	16
 981              		.thumb_func
 983              	usart_address_detection_mode_config:
 984              	.LVL52:
 985              	.LFB81:
 422:Drivers/GD32E23x/Source/gd32e23x_usart.c **** 
 423:Drivers/GD32E23x/Source/gd32e23x_usart.c **** /*!
 424:Drivers/GD32E23x/Source/gd32e23x_usart.c ****     \brief      configure address detection mode
 425:Drivers/GD32E23x/Source/gd32e23x_usart.c ****     \param[in]  usart_periph: USARTx(x=0,1)
 426:Drivers/GD32E23x/Source/gd32e23x_usart.c ****     \param[in]  addmod: address detection mode
 427:Drivers/GD32E23x/Source/gd32e23x_usart.c ****                 only one parameter can be selected which is shown as below:
 428:Drivers/GD32E23x/Source/gd32e23x_usart.c ****       \arg        USART_ADDM_4BIT: 4 bits
 429:Drivers/GD32E23x/Source/gd32e23x_usart.c ****       \arg        USART_ADDM_FULLBIT: full bits
 430:Drivers/GD32E23x/Source/gd32e23x_usart.c ****     \param[out] none
 431:Drivers/GD32E23x/Source/gd32e23x_usart.c ****     \retval     none
 432:Drivers/GD32E23x/Source/gd32e23x_usart.c **** */
 433:Drivers/GD32E23x/Source/gd32e23x_usart.c **** void usart_address_detection_mode_config(uint32_t usart_periph, uint32_t addmod)
 434:Drivers/GD32E23x/Source/gd32e23x_usart.c **** {
 986              		.loc 1 434 1 is_stmt 1 view -0
 987              		.cfi_startproc
 988              		@ args = 0, pretend = 0, frame = 0
 989              		@ frame_needed = 0, uses_anonymous_args = 0
 990              		@ link register save eliminated.
 435:Drivers/GD32E23x/Source/gd32e23x_usart.c ****     /* disable USART */
 436:Drivers/GD32E23x/Source/gd32e23x_usart.c ****     USART_CTL0(usart_periph) &= ~(USART_CTL0_UEN);
 991              		.loc 1 436 5 view .LVU203
 992 0000 0368     		ldr	r3, [r0]
ARM GAS  D:\noval\Temp\ccDqp2rO.s 			page 26


 993              		.loc 1 436 30 is_stmt 0 view .LVU204
 994 0002 0122     		movs	r2, #1
 995 0004 9343     		bics	r3, r2
 996 0006 0360     		str	r3, [r0]
 437:Drivers/GD32E23x/Source/gd32e23x_usart.c **** 
 438:Drivers/GD32E23x/Source/gd32e23x_usart.c ****     USART_CTL1(usart_periph) &= ~(USART_CTL1_ADDM);
 997              		.loc 1 438 5 is_stmt 1 view .LVU205
 998 0008 4268     		ldr	r2, [r0, #4]
 999              		.loc 1 438 30 is_stmt 0 view .LVU206
 1000 000a 1023     		movs	r3, #16
 1001 000c 9A43     		bics	r2, r3
 1002 000e 4260     		str	r2, [r0, #4]
 439:Drivers/GD32E23x/Source/gd32e23x_usart.c ****     USART_CTL1(usart_periph) |= USART_CTL1_ADDM & (addmod);
 1003              		.loc 1 439 5 is_stmt 1 view .LVU207
 1004 0010 4268     		ldr	r2, [r0, #4]
 1005              		.loc 1 439 49 is_stmt 0 view .LVU208
 1006 0012 0B40     		ands	r3, r1
 1007              		.loc 1 439 30 view .LVU209
 1008 0014 1A43     		orrs	r2, r3
 1009 0016 4260     		str	r2, [r0, #4]
 440:Drivers/GD32E23x/Source/gd32e23x_usart.c **** }
 1010              		.loc 1 440 1 view .LVU210
 1011              		@ sp needed
 1012 0018 7047     		bx	lr
 1013              		.cfi_endproc
 1014              	.LFE81:
 1016              		.section	.text.usart_mute_mode_enable,"ax",%progbits
 1017              		.align	1
 1018              		.global	usart_mute_mode_enable
 1019              		.syntax unified
 1020              		.code	16
 1021              		.thumb_func
 1023              	usart_mute_mode_enable:
 1024              	.LVL53:
 1025              	.LFB82:
 441:Drivers/GD32E23x/Source/gd32e23x_usart.c **** 
 442:Drivers/GD32E23x/Source/gd32e23x_usart.c **** /*!
 443:Drivers/GD32E23x/Source/gd32e23x_usart.c ****     \brief      enable mute mode
 444:Drivers/GD32E23x/Source/gd32e23x_usart.c ****     \param[in]  usart_periph: USARTx(x=0,1)
 445:Drivers/GD32E23x/Source/gd32e23x_usart.c ****     \param[out] none
 446:Drivers/GD32E23x/Source/gd32e23x_usart.c ****     \retval     none
 447:Drivers/GD32E23x/Source/gd32e23x_usart.c **** */
 448:Drivers/GD32E23x/Source/gd32e23x_usart.c **** void usart_mute_mode_enable(uint32_t usart_periph)
 449:Drivers/GD32E23x/Source/gd32e23x_usart.c **** {
 1026              		.loc 1 449 1 is_stmt 1 view -0
 1027              		.cfi_startproc
 1028              		@ args = 0, pretend = 0, frame = 0
 1029              		@ frame_needed = 0, uses_anonymous_args = 0
 1030              		@ link register save eliminated.
 450:Drivers/GD32E23x/Source/gd32e23x_usart.c ****     USART_CTL0(usart_periph) |= USART_CTL0_MEN;
 1031              		.loc 1 450 5 view .LVU212
 1032 0000 0368     		ldr	r3, [r0]
 1033              		.loc 1 450 30 is_stmt 0 view .LVU213
 1034 0002 42F20002 		movw	r2, #8192
 1035 0006 1343     		orrs	r3, r2
 1036 0008 0360     		str	r3, [r0]
 451:Drivers/GD32E23x/Source/gd32e23x_usart.c **** }
ARM GAS  D:\noval\Temp\ccDqp2rO.s 			page 27


 1037              		.loc 1 451 1 view .LVU214
 1038              		@ sp needed
 1039 000a 7047     		bx	lr
 1040              		.cfi_endproc
 1041              	.LFE82:
 1043              		.section	.text.usart_mute_mode_disable,"ax",%progbits
 1044              		.align	1
 1045              		.global	usart_mute_mode_disable
 1046              		.syntax unified
 1047              		.code	16
 1048              		.thumb_func
 1050              	usart_mute_mode_disable:
 1051              	.LVL54:
 1052              	.LFB83:
 452:Drivers/GD32E23x/Source/gd32e23x_usart.c **** 
 453:Drivers/GD32E23x/Source/gd32e23x_usart.c **** /*!
 454:Drivers/GD32E23x/Source/gd32e23x_usart.c ****     \brief      disable mute mode
 455:Drivers/GD32E23x/Source/gd32e23x_usart.c ****     \param[in]  usart_periph: USARTx(x=0,1)
 456:Drivers/GD32E23x/Source/gd32e23x_usart.c ****     \param[out] none
 457:Drivers/GD32E23x/Source/gd32e23x_usart.c ****     \retval     none
 458:Drivers/GD32E23x/Source/gd32e23x_usart.c **** */
 459:Drivers/GD32E23x/Source/gd32e23x_usart.c **** void usart_mute_mode_disable(uint32_t usart_periph)
 460:Drivers/GD32E23x/Source/gd32e23x_usart.c **** {
 1053              		.loc 1 460 1 is_stmt 1 view -0
 1054              		.cfi_startproc
 1055              		@ args = 0, pretend = 0, frame = 0
 1056              		@ frame_needed = 0, uses_anonymous_args = 0
 1057              		@ link register save eliminated.
 461:Drivers/GD32E23x/Source/gd32e23x_usart.c ****     USART_CTL0(usart_periph) &= ~(USART_CTL0_MEN);
 1058              		.loc 1 461 5 view .LVU216
 1059 0000 0368     		ldr	r3, [r0]
 1060              		.loc 1 461 30 is_stmt 0 view .LVU217
 1061 0002 024A     		ldr	r2, .L60
 1062 0004 1340     		ands	r3, r2
 1063 0006 0360     		str	r3, [r0]
 462:Drivers/GD32E23x/Source/gd32e23x_usart.c **** }
 1064              		.loc 1 462 1 view .LVU218
 1065              		@ sp needed
 1066 0008 7047     		bx	lr
 1067              	.L61:
 1068 000a C046     		.align	2
 1069              	.L60:
 1070 000c FFDFFFFF 		.word	-8193
 1071              		.cfi_endproc
 1072              	.LFE83:
 1074              		.section	.text.usart_mute_mode_wakeup_config,"ax",%progbits
 1075              		.align	1
 1076              		.global	usart_mute_mode_wakeup_config
 1077              		.syntax unified
 1078              		.code	16
 1079              		.thumb_func
 1081              	usart_mute_mode_wakeup_config:
 1082              	.LVL55:
 1083              	.LFB84:
 463:Drivers/GD32E23x/Source/gd32e23x_usart.c **** 
 464:Drivers/GD32E23x/Source/gd32e23x_usart.c **** /*!
 465:Drivers/GD32E23x/Source/gd32e23x_usart.c ****     \brief      configure wakeup method in mute mode
ARM GAS  D:\noval\Temp\ccDqp2rO.s 			page 28


 466:Drivers/GD32E23x/Source/gd32e23x_usart.c ****     \param[in]  usart_periph: USARTx(x=0,1)
 467:Drivers/GD32E23x/Source/gd32e23x_usart.c ****     \param[in]  wmethod: two methods be used to enter or exit the mute mode
 468:Drivers/GD32E23x/Source/gd32e23x_usart.c ****                 only one parameter can be selected which is shown as below:
 469:Drivers/GD32E23x/Source/gd32e23x_usart.c ****       \arg        USART_WM_IDLE: idle line
 470:Drivers/GD32E23x/Source/gd32e23x_usart.c ****       \arg        USART_WM_ADDR: address mark
 471:Drivers/GD32E23x/Source/gd32e23x_usart.c ****     \param[out] none
 472:Drivers/GD32E23x/Source/gd32e23x_usart.c ****     \retval     none
 473:Drivers/GD32E23x/Source/gd32e23x_usart.c **** */
 474:Drivers/GD32E23x/Source/gd32e23x_usart.c **** void usart_mute_mode_wakeup_config(uint32_t usart_periph, uint32_t wmethod)
 475:Drivers/GD32E23x/Source/gd32e23x_usart.c **** {
 1084              		.loc 1 475 1 is_stmt 1 view -0
 1085              		.cfi_startproc
 1086              		@ args = 0, pretend = 0, frame = 0
 1087              		@ frame_needed = 0, uses_anonymous_args = 0
 1088              		@ link register save eliminated.
 476:Drivers/GD32E23x/Source/gd32e23x_usart.c ****     /* disable USART */
 477:Drivers/GD32E23x/Source/gd32e23x_usart.c ****     USART_CTL0(usart_periph) &= ~(USART_CTL0_UEN);
 1089              		.loc 1 477 5 view .LVU220
 1090 0000 0368     		ldr	r3, [r0]
 1091              		.loc 1 477 30 is_stmt 0 view .LVU221
 1092 0002 0122     		movs	r2, #1
 1093 0004 9343     		bics	r3, r2
 1094 0006 0360     		str	r3, [r0]
 478:Drivers/GD32E23x/Source/gd32e23x_usart.c **** 
 479:Drivers/GD32E23x/Source/gd32e23x_usart.c ****     USART_CTL0(usart_periph) &= ~(USART_CTL0_WM);
 1095              		.loc 1 479 5 is_stmt 1 view .LVU222
 1096 0008 0368     		ldr	r3, [r0]
 1097              		.loc 1 479 30 is_stmt 0 view .LVU223
 1098 000a 034A     		ldr	r2, .L63
 1099 000c 1340     		ands	r3, r2
 1100 000e 0360     		str	r3, [r0]
 480:Drivers/GD32E23x/Source/gd32e23x_usart.c ****     USART_CTL0(usart_periph) |= wmethod;
 1101              		.loc 1 480 5 is_stmt 1 view .LVU224
 1102 0010 0368     		ldr	r3, [r0]
 1103              		.loc 1 480 30 is_stmt 0 view .LVU225
 1104 0012 0B43     		orrs	r3, r1
 1105 0014 0360     		str	r3, [r0]
 481:Drivers/GD32E23x/Source/gd32e23x_usart.c **** }
 1106              		.loc 1 481 1 view .LVU226
 1107              		@ sp needed
 1108 0016 7047     		bx	lr
 1109              	.L64:
 1110              		.align	2
 1111              	.L63:
 1112 0018 FFF7FFFF 		.word	-2049
 1113              		.cfi_endproc
 1114              	.LFE84:
 1116              		.section	.text.usart_lin_mode_enable,"ax",%progbits
 1117              		.align	1
 1118              		.global	usart_lin_mode_enable
 1119              		.syntax unified
 1120              		.code	16
 1121              		.thumb_func
 1123              	usart_lin_mode_enable:
 1124              	.LVL56:
 1125              	.LFB85:
 482:Drivers/GD32E23x/Source/gd32e23x_usart.c **** 
ARM GAS  D:\noval\Temp\ccDqp2rO.s 			page 29


 483:Drivers/GD32E23x/Source/gd32e23x_usart.c **** /*!
 484:Drivers/GD32E23x/Source/gd32e23x_usart.c ****     \brief      enable LIN mode
 485:Drivers/GD32E23x/Source/gd32e23x_usart.c ****     \param[in]  usart_periph: USARTx(x=0)
 486:Drivers/GD32E23x/Source/gd32e23x_usart.c ****     \param[out] none
 487:Drivers/GD32E23x/Source/gd32e23x_usart.c ****     \retval     none
 488:Drivers/GD32E23x/Source/gd32e23x_usart.c **** */
 489:Drivers/GD32E23x/Source/gd32e23x_usart.c **** void usart_lin_mode_enable(uint32_t usart_periph)
 490:Drivers/GD32E23x/Source/gd32e23x_usart.c **** {
 1126              		.loc 1 490 1 is_stmt 1 view -0
 1127              		.cfi_startproc
 1128              		@ args = 0, pretend = 0, frame = 0
 1129              		@ frame_needed = 0, uses_anonymous_args = 0
 1130              		@ link register save eliminated.
 491:Drivers/GD32E23x/Source/gd32e23x_usart.c ****     /* disable USART */
 492:Drivers/GD32E23x/Source/gd32e23x_usart.c ****     USART_CTL0(usart_periph) &= ~(USART_CTL0_UEN);
 1131              		.loc 1 492 5 view .LVU228
 1132 0000 0368     		ldr	r3, [r0]
 1133              		.loc 1 492 30 is_stmt 0 view .LVU229
 1134 0002 0122     		movs	r2, #1
 1135 0004 9343     		bics	r3, r2
 1136 0006 0360     		str	r3, [r0]
 493:Drivers/GD32E23x/Source/gd32e23x_usart.c **** 
 494:Drivers/GD32E23x/Source/gd32e23x_usart.c ****     USART_CTL1(usart_periph) |= USART_CTL1_LMEN;
 1137              		.loc 1 494 5 is_stmt 1 view .LVU230
 1138 0008 4368     		ldr	r3, [r0, #4]
 1139              		.loc 1 494 30 is_stmt 0 view .LVU231
 1140 000a 44F20002 		movw	r2, #16384
 1141 000e 1343     		orrs	r3, r2
 1142 0010 4360     		str	r3, [r0, #4]
 495:Drivers/GD32E23x/Source/gd32e23x_usart.c **** }
 1143              		.loc 1 495 1 view .LVU232
 1144              		@ sp needed
 1145 0012 7047     		bx	lr
 1146              		.cfi_endproc
 1147              	.LFE85:
 1149              		.section	.text.usart_lin_mode_disable,"ax",%progbits
 1150              		.align	1
 1151              		.global	usart_lin_mode_disable
 1152              		.syntax unified
 1153              		.code	16
 1154              		.thumb_func
 1156              	usart_lin_mode_disable:
 1157              	.LVL57:
 1158              	.LFB86:
 496:Drivers/GD32E23x/Source/gd32e23x_usart.c **** 
 497:Drivers/GD32E23x/Source/gd32e23x_usart.c **** /*!
 498:Drivers/GD32E23x/Source/gd32e23x_usart.c ****     \brief      disable LIN mode
 499:Drivers/GD32E23x/Source/gd32e23x_usart.c ****     \param[in]  usart_periph: USARTx(x=0)
 500:Drivers/GD32E23x/Source/gd32e23x_usart.c ****     \param[out] none
 501:Drivers/GD32E23x/Source/gd32e23x_usart.c ****     \retval     none
 502:Drivers/GD32E23x/Source/gd32e23x_usart.c **** */
 503:Drivers/GD32E23x/Source/gd32e23x_usart.c **** void usart_lin_mode_disable(uint32_t usart_periph)
 504:Drivers/GD32E23x/Source/gd32e23x_usart.c **** {
 1159              		.loc 1 504 1 is_stmt 1 view -0
 1160              		.cfi_startproc
 1161              		@ args = 0, pretend = 0, frame = 0
 1162              		@ frame_needed = 0, uses_anonymous_args = 0
ARM GAS  D:\noval\Temp\ccDqp2rO.s 			page 30


 1163              		@ link register save eliminated.
 505:Drivers/GD32E23x/Source/gd32e23x_usart.c ****     /* disable USART */
 506:Drivers/GD32E23x/Source/gd32e23x_usart.c ****     USART_CTL0(usart_periph) &= ~(USART_CTL0_UEN);
 1164              		.loc 1 506 5 view .LVU234
 1165 0000 0368     		ldr	r3, [r0]
 1166              		.loc 1 506 30 is_stmt 0 view .LVU235
 1167 0002 0122     		movs	r2, #1
 1168 0004 9343     		bics	r3, r2
 1169 0006 0360     		str	r3, [r0]
 507:Drivers/GD32E23x/Source/gd32e23x_usart.c **** 
 508:Drivers/GD32E23x/Source/gd32e23x_usart.c ****     USART_CTL1(usart_periph) &= ~(USART_CTL1_LMEN);
 1170              		.loc 1 508 5 is_stmt 1 view .LVU236
 1171 0008 4368     		ldr	r3, [r0, #4]
 1172              		.loc 1 508 30 is_stmt 0 view .LVU237
 1173 000a 024A     		ldr	r2, .L67
 1174 000c 1340     		ands	r3, r2
 1175 000e 4360     		str	r3, [r0, #4]
 509:Drivers/GD32E23x/Source/gd32e23x_usart.c **** }
 1176              		.loc 1 509 1 view .LVU238
 1177              		@ sp needed
 1178 0010 7047     		bx	lr
 1179              	.L68:
 1180 0012 C046     		.align	2
 1181              	.L67:
 1182 0014 FFBFFFFF 		.word	-16385
 1183              		.cfi_endproc
 1184              	.LFE86:
 1186              		.section	.text.usart_lin_break_detection_length_config,"ax",%progbits
 1187              		.align	1
 1188              		.global	usart_lin_break_detection_length_config
 1189              		.syntax unified
 1190              		.code	16
 1191              		.thumb_func
 1193              	usart_lin_break_detection_length_config:
 1194              	.LVL58:
 1195              	.LFB87:
 510:Drivers/GD32E23x/Source/gd32e23x_usart.c **** 
 511:Drivers/GD32E23x/Source/gd32e23x_usart.c **** /*!
 512:Drivers/GD32E23x/Source/gd32e23x_usart.c ****     \brief      LIN break detection length
 513:Drivers/GD32E23x/Source/gd32e23x_usart.c ****     \param[in]  usart_periph: USARTx(x=0)
 514:Drivers/GD32E23x/Source/gd32e23x_usart.c ****     \param[in]  lblen: LIN break detection length
 515:Drivers/GD32E23x/Source/gd32e23x_usart.c ****                 only one parameter can be selected which is shown as below:
 516:Drivers/GD32E23x/Source/gd32e23x_usart.c ****       \arg        USART_LBLEN_10B: 10 bits break detection
 517:Drivers/GD32E23x/Source/gd32e23x_usart.c ****       \arg        USART_LBLEN_11B: 11 bits break detection
 518:Drivers/GD32E23x/Source/gd32e23x_usart.c ****     \param[out] none
 519:Drivers/GD32E23x/Source/gd32e23x_usart.c ****     \retval     none
 520:Drivers/GD32E23x/Source/gd32e23x_usart.c **** */
 521:Drivers/GD32E23x/Source/gd32e23x_usart.c **** void usart_lin_break_detection_length_config(uint32_t usart_periph, uint32_t lblen)
 522:Drivers/GD32E23x/Source/gd32e23x_usart.c **** {
 1196              		.loc 1 522 1 is_stmt 1 view -0
 1197              		.cfi_startproc
 1198              		@ args = 0, pretend = 0, frame = 0
 1199              		@ frame_needed = 0, uses_anonymous_args = 0
 1200              		@ link register save eliminated.
 523:Drivers/GD32E23x/Source/gd32e23x_usart.c ****     /* disable USART */
 524:Drivers/GD32E23x/Source/gd32e23x_usart.c ****     USART_CTL0(usart_periph) &= ~(USART_CTL0_UEN);
 1201              		.loc 1 524 5 view .LVU240
ARM GAS  D:\noval\Temp\ccDqp2rO.s 			page 31


 1202 0000 0368     		ldr	r3, [r0]
 1203              		.loc 1 524 30 is_stmt 0 view .LVU241
 1204 0002 0122     		movs	r2, #1
 1205 0004 9343     		bics	r3, r2
 1206 0006 0360     		str	r3, [r0]
 525:Drivers/GD32E23x/Source/gd32e23x_usart.c ****     USART_CTL1(usart_periph) &= ~(USART_CTL1_LBLEN);
 1207              		.loc 1 525 5 is_stmt 1 view .LVU242
 1208 0008 4268     		ldr	r2, [r0, #4]
 1209              		.loc 1 525 30 is_stmt 0 view .LVU243
 1210 000a 2023     		movs	r3, #32
 1211 000c 9A43     		bics	r2, r3
 1212 000e 4260     		str	r2, [r0, #4]
 526:Drivers/GD32E23x/Source/gd32e23x_usart.c ****     USART_CTL1(usart_periph) |= USART_CTL1_LBLEN & (lblen);
 1213              		.loc 1 526 5 is_stmt 1 view .LVU244
 1214 0010 4268     		ldr	r2, [r0, #4]
 1215              		.loc 1 526 50 is_stmt 0 view .LVU245
 1216 0012 0B40     		ands	r3, r1
 1217              		.loc 1 526 30 view .LVU246
 1218 0014 1A43     		orrs	r2, r3
 1219 0016 4260     		str	r2, [r0, #4]
 527:Drivers/GD32E23x/Source/gd32e23x_usart.c **** }
 1220              		.loc 1 527 1 view .LVU247
 1221              		@ sp needed
 1222 0018 7047     		bx	lr
 1223              		.cfi_endproc
 1224              	.LFE87:
 1226              		.section	.text.usart_halfduplex_enable,"ax",%progbits
 1227              		.align	1
 1228              		.global	usart_halfduplex_enable
 1229              		.syntax unified
 1230              		.code	16
 1231              		.thumb_func
 1233              	usart_halfduplex_enable:
 1234              	.LVL59:
 1235              	.LFB88:
 528:Drivers/GD32E23x/Source/gd32e23x_usart.c **** 
 529:Drivers/GD32E23x/Source/gd32e23x_usart.c **** /*!
 530:Drivers/GD32E23x/Source/gd32e23x_usart.c ****     \brief      enable half-duplex mode
 531:Drivers/GD32E23x/Source/gd32e23x_usart.c ****     \param[in]  usart_periph: USARTx(x=0,1)
 532:Drivers/GD32E23x/Source/gd32e23x_usart.c ****     \param[out] none
 533:Drivers/GD32E23x/Source/gd32e23x_usart.c ****     \retval     none
 534:Drivers/GD32E23x/Source/gd32e23x_usart.c **** */
 535:Drivers/GD32E23x/Source/gd32e23x_usart.c **** void usart_halfduplex_enable(uint32_t usart_periph)
 536:Drivers/GD32E23x/Source/gd32e23x_usart.c **** {
 1236              		.loc 1 536 1 is_stmt 1 view -0
 1237              		.cfi_startproc
 1238              		@ args = 0, pretend = 0, frame = 0
 1239              		@ frame_needed = 0, uses_anonymous_args = 0
 1240              		@ link register save eliminated.
 537:Drivers/GD32E23x/Source/gd32e23x_usart.c ****     /* disable USART */
 538:Drivers/GD32E23x/Source/gd32e23x_usart.c ****     USART_CTL0(usart_periph) &= ~(USART_CTL0_UEN);
 1241              		.loc 1 538 5 view .LVU249
 1242 0000 0368     		ldr	r3, [r0]
 1243              		.loc 1 538 30 is_stmt 0 view .LVU250
 1244 0002 0122     		movs	r2, #1
 1245 0004 9343     		bics	r3, r2
 1246 0006 0360     		str	r3, [r0]
ARM GAS  D:\noval\Temp\ccDqp2rO.s 			page 32


 539:Drivers/GD32E23x/Source/gd32e23x_usart.c **** 
 540:Drivers/GD32E23x/Source/gd32e23x_usart.c ****     USART_CTL2(usart_periph) |= USART_CTL2_HDEN;
 1247              		.loc 1 540 5 is_stmt 1 view .LVU251
 1248 0008 8368     		ldr	r3, [r0, #8]
 1249              		.loc 1 540 30 is_stmt 0 view .LVU252
 1250 000a 0732     		adds	r2, r2, #7
 1251 000c 1343     		orrs	r3, r2
 1252 000e 8360     		str	r3, [r0, #8]
 541:Drivers/GD32E23x/Source/gd32e23x_usart.c **** }
 1253              		.loc 1 541 1 view .LVU253
 1254              		@ sp needed
 1255 0010 7047     		bx	lr
 1256              		.cfi_endproc
 1257              	.LFE88:
 1259              		.section	.text.usart_halfduplex_disable,"ax",%progbits
 1260              		.align	1
 1261              		.global	usart_halfduplex_disable
 1262              		.syntax unified
 1263              		.code	16
 1264              		.thumb_func
 1266              	usart_halfduplex_disable:
 1267              	.LVL60:
 1268              	.LFB89:
 542:Drivers/GD32E23x/Source/gd32e23x_usart.c **** 
 543:Drivers/GD32E23x/Source/gd32e23x_usart.c **** /*!
 544:Drivers/GD32E23x/Source/gd32e23x_usart.c ****     \brief      disable half-duplex mode
 545:Drivers/GD32E23x/Source/gd32e23x_usart.c ****     \param[in]  usart_periph: USARTx(x=0,1)
 546:Drivers/GD32E23x/Source/gd32e23x_usart.c ****     \param[out] none
 547:Drivers/GD32E23x/Source/gd32e23x_usart.c ****     \retval     none
 548:Drivers/GD32E23x/Source/gd32e23x_usart.c **** */
 549:Drivers/GD32E23x/Source/gd32e23x_usart.c **** void usart_halfduplex_disable(uint32_t usart_periph)
 550:Drivers/GD32E23x/Source/gd32e23x_usart.c **** {
 1269              		.loc 1 550 1 is_stmt 1 view -0
 1270              		.cfi_startproc
 1271              		@ args = 0, pretend = 0, frame = 0
 1272              		@ frame_needed = 0, uses_anonymous_args = 0
 1273              		@ link register save eliminated.
 551:Drivers/GD32E23x/Source/gd32e23x_usart.c ****     /* disable USART */
 552:Drivers/GD32E23x/Source/gd32e23x_usart.c ****     USART_CTL0(usart_periph) &= ~(USART_CTL0_UEN);
 1274              		.loc 1 552 5 view .LVU255
 1275 0000 0368     		ldr	r3, [r0]
 1276              		.loc 1 552 30 is_stmt 0 view .LVU256
 1277 0002 0122     		movs	r2, #1
 1278 0004 9343     		bics	r3, r2
 1279 0006 0360     		str	r3, [r0]
 553:Drivers/GD32E23x/Source/gd32e23x_usart.c **** 
 554:Drivers/GD32E23x/Source/gd32e23x_usart.c ****     USART_CTL2(usart_periph) &= ~(USART_CTL2_HDEN);
 1280              		.loc 1 554 5 is_stmt 1 view .LVU257
 1281 0008 8368     		ldr	r3, [r0, #8]
 1282              		.loc 1 554 30 is_stmt 0 view .LVU258
 1283 000a 0732     		adds	r2, r2, #7
 1284 000c 9343     		bics	r3, r2
 1285 000e 8360     		str	r3, [r0, #8]
 555:Drivers/GD32E23x/Source/gd32e23x_usart.c **** }
 1286              		.loc 1 555 1 view .LVU259
 1287              		@ sp needed
 1288 0010 7047     		bx	lr
ARM GAS  D:\noval\Temp\ccDqp2rO.s 			page 33


 1289              		.cfi_endproc
 1290              	.LFE89:
 1292              		.section	.text.usart_clock_enable,"ax",%progbits
 1293              		.align	1
 1294              		.global	usart_clock_enable
 1295              		.syntax unified
 1296              		.code	16
 1297              		.thumb_func
 1299              	usart_clock_enable:
 1300              	.LVL61:
 1301              	.LFB90:
 556:Drivers/GD32E23x/Source/gd32e23x_usart.c **** 
 557:Drivers/GD32E23x/Source/gd32e23x_usart.c **** /*!
 558:Drivers/GD32E23x/Source/gd32e23x_usart.c ****     \brief      enable clock
 559:Drivers/GD32E23x/Source/gd32e23x_usart.c ****     \param[in]  usart_periph: USARTx(x=0,1)
 560:Drivers/GD32E23x/Source/gd32e23x_usart.c ****     \param[out] none
 561:Drivers/GD32E23x/Source/gd32e23x_usart.c ****     \retval     none
 562:Drivers/GD32E23x/Source/gd32e23x_usart.c **** */
 563:Drivers/GD32E23x/Source/gd32e23x_usart.c **** void usart_clock_enable(uint32_t usart_periph)
 564:Drivers/GD32E23x/Source/gd32e23x_usart.c **** {
 1302              		.loc 1 564 1 is_stmt 1 view -0
 1303              		.cfi_startproc
 1304              		@ args = 0, pretend = 0, frame = 0
 1305              		@ frame_needed = 0, uses_anonymous_args = 0
 1306              		@ link register save eliminated.
 565:Drivers/GD32E23x/Source/gd32e23x_usart.c ****     /* disable USART */
 566:Drivers/GD32E23x/Source/gd32e23x_usart.c ****     USART_CTL0(usart_periph) &= ~(USART_CTL0_UEN);
 1307              		.loc 1 566 5 view .LVU261
 1308 0000 0368     		ldr	r3, [r0]
 1309              		.loc 1 566 30 is_stmt 0 view .LVU262
 1310 0002 0122     		movs	r2, #1
 1311 0004 9343     		bics	r3, r2
 1312 0006 0360     		str	r3, [r0]
 567:Drivers/GD32E23x/Source/gd32e23x_usart.c **** 
 568:Drivers/GD32E23x/Source/gd32e23x_usart.c ****     USART_CTL1(usart_periph) |= USART_CTL1_CKEN;
 1313              		.loc 1 568 5 is_stmt 1 view .LVU263
 1314 0008 4368     		ldr	r3, [r0, #4]
 1315              		.loc 1 568 30 is_stmt 0 view .LVU264
 1316 000a 40F60002 		movw	r2, #2048
 1317 000e 1343     		orrs	r3, r2
 1318 0010 4360     		str	r3, [r0, #4]
 569:Drivers/GD32E23x/Source/gd32e23x_usart.c **** }
 1319              		.loc 1 569 1 view .LVU265
 1320              		@ sp needed
 1321 0012 7047     		bx	lr
 1322              		.cfi_endproc
 1323              	.LFE90:
 1325              		.section	.text.usart_clock_disable,"ax",%progbits
 1326              		.align	1
 1327              		.global	usart_clock_disable
 1328              		.syntax unified
 1329              		.code	16
 1330              		.thumb_func
 1332              	usart_clock_disable:
 1333              	.LVL62:
 1334              	.LFB91:
 570:Drivers/GD32E23x/Source/gd32e23x_usart.c **** 
ARM GAS  D:\noval\Temp\ccDqp2rO.s 			page 34


 571:Drivers/GD32E23x/Source/gd32e23x_usart.c **** /*!
 572:Drivers/GD32E23x/Source/gd32e23x_usart.c ****     \brief      disable clock
 573:Drivers/GD32E23x/Source/gd32e23x_usart.c ****     \param[in]  usart_periph: USARTx(x=0,1)
 574:Drivers/GD32E23x/Source/gd32e23x_usart.c ****     \param[out] none
 575:Drivers/GD32E23x/Source/gd32e23x_usart.c ****     \retval     none
 576:Drivers/GD32E23x/Source/gd32e23x_usart.c **** */
 577:Drivers/GD32E23x/Source/gd32e23x_usart.c **** void usart_clock_disable(uint32_t usart_periph)
 578:Drivers/GD32E23x/Source/gd32e23x_usart.c **** {
 1335              		.loc 1 578 1 is_stmt 1 view -0
 1336              		.cfi_startproc
 1337              		@ args = 0, pretend = 0, frame = 0
 1338              		@ frame_needed = 0, uses_anonymous_args = 0
 1339              		@ link register save eliminated.
 579:Drivers/GD32E23x/Source/gd32e23x_usart.c ****     /* disable USART */
 580:Drivers/GD32E23x/Source/gd32e23x_usart.c ****     USART_CTL0(usart_periph) &= ~(USART_CTL0_UEN);
 1340              		.loc 1 580 5 view .LVU267
 1341 0000 0368     		ldr	r3, [r0]
 1342              		.loc 1 580 30 is_stmt 0 view .LVU268
 1343 0002 0122     		movs	r2, #1
 1344 0004 9343     		bics	r3, r2
 1345 0006 0360     		str	r3, [r0]
 581:Drivers/GD32E23x/Source/gd32e23x_usart.c **** 
 582:Drivers/GD32E23x/Source/gd32e23x_usart.c ****     USART_CTL1(usart_periph) &= ~(USART_CTL1_CKEN);
 1346              		.loc 1 582 5 is_stmt 1 view .LVU269
 1347 0008 4368     		ldr	r3, [r0, #4]
 1348              		.loc 1 582 30 is_stmt 0 view .LVU270
 1349 000a 024A     		ldr	r2, .L74
 1350 000c 1340     		ands	r3, r2
 1351 000e 4360     		str	r3, [r0, #4]
 583:Drivers/GD32E23x/Source/gd32e23x_usart.c **** }
 1352              		.loc 1 583 1 view .LVU271
 1353              		@ sp needed
 1354 0010 7047     		bx	lr
 1355              	.L75:
 1356 0012 C046     		.align	2
 1357              	.L74:
 1358 0014 FFF7FFFF 		.word	-2049
 1359              		.cfi_endproc
 1360              	.LFE91:
 1362              		.section	.text.usart_synchronous_clock_config,"ax",%progbits
 1363              		.align	1
 1364              		.global	usart_synchronous_clock_config
 1365              		.syntax unified
 1366              		.code	16
 1367              		.thumb_func
 1369              	usart_synchronous_clock_config:
 1370              	.LVL63:
 1371              	.LFB92:
 584:Drivers/GD32E23x/Source/gd32e23x_usart.c **** 
 585:Drivers/GD32E23x/Source/gd32e23x_usart.c **** /*!
 586:Drivers/GD32E23x/Source/gd32e23x_usart.c ****     \brief      configure USART synchronous mode parameters
 587:Drivers/GD32E23x/Source/gd32e23x_usart.c ****     \param[in]  usart_periph: USARTx(x=0,1)
 588:Drivers/GD32E23x/Source/gd32e23x_usart.c ****     \param[in]  clen: last bit clock pulse
 589:Drivers/GD32E23x/Source/gd32e23x_usart.c ****                 only one parameter can be selected which is shown as below:
 590:Drivers/GD32E23x/Source/gd32e23x_usart.c ****       \arg        USART_CLEN_NONE: clock pulse of the last data bit (MSB) is not output to the CK p
 591:Drivers/GD32E23x/Source/gd32e23x_usart.c ****       \arg        USART_CLEN_EN: clock pulse of the last data bit (MSB) is output to the CK pin
 592:Drivers/GD32E23x/Source/gd32e23x_usart.c ****     \param[in]  cph: clock phase
ARM GAS  D:\noval\Temp\ccDqp2rO.s 			page 35


 593:Drivers/GD32E23x/Source/gd32e23x_usart.c ****                 only one parameter can be selected which is shown as below:
 594:Drivers/GD32E23x/Source/gd32e23x_usart.c ****       \arg        USART_CPH_1CK: first clock transition is the first data capture edge
 595:Drivers/GD32E23x/Source/gd32e23x_usart.c ****       \arg        USART_CPH_2CK: second clock transition is the first data capture edge
 596:Drivers/GD32E23x/Source/gd32e23x_usart.c ****     \param[in]  cpl: clock polarity
 597:Drivers/GD32E23x/Source/gd32e23x_usart.c ****                 only one parameter can be selected which is shown as below:
 598:Drivers/GD32E23x/Source/gd32e23x_usart.c ****       \arg        USART_CPL_LOW: steady low value on CK pin
 599:Drivers/GD32E23x/Source/gd32e23x_usart.c ****       \arg        USART_CPL_HIGH: steady high value on CK pin
 600:Drivers/GD32E23x/Source/gd32e23x_usart.c ****     \param[out] none
 601:Drivers/GD32E23x/Source/gd32e23x_usart.c ****     \retval     none
 602:Drivers/GD32E23x/Source/gd32e23x_usart.c **** */
 603:Drivers/GD32E23x/Source/gd32e23x_usart.c **** void usart_synchronous_clock_config(uint32_t usart_periph, uint32_t clen, uint32_t cph, uint32_t cp
 604:Drivers/GD32E23x/Source/gd32e23x_usart.c **** {
 1372              		.loc 1 604 1 is_stmt 1 view -0
 1373              		.cfi_startproc
 1374              		@ args = 0, pretend = 0, frame = 0
 1375              		@ frame_needed = 0, uses_anonymous_args = 0
 1376              		.loc 1 604 1 is_stmt 0 view .LVU273
 1377 0000 30B5     		push	{r4, r5, lr}
 1378              	.LCFI2:
 1379              		.cfi_def_cfa_offset 12
 1380              		.cfi_offset 4, -12
 1381              		.cfi_offset 5, -8
 1382              		.cfi_offset 14, -4
 605:Drivers/GD32E23x/Source/gd32e23x_usart.c ****     /* disable USART */
 606:Drivers/GD32E23x/Source/gd32e23x_usart.c ****     USART_CTL0(usart_periph) &= ~(USART_CTL0_UEN);
 1383              		.loc 1 606 5 is_stmt 1 view .LVU274
 1384 0002 0468     		ldr	r4, [r0]
 1385              		.loc 1 606 30 is_stmt 0 view .LVU275
 1386 0004 0125     		movs	r5, #1
 1387 0006 AC43     		bics	r4, r5
 1388 0008 0460     		str	r4, [r0]
 607:Drivers/GD32E23x/Source/gd32e23x_usart.c ****     /* reset USART_CTL1 CLEN,CPH,CPL bits */
 608:Drivers/GD32E23x/Source/gd32e23x_usart.c ****     USART_CTL1(usart_periph) &= ~(USART_CTL1_CLEN | USART_CTL1_CPH | USART_CTL1_CPL);
 1389              		.loc 1 608 5 is_stmt 1 view .LVU276
 1390 000a 4468     		ldr	r4, [r0, #4]
 1391              		.loc 1 608 30 is_stmt 0 view .LVU277
 1392 000c 0A4D     		ldr	r5, .L77
 1393 000e 2C40     		ands	r4, r5
 1394 0010 4460     		str	r4, [r0, #4]
 609:Drivers/GD32E23x/Source/gd32e23x_usart.c **** 
 610:Drivers/GD32E23x/Source/gd32e23x_usart.c ****     USART_CTL1(usart_periph) |= (USART_CTL1_CLEN & clen);
 1395              		.loc 1 610 5 is_stmt 1 view .LVU278
 1396 0012 4468     		ldr	r4, [r0, #4]
 1397              		.loc 1 610 50 is_stmt 0 view .LVU279
 1398 0014 40F20015 		movw	r5, #256
 1399 0018 0D40     		ands	r5, r1
 1400              		.loc 1 610 30 view .LVU280
 1401 001a 2C43     		orrs	r4, r5
 1402 001c 4460     		str	r4, [r0, #4]
 611:Drivers/GD32E23x/Source/gd32e23x_usart.c ****     USART_CTL1(usart_periph) |= (USART_CTL1_CPH & cph);
 1403              		.loc 1 611 5 is_stmt 1 view .LVU281
 1404 001e 4168     		ldr	r1, [r0, #4]
 1405              	.LVL64:
 1406              		.loc 1 611 49 is_stmt 0 view .LVU282
 1407 0020 40F20024 		movw	r4, #512
 1408 0024 1440     		ands	r4, r2
 1409              		.loc 1 611 30 view .LVU283
ARM GAS  D:\noval\Temp\ccDqp2rO.s 			page 36


 1410 0026 2143     		orrs	r1, r4
 1411 0028 4160     		str	r1, [r0, #4]
 612:Drivers/GD32E23x/Source/gd32e23x_usart.c ****     USART_CTL1(usart_periph) |= (USART_CTL1_CPL & cpl);
 1412              		.loc 1 612 5 is_stmt 1 view .LVU284
 1413 002a 4268     		ldr	r2, [r0, #4]
 1414              	.LVL65:
 1415              		.loc 1 612 49 is_stmt 0 view .LVU285
 1416 002c 40F20041 		movw	r1, #1024
 1417 0030 1940     		ands	r1, r3
 1418              		.loc 1 612 30 view .LVU286
 1419 0032 0A43     		orrs	r2, r1
 1420 0034 4260     		str	r2, [r0, #4]
 613:Drivers/GD32E23x/Source/gd32e23x_usart.c **** }
 1421              		.loc 1 613 1 view .LVU287
 1422              		@ sp needed
 1423 0036 30BD     		pop	{r4, r5, pc}
 1424              	.L78:
 1425              		.align	2
 1426              	.L77:
 1427 0038 FFF8FFFF 		.word	-1793
 1428              		.cfi_endproc
 1429              	.LFE92:
 1431              		.section	.text.usart_guard_time_config,"ax",%progbits
 1432              		.align	1
 1433              		.global	usart_guard_time_config
 1434              		.syntax unified
 1435              		.code	16
 1436              		.thumb_func
 1438              	usart_guard_time_config:
 1439              	.LVL66:
 1440              	.LFB93:
 614:Drivers/GD32E23x/Source/gd32e23x_usart.c **** 
 615:Drivers/GD32E23x/Source/gd32e23x_usart.c **** /*!
 616:Drivers/GD32E23x/Source/gd32e23x_usart.c ****     \brief      configure guard time value in smartcard mode
 617:Drivers/GD32E23x/Source/gd32e23x_usart.c ****     \param[in]  usart_periph: USARTx(x=0)
 618:Drivers/GD32E23x/Source/gd32e23x_usart.c ****     \param[in]  guat: 0x00-0xFF
 619:Drivers/GD32E23x/Source/gd32e23x_usart.c ****     \param[out] none
 620:Drivers/GD32E23x/Source/gd32e23x_usart.c ****     \retval     none
 621:Drivers/GD32E23x/Source/gd32e23x_usart.c **** */
 622:Drivers/GD32E23x/Source/gd32e23x_usart.c **** void usart_guard_time_config(uint32_t usart_periph, uint32_t guat)
 623:Drivers/GD32E23x/Source/gd32e23x_usart.c **** {
 1441              		.loc 1 623 1 is_stmt 1 view -0
 1442              		.cfi_startproc
 1443              		@ args = 0, pretend = 0, frame = 0
 1444              		@ frame_needed = 0, uses_anonymous_args = 0
 1445              		@ link register save eliminated.
 624:Drivers/GD32E23x/Source/gd32e23x_usart.c ****     /* disable USART */
 625:Drivers/GD32E23x/Source/gd32e23x_usart.c ****     USART_CTL0(usart_periph) &= ~(USART_CTL0_UEN);
 1446              		.loc 1 625 5 view .LVU289
 1447 0000 0368     		ldr	r3, [r0]
 1448              		.loc 1 625 30 is_stmt 0 view .LVU290
 1449 0002 0122     		movs	r2, #1
 1450 0004 9343     		bics	r3, r2
 1451 0006 0360     		str	r3, [r0]
 626:Drivers/GD32E23x/Source/gd32e23x_usart.c **** 
 627:Drivers/GD32E23x/Source/gd32e23x_usart.c ****     USART_GP(usart_periph) &= ~(USART_GP_GUAT);
 1452              		.loc 1 627 5 is_stmt 1 view .LVU291
ARM GAS  D:\noval\Temp\ccDqp2rO.s 			page 37


 1453 0008 0369     		ldr	r3, [r0, #16]
 1454              		.loc 1 627 28 is_stmt 0 view .LVU292
 1455 000a 054A     		ldr	r2, .L80
 1456 000c 1340     		ands	r3, r2
 1457 000e 0361     		str	r3, [r0, #16]
 628:Drivers/GD32E23x/Source/gd32e23x_usart.c ****     USART_GP(usart_periph) |= (USART_GP_GUAT & ((guat) << 8));
 1458              		.loc 1 628 5 is_stmt 1 view .LVU293
 1459 0010 0369     		ldr	r3, [r0, #16]
 1460              		.loc 1 628 56 is_stmt 0 view .LVU294
 1461 0012 0A02     		lsls	r2, r1, #8
 1462              		.loc 1 628 46 view .LVU295
 1463 0014 4FF6FF71 		movw	r1, #65535
 1464              	.LVL67:
 1465              		.loc 1 628 46 view .LVU296
 1466 0018 1140     		ands	r1, r2
 1467              		.loc 1 628 28 view .LVU297
 1468 001a 0B43     		orrs	r3, r1
 1469 001c 0361     		str	r3, [r0, #16]
 629:Drivers/GD32E23x/Source/gd32e23x_usart.c **** }
 1470              		.loc 1 629 1 view .LVU298
 1471              		@ sp needed
 1472 001e 7047     		bx	lr
 1473              	.L81:
 1474              		.align	2
 1475              	.L80:
 1476 0020 FF00FFFF 		.word	-65281
 1477              		.cfi_endproc
 1478              	.LFE93:
 1480              		.section	.text.usart_smartcard_mode_enable,"ax",%progbits
 1481              		.align	1
 1482              		.global	usart_smartcard_mode_enable
 1483              		.syntax unified
 1484              		.code	16
 1485              		.thumb_func
 1487              	usart_smartcard_mode_enable:
 1488              	.LVL68:
 1489              	.LFB94:
 630:Drivers/GD32E23x/Source/gd32e23x_usart.c **** 
 631:Drivers/GD32E23x/Source/gd32e23x_usart.c **** /*!
 632:Drivers/GD32E23x/Source/gd32e23x_usart.c ****     \brief      enable smartcard mode
 633:Drivers/GD32E23x/Source/gd32e23x_usart.c ****     \param[in]  usart_periph: USARTx(x=0)
 634:Drivers/GD32E23x/Source/gd32e23x_usart.c ****     \param[out] none
 635:Drivers/GD32E23x/Source/gd32e23x_usart.c ****     \retval     none
 636:Drivers/GD32E23x/Source/gd32e23x_usart.c **** */
 637:Drivers/GD32E23x/Source/gd32e23x_usart.c **** void usart_smartcard_mode_enable(uint32_t usart_periph)
 638:Drivers/GD32E23x/Source/gd32e23x_usart.c **** {
 1490              		.loc 1 638 1 is_stmt 1 view -0
 1491              		.cfi_startproc
 1492              		@ args = 0, pretend = 0, frame = 0
 1493              		@ frame_needed = 0, uses_anonymous_args = 0
 1494              		@ link register save eliminated.
 639:Drivers/GD32E23x/Source/gd32e23x_usart.c ****     /* disable USART */
 640:Drivers/GD32E23x/Source/gd32e23x_usart.c ****     USART_CTL0(usart_periph) &= ~(USART_CTL0_UEN);
 1495              		.loc 1 640 5 view .LVU300
 1496 0000 0368     		ldr	r3, [r0]
 1497              		.loc 1 640 30 is_stmt 0 view .LVU301
 1498 0002 0122     		movs	r2, #1
ARM GAS  D:\noval\Temp\ccDqp2rO.s 			page 38


 1499 0004 9343     		bics	r3, r2
 1500 0006 0360     		str	r3, [r0]
 641:Drivers/GD32E23x/Source/gd32e23x_usart.c **** 
 642:Drivers/GD32E23x/Source/gd32e23x_usart.c ****     USART_CTL2(usart_periph) |= USART_CTL2_SCEN;
 1501              		.loc 1 642 5 is_stmt 1 view .LVU302
 1502 0008 8368     		ldr	r3, [r0, #8]
 1503              		.loc 1 642 30 is_stmt 0 view .LVU303
 1504 000a 1F32     		adds	r2, r2, #31
 1505 000c 1343     		orrs	r3, r2
 1506 000e 8360     		str	r3, [r0, #8]
 643:Drivers/GD32E23x/Source/gd32e23x_usart.c **** }
 1507              		.loc 1 643 1 view .LVU304
 1508              		@ sp needed
 1509 0010 7047     		bx	lr
 1510              		.cfi_endproc
 1511              	.LFE94:
 1513              		.section	.text.usart_smartcard_mode_disable,"ax",%progbits
 1514              		.align	1
 1515              		.global	usart_smartcard_mode_disable
 1516              		.syntax unified
 1517              		.code	16
 1518              		.thumb_func
 1520              	usart_smartcard_mode_disable:
 1521              	.LVL69:
 1522              	.LFB95:
 644:Drivers/GD32E23x/Source/gd32e23x_usart.c **** 
 645:Drivers/GD32E23x/Source/gd32e23x_usart.c **** /*!
 646:Drivers/GD32E23x/Source/gd32e23x_usart.c ****     \brief      disable smartcard mode
 647:Drivers/GD32E23x/Source/gd32e23x_usart.c ****     \param[in]  usart_periph: USARTx(x=0)
 648:Drivers/GD32E23x/Source/gd32e23x_usart.c ****     \param[out] none
 649:Drivers/GD32E23x/Source/gd32e23x_usart.c ****     \retval     none
 650:Drivers/GD32E23x/Source/gd32e23x_usart.c **** */
 651:Drivers/GD32E23x/Source/gd32e23x_usart.c **** void usart_smartcard_mode_disable(uint32_t usart_periph)
 652:Drivers/GD32E23x/Source/gd32e23x_usart.c **** {
 1523              		.loc 1 652 1 is_stmt 1 view -0
 1524              		.cfi_startproc
 1525              		@ args = 0, pretend = 0, frame = 0
 1526              		@ frame_needed = 0, uses_anonymous_args = 0
 1527              		@ link register save eliminated.
 653:Drivers/GD32E23x/Source/gd32e23x_usart.c ****     /* disable USART */
 654:Drivers/GD32E23x/Source/gd32e23x_usart.c ****     USART_CTL0(usart_periph) &= ~(USART_CTL0_UEN);
 1528              		.loc 1 654 5 view .LVU306
 1529 0000 0368     		ldr	r3, [r0]
 1530              		.loc 1 654 30 is_stmt 0 view .LVU307
 1531 0002 0122     		movs	r2, #1
 1532 0004 9343     		bics	r3, r2
 1533 0006 0360     		str	r3, [r0]
 655:Drivers/GD32E23x/Source/gd32e23x_usart.c **** 
 656:Drivers/GD32E23x/Source/gd32e23x_usart.c ****     USART_CTL2(usart_periph) &= ~(USART_CTL2_SCEN);
 1534              		.loc 1 656 5 is_stmt 1 view .LVU308
 1535 0008 8368     		ldr	r3, [r0, #8]
 1536              		.loc 1 656 30 is_stmt 0 view .LVU309
 1537 000a 1F32     		adds	r2, r2, #31
 1538 000c 9343     		bics	r3, r2
 1539 000e 8360     		str	r3, [r0, #8]
 657:Drivers/GD32E23x/Source/gd32e23x_usart.c **** }
 1540              		.loc 1 657 1 view .LVU310
ARM GAS  D:\noval\Temp\ccDqp2rO.s 			page 39


 1541              		@ sp needed
 1542 0010 7047     		bx	lr
 1543              		.cfi_endproc
 1544              	.LFE95:
 1546              		.section	.text.usart_smartcard_mode_nack_enable,"ax",%progbits
 1547              		.align	1
 1548              		.global	usart_smartcard_mode_nack_enable
 1549              		.syntax unified
 1550              		.code	16
 1551              		.thumb_func
 1553              	usart_smartcard_mode_nack_enable:
 1554              	.LVL70:
 1555              	.LFB96:
 658:Drivers/GD32E23x/Source/gd32e23x_usart.c **** 
 659:Drivers/GD32E23x/Source/gd32e23x_usart.c **** /*!
 660:Drivers/GD32E23x/Source/gd32e23x_usart.c ****     \brief      enable NACK in smartcard mode
 661:Drivers/GD32E23x/Source/gd32e23x_usart.c ****     \param[in]  usart_periph: USARTx(x=0)
 662:Drivers/GD32E23x/Source/gd32e23x_usart.c ****     \param[out] none
 663:Drivers/GD32E23x/Source/gd32e23x_usart.c ****     \retval     none
 664:Drivers/GD32E23x/Source/gd32e23x_usart.c **** */
 665:Drivers/GD32E23x/Source/gd32e23x_usart.c **** void usart_smartcard_mode_nack_enable(uint32_t usart_periph)
 666:Drivers/GD32E23x/Source/gd32e23x_usart.c **** {
 1556              		.loc 1 666 1 is_stmt 1 view -0
 1557              		.cfi_startproc
 1558              		@ args = 0, pretend = 0, frame = 0
 1559              		@ frame_needed = 0, uses_anonymous_args = 0
 1560              		@ link register save eliminated.
 667:Drivers/GD32E23x/Source/gd32e23x_usart.c ****     /* disable USART */
 668:Drivers/GD32E23x/Source/gd32e23x_usart.c ****     USART_CTL0(usart_periph) &= ~(USART_CTL0_UEN);
 1561              		.loc 1 668 5 view .LVU312
 1562 0000 0368     		ldr	r3, [r0]
 1563              		.loc 1 668 30 is_stmt 0 view .LVU313
 1564 0002 0122     		movs	r2, #1
 1565 0004 9343     		bics	r3, r2
 1566 0006 0360     		str	r3, [r0]
 669:Drivers/GD32E23x/Source/gd32e23x_usart.c **** 
 670:Drivers/GD32E23x/Source/gd32e23x_usart.c ****     USART_CTL2(usart_periph) |= USART_CTL2_NKEN;
 1567              		.loc 1 670 5 is_stmt 1 view .LVU314
 1568 0008 8368     		ldr	r3, [r0, #8]
 1569              		.loc 1 670 30 is_stmt 0 view .LVU315
 1570 000a 0F32     		adds	r2, r2, #15
 1571 000c 1343     		orrs	r3, r2
 1572 000e 8360     		str	r3, [r0, #8]
 671:Drivers/GD32E23x/Source/gd32e23x_usart.c **** }
 1573              		.loc 1 671 1 view .LVU316
 1574              		@ sp needed
 1575 0010 7047     		bx	lr
 1576              		.cfi_endproc
 1577              	.LFE96:
 1579              		.section	.text.usart_smartcard_mode_nack_disable,"ax",%progbits
 1580              		.align	1
 1581              		.global	usart_smartcard_mode_nack_disable
 1582              		.syntax unified
 1583              		.code	16
 1584              		.thumb_func
 1586              	usart_smartcard_mode_nack_disable:
 1587              	.LVL71:
ARM GAS  D:\noval\Temp\ccDqp2rO.s 			page 40


 1588              	.LFB97:
 672:Drivers/GD32E23x/Source/gd32e23x_usart.c **** 
 673:Drivers/GD32E23x/Source/gd32e23x_usart.c **** /*!
 674:Drivers/GD32E23x/Source/gd32e23x_usart.c ****     \brief      disable NACK in smartcard mode
 675:Drivers/GD32E23x/Source/gd32e23x_usart.c ****     \param[in]  usart_periph: USARTx(x=0)
 676:Drivers/GD32E23x/Source/gd32e23x_usart.c ****     \param[out] none
 677:Drivers/GD32E23x/Source/gd32e23x_usart.c ****     \retval     none
 678:Drivers/GD32E23x/Source/gd32e23x_usart.c **** */
 679:Drivers/GD32E23x/Source/gd32e23x_usart.c **** void usart_smartcard_mode_nack_disable(uint32_t usart_periph)
 680:Drivers/GD32E23x/Source/gd32e23x_usart.c **** {
 1589              		.loc 1 680 1 is_stmt 1 view -0
 1590              		.cfi_startproc
 1591              		@ args = 0, pretend = 0, frame = 0
 1592              		@ frame_needed = 0, uses_anonymous_args = 0
 1593              		@ link register save eliminated.
 681:Drivers/GD32E23x/Source/gd32e23x_usart.c ****     /* disable USART */
 682:Drivers/GD32E23x/Source/gd32e23x_usart.c ****     USART_CTL0(usart_periph) &= ~(USART_CTL0_UEN);
 1594              		.loc 1 682 5 view .LVU318
 1595 0000 0368     		ldr	r3, [r0]
 1596              		.loc 1 682 30 is_stmt 0 view .LVU319
 1597 0002 0122     		movs	r2, #1
 1598 0004 9343     		bics	r3, r2
 1599 0006 0360     		str	r3, [r0]
 683:Drivers/GD32E23x/Source/gd32e23x_usart.c **** 
 684:Drivers/GD32E23x/Source/gd32e23x_usart.c ****     USART_CTL2(usart_periph) &= ~(USART_CTL2_NKEN);
 1600              		.loc 1 684 5 is_stmt 1 view .LVU320
 1601 0008 8368     		ldr	r3, [r0, #8]
 1602              		.loc 1 684 30 is_stmt 0 view .LVU321
 1603 000a 0F32     		adds	r2, r2, #15
 1604 000c 9343     		bics	r3, r2
 1605 000e 8360     		str	r3, [r0, #8]
 685:Drivers/GD32E23x/Source/gd32e23x_usart.c **** }
 1606              		.loc 1 685 1 view .LVU322
 1607              		@ sp needed
 1608 0010 7047     		bx	lr
 1609              		.cfi_endproc
 1610              	.LFE97:
 1612              		.section	.text.usart_smartcard_mode_early_nack_enable,"ax",%progbits
 1613              		.align	1
 1614              		.global	usart_smartcard_mode_early_nack_enable
 1615              		.syntax unified
 1616              		.code	16
 1617              		.thumb_func
 1619              	usart_smartcard_mode_early_nack_enable:
 1620              	.LVL72:
 1621              	.LFB98:
 686:Drivers/GD32E23x/Source/gd32e23x_usart.c **** 
 687:Drivers/GD32E23x/Source/gd32e23x_usart.c **** /*!
 688:Drivers/GD32E23x/Source/gd32e23x_usart.c ****     \brief      enable early NACK in smartcard mode
 689:Drivers/GD32E23x/Source/gd32e23x_usart.c ****     \param[in]  usart_periph: USARTx(x=0)
 690:Drivers/GD32E23x/Source/gd32e23x_usart.c ****     \param[out] none
 691:Drivers/GD32E23x/Source/gd32e23x_usart.c ****     \retval     none
 692:Drivers/GD32E23x/Source/gd32e23x_usart.c **** */
 693:Drivers/GD32E23x/Source/gd32e23x_usart.c **** void usart_smartcard_mode_early_nack_enable(uint32_t usart_periph)
 694:Drivers/GD32E23x/Source/gd32e23x_usart.c **** {
 1622              		.loc 1 694 1 is_stmt 1 view -0
 1623              		.cfi_startproc
ARM GAS  D:\noval\Temp\ccDqp2rO.s 			page 41


 1624              		@ args = 0, pretend = 0, frame = 0
 1625              		@ frame_needed = 0, uses_anonymous_args = 0
 1626              		@ link register save eliminated.
 695:Drivers/GD32E23x/Source/gd32e23x_usart.c ****     USART_RFCS(usart_periph) |= USART_RFCS_ELNACK;
 1627              		.loc 1 695 5 view .LVU324
 1628 0000 D030     		adds	r0, r0, #208
 1629              	.LVL73:
 1630              		.loc 1 695 5 is_stmt 0 view .LVU325
 1631 0002 0368     		ldr	r3, [r0]
 1632              		.loc 1 695 30 view .LVU326
 1633 0004 0122     		movs	r2, #1
 1634 0006 1343     		orrs	r3, r2
 1635 0008 0360     		str	r3, [r0]
 696:Drivers/GD32E23x/Source/gd32e23x_usart.c **** }
 1636              		.loc 1 696 1 view .LVU327
 1637              		@ sp needed
 1638 000a 7047     		bx	lr
 1639              		.cfi_endproc
 1640              	.LFE98:
 1642              		.section	.text.usart_smartcard_mode_early_nack_disable,"ax",%progbits
 1643              		.align	1
 1644              		.global	usart_smartcard_mode_early_nack_disable
 1645              		.syntax unified
 1646              		.code	16
 1647              		.thumb_func
 1649              	usart_smartcard_mode_early_nack_disable:
 1650              	.LVL74:
 1651              	.LFB99:
 697:Drivers/GD32E23x/Source/gd32e23x_usart.c **** 
 698:Drivers/GD32E23x/Source/gd32e23x_usart.c **** /*!
 699:Drivers/GD32E23x/Source/gd32e23x_usart.c ****     \brief      disable early NACK in smartcard mode
 700:Drivers/GD32E23x/Source/gd32e23x_usart.c ****     \param[in]  usart_periph: USARTx(x=0)
 701:Drivers/GD32E23x/Source/gd32e23x_usart.c ****     \param[out] none
 702:Drivers/GD32E23x/Source/gd32e23x_usart.c ****     \retval     none
 703:Drivers/GD32E23x/Source/gd32e23x_usart.c **** */
 704:Drivers/GD32E23x/Source/gd32e23x_usart.c **** void usart_smartcard_mode_early_nack_disable(uint32_t usart_periph)
 705:Drivers/GD32E23x/Source/gd32e23x_usart.c **** {
 1652              		.loc 1 705 1 is_stmt 1 view -0
 1653              		.cfi_startproc
 1654              		@ args = 0, pretend = 0, frame = 0
 1655              		@ frame_needed = 0, uses_anonymous_args = 0
 1656              		@ link register save eliminated.
 706:Drivers/GD32E23x/Source/gd32e23x_usart.c ****     USART_RFCS(usart_periph) &= ~USART_RFCS_ELNACK;
 1657              		.loc 1 706 5 view .LVU329
 1658 0000 D030     		adds	r0, r0, #208
 1659              	.LVL75:
 1660              		.loc 1 706 5 is_stmt 0 view .LVU330
 1661 0002 0368     		ldr	r3, [r0]
 1662              		.loc 1 706 30 view .LVU331
 1663 0004 0122     		movs	r2, #1
 1664 0006 9343     		bics	r3, r2
 1665 0008 0360     		str	r3, [r0]
 707:Drivers/GD32E23x/Source/gd32e23x_usart.c **** }
 1666              		.loc 1 707 1 view .LVU332
 1667              		@ sp needed
 1668 000a 7047     		bx	lr
 1669              		.cfi_endproc
ARM GAS  D:\noval\Temp\ccDqp2rO.s 			page 42


 1670              	.LFE99:
 1672              		.section	.text.usart_smartcard_autoretry_config,"ax",%progbits
 1673              		.align	1
 1674              		.global	usart_smartcard_autoretry_config
 1675              		.syntax unified
 1676              		.code	16
 1677              		.thumb_func
 1679              	usart_smartcard_autoretry_config:
 1680              	.LVL76:
 1681              	.LFB100:
 708:Drivers/GD32E23x/Source/gd32e23x_usart.c **** 
 709:Drivers/GD32E23x/Source/gd32e23x_usart.c **** /*!
 710:Drivers/GD32E23x/Source/gd32e23x_usart.c ****     \brief      configure smartcard auto-retry number
 711:Drivers/GD32E23x/Source/gd32e23x_usart.c ****     \param[in]  usart_periph: USARTx(x=0)
 712:Drivers/GD32E23x/Source/gd32e23x_usart.c ****     \param[in]  scrtnum: 0x00000000-0x00000007, smartcard auto-retry number
 713:Drivers/GD32E23x/Source/gd32e23x_usart.c ****     \param[out] none
 714:Drivers/GD32E23x/Source/gd32e23x_usart.c ****     \retval     none
 715:Drivers/GD32E23x/Source/gd32e23x_usart.c **** */
 716:Drivers/GD32E23x/Source/gd32e23x_usart.c **** void usart_smartcard_autoretry_config(uint32_t usart_periph, uint32_t scrtnum)
 717:Drivers/GD32E23x/Source/gd32e23x_usart.c **** {
 1682              		.loc 1 717 1 is_stmt 1 view -0
 1683              		.cfi_startproc
 1684              		@ args = 0, pretend = 0, frame = 0
 1685              		@ frame_needed = 0, uses_anonymous_args = 0
 1686              		@ link register save eliminated.
 718:Drivers/GD32E23x/Source/gd32e23x_usart.c ****     /* disable USART */
 719:Drivers/GD32E23x/Source/gd32e23x_usart.c ****     USART_CTL0(usart_periph) &= ~(USART_CTL0_UEN);
 1687              		.loc 1 719 5 view .LVU334
 1688 0000 0368     		ldr	r3, [r0]
 1689              		.loc 1 719 30 is_stmt 0 view .LVU335
 1690 0002 0122     		movs	r2, #1
 1691 0004 9343     		bics	r3, r2
 1692 0006 0360     		str	r3, [r0]
 720:Drivers/GD32E23x/Source/gd32e23x_usart.c ****     USART_CTL2(usart_periph) &= ~(USART_CTL2_SCRTNUM);
 1693              		.loc 1 720 5 is_stmt 1 view .LVU336
 1694 0008 8368     		ldr	r3, [r0, #8]
 1695              		.loc 1 720 30 is_stmt 0 view .LVU337
 1696 000a 054A     		ldr	r2, .L89
 1697 000c 1340     		ands	r3, r2
 1698 000e 8360     		str	r3, [r0, #8]
 721:Drivers/GD32E23x/Source/gd32e23x_usart.c ****     USART_CTL2(usart_periph) |= (USART_CTL2_SCRTNUM & (scrtnum << 17));
 1699              		.loc 1 721 5 is_stmt 1 view .LVU338
 1700 0010 8368     		ldr	r3, [r0, #8]
 1701              		.loc 1 721 64 is_stmt 0 view .LVU339
 1702 0012 4904     		lsls	r1, r1, #17
 1703              	.LVL77:
 1704              		.loc 1 721 53 view .LVU340
 1705 0014 E022     		movs	r2, #224
 1706 0016 1203     		lsls	r2, r2, #12
 1707 0018 1140     		ands	r1, r2
 1708              		.loc 1 721 30 view .LVU341
 1709 001a 0B43     		orrs	r3, r1
 1710 001c 8360     		str	r3, [r0, #8]
 722:Drivers/GD32E23x/Source/gd32e23x_usart.c **** }
 1711              		.loc 1 722 1 view .LVU342
 1712              		@ sp needed
 1713 001e 7047     		bx	lr
ARM GAS  D:\noval\Temp\ccDqp2rO.s 			page 43


 1714              	.L90:
 1715              		.align	2
 1716              	.L89:
 1717 0020 FFFFF1FF 		.word	-917505
 1718              		.cfi_endproc
 1719              	.LFE100:
 1721              		.section	.text.usart_block_length_config,"ax",%progbits
 1722              		.align	1
 1723              		.global	usart_block_length_config
 1724              		.syntax unified
 1725              		.code	16
 1726              		.thumb_func
 1728              	usart_block_length_config:
 1729              	.LVL78:
 1730              	.LFB101:
 723:Drivers/GD32E23x/Source/gd32e23x_usart.c **** 
 724:Drivers/GD32E23x/Source/gd32e23x_usart.c **** /*!
 725:Drivers/GD32E23x/Source/gd32e23x_usart.c ****     \brief      configure block length
 726:Drivers/GD32E23x/Source/gd32e23x_usart.c ****     \param[in]  usart_periph: USARTx(x=0)
 727:Drivers/GD32E23x/Source/gd32e23x_usart.c ****     \param[in]  bl: 0x00000000-0x000000FF
 728:Drivers/GD32E23x/Source/gd32e23x_usart.c ****     \param[out] none
 729:Drivers/GD32E23x/Source/gd32e23x_usart.c ****     \retval     none
 730:Drivers/GD32E23x/Source/gd32e23x_usart.c **** */
 731:Drivers/GD32E23x/Source/gd32e23x_usart.c **** void usart_block_length_config(uint32_t usart_periph, uint32_t bl)
 732:Drivers/GD32E23x/Source/gd32e23x_usart.c **** {
 1731              		.loc 1 732 1 is_stmt 1 view -0
 1732              		.cfi_startproc
 1733              		@ args = 0, pretend = 0, frame = 0
 1734              		@ frame_needed = 0, uses_anonymous_args = 0
 1735              		@ link register save eliminated.
 733:Drivers/GD32E23x/Source/gd32e23x_usart.c ****     USART_RT(usart_periph) &= ~(USART_RT_BL);
 1736              		.loc 1 733 5 view .LVU344
 1737 0000 4369     		ldr	r3, [r0, #20]
 1738              		.loc 1 733 28 is_stmt 0 view .LVU345
 1739 0002 1B02     		lsls	r3, r3, #8
 1740 0004 1B0A     		lsrs	r3, r3, #8
 1741 0006 4361     		str	r3, [r0, #20]
 734:Drivers/GD32E23x/Source/gd32e23x_usart.c ****     USART_RT(usart_periph) |= (USART_RT_BL & ((bl) << 24));
 1742              		.loc 1 734 5 is_stmt 1 view .LVU346
 1743 0008 4369     		ldr	r3, [r0, #20]
 1744              		.loc 1 734 44 is_stmt 0 view .LVU347
 1745 000a 0906     		lsls	r1, r1, #24
 1746              	.LVL79:
 1747              		.loc 1 734 28 view .LVU348
 1748 000c 0B43     		orrs	r3, r1
 1749 000e 4361     		str	r3, [r0, #20]
 735:Drivers/GD32E23x/Source/gd32e23x_usart.c **** }
 1750              		.loc 1 735 1 view .LVU349
 1751              		@ sp needed
 1752 0010 7047     		bx	lr
 1753              		.cfi_endproc
 1754              	.LFE101:
 1756              		.section	.text.usart_irda_mode_enable,"ax",%progbits
 1757              		.align	1
 1758              		.global	usart_irda_mode_enable
 1759              		.syntax unified
 1760              		.code	16
ARM GAS  D:\noval\Temp\ccDqp2rO.s 			page 44


 1761              		.thumb_func
 1763              	usart_irda_mode_enable:
 1764              	.LVL80:
 1765              	.LFB102:
 736:Drivers/GD32E23x/Source/gd32e23x_usart.c **** 
 737:Drivers/GD32E23x/Source/gd32e23x_usart.c **** /*!
 738:Drivers/GD32E23x/Source/gd32e23x_usart.c ****     \brief      enable IrDA mode
 739:Drivers/GD32E23x/Source/gd32e23x_usart.c ****     \param[in]  usart_periph: USARTx(x=0)
 740:Drivers/GD32E23x/Source/gd32e23x_usart.c ****     \param[out] none
 741:Drivers/GD32E23x/Source/gd32e23x_usart.c ****     \retval     none
 742:Drivers/GD32E23x/Source/gd32e23x_usart.c **** */
 743:Drivers/GD32E23x/Source/gd32e23x_usart.c **** void usart_irda_mode_enable(uint32_t usart_periph)
 744:Drivers/GD32E23x/Source/gd32e23x_usart.c **** {
 1766              		.loc 1 744 1 is_stmt 1 view -0
 1767              		.cfi_startproc
 1768              		@ args = 0, pretend = 0, frame = 0
 1769              		@ frame_needed = 0, uses_anonymous_args = 0
 1770              		@ link register save eliminated.
 745:Drivers/GD32E23x/Source/gd32e23x_usart.c ****     /* disable USART */
 746:Drivers/GD32E23x/Source/gd32e23x_usart.c ****     USART_CTL0(usart_periph) &= ~(USART_CTL0_UEN);
 1771              		.loc 1 746 5 view .LVU351
 1772 0000 0368     		ldr	r3, [r0]
 1773              		.loc 1 746 30 is_stmt 0 view .LVU352
 1774 0002 0122     		movs	r2, #1
 1775 0004 9343     		bics	r3, r2
 1776 0006 0360     		str	r3, [r0]
 747:Drivers/GD32E23x/Source/gd32e23x_usart.c **** 
 748:Drivers/GD32E23x/Source/gd32e23x_usart.c ****     USART_CTL2(usart_periph) |= USART_CTL2_IREN;
 1777              		.loc 1 748 5 is_stmt 1 view .LVU353
 1778 0008 8368     		ldr	r3, [r0, #8]
 1779              		.loc 1 748 30 is_stmt 0 view .LVU354
 1780 000a 0132     		adds	r2, r2, #1
 1781 000c 1343     		orrs	r3, r2
 1782 000e 8360     		str	r3, [r0, #8]
 749:Drivers/GD32E23x/Source/gd32e23x_usart.c **** }
 1783              		.loc 1 749 1 view .LVU355
 1784              		@ sp needed
 1785 0010 7047     		bx	lr
 1786              		.cfi_endproc
 1787              	.LFE102:
 1789              		.section	.text.usart_irda_mode_disable,"ax",%progbits
 1790              		.align	1
 1791              		.global	usart_irda_mode_disable
 1792              		.syntax unified
 1793              		.code	16
 1794              		.thumb_func
 1796              	usart_irda_mode_disable:
 1797              	.LVL81:
 1798              	.LFB103:
 750:Drivers/GD32E23x/Source/gd32e23x_usart.c **** 
 751:Drivers/GD32E23x/Source/gd32e23x_usart.c **** /*!
 752:Drivers/GD32E23x/Source/gd32e23x_usart.c ****     \brief      disable IrDA mode
 753:Drivers/GD32E23x/Source/gd32e23x_usart.c ****     \param[in]  usart_periph: USARTx(x=0)
 754:Drivers/GD32E23x/Source/gd32e23x_usart.c ****     \param[out] none
 755:Drivers/GD32E23x/Source/gd32e23x_usart.c ****     \retval     none
 756:Drivers/GD32E23x/Source/gd32e23x_usart.c **** */
 757:Drivers/GD32E23x/Source/gd32e23x_usart.c **** void usart_irda_mode_disable(uint32_t usart_periph)
ARM GAS  D:\noval\Temp\ccDqp2rO.s 			page 45


 758:Drivers/GD32E23x/Source/gd32e23x_usart.c **** {
 1799              		.loc 1 758 1 is_stmt 1 view -0
 1800              		.cfi_startproc
 1801              		@ args = 0, pretend = 0, frame = 0
 1802              		@ frame_needed = 0, uses_anonymous_args = 0
 1803              		@ link register save eliminated.
 759:Drivers/GD32E23x/Source/gd32e23x_usart.c ****     /* disable USART */
 760:Drivers/GD32E23x/Source/gd32e23x_usart.c ****     USART_CTL0(usart_periph) &= ~(USART_CTL0_UEN);
 1804              		.loc 1 760 5 view .LVU357
 1805 0000 0368     		ldr	r3, [r0]
 1806              		.loc 1 760 30 is_stmt 0 view .LVU358
 1807 0002 0122     		movs	r2, #1
 1808 0004 9343     		bics	r3, r2
 1809 0006 0360     		str	r3, [r0]
 761:Drivers/GD32E23x/Source/gd32e23x_usart.c **** 
 762:Drivers/GD32E23x/Source/gd32e23x_usart.c ****     USART_CTL2(usart_periph) &= ~(USART_CTL2_IREN);
 1810              		.loc 1 762 5 is_stmt 1 view .LVU359
 1811 0008 8368     		ldr	r3, [r0, #8]
 1812              		.loc 1 762 30 is_stmt 0 view .LVU360
 1813 000a 0132     		adds	r2, r2, #1
 1814 000c 9343     		bics	r3, r2
 1815 000e 8360     		str	r3, [r0, #8]
 763:Drivers/GD32E23x/Source/gd32e23x_usart.c **** }
 1816              		.loc 1 763 1 view .LVU361
 1817              		@ sp needed
 1818 0010 7047     		bx	lr
 1819              		.cfi_endproc
 1820              	.LFE103:
 1822              		.section	.text.usart_prescaler_config,"ax",%progbits
 1823              		.align	1
 1824              		.global	usart_prescaler_config
 1825              		.syntax unified
 1826              		.code	16
 1827              		.thumb_func
 1829              	usart_prescaler_config:
 1830              	.LVL82:
 1831              	.LFB104:
 764:Drivers/GD32E23x/Source/gd32e23x_usart.c **** 
 765:Drivers/GD32E23x/Source/gd32e23x_usart.c **** /*!
 766:Drivers/GD32E23x/Source/gd32e23x_usart.c ****     \brief      configure the peripheral clock prescaler in USART IrDA low-power or SmartCard mode
 767:Drivers/GD32E23x/Source/gd32e23x_usart.c ****     \param[in]  usart_periph: USARTx(x=0)
 768:Drivers/GD32E23x/Source/gd32e23x_usart.c ****     \param[in]  psc: 0x00000000-0x000000FF
 769:Drivers/GD32E23x/Source/gd32e23x_usart.c ****     \param[out] none
 770:Drivers/GD32E23x/Source/gd32e23x_usart.c ****     \retval     none
 771:Drivers/GD32E23x/Source/gd32e23x_usart.c **** */
 772:Drivers/GD32E23x/Source/gd32e23x_usart.c **** void usart_prescaler_config(uint32_t usart_periph, uint32_t psc)
 773:Drivers/GD32E23x/Source/gd32e23x_usart.c **** {
 1832              		.loc 1 773 1 is_stmt 1 view -0
 1833              		.cfi_startproc
 1834              		@ args = 0, pretend = 0, frame = 0
 1835              		@ frame_needed = 0, uses_anonymous_args = 0
 1836              		@ link register save eliminated.
 774:Drivers/GD32E23x/Source/gd32e23x_usart.c ****     /* disable USART */
 775:Drivers/GD32E23x/Source/gd32e23x_usart.c ****     USART_CTL0(usart_periph) &= ~(USART_CTL0_UEN);
 1837              		.loc 1 775 5 view .LVU363
 1838 0000 0368     		ldr	r3, [r0]
 1839              		.loc 1 775 30 is_stmt 0 view .LVU364
ARM GAS  D:\noval\Temp\ccDqp2rO.s 			page 46


 1840 0002 0122     		movs	r2, #1
 1841 0004 9343     		bics	r3, r2
 1842 0006 0360     		str	r3, [r0]
 776:Drivers/GD32E23x/Source/gd32e23x_usart.c ****     USART_GP(usart_periph) &= ~(USART_GP_PSC);
 1843              		.loc 1 776 5 is_stmt 1 view .LVU365
 1844 0008 0369     		ldr	r3, [r0, #16]
 1845              		.loc 1 776 28 is_stmt 0 view .LVU366
 1846 000a FE32     		adds	r2, r2, #254
 1847 000c 9343     		bics	r3, r2
 1848 000e 0361     		str	r3, [r0, #16]
 777:Drivers/GD32E23x/Source/gd32e23x_usart.c ****     USART_GP(usart_periph) |= psc;
 1849              		.loc 1 777 5 is_stmt 1 view .LVU367
 1850 0010 0369     		ldr	r3, [r0, #16]
 1851              		.loc 1 777 28 is_stmt 0 view .LVU368
 1852 0012 0B43     		orrs	r3, r1
 1853 0014 0361     		str	r3, [r0, #16]
 778:Drivers/GD32E23x/Source/gd32e23x_usart.c **** }
 1854              		.loc 1 778 1 view .LVU369
 1855              		@ sp needed
 1856 0016 7047     		bx	lr
 1857              		.cfi_endproc
 1858              	.LFE104:
 1860              		.section	.text.usart_irda_lowpower_config,"ax",%progbits
 1861              		.align	1
 1862              		.global	usart_irda_lowpower_config
 1863              		.syntax unified
 1864              		.code	16
 1865              		.thumb_func
 1867              	usart_irda_lowpower_config:
 1868              	.LVL83:
 1869              	.LFB105:
 779:Drivers/GD32E23x/Source/gd32e23x_usart.c **** 
 780:Drivers/GD32E23x/Source/gd32e23x_usart.c **** /*!
 781:Drivers/GD32E23x/Source/gd32e23x_usart.c ****     \brief      configure IrDA low-power
 782:Drivers/GD32E23x/Source/gd32e23x_usart.c ****     \param[in]  usart_periph: USARTx(x=0)
 783:Drivers/GD32E23x/Source/gd32e23x_usart.c ****     \param[in]  irlp: IrDA low-power or normal
 784:Drivers/GD32E23x/Source/gd32e23x_usart.c ****                 only one parameter can be selected which is shown as below:
 785:Drivers/GD32E23x/Source/gd32e23x_usart.c ****       \arg        USART_IRLP_LOW:    low-power
 786:Drivers/GD32E23x/Source/gd32e23x_usart.c ****       \arg        USART_IRLP_NORMAL: normal
 787:Drivers/GD32E23x/Source/gd32e23x_usart.c ****     \param[out] none
 788:Drivers/GD32E23x/Source/gd32e23x_usart.c ****     \retval     none
 789:Drivers/GD32E23x/Source/gd32e23x_usart.c **** */
 790:Drivers/GD32E23x/Source/gd32e23x_usart.c **** void usart_irda_lowpower_config(uint32_t usart_periph, uint32_t irlp)
 791:Drivers/GD32E23x/Source/gd32e23x_usart.c **** {
 1870              		.loc 1 791 1 is_stmt 1 view -0
 1871              		.cfi_startproc
 1872              		@ args = 0, pretend = 0, frame = 0
 1873              		@ frame_needed = 0, uses_anonymous_args = 0
 1874              		@ link register save eliminated.
 792:Drivers/GD32E23x/Source/gd32e23x_usart.c ****     /* disable USART */
 793:Drivers/GD32E23x/Source/gd32e23x_usart.c ****     USART_CTL0(usart_periph) &= ~(USART_CTL0_UEN);
 1875              		.loc 1 793 5 view .LVU371
 1876 0000 0368     		ldr	r3, [r0]
 1877              		.loc 1 793 30 is_stmt 0 view .LVU372
 1878 0002 0122     		movs	r2, #1
 1879 0004 9343     		bics	r3, r2
 1880 0006 0360     		str	r3, [r0]
ARM GAS  D:\noval\Temp\ccDqp2rO.s 			page 47


 794:Drivers/GD32E23x/Source/gd32e23x_usart.c ****     USART_CTL2(usart_periph) &= ~(USART_CTL2_IRLP);
 1881              		.loc 1 794 5 is_stmt 1 view .LVU373
 1882 0008 8268     		ldr	r2, [r0, #8]
 1883              		.loc 1 794 30 is_stmt 0 view .LVU374
 1884 000a 0423     		movs	r3, #4
 1885 000c 9A43     		bics	r2, r3
 1886 000e 8260     		str	r2, [r0, #8]
 795:Drivers/GD32E23x/Source/gd32e23x_usart.c ****     USART_CTL2(usart_periph) |= (USART_CTL2_IRLP & irlp);
 1887              		.loc 1 795 5 is_stmt 1 view .LVU375
 1888 0010 8268     		ldr	r2, [r0, #8]
 1889              		.loc 1 795 50 is_stmt 0 view .LVU376
 1890 0012 0B40     		ands	r3, r1
 1891              		.loc 1 795 30 view .LVU377
 1892 0014 1A43     		orrs	r2, r3
 1893 0016 8260     		str	r2, [r0, #8]
 796:Drivers/GD32E23x/Source/gd32e23x_usart.c **** }
 1894              		.loc 1 796 1 view .LVU378
 1895              		@ sp needed
 1896 0018 7047     		bx	lr
 1897              		.cfi_endproc
 1898              	.LFE105:
 1900              		.section	.text.usart_hardware_flow_rts_config,"ax",%progbits
 1901              		.align	1
 1902              		.global	usart_hardware_flow_rts_config
 1903              		.syntax unified
 1904              		.code	16
 1905              		.thumb_func
 1907              	usart_hardware_flow_rts_config:
 1908              	.LVL84:
 1909              	.LFB106:
 797:Drivers/GD32E23x/Source/gd32e23x_usart.c **** 
 798:Drivers/GD32E23x/Source/gd32e23x_usart.c **** /*!
 799:Drivers/GD32E23x/Source/gd32e23x_usart.c ****     \brief      configure hardware flow control RTS
 800:Drivers/GD32E23x/Source/gd32e23x_usart.c ****     \param[in]  usart_periph: USARTx(x=0,1)
 801:Drivers/GD32E23x/Source/gd32e23x_usart.c ****     \param[in]  rtsconfig: enable or disable RTS
 802:Drivers/GD32E23x/Source/gd32e23x_usart.c ****                 only one parameter can be selected which is shown as below:
 803:Drivers/GD32E23x/Source/gd32e23x_usart.c ****       \arg        USART_RTS_ENABLE:  enable RTS
 804:Drivers/GD32E23x/Source/gd32e23x_usart.c ****       \arg        USART_RTS_DISABLE: disable RTS
 805:Drivers/GD32E23x/Source/gd32e23x_usart.c ****     \param[out] none
 806:Drivers/GD32E23x/Source/gd32e23x_usart.c ****     \retval     none
 807:Drivers/GD32E23x/Source/gd32e23x_usart.c **** */
 808:Drivers/GD32E23x/Source/gd32e23x_usart.c **** void usart_hardware_flow_rts_config(uint32_t usart_periph, uint32_t rtsconfig)
 809:Drivers/GD32E23x/Source/gd32e23x_usart.c **** {
 1910              		.loc 1 809 1 is_stmt 1 view -0
 1911              		.cfi_startproc
 1912              		@ args = 0, pretend = 0, frame = 0
 1913              		@ frame_needed = 0, uses_anonymous_args = 0
 1914              		@ link register save eliminated.
 810:Drivers/GD32E23x/Source/gd32e23x_usart.c ****     /* disable USART */
 811:Drivers/GD32E23x/Source/gd32e23x_usart.c ****     USART_CTL0(usart_periph) &= ~(USART_CTL0_UEN);
 1915              		.loc 1 811 5 view .LVU380
 1916 0000 0368     		ldr	r3, [r0]
 1917              		.loc 1 811 30 is_stmt 0 view .LVU381
 1918 0002 0122     		movs	r2, #1
 1919 0004 9343     		bics	r3, r2
 1920 0006 0360     		str	r3, [r0]
 812:Drivers/GD32E23x/Source/gd32e23x_usart.c **** 
ARM GAS  D:\noval\Temp\ccDqp2rO.s 			page 48


 813:Drivers/GD32E23x/Source/gd32e23x_usart.c ****     USART_CTL2(usart_periph) &= ~(USART_CTL2_RTSEN);
 1921              		.loc 1 813 5 is_stmt 1 view .LVU382
 1922 0008 8368     		ldr	r3, [r0, #8]
 1923              		.loc 1 813 30 is_stmt 0 view .LVU383
 1924 000a 034A     		ldr	r2, .L97
 1925 000c 1340     		ands	r3, r2
 1926 000e 8360     		str	r3, [r0, #8]
 814:Drivers/GD32E23x/Source/gd32e23x_usart.c ****     USART_CTL2(usart_periph) |= rtsconfig;
 1927              		.loc 1 814 5 is_stmt 1 view .LVU384
 1928 0010 8368     		ldr	r3, [r0, #8]
 1929              		.loc 1 814 30 is_stmt 0 view .LVU385
 1930 0012 0B43     		orrs	r3, r1
 1931 0014 8360     		str	r3, [r0, #8]
 815:Drivers/GD32E23x/Source/gd32e23x_usart.c **** }
 1932              		.loc 1 815 1 view .LVU386
 1933              		@ sp needed
 1934 0016 7047     		bx	lr
 1935              	.L98:
 1936              		.align	2
 1937              	.L97:
 1938 0018 FFFEFFFF 		.word	-257
 1939              		.cfi_endproc
 1940              	.LFE106:
 1942              		.section	.text.usart_hardware_flow_cts_config,"ax",%progbits
 1943              		.align	1
 1944              		.global	usart_hardware_flow_cts_config
 1945              		.syntax unified
 1946              		.code	16
 1947              		.thumb_func
 1949              	usart_hardware_flow_cts_config:
 1950              	.LVL85:
 1951              	.LFB107:
 816:Drivers/GD32E23x/Source/gd32e23x_usart.c **** 
 817:Drivers/GD32E23x/Source/gd32e23x_usart.c **** /*!
 818:Drivers/GD32E23x/Source/gd32e23x_usart.c ****     \brief      configure hardware flow control CTS
 819:Drivers/GD32E23x/Source/gd32e23x_usart.c ****     \param[in]  usart_periph: USARTx(x=0,1)
 820:Drivers/GD32E23x/Source/gd32e23x_usart.c ****     \param[in]  ctsconfig:  enable or disable CTS
 821:Drivers/GD32E23x/Source/gd32e23x_usart.c ****                 only one parameter can be selected which is shown as below:
 822:Drivers/GD32E23x/Source/gd32e23x_usart.c ****       \arg        USART_CTS_ENABLE:  enable CTS
 823:Drivers/GD32E23x/Source/gd32e23x_usart.c ****       \arg        USART_CTS_DISABLE: disable CTS
 824:Drivers/GD32E23x/Source/gd32e23x_usart.c ****     \param[out] none
 825:Drivers/GD32E23x/Source/gd32e23x_usart.c ****     \retval     none
 826:Drivers/GD32E23x/Source/gd32e23x_usart.c **** */
 827:Drivers/GD32E23x/Source/gd32e23x_usart.c **** void usart_hardware_flow_cts_config(uint32_t usart_periph, uint32_t ctsconfig)
 828:Drivers/GD32E23x/Source/gd32e23x_usart.c **** {
 1952              		.loc 1 828 1 is_stmt 1 view -0
 1953              		.cfi_startproc
 1954              		@ args = 0, pretend = 0, frame = 0
 1955              		@ frame_needed = 0, uses_anonymous_args = 0
 1956              		@ link register save eliminated.
 829:Drivers/GD32E23x/Source/gd32e23x_usart.c ****     /* disable USART */
 830:Drivers/GD32E23x/Source/gd32e23x_usart.c ****     USART_CTL0(usart_periph) &= ~(USART_CTL0_UEN);
 1957              		.loc 1 830 5 view .LVU388
 1958 0000 0368     		ldr	r3, [r0]
 1959              		.loc 1 830 30 is_stmt 0 view .LVU389
 1960 0002 0122     		movs	r2, #1
 1961 0004 9343     		bics	r3, r2
ARM GAS  D:\noval\Temp\ccDqp2rO.s 			page 49


 1962 0006 0360     		str	r3, [r0]
 831:Drivers/GD32E23x/Source/gd32e23x_usart.c **** 
 832:Drivers/GD32E23x/Source/gd32e23x_usart.c ****     USART_CTL2(usart_periph) &= ~USART_CTL2_CTSEN;
 1963              		.loc 1 832 5 is_stmt 1 view .LVU390
 1964 0008 8368     		ldr	r3, [r0, #8]
 1965              		.loc 1 832 30 is_stmt 0 view .LVU391
 1966 000a 034A     		ldr	r2, .L100
 1967 000c 1340     		ands	r3, r2
 1968 000e 8360     		str	r3, [r0, #8]
 833:Drivers/GD32E23x/Source/gd32e23x_usart.c ****     USART_CTL2(usart_periph) |= ctsconfig;
 1969              		.loc 1 833 5 is_stmt 1 view .LVU392
 1970 0010 8368     		ldr	r3, [r0, #8]
 1971              		.loc 1 833 30 is_stmt 0 view .LVU393
 1972 0012 0B43     		orrs	r3, r1
 1973 0014 8360     		str	r3, [r0, #8]
 834:Drivers/GD32E23x/Source/gd32e23x_usart.c **** }
 1974              		.loc 1 834 1 view .LVU394
 1975              		@ sp needed
 1976 0016 7047     		bx	lr
 1977              	.L101:
 1978              		.align	2
 1979              	.L100:
 1980 0018 FFFDFFFF 		.word	-513
 1981              		.cfi_endproc
 1982              	.LFE107:
 1984              		.section	.text.usart_hardware_flow_coherence_config,"ax",%progbits
 1985              		.align	1
 1986              		.global	usart_hardware_flow_coherence_config
 1987              		.syntax unified
 1988              		.code	16
 1989              		.thumb_func
 1991              	usart_hardware_flow_coherence_config:
 1992              	.LVL86:
 1993              	.LFB108:
 835:Drivers/GD32E23x/Source/gd32e23x_usart.c **** 
 836:Drivers/GD32E23x/Source/gd32e23x_usart.c ****  /*!
 837:Drivers/GD32E23x/Source/gd32e23x_usart.c ****     \brief      configure hardware flow control coherence mode
 838:Drivers/GD32E23x/Source/gd32e23x_usart.c ****     \param[in]  usart_periph: USARTx(x=0,1)
 839:Drivers/GD32E23x/Source/gd32e23x_usart.c ****     \param[in]  hcm:
 840:Drivers/GD32E23x/Source/gd32e23x_usart.c ****                 only one parameter can be selected which is shown as below:
 841:Drivers/GD32E23x/Source/gd32e23x_usart.c ****       \arg        USART_HCM_NONE: nRTS signal equals to the rxne status register
 842:Drivers/GD32E23x/Source/gd32e23x_usart.c ****       \arg        USART_HCM_EN:   nRTS signal is set when the last data bit has been sampled
 843:Drivers/GD32E23x/Source/gd32e23x_usart.c ****     \param[out] none
 844:Drivers/GD32E23x/Source/gd32e23x_usart.c ****     \retval     none
 845:Drivers/GD32E23x/Source/gd32e23x_usart.c **** */
 846:Drivers/GD32E23x/Source/gd32e23x_usart.c **** void usart_hardware_flow_coherence_config(uint32_t usart_periph, uint32_t hcm)
 847:Drivers/GD32E23x/Source/gd32e23x_usart.c **** {
 1994              		.loc 1 847 1 is_stmt 1 view -0
 1995              		.cfi_startproc
 1996              		@ args = 0, pretend = 0, frame = 0
 1997              		@ frame_needed = 0, uses_anonymous_args = 0
 1998              		@ link register save eliminated.
 848:Drivers/GD32E23x/Source/gd32e23x_usart.c ****     USART_CHC(usart_periph) &= ~(USART_CHC_HCM);
 1999              		.loc 1 848 5 view .LVU396
 2000 0000 C030     		adds	r0, r0, #192
 2001              	.LVL87:
 2002              		.loc 1 848 5 is_stmt 0 view .LVU397
ARM GAS  D:\noval\Temp\ccDqp2rO.s 			page 50


 2003 0002 0268     		ldr	r2, [r0]
 2004              		.loc 1 848 29 view .LVU398
 2005 0004 0123     		movs	r3, #1
 2006 0006 9A43     		bics	r2, r3
 2007 0008 0260     		str	r2, [r0]
 849:Drivers/GD32E23x/Source/gd32e23x_usart.c ****     USART_CHC(usart_periph) |= (USART_CHC_HCM & hcm);
 2008              		.loc 1 849 5 is_stmt 1 view .LVU399
 2009 000a 0268     		ldr	r2, [r0]
 2010              		.loc 1 849 47 is_stmt 0 view .LVU400
 2011 000c 0B40     		ands	r3, r1
 2012              		.loc 1 849 29 view .LVU401
 2013 000e 1A43     		orrs	r2, r3
 2014 0010 0260     		str	r2, [r0]
 850:Drivers/GD32E23x/Source/gd32e23x_usart.c **** }
 2015              		.loc 1 850 1 view .LVU402
 2016              		@ sp needed
 2017 0012 7047     		bx	lr
 2018              		.cfi_endproc
 2019              	.LFE108:
 2021              		.section	.text.usart_rs485_driver_enable,"ax",%progbits
 2022              		.align	1
 2023              		.global	usart_rs485_driver_enable
 2024              		.syntax unified
 2025              		.code	16
 2026              		.thumb_func
 2028              	usart_rs485_driver_enable:
 2029              	.LVL88:
 2030              	.LFB109:
 851:Drivers/GD32E23x/Source/gd32e23x_usart.c **** 
 852:Drivers/GD32E23x/Source/gd32e23x_usart.c **** /*!
 853:Drivers/GD32E23x/Source/gd32e23x_usart.c ****     \brief      enable RS485 driver
 854:Drivers/GD32E23x/Source/gd32e23x_usart.c ****     \param[in]  usart_periph: USARTx(x=0,1)
 855:Drivers/GD32E23x/Source/gd32e23x_usart.c ****     \param[out] none
 856:Drivers/GD32E23x/Source/gd32e23x_usart.c ****     \retval     none
 857:Drivers/GD32E23x/Source/gd32e23x_usart.c **** */
 858:Drivers/GD32E23x/Source/gd32e23x_usart.c **** void usart_rs485_driver_enable(uint32_t usart_periph)
 859:Drivers/GD32E23x/Source/gd32e23x_usart.c **** {
 2031              		.loc 1 859 1 is_stmt 1 view -0
 2032              		.cfi_startproc
 2033              		@ args = 0, pretend = 0, frame = 0
 2034              		@ frame_needed = 0, uses_anonymous_args = 0
 2035              		@ link register save eliminated.
 860:Drivers/GD32E23x/Source/gd32e23x_usart.c ****     /* disable USART */
 861:Drivers/GD32E23x/Source/gd32e23x_usart.c ****     USART_CTL0(usart_periph) &= ~(USART_CTL0_UEN);
 2036              		.loc 1 861 5 view .LVU404
 2037 0000 0368     		ldr	r3, [r0]
 2038              		.loc 1 861 30 is_stmt 0 view .LVU405
 2039 0002 0122     		movs	r2, #1
 2040 0004 9343     		bics	r3, r2
 2041 0006 0360     		str	r3, [r0]
 862:Drivers/GD32E23x/Source/gd32e23x_usart.c **** 
 863:Drivers/GD32E23x/Source/gd32e23x_usart.c ****     USART_CTL2(usart_periph) |= USART_CTL2_DEM;
 2042              		.loc 1 863 5 is_stmt 1 view .LVU406
 2043 0008 8368     		ldr	r3, [r0, #8]
 2044              		.loc 1 863 30 is_stmt 0 view .LVU407
 2045 000a 44F20002 		movw	r2, #16384
 2046 000e 1343     		orrs	r3, r2
ARM GAS  D:\noval\Temp\ccDqp2rO.s 			page 51


 2047 0010 8360     		str	r3, [r0, #8]
 864:Drivers/GD32E23x/Source/gd32e23x_usart.c **** }
 2048              		.loc 1 864 1 view .LVU408
 2049              		@ sp needed
 2050 0012 7047     		bx	lr
 2051              		.cfi_endproc
 2052              	.LFE109:
 2054              		.section	.text.usart_rs485_driver_disable,"ax",%progbits
 2055              		.align	1
 2056              		.global	usart_rs485_driver_disable
 2057              		.syntax unified
 2058              		.code	16
 2059              		.thumb_func
 2061              	usart_rs485_driver_disable:
 2062              	.LVL89:
 2063              	.LFB110:
 865:Drivers/GD32E23x/Source/gd32e23x_usart.c **** 
 866:Drivers/GD32E23x/Source/gd32e23x_usart.c **** /*!
 867:Drivers/GD32E23x/Source/gd32e23x_usart.c ****     \brief      disable RS485 driver
 868:Drivers/GD32E23x/Source/gd32e23x_usart.c ****     \param[in]  usart_periph: USARTx(x=0,1)
 869:Drivers/GD32E23x/Source/gd32e23x_usart.c ****     \param[out] none
 870:Drivers/GD32E23x/Source/gd32e23x_usart.c ****     \retval     none
 871:Drivers/GD32E23x/Source/gd32e23x_usart.c **** */
 872:Drivers/GD32E23x/Source/gd32e23x_usart.c **** void usart_rs485_driver_disable(uint32_t usart_periph)
 873:Drivers/GD32E23x/Source/gd32e23x_usart.c **** {
 2064              		.loc 1 873 1 is_stmt 1 view -0
 2065              		.cfi_startproc
 2066              		@ args = 0, pretend = 0, frame = 0
 2067              		@ frame_needed = 0, uses_anonymous_args = 0
 2068              		@ link register save eliminated.
 874:Drivers/GD32E23x/Source/gd32e23x_usart.c ****     /* disable USART */
 875:Drivers/GD32E23x/Source/gd32e23x_usart.c ****     USART_CTL0(usart_periph) &= ~(USART_CTL0_UEN);
 2069              		.loc 1 875 5 view .LVU410
 2070 0000 0368     		ldr	r3, [r0]
 2071              		.loc 1 875 30 is_stmt 0 view .LVU411
 2072 0002 0122     		movs	r2, #1
 2073 0004 9343     		bics	r3, r2
 2074 0006 0360     		str	r3, [r0]
 876:Drivers/GD32E23x/Source/gd32e23x_usart.c **** 
 877:Drivers/GD32E23x/Source/gd32e23x_usart.c ****     USART_CTL2(usart_periph) &= ~(USART_CTL2_DEM);
 2075              		.loc 1 877 5 is_stmt 1 view .LVU412
 2076 0008 8368     		ldr	r3, [r0, #8]
 2077              		.loc 1 877 30 is_stmt 0 view .LVU413
 2078 000a 024A     		ldr	r2, .L105
 2079 000c 1340     		ands	r3, r2
 2080 000e 8360     		str	r3, [r0, #8]
 878:Drivers/GD32E23x/Source/gd32e23x_usart.c **** }
 2081              		.loc 1 878 1 view .LVU414
 2082              		@ sp needed
 2083 0010 7047     		bx	lr
 2084              	.L106:
 2085 0012 C046     		.align	2
 2086              	.L105:
 2087 0014 FFBFFFFF 		.word	-16385
 2088              		.cfi_endproc
 2089              	.LFE110:
 2091              		.section	.text.usart_driver_assertime_config,"ax",%progbits
ARM GAS  D:\noval\Temp\ccDqp2rO.s 			page 52


 2092              		.align	1
 2093              		.global	usart_driver_assertime_config
 2094              		.syntax unified
 2095              		.code	16
 2096              		.thumb_func
 2098              	usart_driver_assertime_config:
 2099              	.LVL90:
 2100              	.LFB111:
 879:Drivers/GD32E23x/Source/gd32e23x_usart.c **** 
 880:Drivers/GD32E23x/Source/gd32e23x_usart.c **** /*!
 881:Drivers/GD32E23x/Source/gd32e23x_usart.c ****     \brief      configure driver enable assertion time
 882:Drivers/GD32E23x/Source/gd32e23x_usart.c ****     \param[in]  usart_periph: USARTx(x=0,1)
 883:Drivers/GD32E23x/Source/gd32e23x_usart.c ****     \param[in]  deatime: 0x00000000-0x0000001F
 884:Drivers/GD32E23x/Source/gd32e23x_usart.c ****     \param[out] none
 885:Drivers/GD32E23x/Source/gd32e23x_usart.c ****     \retval     none
 886:Drivers/GD32E23x/Source/gd32e23x_usart.c **** */
 887:Drivers/GD32E23x/Source/gd32e23x_usart.c **** void usart_driver_assertime_config(uint32_t usart_periph, uint32_t deatime)
 888:Drivers/GD32E23x/Source/gd32e23x_usart.c **** {
 2101              		.loc 1 888 1 is_stmt 1 view -0
 2102              		.cfi_startproc
 2103              		@ args = 0, pretend = 0, frame = 0
 2104              		@ frame_needed = 0, uses_anonymous_args = 0
 2105              		@ link register save eliminated.
 889:Drivers/GD32E23x/Source/gd32e23x_usart.c ****     /* disable USART */
 890:Drivers/GD32E23x/Source/gd32e23x_usart.c ****     USART_CTL0(usart_periph) &= ~(USART_CTL0_UEN);
 2106              		.loc 1 890 5 view .LVU416
 2107 0000 0368     		ldr	r3, [r0]
 2108              		.loc 1 890 30 is_stmt 0 view .LVU417
 2109 0002 0122     		movs	r2, #1
 2110 0004 9343     		bics	r3, r2
 2111 0006 0360     		str	r3, [r0]
 891:Drivers/GD32E23x/Source/gd32e23x_usart.c **** 
 892:Drivers/GD32E23x/Source/gd32e23x_usart.c ****     USART_CTL0(usart_periph) &= ~(USART_CTL0_DEA);
 2112              		.loc 1 892 5 is_stmt 1 view .LVU418
 2113 0008 0368     		ldr	r3, [r0]
 2114              		.loc 1 892 30 is_stmt 0 view .LVU419
 2115 000a 054A     		ldr	r2, .L108
 2116 000c 1340     		ands	r3, r2
 2117 000e 0360     		str	r3, [r0]
 893:Drivers/GD32E23x/Source/gd32e23x_usart.c ****     USART_CTL0(usart_periph) |= (USART_CTL0_DEA & ((deatime) << 21));
 2118              		.loc 1 893 5 is_stmt 1 view .LVU420
 2119 0010 0368     		ldr	r3, [r0]
 2120              		.loc 1 893 62 is_stmt 0 view .LVU421
 2121 0012 4905     		lsls	r1, r1, #21
 2122              	.LVL91:
 2123              		.loc 1 893 49 view .LVU422
 2124 0014 F822     		movs	r2, #248
 2125 0016 9204     		lsls	r2, r2, #18
 2126 0018 1140     		ands	r1, r2
 2127              		.loc 1 893 30 view .LVU423
 2128 001a 0B43     		orrs	r3, r1
 2129 001c 0360     		str	r3, [r0]
 894:Drivers/GD32E23x/Source/gd32e23x_usart.c **** }
 2130              		.loc 1 894 1 view .LVU424
 2131              		@ sp needed
 2132 001e 7047     		bx	lr
 2133              	.L109:
ARM GAS  D:\noval\Temp\ccDqp2rO.s 			page 53


 2134              		.align	2
 2135              	.L108:
 2136 0020 FFFF1FFC 		.word	-65011713
 2137              		.cfi_endproc
 2138              	.LFE111:
 2140              		.section	.text.usart_driver_deassertime_config,"ax",%progbits
 2141              		.align	1
 2142              		.global	usart_driver_deassertime_config
 2143              		.syntax unified
 2144              		.code	16
 2145              		.thumb_func
 2147              	usart_driver_deassertime_config:
 2148              	.LVL92:
 2149              	.LFB112:
 895:Drivers/GD32E23x/Source/gd32e23x_usart.c **** 
 896:Drivers/GD32E23x/Source/gd32e23x_usart.c **** /*!
 897:Drivers/GD32E23x/Source/gd32e23x_usart.c ****     \brief      configure driver enable de-assertion time
 898:Drivers/GD32E23x/Source/gd32e23x_usart.c ****     \param[in]  usart_periph: USARTx(x=0,1)
 899:Drivers/GD32E23x/Source/gd32e23x_usart.c ****     \param[in]  dedtime: 0x00000000-0x0000001F
 900:Drivers/GD32E23x/Source/gd32e23x_usart.c ****     \param[out] none
 901:Drivers/GD32E23x/Source/gd32e23x_usart.c ****     \retval     none
 902:Drivers/GD32E23x/Source/gd32e23x_usart.c **** */
 903:Drivers/GD32E23x/Source/gd32e23x_usart.c **** void usart_driver_deassertime_config(uint32_t usart_periph, uint32_t dedtime)
 904:Drivers/GD32E23x/Source/gd32e23x_usart.c **** {
 2150              		.loc 1 904 1 is_stmt 1 view -0
 2151              		.cfi_startproc
 2152              		@ args = 0, pretend = 0, frame = 0
 2153              		@ frame_needed = 0, uses_anonymous_args = 0
 2154              		@ link register save eliminated.
 905:Drivers/GD32E23x/Source/gd32e23x_usart.c ****     /* disable USART */
 906:Drivers/GD32E23x/Source/gd32e23x_usart.c ****     USART_CTL0(usart_periph) &= ~(USART_CTL0_UEN);
 2155              		.loc 1 906 5 view .LVU426
 2156 0000 0368     		ldr	r3, [r0]
 2157              		.loc 1 906 30 is_stmt 0 view .LVU427
 2158 0002 0122     		movs	r2, #1
 2159 0004 9343     		bics	r3, r2
 2160 0006 0360     		str	r3, [r0]
 907:Drivers/GD32E23x/Source/gd32e23x_usart.c **** 
 908:Drivers/GD32E23x/Source/gd32e23x_usart.c ****     USART_CTL0(usart_periph) &= ~(USART_CTL0_DED);
 2161              		.loc 1 908 5 is_stmt 1 view .LVU428
 2162 0008 0368     		ldr	r3, [r0]
 2163              		.loc 1 908 30 is_stmt 0 view .LVU429
 2164 000a 054A     		ldr	r2, .L111
 2165 000c 1340     		ands	r3, r2
 2166 000e 0360     		str	r3, [r0]
 909:Drivers/GD32E23x/Source/gd32e23x_usart.c ****     USART_CTL0(usart_periph) |= (USART_CTL0_DED & ((dedtime) << 16));
 2167              		.loc 1 909 5 is_stmt 1 view .LVU430
 2168 0010 0368     		ldr	r3, [r0]
 2169              		.loc 1 909 62 is_stmt 0 view .LVU431
 2170 0012 0904     		lsls	r1, r1, #16
 2171              	.LVL93:
 2172              		.loc 1 909 49 view .LVU432
 2173 0014 F822     		movs	r2, #248
 2174 0016 5203     		lsls	r2, r2, #13
 2175 0018 1140     		ands	r1, r2
 2176              		.loc 1 909 30 view .LVU433
 2177 001a 0B43     		orrs	r3, r1
ARM GAS  D:\noval\Temp\ccDqp2rO.s 			page 54


 2178 001c 0360     		str	r3, [r0]
 910:Drivers/GD32E23x/Source/gd32e23x_usart.c **** }
 2179              		.loc 1 910 1 view .LVU434
 2180              		@ sp needed
 2181 001e 7047     		bx	lr
 2182              	.L112:
 2183              		.align	2
 2184              	.L111:
 2185 0020 FFFFE0FF 		.word	-2031617
 2186              		.cfi_endproc
 2187              	.LFE112:
 2189              		.section	.text.usart_depolarity_config,"ax",%progbits
 2190              		.align	1
 2191              		.global	usart_depolarity_config
 2192              		.syntax unified
 2193              		.code	16
 2194              		.thumb_func
 2196              	usart_depolarity_config:
 2197              	.LVL94:
 2198              	.LFB113:
 911:Drivers/GD32E23x/Source/gd32e23x_usart.c **** 
 912:Drivers/GD32E23x/Source/gd32e23x_usart.c **** /*!
 913:Drivers/GD32E23x/Source/gd32e23x_usart.c ****     \brief      configure driver enable polarity mode
 914:Drivers/GD32E23x/Source/gd32e23x_usart.c ****     \param[in]  usart_periph: USARTx(x=0,1)
 915:Drivers/GD32E23x/Source/gd32e23x_usart.c ****     \param[in]  dep: DE signal
 916:Drivers/GD32E23x/Source/gd32e23x_usart.c ****                 only one parameter can be selected which is shown as below:
 917:Drivers/GD32E23x/Source/gd32e23x_usart.c ****       \arg        USART_DEP_HIGH: DE signal is active high
 918:Drivers/GD32E23x/Source/gd32e23x_usart.c ****       \arg        USART_DEP_LOW: DE signal is active low
 919:Drivers/GD32E23x/Source/gd32e23x_usart.c ****     \param[out] none
 920:Drivers/GD32E23x/Source/gd32e23x_usart.c ****     \retval     none
 921:Drivers/GD32E23x/Source/gd32e23x_usart.c **** */
 922:Drivers/GD32E23x/Source/gd32e23x_usart.c **** void usart_depolarity_config(uint32_t usart_periph, uint32_t dep)
 923:Drivers/GD32E23x/Source/gd32e23x_usart.c **** {
 2199              		.loc 1 923 1 is_stmt 1 view -0
 2200              		.cfi_startproc
 2201              		@ args = 0, pretend = 0, frame = 0
 2202              		@ frame_needed = 0, uses_anonymous_args = 0
 2203              		@ link register save eliminated.
 924:Drivers/GD32E23x/Source/gd32e23x_usart.c ****     /* disable USART */
 925:Drivers/GD32E23x/Source/gd32e23x_usart.c ****     USART_CTL0(usart_periph) &= ~(USART_CTL0_UEN);
 2204              		.loc 1 925 5 view .LVU436
 2205 0000 0368     		ldr	r3, [r0]
 2206              		.loc 1 925 30 is_stmt 0 view .LVU437
 2207 0002 0122     		movs	r2, #1
 2208 0004 9343     		bics	r3, r2
 2209 0006 0360     		str	r3, [r0]
 926:Drivers/GD32E23x/Source/gd32e23x_usart.c ****     /* reset DEP bit */
 927:Drivers/GD32E23x/Source/gd32e23x_usart.c ****     USART_CTL2(usart_periph) &= ~(USART_CTL2_DEP);
 2210              		.loc 1 927 5 is_stmt 1 view .LVU438
 2211 0008 8368     		ldr	r3, [r0, #8]
 2212              		.loc 1 927 30 is_stmt 0 view .LVU439
 2213 000a 054A     		ldr	r2, .L114
 2214 000c 1340     		ands	r3, r2
 2215 000e 8360     		str	r3, [r0, #8]
 928:Drivers/GD32E23x/Source/gd32e23x_usart.c ****     USART_CTL2(usart_periph) |= (USART_CTL2_DEP & dep);
 2216              		.loc 1 928 5 is_stmt 1 view .LVU440
 2217 0010 8368     		ldr	r3, [r0, #8]
ARM GAS  D:\noval\Temp\ccDqp2rO.s 			page 55


 2218              		.loc 1 928 49 is_stmt 0 view .LVU441
 2219 0012 48F20002 		movw	r2, #32768
 2220 0016 0A40     		ands	r2, r1
 2221              		.loc 1 928 30 view .LVU442
 2222 0018 1343     		orrs	r3, r2
 2223 001a 8360     		str	r3, [r0, #8]
 929:Drivers/GD32E23x/Source/gd32e23x_usart.c **** }
 2224              		.loc 1 929 1 view .LVU443
 2225              		@ sp needed
 2226 001c 7047     		bx	lr
 2227              	.L115:
 2228 001e C046     		.align	2
 2229              	.L114:
 2230 0020 FF7FFFFF 		.word	-32769
 2231              		.cfi_endproc
 2232              	.LFE113:
 2234              		.section	.text.usart_dma_receive_config,"ax",%progbits
 2235              		.align	1
 2236              		.global	usart_dma_receive_config
 2237              		.syntax unified
 2238              		.code	16
 2239              		.thumb_func
 2241              	usart_dma_receive_config:
 2242              	.LVL95:
 2243              	.LFB114:
 930:Drivers/GD32E23x/Source/gd32e23x_usart.c **** 
 931:Drivers/GD32E23x/Source/gd32e23x_usart.c **** /*!
 932:Drivers/GD32E23x/Source/gd32e23x_usart.c ****     \brief      configure USART DMA reception
 933:Drivers/GD32E23x/Source/gd32e23x_usart.c ****     \param[in]  usart_periph: USARTx(x=0,1)
 934:Drivers/GD32E23x/Source/gd32e23x_usart.c ****     \param[in]  dmacmd: enable or disable DMA for reception
 935:Drivers/GD32E23x/Source/gd32e23x_usart.c ****                 only one parameter can be selected which is shown as below:
 936:Drivers/GD32E23x/Source/gd32e23x_usart.c ****       \arg        USART_DENR_ENABLE: DMA enable for reception
 937:Drivers/GD32E23x/Source/gd32e23x_usart.c ****       \arg        USART_DENR_DISABLE: DMA disable for reception
 938:Drivers/GD32E23x/Source/gd32e23x_usart.c ****     \param[out] none
 939:Drivers/GD32E23x/Source/gd32e23x_usart.c ****     \retval     none
 940:Drivers/GD32E23x/Source/gd32e23x_usart.c **** */
 941:Drivers/GD32E23x/Source/gd32e23x_usart.c **** void usart_dma_receive_config(uint32_t usart_periph, uint32_t dmacmd)
 942:Drivers/GD32E23x/Source/gd32e23x_usart.c **** {
 2244              		.loc 1 942 1 is_stmt 1 view -0
 2245              		.cfi_startproc
 2246              		@ args = 0, pretend = 0, frame = 0
 2247              		@ frame_needed = 0, uses_anonymous_args = 0
 2248              		@ link register save eliminated.
 943:Drivers/GD32E23x/Source/gd32e23x_usart.c ****     USART_CTL2(usart_periph) &= ~USART_CTL2_DENR;
 2249              		.loc 1 943 5 view .LVU445
 2250 0000 8368     		ldr	r3, [r0, #8]
 2251              		.loc 1 943 30 is_stmt 0 view .LVU446
 2252 0002 4022     		movs	r2, #64
 2253 0004 9343     		bics	r3, r2
 2254 0006 8360     		str	r3, [r0, #8]
 944:Drivers/GD32E23x/Source/gd32e23x_usart.c ****     /* configure DMA reception */
 945:Drivers/GD32E23x/Source/gd32e23x_usart.c ****     USART_CTL2(usart_periph) |= dmacmd;
 2255              		.loc 1 945 5 is_stmt 1 view .LVU447
 2256 0008 8368     		ldr	r3, [r0, #8]
 2257              		.loc 1 945 30 is_stmt 0 view .LVU448
 2258 000a 0B43     		orrs	r3, r1
 2259 000c 8360     		str	r3, [r0, #8]
ARM GAS  D:\noval\Temp\ccDqp2rO.s 			page 56


 946:Drivers/GD32E23x/Source/gd32e23x_usart.c **** }
 2260              		.loc 1 946 1 view .LVU449
 2261              		@ sp needed
 2262 000e 7047     		bx	lr
 2263              		.cfi_endproc
 2264              	.LFE114:
 2266              		.section	.text.usart_dma_transmit_config,"ax",%progbits
 2267              		.align	1
 2268              		.global	usart_dma_transmit_config
 2269              		.syntax unified
 2270              		.code	16
 2271              		.thumb_func
 2273              	usart_dma_transmit_config:
 2274              	.LVL96:
 2275              	.LFB115:
 947:Drivers/GD32E23x/Source/gd32e23x_usart.c **** 
 948:Drivers/GD32E23x/Source/gd32e23x_usart.c **** /*!
 949:Drivers/GD32E23x/Source/gd32e23x_usart.c ****     \brief      configure USART DMA transmission
 950:Drivers/GD32E23x/Source/gd32e23x_usart.c ****     \param[in]  usart_periph: USARTx(x=0,1)
 951:Drivers/GD32E23x/Source/gd32e23x_usart.c ****     \param[in]  dmacmd: enable or disable DMA for transmission
 952:Drivers/GD32E23x/Source/gd32e23x_usart.c ****                 only one parameter can be selected which is shown as below:
 953:Drivers/GD32E23x/Source/gd32e23x_usart.c ****       \arg        USART_DENT_ENABLE: DMA enable for transmission
 954:Drivers/GD32E23x/Source/gd32e23x_usart.c ****       \arg        USART_DENT_DISABLE: DMA disable for transmission
 955:Drivers/GD32E23x/Source/gd32e23x_usart.c ****     \param[out] none
 956:Drivers/GD32E23x/Source/gd32e23x_usart.c ****     \retval     none
 957:Drivers/GD32E23x/Source/gd32e23x_usart.c **** */
 958:Drivers/GD32E23x/Source/gd32e23x_usart.c **** void usart_dma_transmit_config(uint32_t usart_periph, uint32_t dmacmd)
 959:Drivers/GD32E23x/Source/gd32e23x_usart.c **** {
 2276              		.loc 1 959 1 is_stmt 1 view -0
 2277              		.cfi_startproc
 2278              		@ args = 0, pretend = 0, frame = 0
 2279              		@ frame_needed = 0, uses_anonymous_args = 0
 2280              		@ link register save eliminated.
 960:Drivers/GD32E23x/Source/gd32e23x_usart.c ****     USART_CTL2(usart_periph) &= ~USART_CTL2_DENT;
 2281              		.loc 1 960 5 view .LVU451
 2282 0000 8368     		ldr	r3, [r0, #8]
 2283              		.loc 1 960 30 is_stmt 0 view .LVU452
 2284 0002 8022     		movs	r2, #128
 2285 0004 9343     		bics	r3, r2
 2286 0006 8360     		str	r3, [r0, #8]
 961:Drivers/GD32E23x/Source/gd32e23x_usart.c ****     /* configure DMA transmission */
 962:Drivers/GD32E23x/Source/gd32e23x_usart.c ****     USART_CTL2(usart_periph) |= dmacmd;
 2287              		.loc 1 962 5 is_stmt 1 view .LVU453
 2288 0008 8368     		ldr	r3, [r0, #8]
 2289              		.loc 1 962 30 is_stmt 0 view .LVU454
 2290 000a 0B43     		orrs	r3, r1
 2291 000c 8360     		str	r3, [r0, #8]
 963:Drivers/GD32E23x/Source/gd32e23x_usart.c **** }
 2292              		.loc 1 963 1 view .LVU455
 2293              		@ sp needed
 2294 000e 7047     		bx	lr
 2295              		.cfi_endproc
 2296              	.LFE115:
 2298              		.section	.text.usart_reception_error_dma_disable,"ax",%progbits
 2299              		.align	1
 2300              		.global	usart_reception_error_dma_disable
 2301              		.syntax unified
ARM GAS  D:\noval\Temp\ccDqp2rO.s 			page 57


 2302              		.code	16
 2303              		.thumb_func
 2305              	usart_reception_error_dma_disable:
 2306              	.LVL97:
 2307              	.LFB116:
 964:Drivers/GD32E23x/Source/gd32e23x_usart.c **** 
 965:Drivers/GD32E23x/Source/gd32e23x_usart.c **** /*!
 966:Drivers/GD32E23x/Source/gd32e23x_usart.c ****     \brief      disable DMA on reception error
 967:Drivers/GD32E23x/Source/gd32e23x_usart.c ****     \param[in]  usart_periph: USARTx(x=0,1)
 968:Drivers/GD32E23x/Source/gd32e23x_usart.c ****     \param[out] none
 969:Drivers/GD32E23x/Source/gd32e23x_usart.c ****     \retval     none
 970:Drivers/GD32E23x/Source/gd32e23x_usart.c **** */
 971:Drivers/GD32E23x/Source/gd32e23x_usart.c **** void usart_reception_error_dma_disable(uint32_t usart_periph)
 972:Drivers/GD32E23x/Source/gd32e23x_usart.c **** {
 2308              		.loc 1 972 1 is_stmt 1 view -0
 2309              		.cfi_startproc
 2310              		@ args = 0, pretend = 0, frame = 0
 2311              		@ frame_needed = 0, uses_anonymous_args = 0
 2312              		@ link register save eliminated.
 973:Drivers/GD32E23x/Source/gd32e23x_usart.c ****     /* disable USART */
 974:Drivers/GD32E23x/Source/gd32e23x_usart.c ****     USART_CTL0(usart_periph) &= ~(USART_CTL0_UEN);
 2313              		.loc 1 974 5 view .LVU457
 2314 0000 0368     		ldr	r3, [r0]
 2315              		.loc 1 974 30 is_stmt 0 view .LVU458
 2316 0002 0122     		movs	r2, #1
 2317 0004 9343     		bics	r3, r2
 2318 0006 0360     		str	r3, [r0]
 975:Drivers/GD32E23x/Source/gd32e23x_usart.c **** 
 976:Drivers/GD32E23x/Source/gd32e23x_usart.c ****     USART_CTL2(usart_periph) |= USART_CTL2_DDRE;
 2319              		.loc 1 976 5 is_stmt 1 view .LVU459
 2320 0008 8368     		ldr	r3, [r0, #8]
 2321              		.loc 1 976 30 is_stmt 0 view .LVU460
 2322 000a 42F20002 		movw	r2, #8192
 2323 000e 1343     		orrs	r3, r2
 2324 0010 8360     		str	r3, [r0, #8]
 977:Drivers/GD32E23x/Source/gd32e23x_usart.c **** }
 2325              		.loc 1 977 1 view .LVU461
 2326              		@ sp needed
 2327 0012 7047     		bx	lr
 2328              		.cfi_endproc
 2329              	.LFE116:
 2331              		.section	.text.usart_reception_error_dma_enable,"ax",%progbits
 2332              		.align	1
 2333              		.global	usart_reception_error_dma_enable
 2334              		.syntax unified
 2335              		.code	16
 2336              		.thumb_func
 2338              	usart_reception_error_dma_enable:
 2339              	.LVL98:
 2340              	.LFB117:
 978:Drivers/GD32E23x/Source/gd32e23x_usart.c **** 
 979:Drivers/GD32E23x/Source/gd32e23x_usart.c **** /*!
 980:Drivers/GD32E23x/Source/gd32e23x_usart.c ****     \brief      enable DMA on reception error 
 981:Drivers/GD32E23x/Source/gd32e23x_usart.c ****     \param[in]  usart_periph: USARTx(x=0,1)
 982:Drivers/GD32E23x/Source/gd32e23x_usart.c ****     \param[out] none
 983:Drivers/GD32E23x/Source/gd32e23x_usart.c ****     \retval     none
 984:Drivers/GD32E23x/Source/gd32e23x_usart.c **** */
ARM GAS  D:\noval\Temp\ccDqp2rO.s 			page 58


 985:Drivers/GD32E23x/Source/gd32e23x_usart.c **** void usart_reception_error_dma_enable(uint32_t usart_periph)
 986:Drivers/GD32E23x/Source/gd32e23x_usart.c **** {
 2341              		.loc 1 986 1 is_stmt 1 view -0
 2342              		.cfi_startproc
 2343              		@ args = 0, pretend = 0, frame = 0
 2344              		@ frame_needed = 0, uses_anonymous_args = 0
 2345              		@ link register save eliminated.
 987:Drivers/GD32E23x/Source/gd32e23x_usart.c ****     /* disable USART */
 988:Drivers/GD32E23x/Source/gd32e23x_usart.c ****     USART_CTL0(usart_periph) &= ~(USART_CTL0_UEN);
 2346              		.loc 1 988 5 view .LVU463
 2347 0000 0368     		ldr	r3, [r0]
 2348              		.loc 1 988 30 is_stmt 0 view .LVU464
 2349 0002 0122     		movs	r2, #1
 2350 0004 9343     		bics	r3, r2
 2351 0006 0360     		str	r3, [r0]
 989:Drivers/GD32E23x/Source/gd32e23x_usart.c **** 
 990:Drivers/GD32E23x/Source/gd32e23x_usart.c ****     USART_CTL2(usart_periph) &= ~(USART_CTL2_DDRE);
 2352              		.loc 1 990 5 is_stmt 1 view .LVU465
 2353 0008 8368     		ldr	r3, [r0, #8]
 2354              		.loc 1 990 30 is_stmt 0 view .LVU466
 2355 000a 024A     		ldr	r2, .L120
 2356 000c 1340     		ands	r3, r2
 2357 000e 8360     		str	r3, [r0, #8]
 991:Drivers/GD32E23x/Source/gd32e23x_usart.c **** }
 2358              		.loc 1 991 1 view .LVU467
 2359              		@ sp needed
 2360 0010 7047     		bx	lr
 2361              	.L121:
 2362 0012 C046     		.align	2
 2363              	.L120:
 2364 0014 FFDFFFFF 		.word	-8193
 2365              		.cfi_endproc
 2366              	.LFE117:
 2368              		.section	.text.usart_wakeup_enable,"ax",%progbits
 2369              		.align	1
 2370              		.global	usart_wakeup_enable
 2371              		.syntax unified
 2372              		.code	16
 2373              		.thumb_func
 2375              	usart_wakeup_enable:
 2376              	.LVL99:
 2377              	.LFB118:
 992:Drivers/GD32E23x/Source/gd32e23x_usart.c **** 
 993:Drivers/GD32E23x/Source/gd32e23x_usart.c **** /*!
 994:Drivers/GD32E23x/Source/gd32e23x_usart.c ****     \brief      enable USART to wakeup the mcu from deep-sleep mode
 995:Drivers/GD32E23x/Source/gd32e23x_usart.c ****     \param[in]  usart_periph: USARTx(x=0)
 996:Drivers/GD32E23x/Source/gd32e23x_usart.c ****     \param[out] none
 997:Drivers/GD32E23x/Source/gd32e23x_usart.c ****     \retval     none
 998:Drivers/GD32E23x/Source/gd32e23x_usart.c **** */
 999:Drivers/GD32E23x/Source/gd32e23x_usart.c **** void usart_wakeup_enable(uint32_t usart_periph)
1000:Drivers/GD32E23x/Source/gd32e23x_usart.c **** {
 2378              		.loc 1 1000 1 is_stmt 1 view -0
 2379              		.cfi_startproc
 2380              		@ args = 0, pretend = 0, frame = 0
 2381              		@ frame_needed = 0, uses_anonymous_args = 0
 2382              		@ link register save eliminated.
1001:Drivers/GD32E23x/Source/gd32e23x_usart.c ****     USART_CTL0(usart_periph) |= USART_CTL0_UESM;
ARM GAS  D:\noval\Temp\ccDqp2rO.s 			page 59


 2383              		.loc 1 1001 5 view .LVU469
 2384 0000 0368     		ldr	r3, [r0]
 2385              		.loc 1 1001 30 is_stmt 0 view .LVU470
 2386 0002 0222     		movs	r2, #2
 2387 0004 1343     		orrs	r3, r2
 2388 0006 0360     		str	r3, [r0]
1002:Drivers/GD32E23x/Source/gd32e23x_usart.c **** }
 2389              		.loc 1 1002 1 view .LVU471
 2390              		@ sp needed
 2391 0008 7047     		bx	lr
 2392              		.cfi_endproc
 2393              	.LFE118:
 2395              		.section	.text.usart_wakeup_disable,"ax",%progbits
 2396              		.align	1
 2397              		.global	usart_wakeup_disable
 2398              		.syntax unified
 2399              		.code	16
 2400              		.thumb_func
 2402              	usart_wakeup_disable:
 2403              	.LVL100:
 2404              	.LFB119:
1003:Drivers/GD32E23x/Source/gd32e23x_usart.c **** 
1004:Drivers/GD32E23x/Source/gd32e23x_usart.c **** /*!
1005:Drivers/GD32E23x/Source/gd32e23x_usart.c ****     \brief      disable USART to wakeup the mcu from deep-sleep mode
1006:Drivers/GD32E23x/Source/gd32e23x_usart.c ****     \param[in]  usart_periph: USARTx(x=0)
1007:Drivers/GD32E23x/Source/gd32e23x_usart.c ****     \param[out] none
1008:Drivers/GD32E23x/Source/gd32e23x_usart.c ****     \retval     none
1009:Drivers/GD32E23x/Source/gd32e23x_usart.c **** */
1010:Drivers/GD32E23x/Source/gd32e23x_usart.c **** void usart_wakeup_disable(uint32_t usart_periph)
1011:Drivers/GD32E23x/Source/gd32e23x_usart.c **** {
 2405              		.loc 1 1011 1 is_stmt 1 view -0
 2406              		.cfi_startproc
 2407              		@ args = 0, pretend = 0, frame = 0
 2408              		@ frame_needed = 0, uses_anonymous_args = 0
 2409              		@ link register save eliminated.
1012:Drivers/GD32E23x/Source/gd32e23x_usart.c ****     USART_CTL0(usart_periph) &= ~(USART_CTL0_UESM);
 2410              		.loc 1 1012 5 view .LVU473
 2411 0000 0368     		ldr	r3, [r0]
 2412              		.loc 1 1012 30 is_stmt 0 view .LVU474
 2413 0002 0222     		movs	r2, #2
 2414 0004 9343     		bics	r3, r2
 2415 0006 0360     		str	r3, [r0]
1013:Drivers/GD32E23x/Source/gd32e23x_usart.c **** }
 2416              		.loc 1 1013 1 view .LVU475
 2417              		@ sp needed
 2418 0008 7047     		bx	lr
 2419              		.cfi_endproc
 2420              	.LFE119:
 2422              		.section	.text.usart_wakeup_mode_config,"ax",%progbits
 2423              		.align	1
 2424              		.global	usart_wakeup_mode_config
 2425              		.syntax unified
 2426              		.code	16
 2427              		.thumb_func
 2429              	usart_wakeup_mode_config:
 2430              	.LVL101:
 2431              	.LFB120:
ARM GAS  D:\noval\Temp\ccDqp2rO.s 			page 60


1014:Drivers/GD32E23x/Source/gd32e23x_usart.c **** 
1015:Drivers/GD32E23x/Source/gd32e23x_usart.c **** /*!
1016:Drivers/GD32E23x/Source/gd32e23x_usart.c ****     \brief      configure the USART wakeup mode from deep-sleep mode
1017:Drivers/GD32E23x/Source/gd32e23x_usart.c ****     \param[in]  usart_periph: USARTx(x=0)
1018:Drivers/GD32E23x/Source/gd32e23x_usart.c ****     \param[in]  wum: wakeup mode
1019:Drivers/GD32E23x/Source/gd32e23x_usart.c ****                 only one parameter can be selected which is shown as below:
1020:Drivers/GD32E23x/Source/gd32e23x_usart.c ****       \arg        USART_WUM_ADDR: WUF active on address match
1021:Drivers/GD32E23x/Source/gd32e23x_usart.c ****       \arg        USART_WUM_STARTB: WUF active on start bit
1022:Drivers/GD32E23x/Source/gd32e23x_usart.c ****       \arg        USART_WUM_RBNE: WUF active on RBNE
1023:Drivers/GD32E23x/Source/gd32e23x_usart.c ****     \param[out] none
1024:Drivers/GD32E23x/Source/gd32e23x_usart.c ****     \retval     none
1025:Drivers/GD32E23x/Source/gd32e23x_usart.c **** */
1026:Drivers/GD32E23x/Source/gd32e23x_usart.c **** void usart_wakeup_mode_config(uint32_t usart_periph, uint32_t wum)
1027:Drivers/GD32E23x/Source/gd32e23x_usart.c **** {
 2432              		.loc 1 1027 1 is_stmt 1 view -0
 2433              		.cfi_startproc
 2434              		@ args = 0, pretend = 0, frame = 0
 2435              		@ frame_needed = 0, uses_anonymous_args = 0
 2436              		@ link register save eliminated.
1028:Drivers/GD32E23x/Source/gd32e23x_usart.c ****     /* disable USART */
1029:Drivers/GD32E23x/Source/gd32e23x_usart.c ****     USART_CTL0(usart_periph) &= ~(USART_CTL0_UEN);
 2437              		.loc 1 1029 5 view .LVU477
 2438 0000 0368     		ldr	r3, [r0]
 2439              		.loc 1 1029 30 is_stmt 0 view .LVU478
 2440 0002 0122     		movs	r2, #1
 2441 0004 9343     		bics	r3, r2
 2442 0006 0360     		str	r3, [r0]
1030:Drivers/GD32E23x/Source/gd32e23x_usart.c ****     /* reset WUM bit */
1031:Drivers/GD32E23x/Source/gd32e23x_usart.c ****     USART_CTL2(usart_periph) &= ~(USART_CTL2_WUM);
 2443              		.loc 1 1031 5 is_stmt 1 view .LVU479
 2444 0008 8368     		ldr	r3, [r0, #8]
 2445              		.loc 1 1031 30 is_stmt 0 view .LVU480
 2446 000a 054A     		ldr	r2, .L125
 2447 000c 1340     		ands	r3, r2
 2448 000e 8360     		str	r3, [r0, #8]
1032:Drivers/GD32E23x/Source/gd32e23x_usart.c ****     USART_CTL2(usart_periph) |= USART_CTL2_WUM & (wum);
 2449              		.loc 1 1032 5 is_stmt 1 view .LVU481
 2450 0010 8368     		ldr	r3, [r0, #8]
 2451              		.loc 1 1032 48 is_stmt 0 view .LVU482
 2452 0012 C022     		movs	r2, #192
 2453 0014 9203     		lsls	r2, r2, #14
 2454 0016 1140     		ands	r1, r2
 2455              	.LVL102:
 2456              		.loc 1 1032 30 view .LVU483
 2457 0018 0B43     		orrs	r3, r1
 2458 001a 8360     		str	r3, [r0, #8]
1033:Drivers/GD32E23x/Source/gd32e23x_usart.c **** }
 2459              		.loc 1 1033 1 view .LVU484
 2460              		@ sp needed
 2461 001c 7047     		bx	lr
 2462              	.L126:
 2463 001e C046     		.align	2
 2464              	.L125:
 2465 0020 FFFFCFFF 		.word	-3145729
 2466              		.cfi_endproc
 2467              	.LFE120:
 2469              		.section	.text.usart_receive_fifo_enable,"ax",%progbits
ARM GAS  D:\noval\Temp\ccDqp2rO.s 			page 61


 2470              		.align	1
 2471              		.global	usart_receive_fifo_enable
 2472              		.syntax unified
 2473              		.code	16
 2474              		.thumb_func
 2476              	usart_receive_fifo_enable:
 2477              	.LVL103:
 2478              	.LFB121:
1034:Drivers/GD32E23x/Source/gd32e23x_usart.c **** 
1035:Drivers/GD32E23x/Source/gd32e23x_usart.c **** /*!
1036:Drivers/GD32E23x/Source/gd32e23x_usart.c ****     \brief      enable receive FIFO
1037:Drivers/GD32E23x/Source/gd32e23x_usart.c ****     \param[in]  usart_periph: USARTx(x=0,1)
1038:Drivers/GD32E23x/Source/gd32e23x_usart.c ****     \param[out] none
1039:Drivers/GD32E23x/Source/gd32e23x_usart.c ****     \retval     none
1040:Drivers/GD32E23x/Source/gd32e23x_usart.c **** */
1041:Drivers/GD32E23x/Source/gd32e23x_usart.c **** void usart_receive_fifo_enable(uint32_t usart_periph)
1042:Drivers/GD32E23x/Source/gd32e23x_usart.c **** {
 2479              		.loc 1 1042 1 is_stmt 1 view -0
 2480              		.cfi_startproc
 2481              		@ args = 0, pretend = 0, frame = 0
 2482              		@ frame_needed = 0, uses_anonymous_args = 0
 2483              		@ link register save eliminated.
1043:Drivers/GD32E23x/Source/gd32e23x_usart.c ****     USART_RFCS(usart_periph) |= USART_RFCS_RFEN;
 2484              		.loc 1 1043 5 view .LVU486
 2485 0000 D030     		adds	r0, r0, #208
 2486              	.LVL104:
 2487              		.loc 1 1043 5 is_stmt 0 view .LVU487
 2488 0002 0368     		ldr	r3, [r0]
 2489              		.loc 1 1043 30 view .LVU488
 2490 0004 40F20012 		movw	r2, #256
 2491 0008 1343     		orrs	r3, r2
 2492 000a 0360     		str	r3, [r0]
1044:Drivers/GD32E23x/Source/gd32e23x_usart.c **** }
 2493              		.loc 1 1044 1 view .LVU489
 2494              		@ sp needed
 2495 000c 7047     		bx	lr
 2496              		.cfi_endproc
 2497              	.LFE121:
 2499              		.section	.text.usart_receive_fifo_disable,"ax",%progbits
 2500              		.align	1
 2501              		.global	usart_receive_fifo_disable
 2502              		.syntax unified
 2503              		.code	16
 2504              		.thumb_func
 2506              	usart_receive_fifo_disable:
 2507              	.LVL105:
 2508              	.LFB122:
1045:Drivers/GD32E23x/Source/gd32e23x_usart.c **** 
1046:Drivers/GD32E23x/Source/gd32e23x_usart.c **** /*!
1047:Drivers/GD32E23x/Source/gd32e23x_usart.c ****     \brief      disable receive FIFO
1048:Drivers/GD32E23x/Source/gd32e23x_usart.c ****     \param[in]  usart_periph: USARTx(x=0,1)
1049:Drivers/GD32E23x/Source/gd32e23x_usart.c ****     \param[out] none
1050:Drivers/GD32E23x/Source/gd32e23x_usart.c ****     \retval     none
1051:Drivers/GD32E23x/Source/gd32e23x_usart.c **** */
1052:Drivers/GD32E23x/Source/gd32e23x_usart.c **** void usart_receive_fifo_disable(uint32_t usart_periph)
1053:Drivers/GD32E23x/Source/gd32e23x_usart.c **** {
 2509              		.loc 1 1053 1 is_stmt 1 view -0
ARM GAS  D:\noval\Temp\ccDqp2rO.s 			page 62


 2510              		.cfi_startproc
 2511              		@ args = 0, pretend = 0, frame = 0
 2512              		@ frame_needed = 0, uses_anonymous_args = 0
 2513              		@ link register save eliminated.
1054:Drivers/GD32E23x/Source/gd32e23x_usart.c ****     USART_RFCS(usart_periph) &= ~(USART_RFCS_RFEN);
 2514              		.loc 1 1054 5 view .LVU491
 2515 0000 D030     		adds	r0, r0, #208
 2516              	.LVL106:
 2517              		.loc 1 1054 5 is_stmt 0 view .LVU492
 2518 0002 0368     		ldr	r3, [r0]
 2519              		.loc 1 1054 30 view .LVU493
 2520 0004 014A     		ldr	r2, .L129
 2521 0006 1340     		ands	r3, r2
 2522 0008 0360     		str	r3, [r0]
1055:Drivers/GD32E23x/Source/gd32e23x_usart.c **** }
 2523              		.loc 1 1055 1 view .LVU494
 2524              		@ sp needed
 2525 000a 7047     		bx	lr
 2526              	.L130:
 2527              		.align	2
 2528              	.L129:
 2529 000c FFFEFFFF 		.word	-257
 2530              		.cfi_endproc
 2531              	.LFE122:
 2533              		.section	.text.usart_receive_fifo_counter_number,"ax",%progbits
 2534              		.align	1
 2535              		.global	usart_receive_fifo_counter_number
 2536              		.syntax unified
 2537              		.code	16
 2538              		.thumb_func
 2540              	usart_receive_fifo_counter_number:
 2541              	.LVL107:
 2542              	.LFB123:
1056:Drivers/GD32E23x/Source/gd32e23x_usart.c **** 
1057:Drivers/GD32E23x/Source/gd32e23x_usart.c **** /*!
1058:Drivers/GD32E23x/Source/gd32e23x_usart.c ****     \brief      read receive FIFO counter number
1059:Drivers/GD32E23x/Source/gd32e23x_usart.c ****     \param[in]  usart_periph: USARTx(x=0,1)
1060:Drivers/GD32E23x/Source/gd32e23x_usart.c ****     \param[out] none
1061:Drivers/GD32E23x/Source/gd32e23x_usart.c ****     \retval     receive FIFO counter number
1062:Drivers/GD32E23x/Source/gd32e23x_usart.c **** */
1063:Drivers/GD32E23x/Source/gd32e23x_usart.c **** uint8_t usart_receive_fifo_counter_number(uint32_t usart_periph)
1064:Drivers/GD32E23x/Source/gd32e23x_usart.c **** {
 2543              		.loc 1 1064 1 is_stmt 1 view -0
 2544              		.cfi_startproc
 2545              		@ args = 0, pretend = 0, frame = 0
 2546              		@ frame_needed = 0, uses_anonymous_args = 0
 2547              		@ link register save eliminated.
1065:Drivers/GD32E23x/Source/gd32e23x_usart.c ****     return (uint8_t)(GET_BITS(USART_RFCS(usart_periph), 12U, 14U));
 2548              		.loc 1 1065 5 view .LVU496
 2549              		.loc 1 1065 22 is_stmt 0 view .LVU497
 2550 0000 D030     		adds	r0, r0, #208
 2551              	.LVL108:
 2552              		.loc 1 1065 22 view .LVU498
 2553 0002 0368     		ldr	r3, [r0]
 2554 0004 1B0B     		lsrs	r3, r3, #12
 2555              		.loc 1 1065 12 discriminator 1 view .LVU499
 2556 0006 0720     		movs	r0, #7
ARM GAS  D:\noval\Temp\ccDqp2rO.s 			page 63


 2557              	.LVL109:
 2558              		.loc 1 1065 12 discriminator 1 view .LVU500
 2559 0008 1840     		ands	r0, r3
1066:Drivers/GD32E23x/Source/gd32e23x_usart.c **** }
 2560              		.loc 1 1066 1 view .LVU501
 2561              		@ sp needed
 2562 000a 7047     		bx	lr
 2563              		.cfi_endproc
 2564              	.LFE123:
 2566              		.section	.text.usart_flag_get,"ax",%progbits
 2567              		.align	1
 2568              		.global	usart_flag_get
 2569              		.syntax unified
 2570              		.code	16
 2571              		.thumb_func
 2573              	usart_flag_get:
 2574              	.LVL110:
 2575              	.LFB124:
1067:Drivers/GD32E23x/Source/gd32e23x_usart.c **** 
1068:Drivers/GD32E23x/Source/gd32e23x_usart.c **** /*!
1069:Drivers/GD32E23x/Source/gd32e23x_usart.c ****     \brief      get flag in STAT/CHC/RFCS register
1070:Drivers/GD32E23x/Source/gd32e23x_usart.c ****     \param[in]  usart_periph: USARTx(x=0,1)
1071:Drivers/GD32E23x/Source/gd32e23x_usart.c ****     \param[in]  flag: flag type
1072:Drivers/GD32E23x/Source/gd32e23x_usart.c ****                 only one parameter can be selected which is shown as below:
1073:Drivers/GD32E23x/Source/gd32e23x_usart.c ****       \arg        USART_FLAG_PERR: parity error flag
1074:Drivers/GD32E23x/Source/gd32e23x_usart.c ****       \arg        USART_FLAG_FERR: frame error flag
1075:Drivers/GD32E23x/Source/gd32e23x_usart.c ****       \arg        USART_FLAG_NERR: noise error flag
1076:Drivers/GD32E23x/Source/gd32e23x_usart.c ****       \arg        USART_FLAG_ORERR: overrun error
1077:Drivers/GD32E23x/Source/gd32e23x_usart.c ****       \arg        USART_FLAG_IDLE: idle line detected flag
1078:Drivers/GD32E23x/Source/gd32e23x_usart.c ****       \arg        USART_FLAG_RBNE: read data buffer not empty
1079:Drivers/GD32E23x/Source/gd32e23x_usart.c ****       \arg        USART_FLAG_TC: transmission completed
1080:Drivers/GD32E23x/Source/gd32e23x_usart.c ****       \arg        USART_FLAG_TBE: transmit data register empty
1081:Drivers/GD32E23x/Source/gd32e23x_usart.c ****       \arg        USART_FLAG_LBD: LIN break detected flag
1082:Drivers/GD32E23x/Source/gd32e23x_usart.c ****       \arg        USART_FLAG_CTSF: CTS change flag
1083:Drivers/GD32E23x/Source/gd32e23x_usart.c ****       \arg        USART_FLAG_CTS: CTS level
1084:Drivers/GD32E23x/Source/gd32e23x_usart.c ****       \arg        USART_FLAG_RT: receiver timeout flag
1085:Drivers/GD32E23x/Source/gd32e23x_usart.c ****       \arg        USART_FLAG_EB: end of block flag
1086:Drivers/GD32E23x/Source/gd32e23x_usart.c ****       \arg        USART_FLAG_BSY: busy flag
1087:Drivers/GD32E23x/Source/gd32e23x_usart.c ****       \arg        USART_FLAG_AM: address match flag
1088:Drivers/GD32E23x/Source/gd32e23x_usart.c ****       \arg        USART_FLAG_SB: send break flag
1089:Drivers/GD32E23x/Source/gd32e23x_usart.c ****       \arg        USART_FLAG_RWU: receiver wakeup from mute mode.
1090:Drivers/GD32E23x/Source/gd32e23x_usart.c ****       \arg        USART_FLAG_WU: wakeup from deep-sleep mode flag
1091:Drivers/GD32E23x/Source/gd32e23x_usart.c ****       \arg        USART_FLAG_TEA: transmit enable acknowledge flag
1092:Drivers/GD32E23x/Source/gd32e23x_usart.c ****       \arg        USART_FLAG_REA: receive enable acknowledge flag 
1093:Drivers/GD32E23x/Source/gd32e23x_usart.c ****       \arg        USART_FLAG_EPERR: early parity error flag
1094:Drivers/GD32E23x/Source/gd32e23x_usart.c ****       \arg        USART_FLAG_RFE: receive FIFO empty flag
1095:Drivers/GD32E23x/Source/gd32e23x_usart.c ****       \arg        USART_FLAG_RFF: receive FIFO full flag
1096:Drivers/GD32E23x/Source/gd32e23x_usart.c ****       \arg        USART_FLAG_RFFINT: receive FIFO full interrupt flag
1097:Drivers/GD32E23x/Source/gd32e23x_usart.c ****     \param[out] none
1098:Drivers/GD32E23x/Source/gd32e23x_usart.c ****     \retval     FlagStatus: SET or RESET
1099:Drivers/GD32E23x/Source/gd32e23x_usart.c **** */
1100:Drivers/GD32E23x/Source/gd32e23x_usart.c **** FlagStatus usart_flag_get(uint32_t usart_periph, usart_flag_enum flag)
1101:Drivers/GD32E23x/Source/gd32e23x_usart.c **** {
 2576              		.loc 1 1101 1 is_stmt 1 view -0
 2577              		.cfi_startproc
 2578              		@ args = 0, pretend = 0, frame = 0
 2579              		@ frame_needed = 0, uses_anonymous_args = 0
ARM GAS  D:\noval\Temp\ccDqp2rO.s 			page 64


 2580              		@ link register save eliminated.
1102:Drivers/GD32E23x/Source/gd32e23x_usart.c ****     if(RESET != (USART_REG_VAL(usart_periph, flag) & BIT(USART_BIT_POS(flag)))){
 2581              		.loc 1 1102 5 view .LVU503
 2582              		.loc 1 1102 18 is_stmt 0 view .LVU504
 2583 0000 8B09     		lsrs	r3, r1, #6
 2584 0002 1B18     		adds	r3, r3, r0
 2585 0004 1B68     		ldr	r3, [r3]
 2586              		.loc 1 1102 54 view .LVU505
 2587 0006 1F22     		movs	r2, #31
 2588 0008 0A40     		ands	r2, r1
 2589              		.loc 1 1102 14 view .LVU506
 2590 000a D340     		lsrs	r3, r3, r2
 2591              		.loc 1 1102 7 view .LVU507
 2592 000c DB07     		lsls	r3, r3, #31
 2593 000e 01D5     		bpl	.L134
1103:Drivers/GD32E23x/Source/gd32e23x_usart.c ****         return SET;
 2594              		.loc 1 1103 16 view .LVU508
 2595 0010 0120     		movs	r0, #1
 2596              	.LVL111:
 2597              	.L133:
1104:Drivers/GD32E23x/Source/gd32e23x_usart.c ****     }else{
1105:Drivers/GD32E23x/Source/gd32e23x_usart.c ****         return RESET;
1106:Drivers/GD32E23x/Source/gd32e23x_usart.c ****     }
1107:Drivers/GD32E23x/Source/gd32e23x_usart.c **** }
 2598              		.loc 1 1107 1 view .LVU509
 2599              		@ sp needed
 2600 0012 7047     		bx	lr
 2601              	.LVL112:
 2602              	.L134:
1105:Drivers/GD32E23x/Source/gd32e23x_usart.c ****     }
 2603              		.loc 1 1105 16 view .LVU510
 2604 0014 0020     		movs	r0, #0
 2605              	.LVL113:
1105:Drivers/GD32E23x/Source/gd32e23x_usart.c ****     }
 2606              		.loc 1 1105 16 view .LVU511
 2607 0016 FCE7     		b	.L133
 2608              		.cfi_endproc
 2609              	.LFE124:
 2611              		.section	.text.usart_flag_clear,"ax",%progbits
 2612              		.align	1
 2613              		.global	usart_flag_clear
 2614              		.syntax unified
 2615              		.code	16
 2616              		.thumb_func
 2618              	usart_flag_clear:
 2619              	.LVL114:
 2620              	.LFB125:
1108:Drivers/GD32E23x/Source/gd32e23x_usart.c **** 
1109:Drivers/GD32E23x/Source/gd32e23x_usart.c **** /*!
1110:Drivers/GD32E23x/Source/gd32e23x_usart.c ****     \brief      clear USART status
1111:Drivers/GD32E23x/Source/gd32e23x_usart.c ****     \param[in]  usart_periph: USARTx(x=0,1)
1112:Drivers/GD32E23x/Source/gd32e23x_usart.c ****     \param[in]  flag: flag type
1113:Drivers/GD32E23x/Source/gd32e23x_usart.c ****                 only one parameter can be selected which is shown as below:
1114:Drivers/GD32E23x/Source/gd32e23x_usart.c ****       \arg        USART_FLAG_PERR: parity error flag
1115:Drivers/GD32E23x/Source/gd32e23x_usart.c ****       \arg        USART_FLAG_FERR: frame error flag
1116:Drivers/GD32E23x/Source/gd32e23x_usart.c ****       \arg        USART_FLAG_NERR: noise detected flag
1117:Drivers/GD32E23x/Source/gd32e23x_usart.c ****       \arg        USART_FLAG_ORERR: overrun error flag
ARM GAS  D:\noval\Temp\ccDqp2rO.s 			page 65


1118:Drivers/GD32E23x/Source/gd32e23x_usart.c ****       \arg        USART_FLAG_IDLE: idle line detected flag
1119:Drivers/GD32E23x/Source/gd32e23x_usart.c ****       \arg        USART_FLAG_TC: transmission complete flag
1120:Drivers/GD32E23x/Source/gd32e23x_usart.c ****       \arg        USART_FLAG_LBD: LIN break detected flag
1121:Drivers/GD32E23x/Source/gd32e23x_usart.c ****       \arg        USART_FLAG_CTSF: CTS change flag
1122:Drivers/GD32E23x/Source/gd32e23x_usart.c ****       \arg        USART_FLAG_RT: receiver timeout flag
1123:Drivers/GD32E23x/Source/gd32e23x_usart.c ****       \arg        USART_FLAG_EB: end of block flag
1124:Drivers/GD32E23x/Source/gd32e23x_usart.c ****       \arg        USART_FLAG_AM: address match flag
1125:Drivers/GD32E23x/Source/gd32e23x_usart.c ****       \arg        USART_FLAG_WU: wakeup from deep-sleep mode flag
1126:Drivers/GD32E23x/Source/gd32e23x_usart.c ****       \arg        USART_FLAG_EPERR: early parity error flag
1127:Drivers/GD32E23x/Source/gd32e23x_usart.c ****     \param[out] none
1128:Drivers/GD32E23x/Source/gd32e23x_usart.c ****     \retval     none
1129:Drivers/GD32E23x/Source/gd32e23x_usart.c **** */
1130:Drivers/GD32E23x/Source/gd32e23x_usart.c **** void usart_flag_clear(uint32_t usart_periph, usart_flag_enum flag)
1131:Drivers/GD32E23x/Source/gd32e23x_usart.c **** {
 2621              		.loc 1 1131 1 is_stmt 1 view -0
 2622              		.cfi_startproc
 2623              		@ args = 0, pretend = 0, frame = 0
 2624              		@ frame_needed = 0, uses_anonymous_args = 0
 2625              		@ link register save eliminated.
1132:Drivers/GD32E23x/Source/gd32e23x_usart.c ****     USART_INTC(usart_periph) |= BIT(USART_BIT_POS(flag));
 2626              		.loc 1 1132 5 view .LVU513
 2627 0000 036A     		ldr	r3, [r0, #32]
 2628              		.loc 1 1132 33 is_stmt 0 view .LVU514
 2629 0002 1F22     		movs	r2, #31
 2630 0004 1140     		ands	r1, r2
 2631              	.LVL115:
 2632              		.loc 1 1132 33 view .LVU515
 2633 0006 1E3A     		subs	r2, r2, #30
 2634 0008 8A40     		lsls	r2, r2, r1
 2635              		.loc 1 1132 30 view .LVU516
 2636 000a 1343     		orrs	r3, r2
 2637 000c 0362     		str	r3, [r0, #32]
1133:Drivers/GD32E23x/Source/gd32e23x_usart.c **** }
 2638              		.loc 1 1133 1 view .LVU517
 2639              		@ sp needed
 2640 000e 7047     		bx	lr
 2641              		.cfi_endproc
 2642              	.LFE125:
 2644              		.section	.text.usart_interrupt_enable,"ax",%progbits
 2645              		.align	1
 2646              		.global	usart_interrupt_enable
 2647              		.syntax unified
 2648              		.code	16
 2649              		.thumb_func
 2651              	usart_interrupt_enable:
 2652              	.LVL116:
 2653              	.LFB126:
1134:Drivers/GD32E23x/Source/gd32e23x_usart.c **** 
1135:Drivers/GD32E23x/Source/gd32e23x_usart.c **** /*!
1136:Drivers/GD32E23x/Source/gd32e23x_usart.c ****     \brief      enable USART interrupt
1137:Drivers/GD32E23x/Source/gd32e23x_usart.c ****     \param[in]  usart_periph: USARTx(x=0,1)
1138:Drivers/GD32E23x/Source/gd32e23x_usart.c ****     \param[in]  inttype: interrupt type
1139:Drivers/GD32E23x/Source/gd32e23x_usart.c ****                 only one parameter can be selected which is shown as below:
1140:Drivers/GD32E23x/Source/gd32e23x_usart.c ****       \arg        USART_INT_IDLE: idle interrupt
1141:Drivers/GD32E23x/Source/gd32e23x_usart.c ****       \arg        USART_INT_RBNE: read data buffer not empty interrupt and
1142:Drivers/GD32E23x/Source/gd32e23x_usart.c ****                                   overrun error interrupt enable interrupt
1143:Drivers/GD32E23x/Source/gd32e23x_usart.c ****       \arg        USART_INT_TC: transmission complete interrupt
ARM GAS  D:\noval\Temp\ccDqp2rO.s 			page 66


1144:Drivers/GD32E23x/Source/gd32e23x_usart.c ****       \arg        USART_INT_TBE: transmit data register empty interrupt
1145:Drivers/GD32E23x/Source/gd32e23x_usart.c ****       \arg        USART_INT_PERR: parity error interrupt
1146:Drivers/GD32E23x/Source/gd32e23x_usart.c ****       \arg        USART_INT_AM: address match interrupt
1147:Drivers/GD32E23x/Source/gd32e23x_usart.c ****       \arg        USART_INT_RT: receiver timeout interrupt
1148:Drivers/GD32E23x/Source/gd32e23x_usart.c ****       \arg        USART_INT_EB: end of block interrupt
1149:Drivers/GD32E23x/Source/gd32e23x_usart.c ****       \arg        USART_INT_LBD: LIN break detection interrupt
1150:Drivers/GD32E23x/Source/gd32e23x_usart.c ****       \arg        USART_INT_ERR: error interrupt enable in multibuffer communication
1151:Drivers/GD32E23x/Source/gd32e23x_usart.c ****       \arg        USART_INT_CTS: CTS interrupt
1152:Drivers/GD32E23x/Source/gd32e23x_usart.c ****       \arg        USART_INT_WU: wakeup from deep-sleep mode interrupt
1153:Drivers/GD32E23x/Source/gd32e23x_usart.c ****       \arg        USART_INT_RFF: receive FIFO full interrupt enable
1154:Drivers/GD32E23x/Source/gd32e23x_usart.c ****     \param[out] none
1155:Drivers/GD32E23x/Source/gd32e23x_usart.c ****     \retval     none
1156:Drivers/GD32E23x/Source/gd32e23x_usart.c **** */
1157:Drivers/GD32E23x/Source/gd32e23x_usart.c **** void usart_interrupt_enable(uint32_t usart_periph, usart_interrupt_enum interrupt)
1158:Drivers/GD32E23x/Source/gd32e23x_usart.c **** {
 2654              		.loc 1 1158 1 is_stmt 1 view -0
 2655              		.cfi_startproc
 2656              		@ args = 0, pretend = 0, frame = 0
 2657              		@ frame_needed = 0, uses_anonymous_args = 0
 2658              		@ link register save eliminated.
1159:Drivers/GD32E23x/Source/gd32e23x_usart.c ****     USART_REG_VAL(usart_periph, interrupt) |= BIT(USART_BIT_POS(interrupt));
 2659              		.loc 1 1159 5 view .LVU519
 2660 0000 8B09     		lsrs	r3, r1, #6
 2661 0002 1818     		adds	r0, r3, r0
 2662              	.LVL117:
 2663              		.loc 1 1159 5 is_stmt 0 view .LVU520
 2664 0004 0368     		ldr	r3, [r0]
 2665              		.loc 1 1159 47 view .LVU521
 2666 0006 1F22     		movs	r2, #31
 2667 0008 1140     		ands	r1, r2
 2668              	.LVL118:
 2669              		.loc 1 1159 47 view .LVU522
 2670 000a 1E3A     		subs	r2, r2, #30
 2671 000c 8A40     		lsls	r2, r2, r1
 2672              		.loc 1 1159 44 view .LVU523
 2673 000e 1343     		orrs	r3, r2
 2674 0010 0360     		str	r3, [r0]
1160:Drivers/GD32E23x/Source/gd32e23x_usart.c **** }
 2675              		.loc 1 1160 1 view .LVU524
 2676              		@ sp needed
 2677 0012 7047     		bx	lr
 2678              		.cfi_endproc
 2679              	.LFE126:
 2681              		.section	.text.usart_interrupt_disable,"ax",%progbits
 2682              		.align	1
 2683              		.global	usart_interrupt_disable
 2684              		.syntax unified
 2685              		.code	16
 2686              		.thumb_func
 2688              	usart_interrupt_disable:
 2689              	.LVL119:
 2690              	.LFB127:
1161:Drivers/GD32E23x/Source/gd32e23x_usart.c **** 
1162:Drivers/GD32E23x/Source/gd32e23x_usart.c **** /*!
1163:Drivers/GD32E23x/Source/gd32e23x_usart.c ****     \brief      disable USART interrupt
1164:Drivers/GD32E23x/Source/gd32e23x_usart.c ****     \param[in]  usart_periph: USARTx(x=0,1)
1165:Drivers/GD32E23x/Source/gd32e23x_usart.c ****     \param[in]  inttype: interrupt type
ARM GAS  D:\noval\Temp\ccDqp2rO.s 			page 67


1166:Drivers/GD32E23x/Source/gd32e23x_usart.c ****                 only one parameter can be selected which is shown as below:
1167:Drivers/GD32E23x/Source/gd32e23x_usart.c ****       \arg        USART_INT_IDLE: idle interrupt
1168:Drivers/GD32E23x/Source/gd32e23x_usart.c ****       \arg        USART_INT_RBNE: read data buffer not empty interrupt and
1169:Drivers/GD32E23x/Source/gd32e23x_usart.c ****                                   overrun error interrupt
1170:Drivers/GD32E23x/Source/gd32e23x_usart.c ****       \arg        USART_INT_TC: transmission complete interrupt
1171:Drivers/GD32E23x/Source/gd32e23x_usart.c ****       \arg        USART_INT_TBE: transmit data register empty interrupt
1172:Drivers/GD32E23x/Source/gd32e23x_usart.c ****       \arg        USART_INT_PERR: parity error interrupt
1173:Drivers/GD32E23x/Source/gd32e23x_usart.c ****       \arg        USART_INT_AM: address match interrupt
1174:Drivers/GD32E23x/Source/gd32e23x_usart.c ****       \arg        USART_INT_RT: receiver timeout interrupt
1175:Drivers/GD32E23x/Source/gd32e23x_usart.c ****       \arg        USART_INT_EB: end of block interrupt
1176:Drivers/GD32E23x/Source/gd32e23x_usart.c ****       \arg        USART_INT_LBD: LIN break detection interrupt
1177:Drivers/GD32E23x/Source/gd32e23x_usart.c ****       \arg        USART_INT_ERR: error interrupt enable in multibuffer communication
1178:Drivers/GD32E23x/Source/gd32e23x_usart.c ****       \arg        USART_INT_CTS: CTS interrupt
1179:Drivers/GD32E23x/Source/gd32e23x_usart.c ****       \arg        USART_INT_WU: wakeup from deep-sleep mode interrupt
1180:Drivers/GD32E23x/Source/gd32e23x_usart.c ****       \arg        USART_INT_RFF: receive FIFO full interrupt enable
1181:Drivers/GD32E23x/Source/gd32e23x_usart.c ****     \param[out] none
1182:Drivers/GD32E23x/Source/gd32e23x_usart.c ****     \retval     none
1183:Drivers/GD32E23x/Source/gd32e23x_usart.c **** */
1184:Drivers/GD32E23x/Source/gd32e23x_usart.c **** void usart_interrupt_disable(uint32_t usart_periph, usart_interrupt_enum interrupt)
1185:Drivers/GD32E23x/Source/gd32e23x_usart.c **** {
 2691              		.loc 1 1185 1 is_stmt 1 view -0
 2692              		.cfi_startproc
 2693              		@ args = 0, pretend = 0, frame = 0
 2694              		@ frame_needed = 0, uses_anonymous_args = 0
 2695              		@ link register save eliminated.
1186:Drivers/GD32E23x/Source/gd32e23x_usart.c ****     USART_REG_VAL(usart_periph, interrupt) &= ~BIT(USART_BIT_POS(interrupt));
 2696              		.loc 1 1186 5 view .LVU526
 2697 0000 8B09     		lsrs	r3, r1, #6
 2698 0002 1818     		adds	r0, r3, r0
 2699              	.LVL120:
 2700              		.loc 1 1186 5 is_stmt 0 view .LVU527
 2701 0004 0368     		ldr	r3, [r0]
 2702              		.loc 1 1186 48 view .LVU528
 2703 0006 1F22     		movs	r2, #31
 2704 0008 1140     		ands	r1, r2
 2705              	.LVL121:
 2706              		.loc 1 1186 48 view .LVU529
 2707 000a 1E3A     		subs	r2, r2, #30
 2708 000c 8A40     		lsls	r2, r2, r1
 2709              		.loc 1 1186 44 view .LVU530
 2710 000e 9343     		bics	r3, r2
 2711 0010 0360     		str	r3, [r0]
1187:Drivers/GD32E23x/Source/gd32e23x_usart.c **** }
 2712              		.loc 1 1187 1 view .LVU531
 2713              		@ sp needed
 2714 0012 7047     		bx	lr
 2715              		.cfi_endproc
 2716              	.LFE127:
 2718              		.section	.text.usart_command_enable,"ax",%progbits
 2719              		.align	1
 2720              		.global	usart_command_enable
 2721              		.syntax unified
 2722              		.code	16
 2723              		.thumb_func
 2725              	usart_command_enable:
 2726              	.LVL122:
 2727              	.LFB128:
ARM GAS  D:\noval\Temp\ccDqp2rO.s 			page 68


1188:Drivers/GD32E23x/Source/gd32e23x_usart.c **** 
1189:Drivers/GD32E23x/Source/gd32e23x_usart.c **** /*!
1190:Drivers/GD32E23x/Source/gd32e23x_usart.c ****     \brief      enable USART command
1191:Drivers/GD32E23x/Source/gd32e23x_usart.c ****     \param[in]  usart_periph: USARTx(x=0,1)
1192:Drivers/GD32E23x/Source/gd32e23x_usart.c ****     \param[in]  cmdtype: command type
1193:Drivers/GD32E23x/Source/gd32e23x_usart.c ****                 only one parameter can be selected which is shown as below:
1194:Drivers/GD32E23x/Source/gd32e23x_usart.c ****       \arg        USART_CMD_SBKCMD: send break command
1195:Drivers/GD32E23x/Source/gd32e23x_usart.c ****       \arg        USART_CMD_MMCMD: mute mode command
1196:Drivers/GD32E23x/Source/gd32e23x_usart.c ****       \arg        USART_CMD_RXFCMD: receive data flush command
1197:Drivers/GD32E23x/Source/gd32e23x_usart.c ****       \arg        USART_CMD_TXFCMD: transmit data flush request
1198:Drivers/GD32E23x/Source/gd32e23x_usart.c ****     \param[out] none
1199:Drivers/GD32E23x/Source/gd32e23x_usart.c ****     \retval     none
1200:Drivers/GD32E23x/Source/gd32e23x_usart.c **** */
1201:Drivers/GD32E23x/Source/gd32e23x_usart.c **** void usart_command_enable(uint32_t usart_periph, uint32_t cmdtype)
1202:Drivers/GD32E23x/Source/gd32e23x_usart.c **** {
 2728              		.loc 1 1202 1 is_stmt 1 view -0
 2729              		.cfi_startproc
 2730              		@ args = 0, pretend = 0, frame = 0
 2731              		@ frame_needed = 0, uses_anonymous_args = 0
 2732              		@ link register save eliminated.
1203:Drivers/GD32E23x/Source/gd32e23x_usart.c ****     USART_CMD(usart_periph) |= (cmdtype);   
 2733              		.loc 1 1203 5 view .LVU533
 2734 0000 8369     		ldr	r3, [r0, #24]
 2735              		.loc 1 1203 29 is_stmt 0 view .LVU534
 2736 0002 0B43     		orrs	r3, r1
 2737 0004 8361     		str	r3, [r0, #24]
1204:Drivers/GD32E23x/Source/gd32e23x_usart.c **** }
 2738              		.loc 1 1204 1 view .LVU535
 2739              		@ sp needed
 2740 0006 7047     		bx	lr
 2741              		.cfi_endproc
 2742              	.LFE128:
 2744              		.section	.text.usart_interrupt_flag_get,"ax",%progbits
 2745              		.align	1
 2746              		.global	usart_interrupt_flag_get
 2747              		.syntax unified
 2748              		.code	16
 2749              		.thumb_func
 2751              	usart_interrupt_flag_get:
 2752              	.LVL123:
 2753              	.LFB129:
1205:Drivers/GD32E23x/Source/gd32e23x_usart.c **** 
1206:Drivers/GD32E23x/Source/gd32e23x_usart.c **** /*!
1207:Drivers/GD32E23x/Source/gd32e23x_usart.c ****     \brief      get USART interrupt and flag status
1208:Drivers/GD32E23x/Source/gd32e23x_usart.c ****     \param[in]  usart_periph: USARTx(x=0,1)
1209:Drivers/GD32E23x/Source/gd32e23x_usart.c ****     \param[in]  int_flag: interrupt and flag type, refer to usart_interrupt_flag_enum
1210:Drivers/GD32E23x/Source/gd32e23x_usart.c ****                 only one parameter can be selected which is shown as below:
1211:Drivers/GD32E23x/Source/gd32e23x_usart.c ****       \arg        USART_INT_FLAG_EB: end of block interrupt and flag
1212:Drivers/GD32E23x/Source/gd32e23x_usart.c ****       \arg        USART_INT_FLAG_RT: receiver timeout interrupt and flag
1213:Drivers/GD32E23x/Source/gd32e23x_usart.c ****       \arg        USART_INT_FLAG_AM: address match interrupt and flag 
1214:Drivers/GD32E23x/Source/gd32e23x_usart.c ****       \arg        USART_INT_FLAG_PERR: parity error interrupt and flag 
1215:Drivers/GD32E23x/Source/gd32e23x_usart.c ****       \arg        USART_INT_FLAG_TBE: transmitter buffer empty interrupt and flag 
1216:Drivers/GD32E23x/Source/gd32e23x_usart.c ****       \arg        USART_INT_FLAG_TC: transmission complete interrupt and flag
1217:Drivers/GD32E23x/Source/gd32e23x_usart.c ****       \arg        USART_INT_FLAG_RBNE: read data buffer not empty interrupt and flag
1218:Drivers/GD32E23x/Source/gd32e23x_usart.c ****       \arg        USART_INT_FLAG_RBNE_ORERR: read data buffer not empty interrupt and overrun error
1219:Drivers/GD32E23x/Source/gd32e23x_usart.c ****       \arg        USART_INT_FLAG_IDLE: IDLE line detected interrupt and flag
1220:Drivers/GD32E23x/Source/gd32e23x_usart.c ****       \arg        USART_INT_FLAG_LBD: LIN break detected interrupt and flag 
ARM GAS  D:\noval\Temp\ccDqp2rO.s 			page 69


1221:Drivers/GD32E23x/Source/gd32e23x_usart.c ****       \arg        USART_INT_FLAG_WU: wakeup from deep-sleep mode interrupt and flag
1222:Drivers/GD32E23x/Source/gd32e23x_usart.c ****       \arg        USART_INT_FLAG_CTS: CTS interrupt and flag
1223:Drivers/GD32E23x/Source/gd32e23x_usart.c ****       \arg        USART_INT_FLAG_ERR_NERR: error interrupt and noise error flag
1224:Drivers/GD32E23x/Source/gd32e23x_usart.c ****       \arg        USART_INT_FLAG_ERR_ORERR: error interrupt and overrun error
1225:Drivers/GD32E23x/Source/gd32e23x_usart.c ****       \arg        USART_INT_FLAG_ERR_FERR: error interrupt and frame error flag
1226:Drivers/GD32E23x/Source/gd32e23x_usart.c ****       \arg        USART_INT_FLAG_RFF: receive FIFO full interrupt and flag
1227:Drivers/GD32E23x/Source/gd32e23x_usart.c ****     \param[out] none
1228:Drivers/GD32E23x/Source/gd32e23x_usart.c ****     \retval     FlagStatus: SET or RESET
1229:Drivers/GD32E23x/Source/gd32e23x_usart.c **** */
1230:Drivers/GD32E23x/Source/gd32e23x_usart.c **** FlagStatus usart_interrupt_flag_get(uint32_t usart_periph, usart_interrupt_flag_enum int_flag)
1231:Drivers/GD32E23x/Source/gd32e23x_usart.c **** {
 2754              		.loc 1 1231 1 is_stmt 1 view -0
 2755              		.cfi_startproc
 2756              		@ args = 0, pretend = 0, frame = 0
 2757              		@ frame_needed = 0, uses_anonymous_args = 0
 2758              		.loc 1 1231 1 is_stmt 0 view .LVU537
 2759 0000 70B5     		push	{r4, r5, r6, lr}
 2760              	.LCFI3:
 2761              		.cfi_def_cfa_offset 16
 2762              		.cfi_offset 4, -16
 2763              		.cfi_offset 5, -12
 2764              		.cfi_offset 6, -8
 2765              		.cfi_offset 14, -4
1232:Drivers/GD32E23x/Source/gd32e23x_usart.c ****     uint32_t intenable = 0U, flagstatus = 0U;
 2766              		.loc 1 1232 5 is_stmt 1 view .LVU538
 2767              	.LVL124:
1233:Drivers/GD32E23x/Source/gd32e23x_usart.c ****     /* get the interrupt enable bit status */
1234:Drivers/GD32E23x/Source/gd32e23x_usart.c ****     intenable = (USART_REG_VAL(usart_periph, int_flag) & BIT(USART_BIT_POS(int_flag)));
 2768              		.loc 1 1234 5 view .LVU539
 2769              		.loc 1 1234 18 is_stmt 0 view .LVU540
 2770 0002 8A09     		lsrs	r2, r1, #6
 2771 0004 40F2FF33 		movw	r3, #1023
 2772 0008 1340     		ands	r3, r2
 2773 000a 1B18     		adds	r3, r3, r0
 2774 000c 1D68     		ldr	r5, [r3]
 2775              		.loc 1 1234 58 view .LVU541
 2776 000e 1F22     		movs	r2, #31
 2777 0010 1400     		movs	r4, r2
 2778 0012 0C40     		ands	r4, r1
 2779 0014 0123     		movs	r3, #1
 2780 0016 1E00     		movs	r6, r3
 2781 0018 A640     		lsls	r6, r6, r4
 2782              		.loc 1 1234 15 view .LVU542
 2783 001a 3540     		ands	r5, r6
 2784              	.LVL125:
1235:Drivers/GD32E23x/Source/gd32e23x_usart.c ****     /* get the corresponding flag bit status */
1236:Drivers/GD32E23x/Source/gd32e23x_usart.c ****     flagstatus = (USART_REG_VAL2(usart_periph, int_flag) & BIT(USART_BIT_POS2(int_flag)));
 2785              		.loc 1 1236 5 is_stmt 1 view .LVU543
 2786              		.loc 1 1236 19 is_stmt 0 view .LVU544
 2787 001c 8C0D     		lsrs	r4, r1, #22
 2788 001e 2018     		adds	r0, r4, r0
 2789              	.LVL126:
 2790              		.loc 1 1236 19 view .LVU545
 2791 0020 0068     		ldr	r0, [r0]
 2792              		.loc 1 1236 60 view .LVU546
 2793 0022 090C     		lsrs	r1, r1, #16
 2794              	.LVL127:
ARM GAS  D:\noval\Temp\ccDqp2rO.s 			page 70


 2795              		.loc 1 1236 60 view .LVU547
 2796 0024 0A40     		ands	r2, r1
 2797 0026 9340     		lsls	r3, r3, r2
 2798              	.LVL128:
1237:Drivers/GD32E23x/Source/gd32e23x_usart.c **** 
1238:Drivers/GD32E23x/Source/gd32e23x_usart.c ****     if(flagstatus && intenable){
 2799              		.loc 1 1238 5 is_stmt 1 view .LVU548
 2800              		.loc 1 1238 7 is_stmt 0 view .LVU549
 2801 0028 0342     		tst	r3, r0
 2802 002a 02D0     		beq	.L141
 2803              		.loc 1 1238 19 discriminator 1 view .LVU550
 2804 002c 1DB9     		cbnz	r5, .L142
1239:Drivers/GD32E23x/Source/gd32e23x_usart.c ****         return SET;
1240:Drivers/GD32E23x/Source/gd32e23x_usart.c ****     }else{
1241:Drivers/GD32E23x/Source/gd32e23x_usart.c ****         return RESET; 
 2805              		.loc 1 1241 16 view .LVU551
 2806 002e 0020     		movs	r0, #0
 2807              	.LVL129:
 2808              		.loc 1 1241 16 view .LVU552
 2809 0030 00E0     		b	.L140
 2810              	.LVL130:
 2811              	.L141:
 2812              		.loc 1 1241 16 view .LVU553
 2813 0032 0020     		movs	r0, #0
 2814              	.LVL131:
 2815              	.L140:
1242:Drivers/GD32E23x/Source/gd32e23x_usart.c ****     }
1243:Drivers/GD32E23x/Source/gd32e23x_usart.c **** }
 2816              		.loc 1 1243 1 view .LVU554
 2817              		@ sp needed
 2818              	.LVL132:
 2819              		.loc 1 1243 1 view .LVU555
 2820 0034 70BD     		pop	{r4, r5, r6, pc}
 2821              	.LVL133:
 2822              	.L142:
1239:Drivers/GD32E23x/Source/gd32e23x_usart.c ****         return SET;
 2823              		.loc 1 1239 16 view .LVU556
 2824 0036 0120     		movs	r0, #1
 2825              	.LVL134:
1239:Drivers/GD32E23x/Source/gd32e23x_usart.c ****         return SET;
 2826              		.loc 1 1239 16 view .LVU557
 2827 0038 FCE7     		b	.L140
 2828              		.cfi_endproc
 2829              	.LFE129:
 2831              		.section	.text.usart_interrupt_flag_clear,"ax",%progbits
 2832              		.align	1
 2833              		.global	usart_interrupt_flag_clear
 2834              		.syntax unified
 2835              		.code	16
 2836              		.thumb_func
 2838              	usart_interrupt_flag_clear:
 2839              	.LVL135:
 2840              	.LFB130:
1244:Drivers/GD32E23x/Source/gd32e23x_usart.c **** 
1245:Drivers/GD32E23x/Source/gd32e23x_usart.c **** /*!
1246:Drivers/GD32E23x/Source/gd32e23x_usart.c ****     \brief      clear USART interrupt flag
1247:Drivers/GD32E23x/Source/gd32e23x_usart.c ****     \param[in]  usart_periph: USARTx(x=0,1)
ARM GAS  D:\noval\Temp\ccDqp2rO.s 			page 71


1248:Drivers/GD32E23x/Source/gd32e23x_usart.c ****     \param[in]  flag: USART interrupt flag
1249:Drivers/GD32E23x/Source/gd32e23x_usart.c ****                 only one parameter can be selected which is shown as below:
1250:Drivers/GD32E23x/Source/gd32e23x_usart.c ****       \arg        USART_INT_FLAG_PERR: parity error flag
1251:Drivers/GD32E23x/Source/gd32e23x_usart.c ****       \arg        USART_INT_FLAG_ERR_FERR: frame error flag
1252:Drivers/GD32E23x/Source/gd32e23x_usart.c ****       \arg        USART_INT_FLAG_ERR_NERR: noise detected flag
1253:Drivers/GD32E23x/Source/gd32e23x_usart.c ****       \arg        USART_INT_FLAG_RBNE_ORERR: read data buffer not empty interrupt and overrun error
1254:Drivers/GD32E23x/Source/gd32e23x_usart.c ****       \arg        USART_INT_FLAG_ERR_ORERR: error interrupt and overrun error
1255:Drivers/GD32E23x/Source/gd32e23x_usart.c ****       \arg        USART_INT_FLAG_IDLE: idle line detected flag
1256:Drivers/GD32E23x/Source/gd32e23x_usart.c ****       \arg        USART_INT_FLAG_TC: transmission complete flag
1257:Drivers/GD32E23x/Source/gd32e23x_usart.c ****       \arg        USART_INT_FLAG_LBD: LIN break detected flag
1258:Drivers/GD32E23x/Source/gd32e23x_usart.c ****       \arg        USART_INT_FLAG_CTS: CTS change flag
1259:Drivers/GD32E23x/Source/gd32e23x_usart.c ****       \arg        USART_INT_FLAG_RT: receiver timeout flag
1260:Drivers/GD32E23x/Source/gd32e23x_usart.c ****       \arg        USART_INT_FLAG_EB: end of block flag
1261:Drivers/GD32E23x/Source/gd32e23x_usart.c ****       \arg        USART_INT_FLAG_AM: address match flag
1262:Drivers/GD32E23x/Source/gd32e23x_usart.c ****       \arg        USART_INT_FLAG_WU: wakeup from deep-sleep mode flag
1263:Drivers/GD32E23x/Source/gd32e23x_usart.c ****       \arg        USART_INT_FLAG_RFF: receive FIFO full interrupt and flag
1264:Drivers/GD32E23x/Source/gd32e23x_usart.c ****     \param[out] none
1265:Drivers/GD32E23x/Source/gd32e23x_usart.c ****     \retval     none
1266:Drivers/GD32E23x/Source/gd32e23x_usart.c **** */
1267:Drivers/GD32E23x/Source/gd32e23x_usart.c **** void usart_interrupt_flag_clear(uint32_t usart_periph, usart_interrupt_flag_enum flag)
1268:Drivers/GD32E23x/Source/gd32e23x_usart.c **** {
 2841              		.loc 1 1268 1 is_stmt 1 view -0
 2842              		.cfi_startproc
 2843              		@ args = 0, pretend = 0, frame = 0
 2844              		@ frame_needed = 0, uses_anonymous_args = 0
 2845              		@ link register save eliminated.
1269:Drivers/GD32E23x/Source/gd32e23x_usart.c ****     if(USART_INT_FLAG_RFF == flag){
 2846              		.loc 1 1269 5 view .LVU559
 2847              		.loc 1 1269 7 is_stmt 0 view .LVU560
 2848 0000 43F20943 		movw	r3, #13321
 2849 0004 C3F20F43 		movt	r3, 13327
 2850 0008 9942     		cmp	r1, r3
 2851 000a 08D0     		beq	.L146
1270:Drivers/GD32E23x/Source/gd32e23x_usart.c ****         USART_RFCS(usart_periph) &= (uint32_t)(~USART_RFCS_RFFINT);
1271:Drivers/GD32E23x/Source/gd32e23x_usart.c ****     }else{
1272:Drivers/GD32E23x/Source/gd32e23x_usart.c ****         USART_INTC(usart_periph) |= BIT(USART_BIT_POS2(flag));
 2852              		.loc 1 1272 9 is_stmt 1 view .LVU561
 2853 000c 036A     		ldr	r3, [r0, #32]
 2854              		.loc 1 1272 37 is_stmt 0 view .LVU562
 2855 000e 090C     		lsrs	r1, r1, #16
 2856              	.LVL136:
 2857              		.loc 1 1272 37 view .LVU563
 2858 0010 1F22     		movs	r2, #31
 2859 0012 1140     		ands	r1, r2
 2860 0014 1E3A     		subs	r2, r2, #30
 2861 0016 8A40     		lsls	r2, r2, r1
 2862              		.loc 1 1272 34 view .LVU564
 2863 0018 1343     		orrs	r3, r2
 2864 001a 0362     		str	r3, [r0, #32]
 2865              	.LVL137:
 2866              	.L143:
1273:Drivers/GD32E23x/Source/gd32e23x_usart.c ****     }
1274:Drivers/GD32E23x/Source/gd32e23x_usart.c **** }
 2867              		.loc 1 1274 1 view .LVU565
 2868              		@ sp needed
 2869 001c 7047     		bx	lr
 2870              	.LVL138:
ARM GAS  D:\noval\Temp\ccDqp2rO.s 			page 72


 2871              	.L146:
1270:Drivers/GD32E23x/Source/gd32e23x_usart.c ****         USART_RFCS(usart_periph) &= (uint32_t)(~USART_RFCS_RFFINT);
 2872              		.loc 1 1270 9 is_stmt 1 view .LVU566
 2873 001e D030     		adds	r0, r0, #208
 2874              	.LVL139:
1270:Drivers/GD32E23x/Source/gd32e23x_usart.c ****         USART_RFCS(usart_periph) &= (uint32_t)(~USART_RFCS_RFFINT);
 2875              		.loc 1 1270 9 is_stmt 0 view .LVU567
 2876 0020 0368     		ldr	r3, [r0]
1270:Drivers/GD32E23x/Source/gd32e23x_usart.c ****         USART_RFCS(usart_periph) &= (uint32_t)(~USART_RFCS_RFFINT);
 2877              		.loc 1 1270 34 view .LVU568
 2878 0022 024A     		ldr	r2, .L147
 2879 0024 1340     		ands	r3, r2
 2880 0026 0360     		str	r3, [r0]
 2881 0028 F8E7     		b	.L143
 2882              	.L148:
 2883 002a C046     		.align	2
 2884              	.L147:
 2885 002c FF7FFFFF 		.word	-32769
 2886              		.cfi_endproc
 2887              	.LFE130:
 2889              		.text
 2890              	.Letext0:
 2891              		.file 2 "D:/AppData/arm-gnu-toolchain-13.3.rel1-mingw-w64-i686-arm-none-eabi/arm-none-eabi/include
 2892              		.file 3 "D:/AppData/arm-gnu-toolchain-13.3.rel1-mingw-w64-i686-arm-none-eabi/arm-none-eabi/include
 2893              		.file 4 "Drivers/CMSIS/GD/GD32E23x/Include/gd32e23x.h"
 2894              		.file 5 "Drivers/GD32E23x/Include/gd32e23x_rcu.h"
 2895              		.file 6 "Drivers/GD32E23x/Include/gd32e23x_usart.h"
ARM GAS  D:\noval\Temp\ccDqp2rO.s 			page 73

