ARM GAS  D:\noval\Temp\ccGOMXvb.s 			page 1


   1              		.cpu cortex-m23
   2              		.arch armv8-m.base
   3              		.fpu softvfp
   4              		.eabi_attribute 20, 1
   5              		.eabi_attribute 21, 1
   6              		.eabi_attribute 23, 3
   7              		.eabi_attribute 24, 1
   8              		.eabi_attribute 25, 1
   9              		.eabi_attribute 26, 1
  10              		.eabi_attribute 30, 1
  11              		.eabi_attribute 34, 0
  12              		.eabi_attribute 18, 4
  13              		.file	"lcd.c"
  14              		.text
  15              	.Ltext0:
  16              		.cfi_sections	.debug_frame
  17              		.file 1 "Drivers/UserDrivers/lcd.c"
  18              		.section	.text.LCD_Write_Data8,"ax",%progbits
  19              		.align	1
  20              		.syntax unified
  21              		.code	16
  22              		.thumb_func
  24              	LCD_Write_Data8:
  25              	.LVL0:
  26              	.LFB64:
   1:Drivers/UserDrivers/lcd.c **** /*
   2:Drivers/UserDrivers/lcd.c ****  * file:  lcd.c
   3:Drivers/UserDrivers/lcd.c ****  * brief: LCD driver
   4:Drivers/UserDrivers/lcd.c ****  */
   5:Drivers/UserDrivers/lcd.c **** 
   6:Drivers/UserDrivers/lcd.c **** #include "lcd.h"
   7:Drivers/UserDrivers/lcd.c **** #include "gd32e23x.h"
   8:Drivers/UserDrivers/lcd.c **** #include "systick.h"
   9:Drivers/UserDrivers/lcd.c **** #include "stdint.h"
  10:Drivers/UserDrivers/lcd.c **** #include "lcdfonts.h"
  11:Drivers/UserDrivers/lcd.c **** #include <stdio.h>
  12:Drivers/UserDrivers/lcd.c **** 
  13:Drivers/UserDrivers/lcd.c **** static void LCD_Write_Cmd(uint8_t cmd);
  14:Drivers/UserDrivers/lcd.c **** static void LCD_Write_Data(uint16_t data);
  15:Drivers/UserDrivers/lcd.c **** static void LCD_Write_Data8(uint8_t data);
  16:Drivers/UserDrivers/lcd.c **** static void LCD_Display_Position(uint16_t x1, uint16_t y1, uint16_t x2, uint16_t y2);
  17:Drivers/UserDrivers/lcd.c **** 
  18:Drivers/UserDrivers/lcd.c **** /*
  19:Drivers/UserDrivers/lcd.c ****  * @brief:  initialize LCD screen
  20:Drivers/UserDrivers/lcd.c ****  * @param:  None
  21:Drivers/UserDrivers/lcd.c ****  * @retval: None
  22:Drivers/UserDrivers/lcd.c ****  */
  23:Drivers/UserDrivers/lcd.c **** void LCD_Init(void)
  24:Drivers/UserDrivers/lcd.c **** {
  25:Drivers/UserDrivers/lcd.c ****     gpio_bit_reset(LCD_RES_PORT, LCD_RES_PIN);
  26:Drivers/UserDrivers/lcd.c ****     delay_1ms(100);
  27:Drivers/UserDrivers/lcd.c ****     gpio_bit_set(LCD_RES_PORT, LCD_RES_PIN);
  28:Drivers/UserDrivers/lcd.c ****     delay_1ms(100);
  29:Drivers/UserDrivers/lcd.c ****     
  30:Drivers/UserDrivers/lcd.c ****     gpio_bit_set(LCD_BL_PORT, LCD_BL_PIN);
  31:Drivers/UserDrivers/lcd.c ****     delay_1ms(100);
  32:Drivers/UserDrivers/lcd.c ****     
ARM GAS  D:\noval\Temp\ccGOMXvb.s 			page 2


  33:Drivers/UserDrivers/lcd.c **** 	//************* Start Initial Sequence **********//
  34:Drivers/UserDrivers/lcd.c **** 	LCD_Write_Cmd(0x11); //Sleep out 
  35:Drivers/UserDrivers/lcd.c **** 	delay_1ms(120);              //Delay 120ms 
  36:Drivers/UserDrivers/lcd.c **** 	//------------------------------------ST7735S Frame Rate-----------------------------------------/
  37:Drivers/UserDrivers/lcd.c **** 	LCD_Write_Cmd(0xB1); 
  38:Drivers/UserDrivers/lcd.c **** 	LCD_Write_Data8(0x05); 
  39:Drivers/UserDrivers/lcd.c **** 	LCD_Write_Data8(0x3C); 
  40:Drivers/UserDrivers/lcd.c **** 	LCD_Write_Data8(0x3C); 
  41:Drivers/UserDrivers/lcd.c **** 	LCD_Write_Cmd(0xB2); 
  42:Drivers/UserDrivers/lcd.c **** 	LCD_Write_Data8(0x05);
  43:Drivers/UserDrivers/lcd.c **** 	LCD_Write_Data8(0x3C); 
  44:Drivers/UserDrivers/lcd.c **** 	LCD_Write_Data8(0x3C); 
  45:Drivers/UserDrivers/lcd.c **** 	LCD_Write_Cmd(0xB3); 
  46:Drivers/UserDrivers/lcd.c **** 	LCD_Write_Data8(0x05); 
  47:Drivers/UserDrivers/lcd.c **** 	LCD_Write_Data8(0x3C); 
  48:Drivers/UserDrivers/lcd.c **** 	LCD_Write_Data8(0x3C); 
  49:Drivers/UserDrivers/lcd.c **** 	LCD_Write_Data8(0x05); 
  50:Drivers/UserDrivers/lcd.c **** 	LCD_Write_Data8(0x3C); 
  51:Drivers/UserDrivers/lcd.c **** 	LCD_Write_Data8(0x3C); 
  52:Drivers/UserDrivers/lcd.c **** 	//------------------------------------End ST7735S Frame Rate---------------------------------// 
  53:Drivers/UserDrivers/lcd.c **** 	LCD_Write_Cmd(0xB4); //Dot inversion 
  54:Drivers/UserDrivers/lcd.c **** 	LCD_Write_Data8(0x03); 
  55:Drivers/UserDrivers/lcd.c **** 	//------------------------------------ST7735S Power Sequence---------------------------------// 
  56:Drivers/UserDrivers/lcd.c **** 	LCD_Write_Cmd(0xC0); 
  57:Drivers/UserDrivers/lcd.c **** 	LCD_Write_Data8(0x28); 
  58:Drivers/UserDrivers/lcd.c **** 	LCD_Write_Data8(0x08); 
  59:Drivers/UserDrivers/lcd.c **** 	LCD_Write_Data8(0x04); 
  60:Drivers/UserDrivers/lcd.c **** 	LCD_Write_Cmd(0xC1); 
  61:Drivers/UserDrivers/lcd.c **** 	LCD_Write_Data8(0XC0); 
  62:Drivers/UserDrivers/lcd.c **** 	LCD_Write_Cmd(0xC2); 
  63:Drivers/UserDrivers/lcd.c **** 	LCD_Write_Data8(0x0D); 
  64:Drivers/UserDrivers/lcd.c **** 	LCD_Write_Data8(0x00); 
  65:Drivers/UserDrivers/lcd.c **** 	LCD_Write_Cmd(0xC3); 
  66:Drivers/UserDrivers/lcd.c **** 	LCD_Write_Data8(0x8D); 
  67:Drivers/UserDrivers/lcd.c **** 	LCD_Write_Data8(0x2A); 
  68:Drivers/UserDrivers/lcd.c **** 	LCD_Write_Cmd(0xC4); 
  69:Drivers/UserDrivers/lcd.c **** 	LCD_Write_Data8(0x8D); 
  70:Drivers/UserDrivers/lcd.c **** 	LCD_Write_Data8(0xEE); 
  71:Drivers/UserDrivers/lcd.c **** 	//---------------------------------End ST7735S Power Sequence-------------------------------------
  72:Drivers/UserDrivers/lcd.c **** 	LCD_Write_Cmd(0xC5); //VCOM 
  73:Drivers/UserDrivers/lcd.c **** 	LCD_Write_Data8(0x1A); 
  74:Drivers/UserDrivers/lcd.c **** 	LCD_Write_Cmd(0x36); //MX, MY, RGB mode 
  75:Drivers/UserDrivers/lcd.c **** 	#if USE_HORIZONTAL==0
  76:Drivers/UserDrivers/lcd.c ****         LCD_Write_Data8(0x00);
  77:Drivers/UserDrivers/lcd.c ****     #elif USE_HORIZONTAL==1
  78:Drivers/UserDrivers/lcd.c ****         LCD_Write_Data8(0xC0);
  79:Drivers/UserDrivers/lcd.c **** 	#elif USE_HORIZONTAL==2
  80:Drivers/UserDrivers/lcd.c ****         LCD_Write_Data8(0x70);
  81:Drivers/UserDrivers/lcd.c **** 	#else
  82:Drivers/UserDrivers/lcd.c ****         LCD_Write_Data8(0xA0); 
  83:Drivers/UserDrivers/lcd.c ****     #endif
  84:Drivers/UserDrivers/lcd.c **** 	//------------------------------------ST7735S Gamma Sequence---------------------------------// 
  85:Drivers/UserDrivers/lcd.c **** 	LCD_Write_Cmd(0xE0); 
  86:Drivers/UserDrivers/lcd.c **** 	LCD_Write_Data8(0x04); 
  87:Drivers/UserDrivers/lcd.c **** 	LCD_Write_Data8(0x22); 
  88:Drivers/UserDrivers/lcd.c **** 	LCD_Write_Data8(0x07); 
  89:Drivers/UserDrivers/lcd.c **** 	LCD_Write_Data8(0x0A); 
ARM GAS  D:\noval\Temp\ccGOMXvb.s 			page 3


  90:Drivers/UserDrivers/lcd.c **** 	LCD_Write_Data8(0x2E); 
  91:Drivers/UserDrivers/lcd.c **** 	LCD_Write_Data8(0x30); 
  92:Drivers/UserDrivers/lcd.c **** 	LCD_Write_Data8(0x25); 
  93:Drivers/UserDrivers/lcd.c **** 	LCD_Write_Data8(0x2A); 
  94:Drivers/UserDrivers/lcd.c **** 	LCD_Write_Data8(0x28); 
  95:Drivers/UserDrivers/lcd.c **** 	LCD_Write_Data8(0x26); 
  96:Drivers/UserDrivers/lcd.c **** 	LCD_Write_Data8(0x2E); 
  97:Drivers/UserDrivers/lcd.c **** 	LCD_Write_Data8(0x3A); 
  98:Drivers/UserDrivers/lcd.c **** 	LCD_Write_Data8(0x00); 
  99:Drivers/UserDrivers/lcd.c **** 	LCD_Write_Data8(0x01); 
 100:Drivers/UserDrivers/lcd.c **** 	LCD_Write_Data8(0x03); 
 101:Drivers/UserDrivers/lcd.c **** 	LCD_Write_Data8(0x13); 
 102:Drivers/UserDrivers/lcd.c **** 	LCD_Write_Cmd(0xE1); 
 103:Drivers/UserDrivers/lcd.c **** 	LCD_Write_Data8(0x04); 
 104:Drivers/UserDrivers/lcd.c **** 	LCD_Write_Data8(0x16); 
 105:Drivers/UserDrivers/lcd.c **** 	LCD_Write_Data8(0x06); 
 106:Drivers/UserDrivers/lcd.c **** 	LCD_Write_Data8(0x0D); 
 107:Drivers/UserDrivers/lcd.c **** 	LCD_Write_Data8(0x2D); 
 108:Drivers/UserDrivers/lcd.c **** 	LCD_Write_Data8(0x26); 
 109:Drivers/UserDrivers/lcd.c **** 	LCD_Write_Data8(0x23); 
 110:Drivers/UserDrivers/lcd.c **** 	LCD_Write_Data8(0x27); 
 111:Drivers/UserDrivers/lcd.c **** 	LCD_Write_Data8(0x27); 
 112:Drivers/UserDrivers/lcd.c **** 	LCD_Write_Data8(0x25); 
 113:Drivers/UserDrivers/lcd.c **** 	LCD_Write_Data8(0x2D); 
 114:Drivers/UserDrivers/lcd.c **** 	LCD_Write_Data8(0x3B); 
 115:Drivers/UserDrivers/lcd.c **** 	LCD_Write_Data8(0x00); 
 116:Drivers/UserDrivers/lcd.c **** 	LCD_Write_Data8(0x01); 
 117:Drivers/UserDrivers/lcd.c **** 	LCD_Write_Data8(0x04); 
 118:Drivers/UserDrivers/lcd.c **** 	LCD_Write_Data8(0x13); 
 119:Drivers/UserDrivers/lcd.c **** 	//------------------------------------End ST7735S Gamma Sequence-----------------------------// 
 120:Drivers/UserDrivers/lcd.c **** 	LCD_Write_Cmd(0x3A); //65k mode, RGB 5-6-5-bit input
 121:Drivers/UserDrivers/lcd.c **** 	LCD_Write_Data8(0x05); 
 122:Drivers/UserDrivers/lcd.c **** 	LCD_Write_Cmd(0x29); //Displa
 123:Drivers/UserDrivers/lcd.c **** }
 124:Drivers/UserDrivers/lcd.c **** 
 125:Drivers/UserDrivers/lcd.c **** /*
 126:Drivers/UserDrivers/lcd.c ****  * @brief    transfer data to LCD screen
 127:Drivers/UserDrivers/lcd.c ****  * @param    data: 8 bit data
 128:Drivers/UserDrivers/lcd.c ****  * @retval   None
 129:Drivers/UserDrivers/lcd.c ****  */
 130:Drivers/UserDrivers/lcd.c **** void LCD_Write_Data8(uint8_t data)
 131:Drivers/UserDrivers/lcd.c **** {
  27              		.loc 1 131 1 view -0
  28              		.cfi_startproc
  29              		@ args = 0, pretend = 0, frame = 0
  30              		@ frame_needed = 0, uses_anonymous_args = 0
  31              		.loc 1 131 1 is_stmt 0 view .LVU1
  32 0000 10B5     		push	{r4, lr}
  33              	.LCFI0:
  34              		.cfi_def_cfa_offset 8
  35              		.cfi_offset 4, -8
  36              		.cfi_offset 14, -4
  37 0002 0400     		movs	r4, r0
 132:Drivers/UserDrivers/lcd.c ****     gpio_bit_reset(LCD_CS_PORT, LCD_CS_PIN);
  38              		.loc 1 132 5 is_stmt 1 view .LVU2
  39 0004 40F20040 		movw	r0, #1024
  40              	.LVL1:
ARM GAS  D:\noval\Temp\ccGOMXvb.s 			page 4


  41              		.loc 1 132 5 is_stmt 0 view .LVU3
  42 0008 C4F60000 		movt	r0, 18432
  43 000c 8021     		movs	r1, #128
  44 000e FFF7FEFF 		bl	gpio_bit_reset
  45              	.LVL2:
 133:Drivers/UserDrivers/lcd.c **** 
 134:Drivers/UserDrivers/lcd.c ****     while(RESET == spi_i2s_flag_get(SPI0, SPI_FLAG_TBE));
  46              		.loc 1 134 5 is_stmt 1 view .LVU4
  47              	.L2:
  48              		.loc 1 134 17 discriminator 1 view .LVU5
  49              		.loc 1 134 20 is_stmt 0 discriminator 1 view .LVU6
  50 0012 43F20000 		movw	r0, #12288
  51 0016 C4F20100 		movt	r0, 16385
  52 001a 0221     		movs	r1, #2
  53 001c FFF7FEFF 		bl	spi_i2s_flag_get
  54              	.LVL3:
  55              		.loc 1 134 17 discriminator 1 view .LVU7
  56 0020 0028     		cmp	r0, #0
  57 0022 F6D0     		beq	.L2
 135:Drivers/UserDrivers/lcd.c ****     spi_i2s_data_transmit(SPI0, data);
  58              		.loc 1 135 5 is_stmt 1 view .LVU8
  59 0024 43F20000 		movw	r0, #12288
  60 0028 C4F20100 		movt	r0, 16385
  61 002c 2100     		movs	r1, r4
  62 002e FFF7FEFF 		bl	spi_i2s_data_transmit
  63              	.LVL4:
 136:Drivers/UserDrivers/lcd.c **** 
 137:Drivers/UserDrivers/lcd.c ****     gpio_bit_set(LCD_CS_PORT, LCD_CS_PIN);
  64              		.loc 1 137 5 view .LVU9
  65 0032 40F20040 		movw	r0, #1024
  66 0036 C4F60000 		movt	r0, 18432
  67 003a 8021     		movs	r1, #128
  68 003c FFF7FEFF 		bl	gpio_bit_set
  69              	.LVL5:
 138:Drivers/UserDrivers/lcd.c **** 
 139:Drivers/UserDrivers/lcd.c **** }
  70              		.loc 1 139 1 is_stmt 0 view .LVU10
  71              		@ sp needed
  72              	.LVL6:
  73              		.loc 1 139 1 view .LVU11
  74 0040 10BD     		pop	{r4, pc}
  75              		.cfi_endproc
  76              	.LFE64:
  78              		.section	.text.LCD_Write_Data,"ax",%progbits
  79              		.align	1
  80              		.syntax unified
  81              		.code	16
  82              		.thumb_func
  84              	LCD_Write_Data:
  85              	.LVL7:
  86              	.LFB65:
 140:Drivers/UserDrivers/lcd.c **** 
 141:Drivers/UserDrivers/lcd.c **** /*
 142:Drivers/UserDrivers/lcd.c ****  * @brief    transfer data to LCD screen
 143:Drivers/UserDrivers/lcd.c ****  * @param    data: 16 bit data
 144:Drivers/UserDrivers/lcd.c ****  * @retval   None
 145:Drivers/UserDrivers/lcd.c ****  */
ARM GAS  D:\noval\Temp\ccGOMXvb.s 			page 5


 146:Drivers/UserDrivers/lcd.c **** void LCD_Write_Data(uint16_t data)
 147:Drivers/UserDrivers/lcd.c **** {
  87              		.loc 1 147 1 is_stmt 1 view -0
  88              		.cfi_startproc
  89              		@ args = 0, pretend = 0, frame = 0
  90              		@ frame_needed = 0, uses_anonymous_args = 0
  91              		.loc 1 147 1 is_stmt 0 view .LVU13
  92 0000 10B5     		push	{r4, lr}
  93              	.LCFI1:
  94              		.cfi_def_cfa_offset 8
  95              		.cfi_offset 4, -8
  96              		.cfi_offset 14, -4
  97 0002 0400     		movs	r4, r0
 148:Drivers/UserDrivers/lcd.c ****     LCD_Write_Data8(data >> 8);
  98              		.loc 1 148 5 is_stmt 1 view .LVU14
  99 0004 000A     		lsrs	r0, r0, #8
 100              	.LVL8:
 101              		.loc 1 148 5 is_stmt 0 view .LVU15
 102 0006 FFF7FEFF 		bl	LCD_Write_Data8
 103              	.LVL9:
 149:Drivers/UserDrivers/lcd.c ****     LCD_Write_Data8(data & 0XFF);
 104              		.loc 1 149 5 is_stmt 1 view .LVU16
 105 000a E0B2     		uxtb	r0, r4
 106 000c FFF7FEFF 		bl	LCD_Write_Data8
 107              	.LVL10:
 150:Drivers/UserDrivers/lcd.c **** }
 108              		.loc 1 150 1 is_stmt 0 view .LVU17
 109              		@ sp needed
 110              	.LVL11:
 111              		.loc 1 150 1 view .LVU18
 112 0010 10BD     		pop	{r4, pc}
 113              		.cfi_endproc
 114              	.LFE65:
 116              		.section	.text.LCD_Write_Cmd,"ax",%progbits
 117              		.align	1
 118              		.syntax unified
 119              		.code	16
 120              		.thumb_func
 122              	LCD_Write_Cmd:
 123              	.LVL12:
 124              	.LFB66:
 151:Drivers/UserDrivers/lcd.c **** 
 152:Drivers/UserDrivers/lcd.c **** /*
 153:Drivers/UserDrivers/lcd.c ****  * @brief    initialize LCD screen
 154:Drivers/UserDrivers/lcd.c ****  * @param    cmd: command
 155:Drivers/UserDrivers/lcd.c ****  * @retval   None
 156:Drivers/UserDrivers/lcd.c ****  */
 157:Drivers/UserDrivers/lcd.c **** void LCD_Write_Cmd(uint8_t cmd)
 158:Drivers/UserDrivers/lcd.c **** {
 125              		.loc 1 158 1 is_stmt 1 view -0
 126              		.cfi_startproc
 127              		@ args = 0, pretend = 0, frame = 0
 128              		@ frame_needed = 0, uses_anonymous_args = 0
 129              		.loc 1 158 1 is_stmt 0 view .LVU20
 130 0000 70B5     		push	{r4, r5, r6, lr}
 131              	.LCFI2:
 132              		.cfi_def_cfa_offset 16
ARM GAS  D:\noval\Temp\ccGOMXvb.s 			page 6


 133              		.cfi_offset 4, -16
 134              		.cfi_offset 5, -12
 135              		.cfi_offset 6, -8
 136              		.cfi_offset 14, -4
 137 0002 0400     		movs	r4, r0
 159:Drivers/UserDrivers/lcd.c ****     gpio_bit_reset(LCD_DC_PORT, LCD_DC_PIN);
 138              		.loc 1 159 5 is_stmt 1 view .LVU21
 139 0004 40F20045 		movw	r5, #1024
 140 0008 C4F60005 		movt	r5, 18432
 141 000c 4021     		movs	r1, #64
 142 000e 2800     		movs	r0, r5
 143              	.LVL13:
 144              		.loc 1 159 5 is_stmt 0 view .LVU22
 145 0010 FFF7FEFF 		bl	gpio_bit_reset
 146              	.LVL14:
 160:Drivers/UserDrivers/lcd.c ****     gpio_bit_reset(LCD_CS_PORT, LCD_CS_PIN);
 147              		.loc 1 160 5 is_stmt 1 view .LVU23
 148 0014 8021     		movs	r1, #128
 149 0016 2800     		movs	r0, r5
 150 0018 FFF7FEFF 		bl	gpio_bit_reset
 151              	.LVL15:
 161:Drivers/UserDrivers/lcd.c **** 
 162:Drivers/UserDrivers/lcd.c ****     while(RESET == spi_i2s_flag_get(SPI0, SPI_FLAG_TBE));
 152              		.loc 1 162 5 view .LVU24
 153              	.L5:
 154              		.loc 1 162 17 discriminator 1 view .LVU25
 155              		.loc 1 162 20 is_stmt 0 discriminator 1 view .LVU26
 156 001c 43F20000 		movw	r0, #12288
 157 0020 C4F20100 		movt	r0, 16385
 158 0024 0221     		movs	r1, #2
 159 0026 FFF7FEFF 		bl	spi_i2s_flag_get
 160              	.LVL16:
 161              		.loc 1 162 17 discriminator 1 view .LVU27
 162 002a 0028     		cmp	r0, #0
 163 002c F6D0     		beq	.L5
 163:Drivers/UserDrivers/lcd.c ****     spi_i2s_data_transmit(SPI0, cmd);
 164              		.loc 1 163 5 is_stmt 1 view .LVU28
 165 002e 43F20000 		movw	r0, #12288
 166 0032 C4F20100 		movt	r0, 16385
 167 0036 2100     		movs	r1, r4
 168 0038 FFF7FEFF 		bl	spi_i2s_data_transmit
 169              	.LVL17:
 164:Drivers/UserDrivers/lcd.c **** 
 165:Drivers/UserDrivers/lcd.c ****     gpio_bit_set(LCD_CS_PORT, LCD_CS_PIN);
 170              		.loc 1 165 5 view .LVU29
 171 003c 40F20044 		movw	r4, #1024
 172              	.LVL18:
 173              		.loc 1 165 5 is_stmt 0 view .LVU30
 174 0040 C4F60004 		movt	r4, 18432
 175 0044 8021     		movs	r1, #128
 176 0046 2000     		movs	r0, r4
 177 0048 FFF7FEFF 		bl	gpio_bit_set
 178              	.LVL19:
 166:Drivers/UserDrivers/lcd.c ****     gpio_bit_set(LCD_DC_PORT, LCD_DC_PIN);
 179              		.loc 1 166 5 is_stmt 1 view .LVU31
 180 004c 4021     		movs	r1, #64
 181 004e 2000     		movs	r0, r4
ARM GAS  D:\noval\Temp\ccGOMXvb.s 			page 7


 182 0050 FFF7FEFF 		bl	gpio_bit_set
 183              	.LVL20:
 167:Drivers/UserDrivers/lcd.c **** }
 184              		.loc 1 167 1 is_stmt 0 view .LVU32
 185              		@ sp needed
 186 0054 70BD     		pop	{r4, r5, r6, pc}
 187              		.cfi_endproc
 188              	.LFE66:
 190              		.section	.text.LCD_Display_Position,"ax",%progbits
 191              		.align	1
 192              		.syntax unified
 193              		.code	16
 194              		.thumb_func
 196              	LCD_Display_Position:
 197              	.LVL21:
 198              	.LFB67:
 168:Drivers/UserDrivers/lcd.c **** 
 169:Drivers/UserDrivers/lcd.c **** /*
 170:Drivers/UserDrivers/lcd.c ****  * @brief    set the display position
 171:Drivers/UserDrivers/lcd.c ****  * @param    x1, y1: start point
 172:Drivers/UserDrivers/lcd.c ****  * @param    x2, y2: end point
 173:Drivers/UserDrivers/lcd.c ****  * @retval   None
 174:Drivers/UserDrivers/lcd.c ****  */
 175:Drivers/UserDrivers/lcd.c **** void LCD_Display_Position(uint16_t x1, uint16_t y1, uint16_t x2, uint16_t y2)
 176:Drivers/UserDrivers/lcd.c **** {
 199              		.loc 1 176 1 is_stmt 1 view -0
 200              		.cfi_startproc
 201              		@ args = 0, pretend = 0, frame = 0
 202              		@ frame_needed = 0, uses_anonymous_args = 0
 203              		.loc 1 176 1 is_stmt 0 view .LVU34
 204 0000 F8B5     		push	{r3, r4, r5, r6, r7, lr}
 205              	.LCFI3:
 206              		.cfi_def_cfa_offset 24
 207              		.cfi_offset 3, -24
 208              		.cfi_offset 4, -20
 209              		.cfi_offset 5, -16
 210              		.cfi_offset 6, -12
 211              		.cfi_offset 7, -8
 212              		.cfi_offset 14, -4
 213 0002 0700     		movs	r7, r0
 214 0004 0D00     		movs	r5, r1
 215 0006 1600     		movs	r6, r2
 216 0008 1C00     		movs	r4, r3
 177:Drivers/UserDrivers/lcd.c ****     LCD_Write_Cmd(0x2A);
 217              		.loc 1 177 5 is_stmt 1 view .LVU35
 218 000a 2A20     		movs	r0, #42
 219              	.LVL22:
 220              		.loc 1 177 5 is_stmt 0 view .LVU36
 221 000c FFF7FEFF 		bl	LCD_Write_Cmd
 222              	.LVL23:
 178:Drivers/UserDrivers/lcd.c ****     LCD_Write_Data(x1);
 223              		.loc 1 178 5 is_stmt 1 view .LVU37
 224 0010 3800     		movs	r0, r7
 225 0012 FFF7FEFF 		bl	LCD_Write_Data
 226              	.LVL24:
 179:Drivers/UserDrivers/lcd.c ****     LCD_Write_Data(x2);
 227              		.loc 1 179 5 view .LVU38
ARM GAS  D:\noval\Temp\ccGOMXvb.s 			page 8


 228 0016 3000     		movs	r0, r6
 229 0018 FFF7FEFF 		bl	LCD_Write_Data
 230              	.LVL25:
 180:Drivers/UserDrivers/lcd.c ****     LCD_Write_Cmd(0x2B);
 231              		.loc 1 180 5 view .LVU39
 232 001c 2B20     		movs	r0, #43
 233 001e FFF7FEFF 		bl	LCD_Write_Cmd
 234              	.LVL26:
 181:Drivers/UserDrivers/lcd.c ****     LCD_Write_Data(y1);
 235              		.loc 1 181 5 view .LVU40
 236 0022 2800     		movs	r0, r5
 237 0024 FFF7FEFF 		bl	LCD_Write_Data
 238              	.LVL27:
 182:Drivers/UserDrivers/lcd.c ****     LCD_Write_Data(y2);
 239              		.loc 1 182 5 view .LVU41
 240 0028 2000     		movs	r0, r4
 241 002a FFF7FEFF 		bl	LCD_Write_Data
 242              	.LVL28:
 183:Drivers/UserDrivers/lcd.c ****     LCD_Write_Cmd(0x2C);
 243              		.loc 1 183 5 view .LVU42
 244 002e 2C20     		movs	r0, #44
 245 0030 FFF7FEFF 		bl	LCD_Write_Cmd
 246              	.LVL29:
 184:Drivers/UserDrivers/lcd.c **** }
 247              		.loc 1 184 1 is_stmt 0 view .LVU43
 248              		@ sp needed
 249              	.LVL30:
 250              	.LVL31:
 251              	.LVL32:
 252              	.LVL33:
 253              		.loc 1 184 1 view .LVU44
 254 0034 F8BD     		pop	{r3, r4, r5, r6, r7, pc}
 255              		.cfi_endproc
 256              	.LFE67:
 258              		.section	.text.LCD_Init,"ax",%progbits
 259              		.align	1
 260              		.global	LCD_Init
 261              		.syntax unified
 262              		.code	16
 263              		.thumb_func
 265              	LCD_Init:
 266              	.LFB63:
  24:Drivers/UserDrivers/lcd.c ****     gpio_bit_reset(LCD_RES_PORT, LCD_RES_PIN);
 267              		.loc 1 24 1 is_stmt 1 view -0
 268              		.cfi_startproc
 269              		@ args = 0, pretend = 0, frame = 0
 270              		@ frame_needed = 0, uses_anonymous_args = 0
 271 0000 10B5     		push	{r4, lr}
 272              	.LCFI4:
 273              		.cfi_def_cfa_offset 8
 274              		.cfi_offset 4, -8
 275              		.cfi_offset 14, -4
  25:Drivers/UserDrivers/lcd.c ****     delay_1ms(100);
 276              		.loc 1 25 5 view .LVU46
 277 0002 40F20044 		movw	r4, #1024
 278 0006 C4F60004 		movt	r4, 18432
 279 000a 2021     		movs	r1, #32
ARM GAS  D:\noval\Temp\ccGOMXvb.s 			page 9


 280 000c 2000     		movs	r0, r4
 281 000e FFF7FEFF 		bl	gpio_bit_reset
 282              	.LVL34:
  26:Drivers/UserDrivers/lcd.c ****     gpio_bit_set(LCD_RES_PORT, LCD_RES_PIN);
 283              		.loc 1 26 5 view .LVU47
 284 0012 6420     		movs	r0, #100
 285 0014 FFF7FEFF 		bl	delay_1ms
 286              	.LVL35:
  27:Drivers/UserDrivers/lcd.c ****     delay_1ms(100);
 287              		.loc 1 27 5 view .LVU48
 288 0018 2021     		movs	r1, #32
 289 001a 2000     		movs	r0, r4
 290 001c FFF7FEFF 		bl	gpio_bit_set
 291              	.LVL36:
  28:Drivers/UserDrivers/lcd.c ****     
 292              		.loc 1 28 5 view .LVU49
 293 0020 6420     		movs	r0, #100
 294 0022 FFF7FEFF 		bl	delay_1ms
 295              	.LVL37:
  30:Drivers/UserDrivers/lcd.c ****     delay_1ms(100);
 296              		.loc 1 30 5 view .LVU50
 297 0026 40F20011 		movw	r1, #256
 298 002a 2000     		movs	r0, r4
 299 002c FFF7FEFF 		bl	gpio_bit_set
 300              	.LVL38:
  31:Drivers/UserDrivers/lcd.c ****     
 301              		.loc 1 31 5 view .LVU51
 302 0030 6420     		movs	r0, #100
 303 0032 FFF7FEFF 		bl	delay_1ms
 304              	.LVL39:
  34:Drivers/UserDrivers/lcd.c **** 	delay_1ms(120);              //Delay 120ms 
 305              		.loc 1 34 2 view .LVU52
 306 0036 1120     		movs	r0, #17
 307 0038 FFF7FEFF 		bl	LCD_Write_Cmd
 308              	.LVL40:
  35:Drivers/UserDrivers/lcd.c **** 	//------------------------------------ST7735S Frame Rate-----------------------------------------/
 309              		.loc 1 35 2 view .LVU53
 310 003c 7820     		movs	r0, #120
 311 003e FFF7FEFF 		bl	delay_1ms
 312              	.LVL41:
  37:Drivers/UserDrivers/lcd.c **** 	LCD_Write_Data8(0x05); 
 313              		.loc 1 37 2 view .LVU54
 314 0042 B120     		movs	r0, #177
 315 0044 FFF7FEFF 		bl	LCD_Write_Cmd
 316              	.LVL42:
  38:Drivers/UserDrivers/lcd.c **** 	LCD_Write_Data8(0x3C); 
 317              		.loc 1 38 2 view .LVU55
 318 0048 0520     		movs	r0, #5
 319 004a FFF7FEFF 		bl	LCD_Write_Data8
 320              	.LVL43:
  39:Drivers/UserDrivers/lcd.c **** 	LCD_Write_Data8(0x3C); 
 321              		.loc 1 39 2 view .LVU56
 322 004e 3C20     		movs	r0, #60
 323 0050 FFF7FEFF 		bl	LCD_Write_Data8
 324              	.LVL44:
  40:Drivers/UserDrivers/lcd.c **** 	LCD_Write_Cmd(0xB2); 
 325              		.loc 1 40 2 view .LVU57
ARM GAS  D:\noval\Temp\ccGOMXvb.s 			page 10


 326 0054 3C20     		movs	r0, #60
 327 0056 FFF7FEFF 		bl	LCD_Write_Data8
 328              	.LVL45:
  41:Drivers/UserDrivers/lcd.c **** 	LCD_Write_Data8(0x05);
 329              		.loc 1 41 2 view .LVU58
 330 005a B220     		movs	r0, #178
 331 005c FFF7FEFF 		bl	LCD_Write_Cmd
 332              	.LVL46:
  42:Drivers/UserDrivers/lcd.c **** 	LCD_Write_Data8(0x3C); 
 333              		.loc 1 42 2 view .LVU59
 334 0060 0520     		movs	r0, #5
 335 0062 FFF7FEFF 		bl	LCD_Write_Data8
 336              	.LVL47:
  43:Drivers/UserDrivers/lcd.c **** 	LCD_Write_Data8(0x3C); 
 337              		.loc 1 43 2 view .LVU60
 338 0066 3C20     		movs	r0, #60
 339 0068 FFF7FEFF 		bl	LCD_Write_Data8
 340              	.LVL48:
  44:Drivers/UserDrivers/lcd.c **** 	LCD_Write_Cmd(0xB3); 
 341              		.loc 1 44 2 view .LVU61
 342 006c 3C20     		movs	r0, #60
 343 006e FFF7FEFF 		bl	LCD_Write_Data8
 344              	.LVL49:
  45:Drivers/UserDrivers/lcd.c **** 	LCD_Write_Data8(0x05); 
 345              		.loc 1 45 2 view .LVU62
 346 0072 B320     		movs	r0, #179
 347 0074 FFF7FEFF 		bl	LCD_Write_Cmd
 348              	.LVL50:
  46:Drivers/UserDrivers/lcd.c **** 	LCD_Write_Data8(0x3C); 
 349              		.loc 1 46 2 view .LVU63
 350 0078 0520     		movs	r0, #5
 351 007a FFF7FEFF 		bl	LCD_Write_Data8
 352              	.LVL51:
  47:Drivers/UserDrivers/lcd.c **** 	LCD_Write_Data8(0x3C); 
 353              		.loc 1 47 2 view .LVU64
 354 007e 3C20     		movs	r0, #60
 355 0080 FFF7FEFF 		bl	LCD_Write_Data8
 356              	.LVL52:
  48:Drivers/UserDrivers/lcd.c **** 	LCD_Write_Data8(0x05); 
 357              		.loc 1 48 2 view .LVU65
 358 0084 3C20     		movs	r0, #60
 359 0086 FFF7FEFF 		bl	LCD_Write_Data8
 360              	.LVL53:
  49:Drivers/UserDrivers/lcd.c **** 	LCD_Write_Data8(0x3C); 
 361              		.loc 1 49 2 view .LVU66
 362 008a 0520     		movs	r0, #5
 363 008c FFF7FEFF 		bl	LCD_Write_Data8
 364              	.LVL54:
  50:Drivers/UserDrivers/lcd.c **** 	LCD_Write_Data8(0x3C); 
 365              		.loc 1 50 2 view .LVU67
 366 0090 3C20     		movs	r0, #60
 367 0092 FFF7FEFF 		bl	LCD_Write_Data8
 368              	.LVL55:
  51:Drivers/UserDrivers/lcd.c **** 	//------------------------------------End ST7735S Frame Rate---------------------------------// 
 369              		.loc 1 51 2 view .LVU68
 370 0096 3C20     		movs	r0, #60
 371 0098 FFF7FEFF 		bl	LCD_Write_Data8
ARM GAS  D:\noval\Temp\ccGOMXvb.s 			page 11


 372              	.LVL56:
  53:Drivers/UserDrivers/lcd.c **** 	LCD_Write_Data8(0x03); 
 373              		.loc 1 53 2 view .LVU69
 374 009c B420     		movs	r0, #180
 375 009e FFF7FEFF 		bl	LCD_Write_Cmd
 376              	.LVL57:
  54:Drivers/UserDrivers/lcd.c **** 	//------------------------------------ST7735S Power Sequence---------------------------------// 
 377              		.loc 1 54 2 view .LVU70
 378 00a2 0320     		movs	r0, #3
 379 00a4 FFF7FEFF 		bl	LCD_Write_Data8
 380              	.LVL58:
  56:Drivers/UserDrivers/lcd.c **** 	LCD_Write_Data8(0x28); 
 381              		.loc 1 56 2 view .LVU71
 382 00a8 C020     		movs	r0, #192
 383 00aa FFF7FEFF 		bl	LCD_Write_Cmd
 384              	.LVL59:
  57:Drivers/UserDrivers/lcd.c **** 	LCD_Write_Data8(0x08); 
 385              		.loc 1 57 2 view .LVU72
 386 00ae 2820     		movs	r0, #40
 387 00b0 FFF7FEFF 		bl	LCD_Write_Data8
 388              	.LVL60:
  58:Drivers/UserDrivers/lcd.c **** 	LCD_Write_Data8(0x04); 
 389              		.loc 1 58 2 view .LVU73
 390 00b4 0820     		movs	r0, #8
 391 00b6 FFF7FEFF 		bl	LCD_Write_Data8
 392              	.LVL61:
  59:Drivers/UserDrivers/lcd.c **** 	LCD_Write_Cmd(0xC1); 
 393              		.loc 1 59 2 view .LVU74
 394 00ba 0420     		movs	r0, #4
 395 00bc FFF7FEFF 		bl	LCD_Write_Data8
 396              	.LVL62:
  60:Drivers/UserDrivers/lcd.c **** 	LCD_Write_Data8(0XC0); 
 397              		.loc 1 60 2 view .LVU75
 398 00c0 C120     		movs	r0, #193
 399 00c2 FFF7FEFF 		bl	LCD_Write_Cmd
 400              	.LVL63:
  61:Drivers/UserDrivers/lcd.c **** 	LCD_Write_Cmd(0xC2); 
 401              		.loc 1 61 2 view .LVU76
 402 00c6 C020     		movs	r0, #192
 403 00c8 FFF7FEFF 		bl	LCD_Write_Data8
 404              	.LVL64:
  62:Drivers/UserDrivers/lcd.c **** 	LCD_Write_Data8(0x0D); 
 405              		.loc 1 62 2 view .LVU77
 406 00cc C220     		movs	r0, #194
 407 00ce FFF7FEFF 		bl	LCD_Write_Cmd
 408              	.LVL65:
  63:Drivers/UserDrivers/lcd.c **** 	LCD_Write_Data8(0x00); 
 409              		.loc 1 63 2 view .LVU78
 410 00d2 0D20     		movs	r0, #13
 411 00d4 FFF7FEFF 		bl	LCD_Write_Data8
 412              	.LVL66:
  64:Drivers/UserDrivers/lcd.c **** 	LCD_Write_Cmd(0xC3); 
 413              		.loc 1 64 2 view .LVU79
 414 00d8 0020     		movs	r0, #0
 415 00da FFF7FEFF 		bl	LCD_Write_Data8
 416              	.LVL67:
  65:Drivers/UserDrivers/lcd.c **** 	LCD_Write_Data8(0x8D); 
ARM GAS  D:\noval\Temp\ccGOMXvb.s 			page 12


 417              		.loc 1 65 2 view .LVU80
 418 00de C320     		movs	r0, #195
 419 00e0 FFF7FEFF 		bl	LCD_Write_Cmd
 420              	.LVL68:
  66:Drivers/UserDrivers/lcd.c **** 	LCD_Write_Data8(0x2A); 
 421              		.loc 1 66 2 view .LVU81
 422 00e4 8D20     		movs	r0, #141
 423 00e6 FFF7FEFF 		bl	LCD_Write_Data8
 424              	.LVL69:
  67:Drivers/UserDrivers/lcd.c **** 	LCD_Write_Cmd(0xC4); 
 425              		.loc 1 67 2 view .LVU82
 426 00ea 2A20     		movs	r0, #42
 427 00ec FFF7FEFF 		bl	LCD_Write_Data8
 428              	.LVL70:
  68:Drivers/UserDrivers/lcd.c **** 	LCD_Write_Data8(0x8D); 
 429              		.loc 1 68 2 view .LVU83
 430 00f0 C420     		movs	r0, #196
 431 00f2 FFF7FEFF 		bl	LCD_Write_Cmd
 432              	.LVL71:
  69:Drivers/UserDrivers/lcd.c **** 	LCD_Write_Data8(0xEE); 
 433              		.loc 1 69 2 view .LVU84
 434 00f6 8D20     		movs	r0, #141
 435 00f8 FFF7FEFF 		bl	LCD_Write_Data8
 436              	.LVL72:
  70:Drivers/UserDrivers/lcd.c **** 	//---------------------------------End ST7735S Power Sequence-------------------------------------
 437              		.loc 1 70 2 view .LVU85
 438 00fc EE20     		movs	r0, #238
 439 00fe FFF7FEFF 		bl	LCD_Write_Data8
 440              	.LVL73:
  72:Drivers/UserDrivers/lcd.c **** 	LCD_Write_Data8(0x1A); 
 441              		.loc 1 72 2 view .LVU86
 442 0102 C520     		movs	r0, #197
 443 0104 FFF7FEFF 		bl	LCD_Write_Cmd
 444              	.LVL74:
  73:Drivers/UserDrivers/lcd.c **** 	LCD_Write_Cmd(0x36); //MX, MY, RGB mode 
 445              		.loc 1 73 2 view .LVU87
 446 0108 1A20     		movs	r0, #26
 447 010a FFF7FEFF 		bl	LCD_Write_Data8
 448              	.LVL75:
  74:Drivers/UserDrivers/lcd.c **** 	#if USE_HORIZONTAL==0
 449              		.loc 1 74 2 view .LVU88
 450 010e 3620     		movs	r0, #54
 451 0110 FFF7FEFF 		bl	LCD_Write_Cmd
 452              	.LVL76:
  80:Drivers/UserDrivers/lcd.c **** 	#else
 453              		.loc 1 80 9 view .LVU89
 454 0114 7020     		movs	r0, #112
 455 0116 FFF7FEFF 		bl	LCD_Write_Data8
 456              	.LVL77:
  85:Drivers/UserDrivers/lcd.c **** 	LCD_Write_Data8(0x04); 
 457              		.loc 1 85 2 view .LVU90
 458 011a E020     		movs	r0, #224
 459 011c FFF7FEFF 		bl	LCD_Write_Cmd
 460              	.LVL78:
  86:Drivers/UserDrivers/lcd.c **** 	LCD_Write_Data8(0x22); 
 461              		.loc 1 86 2 view .LVU91
 462 0120 0420     		movs	r0, #4
ARM GAS  D:\noval\Temp\ccGOMXvb.s 			page 13


 463 0122 FFF7FEFF 		bl	LCD_Write_Data8
 464              	.LVL79:
  87:Drivers/UserDrivers/lcd.c **** 	LCD_Write_Data8(0x07); 
 465              		.loc 1 87 2 view .LVU92
 466 0126 2220     		movs	r0, #34
 467 0128 FFF7FEFF 		bl	LCD_Write_Data8
 468              	.LVL80:
  88:Drivers/UserDrivers/lcd.c **** 	LCD_Write_Data8(0x0A); 
 469              		.loc 1 88 2 view .LVU93
 470 012c 0720     		movs	r0, #7
 471 012e FFF7FEFF 		bl	LCD_Write_Data8
 472              	.LVL81:
  89:Drivers/UserDrivers/lcd.c **** 	LCD_Write_Data8(0x2E); 
 473              		.loc 1 89 2 view .LVU94
 474 0132 0A20     		movs	r0, #10
 475 0134 FFF7FEFF 		bl	LCD_Write_Data8
 476              	.LVL82:
  90:Drivers/UserDrivers/lcd.c **** 	LCD_Write_Data8(0x30); 
 477              		.loc 1 90 2 view .LVU95
 478 0138 2E20     		movs	r0, #46
 479 013a FFF7FEFF 		bl	LCD_Write_Data8
 480              	.LVL83:
  91:Drivers/UserDrivers/lcd.c **** 	LCD_Write_Data8(0x25); 
 481              		.loc 1 91 2 view .LVU96
 482 013e 3020     		movs	r0, #48
 483 0140 FFF7FEFF 		bl	LCD_Write_Data8
 484              	.LVL84:
  92:Drivers/UserDrivers/lcd.c **** 	LCD_Write_Data8(0x2A); 
 485              		.loc 1 92 2 view .LVU97
 486 0144 2520     		movs	r0, #37
 487 0146 FFF7FEFF 		bl	LCD_Write_Data8
 488              	.LVL85:
  93:Drivers/UserDrivers/lcd.c **** 	LCD_Write_Data8(0x28); 
 489              		.loc 1 93 2 view .LVU98
 490 014a 2A20     		movs	r0, #42
 491 014c FFF7FEFF 		bl	LCD_Write_Data8
 492              	.LVL86:
  94:Drivers/UserDrivers/lcd.c **** 	LCD_Write_Data8(0x26); 
 493              		.loc 1 94 2 view .LVU99
 494 0150 2820     		movs	r0, #40
 495 0152 FFF7FEFF 		bl	LCD_Write_Data8
 496              	.LVL87:
  95:Drivers/UserDrivers/lcd.c **** 	LCD_Write_Data8(0x2E); 
 497              		.loc 1 95 2 view .LVU100
 498 0156 2620     		movs	r0, #38
 499 0158 FFF7FEFF 		bl	LCD_Write_Data8
 500              	.LVL88:
  96:Drivers/UserDrivers/lcd.c **** 	LCD_Write_Data8(0x3A); 
 501              		.loc 1 96 2 view .LVU101
 502 015c 2E20     		movs	r0, #46
 503 015e FFF7FEFF 		bl	LCD_Write_Data8
 504              	.LVL89:
  97:Drivers/UserDrivers/lcd.c **** 	LCD_Write_Data8(0x00); 
 505              		.loc 1 97 2 view .LVU102
 506 0162 3A20     		movs	r0, #58
 507 0164 FFF7FEFF 		bl	LCD_Write_Data8
 508              	.LVL90:
ARM GAS  D:\noval\Temp\ccGOMXvb.s 			page 14


  98:Drivers/UserDrivers/lcd.c **** 	LCD_Write_Data8(0x01); 
 509              		.loc 1 98 2 view .LVU103
 510 0168 0020     		movs	r0, #0
 511 016a FFF7FEFF 		bl	LCD_Write_Data8
 512              	.LVL91:
  99:Drivers/UserDrivers/lcd.c **** 	LCD_Write_Data8(0x03); 
 513              		.loc 1 99 2 view .LVU104
 514 016e 0120     		movs	r0, #1
 515 0170 FFF7FEFF 		bl	LCD_Write_Data8
 516              	.LVL92:
 100:Drivers/UserDrivers/lcd.c **** 	LCD_Write_Data8(0x13); 
 517              		.loc 1 100 2 view .LVU105
 518 0174 0320     		movs	r0, #3
 519 0176 FFF7FEFF 		bl	LCD_Write_Data8
 520              	.LVL93:
 101:Drivers/UserDrivers/lcd.c **** 	LCD_Write_Cmd(0xE1); 
 521              		.loc 1 101 2 view .LVU106
 522 017a 1320     		movs	r0, #19
 523 017c FFF7FEFF 		bl	LCD_Write_Data8
 524              	.LVL94:
 102:Drivers/UserDrivers/lcd.c **** 	LCD_Write_Data8(0x04); 
 525              		.loc 1 102 2 view .LVU107
 526 0180 E120     		movs	r0, #225
 527 0182 FFF7FEFF 		bl	LCD_Write_Cmd
 528              	.LVL95:
 103:Drivers/UserDrivers/lcd.c **** 	LCD_Write_Data8(0x16); 
 529              		.loc 1 103 2 view .LVU108
 530 0186 0420     		movs	r0, #4
 531 0188 FFF7FEFF 		bl	LCD_Write_Data8
 532              	.LVL96:
 104:Drivers/UserDrivers/lcd.c **** 	LCD_Write_Data8(0x06); 
 533              		.loc 1 104 2 view .LVU109
 534 018c 1620     		movs	r0, #22
 535 018e FFF7FEFF 		bl	LCD_Write_Data8
 536              	.LVL97:
 105:Drivers/UserDrivers/lcd.c **** 	LCD_Write_Data8(0x0D); 
 537              		.loc 1 105 2 view .LVU110
 538 0192 0620     		movs	r0, #6
 539 0194 FFF7FEFF 		bl	LCD_Write_Data8
 540              	.LVL98:
 106:Drivers/UserDrivers/lcd.c **** 	LCD_Write_Data8(0x2D); 
 541              		.loc 1 106 2 view .LVU111
 542 0198 0D20     		movs	r0, #13
 543 019a FFF7FEFF 		bl	LCD_Write_Data8
 544              	.LVL99:
 107:Drivers/UserDrivers/lcd.c **** 	LCD_Write_Data8(0x26); 
 545              		.loc 1 107 2 view .LVU112
 546 019e 2D20     		movs	r0, #45
 547 01a0 FFF7FEFF 		bl	LCD_Write_Data8
 548              	.LVL100:
 108:Drivers/UserDrivers/lcd.c **** 	LCD_Write_Data8(0x23); 
 549              		.loc 1 108 2 view .LVU113
 550 01a4 2620     		movs	r0, #38
 551 01a6 FFF7FEFF 		bl	LCD_Write_Data8
 552              	.LVL101:
 109:Drivers/UserDrivers/lcd.c **** 	LCD_Write_Data8(0x27); 
 553              		.loc 1 109 2 view .LVU114
ARM GAS  D:\noval\Temp\ccGOMXvb.s 			page 15


 554 01aa 2320     		movs	r0, #35
 555 01ac FFF7FEFF 		bl	LCD_Write_Data8
 556              	.LVL102:
 110:Drivers/UserDrivers/lcd.c **** 	LCD_Write_Data8(0x27); 
 557              		.loc 1 110 2 view .LVU115
 558 01b0 2720     		movs	r0, #39
 559 01b2 FFF7FEFF 		bl	LCD_Write_Data8
 560              	.LVL103:
 111:Drivers/UserDrivers/lcd.c **** 	LCD_Write_Data8(0x25); 
 561              		.loc 1 111 2 view .LVU116
 562 01b6 2720     		movs	r0, #39
 563 01b8 FFF7FEFF 		bl	LCD_Write_Data8
 564              	.LVL104:
 112:Drivers/UserDrivers/lcd.c **** 	LCD_Write_Data8(0x2D); 
 565              		.loc 1 112 2 view .LVU117
 566 01bc 2520     		movs	r0, #37
 567 01be FFF7FEFF 		bl	LCD_Write_Data8
 568              	.LVL105:
 113:Drivers/UserDrivers/lcd.c **** 	LCD_Write_Data8(0x3B); 
 569              		.loc 1 113 2 view .LVU118
 570 01c2 2D20     		movs	r0, #45
 571 01c4 FFF7FEFF 		bl	LCD_Write_Data8
 572              	.LVL106:
 114:Drivers/UserDrivers/lcd.c **** 	LCD_Write_Data8(0x00); 
 573              		.loc 1 114 2 view .LVU119
 574 01c8 3B20     		movs	r0, #59
 575 01ca FFF7FEFF 		bl	LCD_Write_Data8
 576              	.LVL107:
 115:Drivers/UserDrivers/lcd.c **** 	LCD_Write_Data8(0x01); 
 577              		.loc 1 115 2 view .LVU120
 578 01ce 0020     		movs	r0, #0
 579 01d0 FFF7FEFF 		bl	LCD_Write_Data8
 580              	.LVL108:
 116:Drivers/UserDrivers/lcd.c **** 	LCD_Write_Data8(0x04); 
 581              		.loc 1 116 2 view .LVU121
 582 01d4 0120     		movs	r0, #1
 583 01d6 FFF7FEFF 		bl	LCD_Write_Data8
 584              	.LVL109:
 117:Drivers/UserDrivers/lcd.c **** 	LCD_Write_Data8(0x13); 
 585              		.loc 1 117 2 view .LVU122
 586 01da 0420     		movs	r0, #4
 587 01dc FFF7FEFF 		bl	LCD_Write_Data8
 588              	.LVL110:
 118:Drivers/UserDrivers/lcd.c **** 	//------------------------------------End ST7735S Gamma Sequence-----------------------------// 
 589              		.loc 1 118 2 view .LVU123
 590 01e0 1320     		movs	r0, #19
 591 01e2 FFF7FEFF 		bl	LCD_Write_Data8
 592              	.LVL111:
 120:Drivers/UserDrivers/lcd.c **** 	LCD_Write_Data8(0x05); 
 593              		.loc 1 120 2 view .LVU124
 594 01e6 3A20     		movs	r0, #58
 595 01e8 FFF7FEFF 		bl	LCD_Write_Cmd
 596              	.LVL112:
 121:Drivers/UserDrivers/lcd.c **** 	LCD_Write_Cmd(0x29); //Displa
 597              		.loc 1 121 2 view .LVU125
 598 01ec 0520     		movs	r0, #5
 599 01ee FFF7FEFF 		bl	LCD_Write_Data8
ARM GAS  D:\noval\Temp\ccGOMXvb.s 			page 16


 600              	.LVL113:
 122:Drivers/UserDrivers/lcd.c **** }
 601              		.loc 1 122 2 view .LVU126
 602 01f2 2920     		movs	r0, #41
 603 01f4 FFF7FEFF 		bl	LCD_Write_Cmd
 604              	.LVL114:
 123:Drivers/UserDrivers/lcd.c **** 
 605              		.loc 1 123 1 is_stmt 0 view .LVU127
 606              		@ sp needed
 607 01f8 10BD     		pop	{r4, pc}
 608              		.cfi_endproc
 609              	.LFE63:
 611              		.section	.text.LCD_Fill,"ax",%progbits
 612              		.align	1
 613              		.global	LCD_Fill
 614              		.syntax unified
 615              		.code	16
 616              		.thumb_func
 618              	LCD_Fill:
 619              	.LVL115:
 620              	.LFB68:
 185:Drivers/UserDrivers/lcd.c **** 
 186:Drivers/UserDrivers/lcd.c **** 
 187:Drivers/UserDrivers/lcd.c **** void LCD_Fill(uint16_t xsta, uint16_t ysta, uint16_t xend, uint16_t yend, uint16_t color)
 188:Drivers/UserDrivers/lcd.c **** {
 621              		.loc 1 188 1 is_stmt 1 view -0
 622              		.cfi_startproc
 623              		@ args = 4, pretend = 0, frame = 8
 624              		@ frame_needed = 0, uses_anonymous_args = 0
 625              		.loc 1 188 1 is_stmt 0 view .LVU129
 626 0000 F0B5     		push	{r4, r5, r6, r7, lr}
 627              	.LCFI5:
 628              		.cfi_def_cfa_offset 20
 629              		.cfi_offset 4, -20
 630              		.cfi_offset 5, -16
 631              		.cfi_offset 6, -12
 632              		.cfi_offset 7, -8
 633              		.cfi_offset 14, -4
 634 0002 CE46     		mov	lr, r9
 635 0004 00B5     		push	{lr}
 636              	.LCFI6:
 637              		.cfi_def_cfa_offset 24
 638              		.cfi_offset 9, -24
 639 0006 82B0     		sub	sp, sp, #8
 640              	.LCFI7:
 641              		.cfi_def_cfa_offset 32
 642 0008 0190     		str	r0, [sp, #4]
 643 000a 0E00     		movs	r6, r1
 644 000c 1500     		movs	r5, r2
 645 000e 9946     		mov	r9, r3
 646 0010 08AB     		add	r3, sp, #32
 647              	.LVL116:
 648              		.loc 1 188 1 view .LVU130
 649 0012 1F88     		ldrh	r7, [r3]
 189:Drivers/UserDrivers/lcd.c ****     uint16_t i=0,j=0;
 650              		.loc 1 189 5 is_stmt 1 view .LVU131
 651              	.LVL117:
ARM GAS  D:\noval\Temp\ccGOMXvb.s 			page 17


 190:Drivers/UserDrivers/lcd.c ****     LCD_Display_Position(xsta,ysta,xend-1,yend-1);
 652              		.loc 1 190 5 view .LVU132
 653 0014 4B46     		mov	r3, r9
 654              	.LVL118:
 655              		.loc 1 190 5 is_stmt 0 view .LVU133
 656 0016 013B     		subs	r3, r3, #1
 657 0018 9BB2     		uxth	r3, r3
 658 001a 013A     		subs	r2, r2, #1
 659              	.LVL119:
 660              		.loc 1 190 5 view .LVU134
 661 001c 92B2     		uxth	r2, r2
 662 001e FFF7FEFF 		bl	LCD_Display_Position
 663              	.LVL120:
 191:Drivers/UserDrivers/lcd.c ****     for(i=ysta;i<yend;i++)
 664              		.loc 1 191 5 is_stmt 1 view .LVU135
 665              		.loc 1 191 5 is_stmt 0 view .LVU136
 666 0022 08E0     		b	.L9
 667              	.LVL121:
 668              	.L10:
 192:Drivers/UserDrivers/lcd.c ****     {
 193:Drivers/UserDrivers/lcd.c ****         for(j=xsta;j<xend;j++)
 194:Drivers/UserDrivers/lcd.c ****         {
 195:Drivers/UserDrivers/lcd.c ****             LCD_Write_Data(color);
 669              		.loc 1 195 13 is_stmt 1 view .LVU137
 670 0024 3800     		movs	r0, r7
 671 0026 FFF7FEFF 		bl	LCD_Write_Data
 672              	.LVL122:
 193:Drivers/UserDrivers/lcd.c ****         {
 673              		.loc 1 193 28 discriminator 3 view .LVU138
 674 002a 0134     		adds	r4, r4, #1
 675              	.LVL123:
 193:Drivers/UserDrivers/lcd.c ****         {
 676              		.loc 1 193 28 is_stmt 0 discriminator 3 view .LVU139
 677 002c A4B2     		uxth	r4, r4
 678              	.LVL124:
 679              	.L11:
 193:Drivers/UserDrivers/lcd.c ****         {
 680              		.loc 1 193 21 is_stmt 1 discriminator 1 view .LVU140
 681 002e AC42     		cmp	r4, r5
 682 0030 F8D3     		bcc	.L10
 191:Drivers/UserDrivers/lcd.c ****     for(i=ysta;i<yend;i++)
 683              		.loc 1 191 24 discriminator 2 view .LVU141
 684 0032 0136     		adds	r6, r6, #1
 685              	.LVL125:
 191:Drivers/UserDrivers/lcd.c ****     for(i=ysta;i<yend;i++)
 686              		.loc 1 191 24 is_stmt 0 discriminator 2 view .LVU142
 687 0034 B6B2     		uxth	r6, r6
 688              	.LVL126:
 689              	.L9:
 191:Drivers/UserDrivers/lcd.c ****     for(i=ysta;i<yend;i++)
 690              		.loc 1 191 17 is_stmt 1 discriminator 1 view .LVU143
 691 0036 4E45     		cmp	r6, r9
 692 0038 01D2     		bcs	.L13
 193:Drivers/UserDrivers/lcd.c ****         {
 693              		.loc 1 193 14 is_stmt 0 view .LVU144
 694 003a 019C     		ldr	r4, [sp, #4]
 695 003c F7E7     		b	.L11
ARM GAS  D:\noval\Temp\ccGOMXvb.s 			page 18


 696              	.L13:
 196:Drivers/UserDrivers/lcd.c ****         }
 197:Drivers/UserDrivers/lcd.c ****     }
 198:Drivers/UserDrivers/lcd.c **** }
 697              		.loc 1 198 1 view .LVU145
 698 003e 02B0     		add	sp, sp, #8
 699              		@ sp needed
 700              	.LVL127:
 701              	.LVL128:
 702              	.LVL129:
 703              		.loc 1 198 1 view .LVU146
 704 0040 80BC     		pop	{r7}
 705 0042 B946     		mov	r9, r7
 706 0044 F0BD     		pop	{r4, r5, r6, r7, pc}
 707              		.cfi_endproc
 708              	.LFE68:
 710              		.section	.text.LCD_Draw_Point,"ax",%progbits
 711              		.align	1
 712              		.global	LCD_Draw_Point
 713              		.syntax unified
 714              		.code	16
 715              		.thumb_func
 717              	LCD_Draw_Point:
 718              	.LVL130:
 719              	.LFB69:
 199:Drivers/UserDrivers/lcd.c **** 
 200:Drivers/UserDrivers/lcd.c **** 
 201:Drivers/UserDrivers/lcd.c **** void LCD_Draw_Point(uint16_t x,uint16_t y,uint16_t color)
 202:Drivers/UserDrivers/lcd.c **** {
 720              		.loc 1 202 1 is_stmt 1 view -0
 721              		.cfi_startproc
 722              		@ args = 0, pretend = 0, frame = 0
 723              		@ frame_needed = 0, uses_anonymous_args = 0
 724              		.loc 1 202 1 is_stmt 0 view .LVU148
 725 0000 10B5     		push	{r4, lr}
 726              	.LCFI8:
 727              		.cfi_def_cfa_offset 8
 728              		.cfi_offset 4, -8
 729              		.cfi_offset 14, -4
 730 0002 1400     		movs	r4, r2
 203:Drivers/UserDrivers/lcd.c **** 	LCD_Display_Position(x,y,x,y);
 731              		.loc 1 203 2 is_stmt 1 view .LVU149
 732 0004 0B00     		movs	r3, r1
 733 0006 0200     		movs	r2, r0
 734              	.LVL131:
 735              		.loc 1 203 2 is_stmt 0 view .LVU150
 736 0008 FFF7FEFF 		bl	LCD_Display_Position
 737              	.LVL132:
 204:Drivers/UserDrivers/lcd.c **** 	LCD_Write_Data(color);
 738              		.loc 1 204 2 is_stmt 1 view .LVU151
 739 000c 2000     		movs	r0, r4
 740 000e FFF7FEFF 		bl	LCD_Write_Data
 741              	.LVL133:
 205:Drivers/UserDrivers/lcd.c **** } 
 742              		.loc 1 205 1 is_stmt 0 view .LVU152
 743              		@ sp needed
 744              	.LVL134:
ARM GAS  D:\noval\Temp\ccGOMXvb.s 			page 19


 745              		.loc 1 205 1 view .LVU153
 746 0012 10BD     		pop	{r4, pc}
 747              		.cfi_endproc
 748              	.LFE69:
 750              		.section	.text.LCD_Draw_Line,"ax",%progbits
 751              		.align	1
 752              		.global	LCD_Draw_Line
 753              		.syntax unified
 754              		.code	16
 755              		.thumb_func
 757              	LCD_Draw_Line:
 758              	.LVL135:
 759              	.LFB70:
 206:Drivers/UserDrivers/lcd.c **** 
 207:Drivers/UserDrivers/lcd.c **** 
 208:Drivers/UserDrivers/lcd.c **** void LCD_Draw_Line(uint16_t x1,uint16_t y1,uint16_t x2,uint16_t y2,uint16_t color)
 209:Drivers/UserDrivers/lcd.c **** {
 760              		.loc 1 209 1 is_stmt 1 view -0
 761              		.cfi_startproc
 762              		@ args = 4, pretend = 0, frame = 16
 763              		@ frame_needed = 0, uses_anonymous_args = 0
 764              		.loc 1 209 1 is_stmt 0 view .LVU155
 765 0000 F0B5     		push	{r4, r5, r6, r7, lr}
 766              	.LCFI9:
 767              		.cfi_def_cfa_offset 20
 768              		.cfi_offset 4, -20
 769              		.cfi_offset 5, -16
 770              		.cfi_offset 6, -12
 771              		.cfi_offset 7, -8
 772              		.cfi_offset 14, -4
 773 0002 DE46     		mov	lr, fp
 774 0004 5746     		mov	r7, r10
 775 0006 4E46     		mov	r6, r9
 776 0008 4546     		mov	r5, r8
 777 000a E0B5     		push	{r5, r6, r7, lr}
 778              	.LCFI10:
 779              		.cfi_def_cfa_offset 36
 780              		.cfi_offset 8, -36
 781              		.cfi_offset 9, -32
 782              		.cfi_offset 10, -28
 783              		.cfi_offset 11, -24
 784 000c 85B0     		sub	sp, sp, #20
 785              	.LCFI11:
 786              		.cfi_def_cfa_offset 56
 787 000e 0EAC     		add	r4, sp, #56
 788              	.LVL136:
 789              		.loc 1 209 1 view .LVU156
 790 0010 2488     		ldrh	r4, [r4]
 791              	.LVL137:
 792              		.loc 1 209 1 view .LVU157
 793 0012 A146     		mov	r9, r4
 210:Drivers/UserDrivers/lcd.c **** 	uint16_t t; 
 794              		.loc 1 210 2 is_stmt 1 view .LVU158
 211:Drivers/UserDrivers/lcd.c **** 	int xerr=0,yerr=0,delta_x,delta_y,distance;
 795              		.loc 1 211 2 view .LVU159
 796              	.LVL138:
 212:Drivers/UserDrivers/lcd.c **** 	int incx,incy,uRow,uCol;
ARM GAS  D:\noval\Temp\ccGOMXvb.s 			page 20


 797              		.loc 1 212 2 view .LVU160
 213:Drivers/UserDrivers/lcd.c **** 	delta_x=x2-x1;
 798              		.loc 1 213 2 view .LVU161
 799              		.loc 1 213 12 is_stmt 0 view .LVU162
 800 0014 0190     		str	r0, [sp, #4]
 801              		.loc 1 213 9 view .LVU163
 802 0016 141A     		subs	r4, r2, r0
 803 0018 A246     		mov	r10, r4
 804              	.LVL139:
 214:Drivers/UserDrivers/lcd.c **** 	delta_y=y2-y1;
 805              		.loc 1 214 2 is_stmt 1 view .LVU164
 806              		.loc 1 214 12 is_stmt 0 view .LVU165
 807 001a 0291     		str	r1, [sp, #8]
 808              		.loc 1 214 9 view .LVU166
 809 001c 5C1A     		subs	r4, r3, r1
 810              	.LVL140:
 811              		.loc 1 214 9 view .LVU167
 812 001e A346     		mov	fp, r4
 813              	.LVL141:
 215:Drivers/UserDrivers/lcd.c **** 	uRow=x1;
 814              		.loc 1 215 2 is_stmt 1 view .LVU168
 216:Drivers/UserDrivers/lcd.c **** 	uCol=y1;
 815              		.loc 1 216 2 view .LVU169
 217:Drivers/UserDrivers/lcd.c **** 	if(delta_x>0)incx=1;
 816              		.loc 1 217 2 view .LVU170
 817              		.loc 1 217 4 is_stmt 0 view .LVU171
 818 0020 5446     		mov	r4, r10
 819              	.LVL142:
 820              		.loc 1 217 4 view .LVU172
 821 0022 002C     		cmp	r4, #0
 822 0024 0DDD     		ble	.L28
 823              		.loc 1 217 19 discriminator 1 view .LVU173
 824 0026 40F20108 		movw	r8, #1
 825              	.LVL143:
 826              	.L16:
 218:Drivers/UserDrivers/lcd.c **** 	else if (delta_x==0)incx=0;
 219:Drivers/UserDrivers/lcd.c **** 	else {incx=-1;delta_x=-delta_x;}
 220:Drivers/UserDrivers/lcd.c **** 	if(delta_y>0)incy=1;
 827              		.loc 1 220 2 is_stmt 1 view .LVU174
 828              		.loc 1 220 4 is_stmt 0 view .LVU175
 829 002a 5A46     		mov	r2, fp
 830 002c 002A     		cmp	r2, #0
 831 002e 11DD     		ble	.L29
 832              	.LVL144:
 833              		.loc 1 220 19 discriminator 1 view .LVU176
 834 0030 0123     		movs	r3, #1
 835              	.LVL145:
 836              		.loc 1 220 19 discriminator 1 view .LVU177
 837 0032 0393     		str	r3, [sp, #12]
 838              	.LVL146:
 839              	.L17:
 221:Drivers/UserDrivers/lcd.c **** 	else if (delta_y==0)incy=0;
 222:Drivers/UserDrivers/lcd.c **** 	else {incy=-1;delta_y=-delta_y;}
 223:Drivers/UserDrivers/lcd.c **** 	if(delta_x>delta_y)distance=delta_x;
 840              		.loc 1 223 2 is_stmt 1 view .LVU178
 841              		.loc 1 223 4 is_stmt 0 view .LVU179
 842 0034 DA45     		cmp	r10, fp
ARM GAS  D:\noval\Temp\ccGOMXvb.s 			page 21


 843 0036 16DD     		ble	.L27
 844              		.loc 1 223 29 discriminator 1 view .LVU180
 845 0038 5546     		mov	r5, r10
 846              	.L18:
 847              	.LVL147:
 224:Drivers/UserDrivers/lcd.c **** 	else distance=delta_y;
 225:Drivers/UserDrivers/lcd.c **** 	for(t=0;t<distance+1;t++)
 848              		.loc 1 225 2 is_stmt 1 view .LVU181
 211:Drivers/UserDrivers/lcd.c **** 	int incx,incy,uRow,uCol;
 849              		.loc 1 211 13 is_stmt 0 view .LVU182
 850 003a 0027     		movs	r7, #0
 211:Drivers/UserDrivers/lcd.c **** 	int incx,incy,uRow,uCol;
 851              		.loc 1 211 6 view .LVU183
 852 003c 0026     		movs	r6, #0
 853              		.loc 1 225 7 view .LVU184
 854 003e 0024     		movs	r4, #0
 855              		.loc 1 225 2 view .LVU185
 856 0040 15E0     		b	.L19
 857              	.LVL148:
 858              	.L28:
 218:Drivers/UserDrivers/lcd.c **** 	else {incx=-1;delta_x=-delta_x;}
 859              		.loc 1 218 7 is_stmt 1 view .LVU186
 218:Drivers/UserDrivers/lcd.c **** 	else {incx=-1;delta_x=-delta_x;}
 860              		.loc 1 218 10 is_stmt 0 view .LVU187
 861 0042 2CB1     		cbz	r4, .L24
 219:Drivers/UserDrivers/lcd.c **** 	if(delta_y>0)incy=1;
 862              		.loc 1 219 8 is_stmt 1 view .LVU188
 863              	.LVL149:
 219:Drivers/UserDrivers/lcd.c **** 	if(delta_y>0)incy=1;
 864              		.loc 1 219 16 view .LVU189
 219:Drivers/UserDrivers/lcd.c **** 	if(delta_y>0)incy=1;
 865              		.loc 1 219 23 is_stmt 0 view .LVU190
 866 0044 821A     		subs	r2, r0, r2
 867              	.LVL150:
 219:Drivers/UserDrivers/lcd.c **** 	if(delta_y>0)incy=1;
 868              		.loc 1 219 23 view .LVU191
 869 0046 9246     		mov	r10, r2
 870              	.LVL151:
 219:Drivers/UserDrivers/lcd.c **** 	if(delta_y>0)incy=1;
 871              		.loc 1 219 12 view .LVU192
 872 0048 0122     		movs	r2, #1
 873              	.LVL152:
 219:Drivers/UserDrivers/lcd.c **** 	if(delta_y>0)incy=1;
 874              		.loc 1 219 12 view .LVU193
 875 004a 5242     		rsbs	r2, r2, #0
 876 004c 9046     		mov	r8, r2
 877 004e ECE7     		b	.L16
 878              	.LVL153:
 879              	.L24:
 218:Drivers/UserDrivers/lcd.c **** 	else {incx=-1;delta_x=-delta_x;}
 880              		.loc 1 218 26 discriminator 1 view .LVU194
 881 0050 D046     		mov	r8, r10
 882 0052 EAE7     		b	.L16
 883              	.LVL154:
 884              	.L29:
 221:Drivers/UserDrivers/lcd.c **** 	else {incy=-1;delta_y=-delta_y;}
 885              		.loc 1 221 7 is_stmt 1 view .LVU195
ARM GAS  D:\noval\Temp\ccGOMXvb.s 			page 22


 221:Drivers/UserDrivers/lcd.c **** 	else {incy=-1;delta_y=-delta_y;}
 886              		.loc 1 221 10 is_stmt 0 view .LVU196
 887 0054 2AB1     		cbz	r2, .L26
 222:Drivers/UserDrivers/lcd.c **** 	if(delta_x>delta_y)distance=delta_x;
 888              		.loc 1 222 8 is_stmt 1 view .LVU197
 889              	.LVL155:
 222:Drivers/UserDrivers/lcd.c **** 	if(delta_x>delta_y)distance=delta_x;
 890              		.loc 1 222 16 view .LVU198
 222:Drivers/UserDrivers/lcd.c **** 	if(delta_x>delta_y)distance=delta_x;
 891              		.loc 1 222 23 is_stmt 0 view .LVU199
 892 0056 CB1A     		subs	r3, r1, r3
 893              	.LVL156:
 222:Drivers/UserDrivers/lcd.c **** 	if(delta_x>delta_y)distance=delta_x;
 894              		.loc 1 222 23 view .LVU200
 895 0058 9B46     		mov	fp, r3
 896              	.LVL157:
 222:Drivers/UserDrivers/lcd.c **** 	if(delta_x>delta_y)distance=delta_x;
 897              		.loc 1 222 12 view .LVU201
 898 005a 0123     		movs	r3, #1
 899              	.LVL158:
 222:Drivers/UserDrivers/lcd.c **** 	if(delta_x>delta_y)distance=delta_x;
 900              		.loc 1 222 12 view .LVU202
 901 005c 5B42     		rsbs	r3, r3, #0
 902 005e 0393     		str	r3, [sp, #12]
 903 0060 E8E7     		b	.L17
 904              	.LVL159:
 905              	.L26:
 221:Drivers/UserDrivers/lcd.c **** 	else {incy=-1;delta_y=-delta_y;}
 906              		.loc 1 221 26 discriminator 1 view .LVU203
 907 0062 0392     		str	r2, [sp, #12]
 908 0064 E6E7     		b	.L17
 909              	.LVL160:
 910              	.L27:
 224:Drivers/UserDrivers/lcd.c **** 	for(t=0;t<distance+1;t++)
 911              		.loc 1 224 15 view .LVU204
 912 0066 5D46     		mov	r5, fp
 913 0068 E7E7     		b	.L18
 914              	.LVL161:
 915              	.L21:
 916              		.loc 1 225 24 is_stmt 1 discriminator 2 view .LVU205
 917 006a 0134     		adds	r4, r4, #1
 918              	.LVL162:
 919              		.loc 1 225 24 is_stmt 0 discriminator 2 view .LVU206
 920 006c A4B2     		uxth	r4, r4
 921              	.LVL163:
 922              	.L19:
 923              		.loc 1 225 11 is_stmt 1 discriminator 1 view .LVU207
 924 006e AC42     		cmp	r4, r5
 925 0070 16DC     		bgt	.L30
 226:Drivers/UserDrivers/lcd.c **** 	{
 227:Drivers/UserDrivers/lcd.c **** 		LCD_Draw_Point(uRow,uCol,color);
 926              		.loc 1 227 3 view .LVU208
 927 0072 6B46     		mov	r3, sp
 928 0074 1989     		ldrh	r1, [r3, #8]
 929 0076 9888     		ldrh	r0, [r3, #4]
 930 0078 4A46     		mov	r2, r9
 931 007a FFF7FEFF 		bl	LCD_Draw_Point
ARM GAS  D:\noval\Temp\ccGOMXvb.s 			page 23


 932              	.LVL164:
 228:Drivers/UserDrivers/lcd.c **** 		xerr+=delta_x;
 933              		.loc 1 228 3 view .LVU209
 934              		.loc 1 228 7 is_stmt 0 view .LVU210
 935 007e 5644     		add	r6, r6, r10
 936              	.LVL165:
 229:Drivers/UserDrivers/lcd.c **** 		yerr+=delta_y;
 937              		.loc 1 229 3 is_stmt 1 view .LVU211
 938              		.loc 1 229 7 is_stmt 0 view .LVU212
 939 0080 5F44     		add	r7, r7, fp
 940              	.LVL166:
 230:Drivers/UserDrivers/lcd.c **** 		if(xerr>distance)
 941              		.loc 1 230 3 is_stmt 1 view .LVU213
 942              		.loc 1 230 5 is_stmt 0 view .LVU214
 943 0082 B542     		cmp	r5, r6
 944 0084 03DA     		bge	.L20
 231:Drivers/UserDrivers/lcd.c **** 		{
 232:Drivers/UserDrivers/lcd.c **** 			xerr-=distance;
 945              		.loc 1 232 4 is_stmt 1 view .LVU215
 946              		.loc 1 232 8 is_stmt 0 view .LVU216
 947 0086 761B     		subs	r6, r6, r5
 948              	.LVL167:
 233:Drivers/UserDrivers/lcd.c **** 			uRow+=incx;
 949              		.loc 1 233 4 is_stmt 1 view .LVU217
 950              		.loc 1 233 8 is_stmt 0 view .LVU218
 951 0088 019B     		ldr	r3, [sp, #4]
 952 008a 4344     		add	r3, r3, r8
 953 008c 0193     		str	r3, [sp, #4]
 954              	.LVL168:
 955              	.L20:
 234:Drivers/UserDrivers/lcd.c **** 		}
 235:Drivers/UserDrivers/lcd.c **** 		if(yerr>distance)
 956              		.loc 1 235 3 is_stmt 1 view .LVU219
 957              		.loc 1 235 5 is_stmt 0 view .LVU220
 958 008e BD42     		cmp	r5, r7
 959 0090 EBDA     		bge	.L21
 236:Drivers/UserDrivers/lcd.c **** 		{
 237:Drivers/UserDrivers/lcd.c **** 			yerr-=distance;
 960              		.loc 1 237 4 is_stmt 1 view .LVU221
 961              		.loc 1 237 8 is_stmt 0 view .LVU222
 962 0092 7F1B     		subs	r7, r7, r5
 963              	.LVL169:
 238:Drivers/UserDrivers/lcd.c **** 			uCol+=incy;
 964              		.loc 1 238 4 is_stmt 1 view .LVU223
 965              		.loc 1 238 8 is_stmt 0 view .LVU224
 966 0094 029B     		ldr	r3, [sp, #8]
 967 0096 039A     		ldr	r2, [sp, #12]
 968 0098 9446     		mov	ip, r2
 969 009a 6344     		add	r3, r3, ip
 970 009c 0293     		str	r3, [sp, #8]
 971              	.LVL170:
 972              		.loc 1 238 8 view .LVU225
 973 009e E4E7     		b	.L21
 974              	.LVL171:
 975              	.L30:
 239:Drivers/UserDrivers/lcd.c **** 		}
 240:Drivers/UserDrivers/lcd.c **** 	}
ARM GAS  D:\noval\Temp\ccGOMXvb.s 			page 24


 241:Drivers/UserDrivers/lcd.c **** }
 976              		.loc 1 241 1 view .LVU226
 977 00a0 05B0     		add	sp, sp, #20
 978              		@ sp needed
 979              	.LVL172:
 980              	.LVL173:
 981              	.LVL174:
 982              	.LVL175:
 983              	.LVL176:
 984              	.LVL177:
 985              	.LVL178:
 986              		.loc 1 241 1 view .LVU227
 987 00a2 F0BC     		pop	{r4, r5, r6, r7}
 988 00a4 BB46     		mov	fp, r7
 989 00a6 B246     		mov	r10, r6
 990 00a8 A946     		mov	r9, r5
 991 00aa A046     		mov	r8, r4
 992 00ac F0BD     		pop	{r4, r5, r6, r7, pc}
 993              		.cfi_endproc
 994              	.LFE70:
 996              		.section	.text.LCD_Draw_Rectangle,"ax",%progbits
 997              		.align	1
 998              		.global	LCD_Draw_Rectangle
 999              		.syntax unified
 1000              		.code	16
 1001              		.thumb_func
 1003              	LCD_Draw_Rectangle:
 1004              	.LVL179:
 1005              	.LFB71:
 242:Drivers/UserDrivers/lcd.c **** 
 243:Drivers/UserDrivers/lcd.c **** 
 244:Drivers/UserDrivers/lcd.c **** void LCD_Draw_Rectangle(uint16_t x1, uint16_t y1, uint16_t x2, uint16_t y2,uint16_t color)
 245:Drivers/UserDrivers/lcd.c **** {
 1006              		.loc 1 245 1 is_stmt 1 view -0
 1007              		.cfi_startproc
 1008              		@ args = 4, pretend = 0, frame = 0
 1009              		@ frame_needed = 0, uses_anonymous_args = 0
 1010              		.loc 1 245 1 is_stmt 0 view .LVU229
 1011 0000 F0B5     		push	{r4, r5, r6, r7, lr}
 1012              	.LCFI12:
 1013              		.cfi_def_cfa_offset 20
 1014              		.cfi_offset 4, -20
 1015              		.cfi_offset 5, -16
 1016              		.cfi_offset 6, -12
 1017              		.cfi_offset 7, -8
 1018              		.cfi_offset 14, -4
 1019 0002 C646     		mov	lr, r8
 1020 0004 00B5     		push	{lr}
 1021              	.LCFI13:
 1022              		.cfi_def_cfa_offset 24
 1023              		.cfi_offset 8, -24
 1024 0006 82B0     		sub	sp, sp, #8
 1025              	.LCFI14:
 1026              		.cfi_def_cfa_offset 32
 1027 0008 0700     		movs	r7, r0
 1028 000a 0D00     		movs	r5, r1
 1029 000c 1400     		movs	r4, r2
ARM GAS  D:\noval\Temp\ccGOMXvb.s 			page 25


 1030 000e 1E00     		movs	r6, r3
 1031 0010 08AB     		add	r3, sp, #32
 1032              	.LVL180:
 1033              		.loc 1 245 1 view .LVU230
 1034 0012 1B88     		ldrh	r3, [r3]
 1035              	.LVL181:
 1036              		.loc 1 245 1 view .LVU231
 1037 0014 9846     		mov	r8, r3
 246:Drivers/UserDrivers/lcd.c **** 	LCD_Draw_Line(x1,y1,x2,y1,color);
 1038              		.loc 1 246 2 is_stmt 1 view .LVU232
 1039 0016 0093     		str	r3, [sp]
 1040 0018 0B00     		movs	r3, r1
 1041 001a FFF7FEFF 		bl	LCD_Draw_Line
 1042              	.LVL182:
 247:Drivers/UserDrivers/lcd.c **** 	LCD_Draw_Line(x1,y1,x1,y2,color);
 1043              		.loc 1 247 2 view .LVU233
 1044 001e 4346     		mov	r3, r8
 1045 0020 0093     		str	r3, [sp]
 1046 0022 3300     		movs	r3, r6
 1047 0024 3A00     		movs	r2, r7
 1048 0026 2900     		movs	r1, r5
 1049 0028 3800     		movs	r0, r7
 1050 002a FFF7FEFF 		bl	LCD_Draw_Line
 1051              	.LVL183:
 248:Drivers/UserDrivers/lcd.c **** 	LCD_Draw_Line(x1,y2,x2,y2,color);
 1052              		.loc 1 248 2 view .LVU234
 1053 002e 4346     		mov	r3, r8
 1054 0030 0093     		str	r3, [sp]
 1055 0032 3300     		movs	r3, r6
 1056 0034 2200     		movs	r2, r4
 1057 0036 3100     		movs	r1, r6
 1058 0038 3800     		movs	r0, r7
 1059 003a FFF7FEFF 		bl	LCD_Draw_Line
 1060              	.LVL184:
 249:Drivers/UserDrivers/lcd.c **** 	LCD_Draw_Line(x2,y1,x2,y2,color);
 1061              		.loc 1 249 2 view .LVU235
 1062 003e 4346     		mov	r3, r8
 1063 0040 0093     		str	r3, [sp]
 1064 0042 3300     		movs	r3, r6
 1065 0044 2200     		movs	r2, r4
 1066 0046 2900     		movs	r1, r5
 1067 0048 2000     		movs	r0, r4
 1068 004a FFF7FEFF 		bl	LCD_Draw_Line
 1069              	.LVL185:
 250:Drivers/UserDrivers/lcd.c **** }
 1070              		.loc 1 250 1 is_stmt 0 view .LVU236
 1071 004e 02B0     		add	sp, sp, #8
 1072              		@ sp needed
 1073              	.LVL186:
 1074              	.LVL187:
 1075              	.LVL188:
 1076              	.LVL189:
 1077              		.loc 1 250 1 view .LVU237
 1078 0050 80BC     		pop	{r7}
 1079 0052 B846     		mov	r8, r7
 1080 0054 F0BD     		pop	{r4, r5, r6, r7, pc}
 1081              		.cfi_endproc
ARM GAS  D:\noval\Temp\ccGOMXvb.s 			page 26


 1082              	.LFE71:
 1084              		.section	.text.Draw_Circle,"ax",%progbits
 1085              		.align	1
 1086              		.global	Draw_Circle
 1087              		.syntax unified
 1088              		.code	16
 1089              		.thumb_func
 1091              	Draw_Circle:
 1092              	.LVL190:
 1093              	.LFB72:
 251:Drivers/UserDrivers/lcd.c **** 
 252:Drivers/UserDrivers/lcd.c **** 
 253:Drivers/UserDrivers/lcd.c **** void Draw_Circle(uint16_t x0,uint16_t y0,uint8_t r,uint16_t color)
 254:Drivers/UserDrivers/lcd.c **** {
 1094              		.loc 1 254 1 is_stmt 1 view -0
 1095              		.cfi_startproc
 1096              		@ args = 0, pretend = 0, frame = 16
 1097              		@ frame_needed = 0, uses_anonymous_args = 0
 1098              		.loc 1 254 1 is_stmt 0 view .LVU239
 1099 0000 F0B5     		push	{r4, r5, r6, r7, lr}
 1100              	.LCFI15:
 1101              		.cfi_def_cfa_offset 20
 1102              		.cfi_offset 4, -20
 1103              		.cfi_offset 5, -16
 1104              		.cfi_offset 6, -12
 1105              		.cfi_offset 7, -8
 1106              		.cfi_offset 14, -4
 1107 0002 DE46     		mov	lr, fp
 1108 0004 5746     		mov	r7, r10
 1109 0006 4E46     		mov	r6, r9
 1110 0008 4546     		mov	r5, r8
 1111 000a E0B5     		push	{r5, r6, r7, lr}
 1112              	.LCFI16:
 1113              		.cfi_def_cfa_offset 36
 1114              		.cfi_offset 8, -36
 1115              		.cfi_offset 9, -32
 1116              		.cfi_offset 10, -28
 1117              		.cfi_offset 11, -24
 1118 000c 85B0     		sub	sp, sp, #20
 1119              	.LCFI17:
 1120              		.cfi_def_cfa_offset 56
 1121 000e 8046     		mov	r8, r0
 1122 0010 8A46     		mov	r10, r1
 1123 0012 0392     		str	r2, [sp, #12]
 1124 0014 1E00     		movs	r6, r3
 255:Drivers/UserDrivers/lcd.c **** 	int a,b;
 1125              		.loc 1 255 2 is_stmt 1 view .LVU240
 256:Drivers/UserDrivers/lcd.c **** 	a=0;b=r;	  
 1126              		.loc 1 256 2 view .LVU241
 1127              	.LVL191:
 1128              		.loc 1 256 6 view .LVU242
 257:Drivers/UserDrivers/lcd.c **** 	while(a<=b)
 1129              		.loc 1 257 2 view .LVU243
 256:Drivers/UserDrivers/lcd.c **** 	a=0;b=r;	  
 1130              		.loc 1 256 7 is_stmt 0 view .LVU244
 1131 0016 0092     		str	r2, [sp]
 256:Drivers/UserDrivers/lcd.c **** 	a=0;b=r;	  
ARM GAS  D:\noval\Temp\ccGOMXvb.s 			page 27


 1132              		.loc 1 256 3 view .LVU245
 1133 0018 0027     		movs	r7, #0
 1134              	.LVL192:
 1135              	.L33:
 1136              		.loc 1 257 9 is_stmt 1 view .LVU246
 1137 001a 009B     		ldr	r3, [sp]
 1138 001c 9F42     		cmp	r7, r3
 1139 001e 55DC     		bgt	.L36
 258:Drivers/UserDrivers/lcd.c **** 	{
 259:Drivers/UserDrivers/lcd.c **** 		LCD_Draw_Point(x0-b,y0-a,color);             //3           
 1140              		.loc 1 259 3 view .LVU247
 1141 0020 6B46     		mov	r3, sp
 1142 0022 1D88     		ldrh	r5, [r3]
 1143 0024 4346     		mov	r3, r8
 1144 0026 5B1B     		subs	r3, r3, r5
 1145 0028 98B2     		uxth	r0, r3
 1146 002a BCB2     		uxth	r4, r7
 1147 002c 5346     		mov	r3, r10
 1148 002e 1B1B     		subs	r3, r3, r4
 1149 0030 9BB2     		uxth	r3, r3
 1150 0032 9B46     		mov	fp, r3
 1151 0034 3200     		movs	r2, r6
 1152 0036 1900     		movs	r1, r3
 1153 0038 0190     		str	r0, [sp, #4]
 1154 003a FFF7FEFF 		bl	LCD_Draw_Point
 1155              	.LVL193:
 260:Drivers/UserDrivers/lcd.c **** 		LCD_Draw_Point(x0+b,y0-a,color);             //0           
 1156              		.loc 1 260 3 view .LVU248
 1157 003e 4346     		mov	r3, r8
 1158 0040 EB18     		adds	r3, r5, r3
 1159 0042 9BB2     		uxth	r3, r3
 1160 0044 9946     		mov	r9, r3
 1161 0046 3200     		movs	r2, r6
 1162 0048 5946     		mov	r1, fp
 1163 004a 1800     		movs	r0, r3
 1164 004c FFF7FEFF 		bl	LCD_Draw_Point
 1165              	.LVL194:
 261:Drivers/UserDrivers/lcd.c **** 		LCD_Draw_Point(x0-a,y0+b,color);             //1                
 1166              		.loc 1 261 3 view .LVU249
 1167 0050 4346     		mov	r3, r8
 1168 0052 1B1B     		subs	r3, r3, r4
 1169 0054 9BB2     		uxth	r3, r3
 1170 0056 9B46     		mov	fp, r3
 1171 0058 5346     		mov	r3, r10
 1172 005a EB18     		adds	r3, r5, r3
 1173 005c 9BB2     		uxth	r3, r3
 1174 005e 3200     		movs	r2, r6
 1175 0060 0293     		str	r3, [sp, #8]
 1176 0062 1900     		movs	r1, r3
 1177 0064 5846     		mov	r0, fp
 1178 0066 FFF7FEFF 		bl	LCD_Draw_Point
 1179              	.LVL195:
 262:Drivers/UserDrivers/lcd.c **** 		LCD_Draw_Point(x0-a,y0-b,color);             //2             
 1180              		.loc 1 262 3 view .LVU250
 1181 006a 5246     		mov	r2, r10
 1182 006c 551B     		subs	r5, r2, r5
 1183 006e ADB2     		uxth	r5, r5
ARM GAS  D:\noval\Temp\ccGOMXvb.s 			page 28


 1184 0070 3200     		movs	r2, r6
 1185 0072 2900     		movs	r1, r5
 1186 0074 5846     		mov	r0, fp
 1187 0076 FFF7FEFF 		bl	LCD_Draw_Point
 1188              	.LVL196:
 263:Drivers/UserDrivers/lcd.c **** 		LCD_Draw_Point(x0+b,y0+a,color);             //4               
 1189              		.loc 1 263 3 view .LVU251
 1190 007a 5246     		mov	r2, r10
 1191 007c A318     		adds	r3, r4, r2
 1192 007e 9AB2     		uxth	r2, r3
 1193 0080 9346     		mov	fp, r2
 1194 0082 3200     		movs	r2, r6
 1195 0084 5946     		mov	r1, fp
 1196 0086 4846     		mov	r0, r9
 1197 0088 FFF7FEFF 		bl	LCD_Draw_Point
 1198              	.LVL197:
 264:Drivers/UserDrivers/lcd.c **** 		LCD_Draw_Point(x0+a,y0-b,color);             //5
 1199              		.loc 1 264 3 view .LVU252
 1200 008c 4444     		add	r4, r4, r8
 1201 008e A4B2     		uxth	r4, r4
 1202 0090 3200     		movs	r2, r6
 1203 0092 2900     		movs	r1, r5
 1204 0094 2000     		movs	r0, r4
 1205 0096 FFF7FEFF 		bl	LCD_Draw_Point
 1206              	.LVL198:
 265:Drivers/UserDrivers/lcd.c **** 		LCD_Draw_Point(x0+a,y0+b,color);             //6 
 1207              		.loc 1 265 3 view .LVU253
 1208 009a 3200     		movs	r2, r6
 1209 009c 0299     		ldr	r1, [sp, #8]
 1210 009e 2000     		movs	r0, r4
 1211 00a0 FFF7FEFF 		bl	LCD_Draw_Point
 1212              	.LVL199:
 266:Drivers/UserDrivers/lcd.c **** 		LCD_Draw_Point(x0-b,y0+a,color);             //7
 1213              		.loc 1 266 3 view .LVU254
 1214 00a4 3200     		movs	r2, r6
 1215 00a6 5946     		mov	r1, fp
 1216 00a8 0198     		ldr	r0, [sp, #4]
 1217 00aa FFF7FEFF 		bl	LCD_Draw_Point
 1218              	.LVL200:
 267:Drivers/UserDrivers/lcd.c **** 		a++;
 1219              		.loc 1 267 3 view .LVU255
 1220              		.loc 1 267 4 is_stmt 0 view .LVU256
 1221 00ae 0137     		adds	r7, r7, #1
 1222              	.LVL201:
 268:Drivers/UserDrivers/lcd.c **** 		if((a*a+b*b)>(r*r))
 1223              		.loc 1 268 3 is_stmt 1 view .LVU257
 1224              		.loc 1 268 8 is_stmt 0 view .LVU258
 1225 00b0 3B00     		movs	r3, r7
 1226 00b2 7B43     		muls	r3, r7
 1227              		.loc 1 268 12 view .LVU259
 1228 00b4 0099     		ldr	r1, [sp]
 1229 00b6 0A00     		movs	r2, r1
 1230 00b8 4A43     		muls	r2, r1
 1231              		.loc 1 268 10 view .LVU260
 1232 00ba 9B18     		adds	r3, r3, r2
 1233              		.loc 1 268 18 view .LVU261
 1234 00bc 0398     		ldr	r0, [sp, #12]
ARM GAS  D:\noval\Temp\ccGOMXvb.s 			page 29


 1235 00be 0200     		movs	r2, r0
 1236 00c0 4243     		muls	r2, r0
 1237              		.loc 1 268 5 view .LVU262
 1238 00c2 9342     		cmp	r3, r2
 1239 00c4 A9DD     		ble	.L33
 269:Drivers/UserDrivers/lcd.c **** 		{
 270:Drivers/UserDrivers/lcd.c **** 			b--;
 1240              		.loc 1 270 4 is_stmt 1 view .LVU263
 1241              		.loc 1 270 5 is_stmt 0 view .LVU264
 1242 00c6 0139     		subs	r1, r1, #1
 1243 00c8 0091     		str	r1, [sp]
 1244              	.LVL202:
 1245              		.loc 1 270 5 view .LVU265
 1246 00ca A6E7     		b	.L33
 1247              	.LVL203:
 1248              	.L36:
 271:Drivers/UserDrivers/lcd.c **** 		}
 272:Drivers/UserDrivers/lcd.c **** 	}
 273:Drivers/UserDrivers/lcd.c **** }
 1249              		.loc 1 273 1 view .LVU266
 1250 00cc 05B0     		add	sp, sp, #20
 1251              		@ sp needed
 1252              	.LVL204:
 1253              	.LVL205:
 1254              	.LVL206:
 1255              	.LVL207:
 1256              		.loc 1 273 1 view .LVU267
 1257 00ce F0BC     		pop	{r4, r5, r6, r7}
 1258 00d0 BB46     		mov	fp, r7
 1259 00d2 B246     		mov	r10, r6
 1260 00d4 A946     		mov	r9, r5
 1261 00d6 A046     		mov	r8, r4
 1262 00d8 F0BD     		pop	{r4, r5, r6, r7, pc}
 1263              		.cfi_endproc
 1264              	.LFE72:
 1266              		.section	.text.LCD_Show_Char,"ax",%progbits
 1267              		.align	1
 1268              		.global	LCD_Show_Char
 1269              		.syntax unified
 1270              		.code	16
 1271              		.thumb_func
 1273              	LCD_Show_Char:
 1274              	.LVL208:
 1275              	.LFB73:
 274:Drivers/UserDrivers/lcd.c **** 
 275:Drivers/UserDrivers/lcd.c **** 
 276:Drivers/UserDrivers/lcd.c **** void LCD_Show_Char(uint16_t x,uint16_t y,uint8_t num,uint16_t fc,uint16_t bc,uint8_t sizey,uint8_t 
 277:Drivers/UserDrivers/lcd.c **** {
 1276              		.loc 1 277 1 is_stmt 1 view -0
 1277              		.cfi_startproc
 1278              		@ args = 12, pretend = 0, frame = 24
 1279              		@ frame_needed = 0, uses_anonymous_args = 0
 1280              		.loc 1 277 1 is_stmt 0 view .LVU269
 1281 0000 F0B5     		push	{r4, r5, r6, r7, lr}
 1282              	.LCFI18:
 1283              		.cfi_def_cfa_offset 20
 1284              		.cfi_offset 4, -20
ARM GAS  D:\noval\Temp\ccGOMXvb.s 			page 30


 1285              		.cfi_offset 5, -16
 1286              		.cfi_offset 6, -12
 1287              		.cfi_offset 7, -8
 1288              		.cfi_offset 14, -4
 1289 0002 DE46     		mov	lr, fp
 1290 0004 5746     		mov	r7, r10
 1291 0006 4E46     		mov	r6, r9
 1292 0008 4546     		mov	r5, r8
 1293 000a E0B5     		push	{r5, r6, r7, lr}
 1294              	.LCFI19:
 1295              		.cfi_def_cfa_offset 36
 1296              		.cfi_offset 8, -36
 1297              		.cfi_offset 9, -32
 1298              		.cfi_offset 10, -28
 1299              		.cfi_offset 11, -24
 1300 000c 87B0     		sub	sp, sp, #28
 1301              	.LCFI20:
 1302              		.cfi_def_cfa_offset 64
 1303 000e 8246     		mov	r10, r0
 1304 0010 0D00     		movs	r5, r1
 1305 0012 0391     		str	r1, [sp, #12]
 1306 0014 0093     		str	r3, [sp]
 1307 0016 10AB     		add	r3, sp, #64
 1308              	.LVL209:
 1309              		.loc 1 277 1 view .LVU270
 1310 0018 1B88     		ldrh	r3, [r3]
 1311              	.LVL210:
 1312              		.loc 1 277 1 view .LVU271
 1313 001a 0293     		str	r3, [sp, #8]
 1314 001c 11AB     		add	r3, sp, #68
 1315              	.LVL211:
 1316              		.loc 1 277 1 view .LVU272
 1317 001e 1C78     		ldrb	r4, [r3]
 1318 0020 0194     		str	r4, [sp, #4]
 1319 0022 12AB     		add	r3, sp, #72
 1320              	.LVL212:
 1321              		.loc 1 277 1 view .LVU273
 1322 0024 1B78     		ldrb	r3, [r3]
 1323              	.LVL213:
 1324              		.loc 1 277 1 view .LVU274
 1325 0026 9946     		mov	r9, r3
 278:Drivers/UserDrivers/lcd.c **** 	uint8_t temp,sizex,t,m=0;
 1326              		.loc 1 278 2 is_stmt 1 view .LVU275
 1327              	.LVL214:
 279:Drivers/UserDrivers/lcd.c **** 	uint16_t i,TypefaceNum;
 1328              		.loc 1 279 2 view .LVU276
 280:Drivers/UserDrivers/lcd.c **** 	uint16_t x0=x;
 1329              		.loc 1 280 2 view .LVU277
 281:Drivers/UserDrivers/lcd.c **** 	sizex=sizey/2;
 1330              		.loc 1 281 2 view .LVU278
 1331              		.loc 1 281 7 is_stmt 0 view .LVU279
 1332 0028 6708     		lsrs	r7, r4, #1
 1333              	.LVL215:
 282:Drivers/UserDrivers/lcd.c **** 	TypefaceNum=(sizex/8+((sizex%8)?1:0))*sizey;
 1334              		.loc 1 282 2 is_stmt 1 view .LVU280
 1335              		.loc 1 282 20 is_stmt 0 view .LVU281
 1336 002a 2109     		lsrs	r1, r4, #4
ARM GAS  D:\noval\Temp\ccGOMXvb.s 			page 31


 1337              	.LVL216:
 1338              		.loc 1 282 35 view .LVU282
 1339 002c 0723     		movs	r3, #7
 1340 002e 3B40     		ands	r3, r7
 1341 0030 581E     		subs	r0, r3, #1
 1342 0032 8341     		sbcs	r3, r3, r0
 1343              	.LVL217:
 1344              		.loc 1 282 22 view .LVU283
 1345 0034 CB18     		adds	r3, r1, r3
 1346              		.loc 1 282 13 view .LVU284
 1347 0036 2000     		movs	r0, r4
 1348 0038 5C43     		muls	r4, r3
 1349 003a 0494     		str	r4, [sp, #16]
 1350              	.LVL218:
 283:Drivers/UserDrivers/lcd.c **** 	num=num-' ';
 1351              		.loc 1 283 2 is_stmt 1 view .LVU285
 1352              		.loc 1 283 5 is_stmt 0 view .LVU286
 1353 003c 203A     		subs	r2, r2, #32
 1354              	.LVL219:
 1355              		.loc 1 283 5 view .LVU287
 1356 003e D3B2     		uxtb	r3, r2
 1357 0040 0593     		str	r3, [sp, #20]
 1358              	.LVL220:
 284:Drivers/UserDrivers/lcd.c **** 	LCD_Display_Position(x,y,x+sizex-1,y+sizey-1);
 1359              		.loc 1 284 2 is_stmt 1 view .LVU288
 1360              		.loc 1 284 28 is_stmt 0 view .LVU289
 1361 0042 5346     		mov	r3, r10
 1362 0044 FA18     		adds	r2, r7, r3
 1363 0046 92B2     		uxth	r2, r2
 1364              		.loc 1 284 38 view .LVU290
 1365 0048 2B00     		movs	r3, r5
 1366 004a 8446     		mov	ip, r0
 1367 004c 6344     		add	r3, r3, ip
 1368 004e 9BB2     		uxth	r3, r3
 1369              		.loc 1 284 2 view .LVU291
 1370 0050 013B     		subs	r3, r3, #1
 1371 0052 9BB2     		uxth	r3, r3
 1372 0054 013A     		subs	r2, r2, #1
 1373 0056 92B2     		uxth	r2, r2
 1374 0058 2900     		movs	r1, r5
 1375 005a 5046     		mov	r0, r10
 1376 005c FFF7FEFF 		bl	LCD_Display_Position
 1377              	.LVL221:
 285:Drivers/UserDrivers/lcd.c **** 	for(i=0;i<TypefaceNum;i++)
 1378              		.loc 1 285 2 is_stmt 1 view .LVU292
 1379              		.loc 1 285 2 is_stmt 0 view .LVU293
 1380 0060 5646     		mov	r6, r10
 1381              		.loc 1 285 7 view .LVU294
 1382 0062 40F2000B 		movw	fp, #0
 278:Drivers/UserDrivers/lcd.c **** 	uint16_t i,TypefaceNum;
 1383              		.loc 1 278 23 view .LVU295
 1384 0066 0025     		movs	r5, #0
 1385              	.LVL222:
 1386              		.loc 1 285 2 view .LVU296
 1387 0068 57E0     		b	.L38
 1388              	.LVL223:
 1389              	.L57:
ARM GAS  D:\noval\Temp\ccGOMXvb.s 			page 32


 286:Drivers/UserDrivers/lcd.c **** 	{ 
 287:Drivers/UserDrivers/lcd.c **** 		if(sizey==12)temp=ascii_1206[num][i];
 1390              		.loc 1 287 16 is_stmt 1 discriminator 1 view .LVU297
 1391              		.loc 1 287 20 is_stmt 0 discriminator 1 view .LVU298
 1392 006a 059A     		ldr	r2, [sp, #20]
 1393 006c 5300     		lsls	r3, r2, #1
 1394 006e 9446     		mov	ip, r2
 1395 0070 6344     		add	r3, r3, ip
 1396 0072 9B00     		lsls	r3, r3, #2
 1397 0074 40F20002 		movw	r2, #:lower16:ascii_1206
 1398 0078 C0F20002 		movt	r2, #:upper16:ascii_1206
 1399 007c 9446     		mov	ip, r2
 1400 007e 6344     		add	r3, r3, ip
 1401 0080 5A46     		mov	r2, fp
 1402 0082 9B5C     		ldrb	r3, [r3, r2]
 1403 0084 9846     		mov	r8, r3
 1404              	.LVL224:
 1405              	.L40:
 288:Drivers/UserDrivers/lcd.c **** 		else if(sizey==16)temp=ascii_1608[num][i];
 289:Drivers/UserDrivers/lcd.c **** 		else if(sizey==24)temp=ascii_2412[num][i];
 290:Drivers/UserDrivers/lcd.c **** 		else if(sizey==32)temp=ascii_3216[num][i];
 291:Drivers/UserDrivers/lcd.c **** 		else return;
 292:Drivers/UserDrivers/lcd.c **** 		for(t=0;t<8;t++)
 1406              		.loc 1 292 3 is_stmt 1 view .LVU299
 1407              		.loc 1 292 8 is_stmt 0 view .LVU300
 1408 0086 0024     		movs	r4, #0
 1409              		.loc 1 292 3 view .LVU301
 1410 0088 28E0     		b	.L44
 1411              	.LVL225:
 1412              	.L58:
 288:Drivers/UserDrivers/lcd.c **** 		else if(sizey==16)temp=ascii_1608[num][i];
 1413              		.loc 1 288 21 is_stmt 1 discriminator 1 view .LVU302
 288:Drivers/UserDrivers/lcd.c **** 		else if(sizey==16)temp=ascii_1608[num][i];
 1414              		.loc 1 288 25 is_stmt 0 discriminator 1 view .LVU303
 1415 008a 059B     		ldr	r3, [sp, #20]
 1416 008c 1B01     		lsls	r3, r3, #4
 1417 008e 40F20002 		movw	r2, #:lower16:ascii_1608
 1418 0092 C0F20002 		movt	r2, #:upper16:ascii_1608
 1419 0096 9446     		mov	ip, r2
 1420 0098 6344     		add	r3, r3, ip
 1421 009a 5A46     		mov	r2, fp
 1422 009c 9B5C     		ldrb	r3, [r3, r2]
 1423 009e 9846     		mov	r8, r3
 1424              	.LVL226:
 288:Drivers/UserDrivers/lcd.c **** 		else if(sizey==16)temp=ascii_1608[num][i];
 1425              		.loc 1 288 25 discriminator 1 view .LVU304
 1426 00a0 F1E7     		b	.L40
 1427              	.LVL227:
 1428              	.L59:
 289:Drivers/UserDrivers/lcd.c **** 		else if(sizey==32)temp=ascii_3216[num][i];
 1429              		.loc 1 289 21 is_stmt 1 discriminator 1 view .LVU305
 289:Drivers/UserDrivers/lcd.c **** 		else if(sizey==32)temp=ascii_3216[num][i];
 1430              		.loc 1 289 25 is_stmt 0 discriminator 1 view .LVU306
 1431 00a2 059A     		ldr	r2, [sp, #20]
 1432 00a4 5300     		lsls	r3, r2, #1
 1433 00a6 9446     		mov	ip, r2
 1434 00a8 6344     		add	r3, r3, ip
ARM GAS  D:\noval\Temp\ccGOMXvb.s 			page 33


 1435 00aa 1B01     		lsls	r3, r3, #4
 1436 00ac 40F20002 		movw	r2, #:lower16:ascii_2412
 1437 00b0 C0F20002 		movt	r2, #:upper16:ascii_2412
 1438 00b4 9446     		mov	ip, r2
 1439 00b6 6344     		add	r3, r3, ip
 1440 00b8 5A46     		mov	r2, fp
 1441 00ba 9B5C     		ldrb	r3, [r3, r2]
 1442 00bc 9846     		mov	r8, r3
 1443              	.LVL228:
 289:Drivers/UserDrivers/lcd.c **** 		else if(sizey==32)temp=ascii_3216[num][i];
 1444              		.loc 1 289 25 discriminator 1 view .LVU307
 1445 00be E2E7     		b	.L40
 1446              	.LVL229:
 1447              	.L46:
 293:Drivers/UserDrivers/lcd.c **** 		{
 294:Drivers/UserDrivers/lcd.c **** 			if(!mode)
 295:Drivers/UserDrivers/lcd.c **** 			{
 296:Drivers/UserDrivers/lcd.c **** 				if(temp&(0x01<<t))LCD_Write_Data(fc);
 297:Drivers/UserDrivers/lcd.c **** 				else LCD_Write_Data(bc);
 1448              		.loc 1 297 10 is_stmt 1 view .LVU308
 1449 00c0 0298     		ldr	r0, [sp, #8]
 1450 00c2 FFF7FEFF 		bl	LCD_Write_Data
 1451              	.LVL230:
 1452              	.L47:
 298:Drivers/UserDrivers/lcd.c **** 				m++;
 1453              		.loc 1 298 5 view .LVU309
 1454              		.loc 1 298 6 is_stmt 0 view .LVU310
 1455 00c6 0135     		adds	r5, r5, #1
 1456              	.LVL231:
 1457              		.loc 1 298 6 view .LVU311
 1458 00c8 EDB2     		uxtb	r5, r5
 1459              	.LVL232:
 299:Drivers/UserDrivers/lcd.c **** 				if(m%sizex==0)
 1460              		.loc 1 299 5 is_stmt 1 view .LVU312
 1461              		.loc 1 299 15 is_stmt 0 view .LVU313
 1462 00ca B5FBF7F3 		udiv	r3, r5, r7
 1463 00ce 7B43     		muls	r3, r7
 1464 00d0 EB1A     		subs	r3, r5, r3
 1465 00d2 DBB2     		uxtb	r3, r3
 1466              		.loc 1 299 7 view .LVU314
 1467 00d4 002B     		cmp	r3, #0
 1468 00d6 41D0     		beq	.L55
 1469              	.L49:
 292:Drivers/UserDrivers/lcd.c **** 		{
 1470              		.loc 1 292 16 is_stmt 1 discriminator 2 view .LVU315
 1471 00d8 0134     		adds	r4, r4, #1
 1472              	.LVL233:
 292:Drivers/UserDrivers/lcd.c **** 		{
 1473              		.loc 1 292 16 is_stmt 0 discriminator 2 view .LVU316
 1474 00da E4B2     		uxtb	r4, r4
 1475              	.LVL234:
 1476              	.L44:
 292:Drivers/UserDrivers/lcd.c **** 		{
 1477              		.loc 1 292 12 is_stmt 1 discriminator 1 view .LVU317
 1478 00dc 072C     		cmp	r4, #7
 1479 00de 18D8     		bhi	.L48
 294:Drivers/UserDrivers/lcd.c **** 			{
ARM GAS  D:\noval\Temp\ccGOMXvb.s 			page 34


 1480              		.loc 1 294 4 view .LVU318
 294:Drivers/UserDrivers/lcd.c **** 			{
 1481              		.loc 1 294 6 is_stmt 0 view .LVU319
 1482 00e0 4B46     		mov	r3, r9
 1483 00e2 3BB9     		cbnz	r3, .L45
 296:Drivers/UserDrivers/lcd.c **** 				else LCD_Write_Data(bc);
 1484              		.loc 1 296 5 is_stmt 1 view .LVU320
 296:Drivers/UserDrivers/lcd.c **** 				else LCD_Write_Data(bc);
 1485              		.loc 1 296 8 is_stmt 0 view .LVU321
 1486 00e4 4346     		mov	r3, r8
 1487 00e6 2341     		asrs	r3, r3, r4
 296:Drivers/UserDrivers/lcd.c **** 				else LCD_Write_Data(bc);
 1488              		.loc 1 296 7 view .LVU322
 1489 00e8 DB07     		lsls	r3, r3, #31
 1490 00ea E9D5     		bpl	.L46
 296:Drivers/UserDrivers/lcd.c **** 				else LCD_Write_Data(bc);
 1491              		.loc 1 296 23 is_stmt 1 discriminator 1 view .LVU323
 1492 00ec 0098     		ldr	r0, [sp]
 1493 00ee FFF7FEFF 		bl	LCD_Write_Data
 1494              	.LVL235:
 1495 00f2 E8E7     		b	.L47
 1496              	.L45:
 300:Drivers/UserDrivers/lcd.c **** 				{
 301:Drivers/UserDrivers/lcd.c **** 					m=0;
 302:Drivers/UserDrivers/lcd.c **** 					break;
 303:Drivers/UserDrivers/lcd.c **** 				}
 304:Drivers/UserDrivers/lcd.c **** 			}
 305:Drivers/UserDrivers/lcd.c **** 			else
 306:Drivers/UserDrivers/lcd.c **** 			{
 307:Drivers/UserDrivers/lcd.c **** 				if(temp&(0x01<<t)) LCD_Draw_Point(x,y,fc);
 1497              		.loc 1 307 5 view .LVU324
 1498              		.loc 1 307 8 is_stmt 0 view .LVU325
 1499 00f4 4346     		mov	r3, r8
 1500 00f6 2341     		asrs	r3, r3, r4
 1501              		.loc 1 307 7 view .LVU326
 1502 00f8 DB07     		lsls	r3, r3, #31
 1503 00fa 29D4     		bmi	.L56
 1504              	.L50:
 308:Drivers/UserDrivers/lcd.c **** 				x++;
 1505              		.loc 1 308 5 is_stmt 1 view .LVU327
 1506              		.loc 1 308 6 is_stmt 0 view .LVU328
 1507 00fc 0136     		adds	r6, r6, #1
 1508              	.LVL236:
 1509              		.loc 1 308 6 view .LVU329
 1510 00fe B6B2     		uxth	r6, r6
 1511              	.LVL237:
 309:Drivers/UserDrivers/lcd.c **** 				if((x-x0)==sizex)
 1512              		.loc 1 309 5 is_stmt 1 view .LVU330
 1513              		.loc 1 309 10 is_stmt 0 view .LVU331
 1514 0100 5346     		mov	r3, r10
 1515 0102 F31A     		subs	r3, r6, r3
 1516              		.loc 1 309 7 view .LVU332
 1517 0104 BB42     		cmp	r3, r7
 1518 0106 E7D1     		bne	.L49
 310:Drivers/UserDrivers/lcd.c **** 				{
 311:Drivers/UserDrivers/lcd.c **** 					x=x0;
 1519              		.loc 1 311 6 is_stmt 1 view .LVU333
ARM GAS  D:\noval\Temp\ccGOMXvb.s 			page 35


 1520              	.LVL238:
 312:Drivers/UserDrivers/lcd.c **** 					y++;
 1521              		.loc 1 312 6 view .LVU334
 1522              		.loc 1 312 7 is_stmt 0 view .LVU335
 1523 0108 039B     		ldr	r3, [sp, #12]
 1524 010a 0133     		adds	r3, r3, #1
 1525 010c 9BB2     		uxth	r3, r3
 1526 010e 0393     		str	r3, [sp, #12]
 1527              	.LVL239:
 313:Drivers/UserDrivers/lcd.c **** 					break;
 1528              		.loc 1 313 6 is_stmt 1 view .LVU336
 311:Drivers/UserDrivers/lcd.c **** 					y++;
 1529              		.loc 1 311 7 is_stmt 0 view .LVU337
 1530 0110 5646     		mov	r6, r10
 1531              	.LVL240:
 1532              	.L48:
 285:Drivers/UserDrivers/lcd.c **** 	{ 
 1533              		.loc 1 285 25 is_stmt 1 discriminator 2 view .LVU338
 1534 0112 5A46     		mov	r2, fp
 1535 0114 0132     		adds	r2, r2, #1
 1536 0116 93B2     		uxth	r3, r2
 1537 0118 9B46     		mov	fp, r3
 1538              	.LVL241:
 1539              	.L38:
 285:Drivers/UserDrivers/lcd.c **** 	{ 
 1540              		.loc 1 285 11 discriminator 1 view .LVU339
 1541 011a 049B     		ldr	r3, [sp, #16]
 1542 011c 9B45     		cmp	fp, r3
 1543 011e 1FD2     		bcs	.L37
 287:Drivers/UserDrivers/lcd.c **** 		else if(sizey==16)temp=ascii_1608[num][i];
 1544              		.loc 1 287 3 view .LVU340
 287:Drivers/UserDrivers/lcd.c **** 		else if(sizey==16)temp=ascii_1608[num][i];
 1545              		.loc 1 287 5 is_stmt 0 view .LVU341
 1546 0120 019B     		ldr	r3, [sp, #4]
 1547 0122 0C2B     		cmp	r3, #12
 1548 0124 A1D0     		beq	.L57
 288:Drivers/UserDrivers/lcd.c **** 		else if(sizey==24)temp=ascii_2412[num][i];
 1549              		.loc 1 288 8 is_stmt 1 view .LVU342
 288:Drivers/UserDrivers/lcd.c **** 		else if(sizey==24)temp=ascii_2412[num][i];
 1550              		.loc 1 288 10 is_stmt 0 view .LVU343
 1551 0126 019B     		ldr	r3, [sp, #4]
 1552 0128 102B     		cmp	r3, #16
 1553 012a AED0     		beq	.L58
 289:Drivers/UserDrivers/lcd.c **** 		else if(sizey==32)temp=ascii_3216[num][i];
 1554              		.loc 1 289 8 is_stmt 1 view .LVU344
 289:Drivers/UserDrivers/lcd.c **** 		else if(sizey==32)temp=ascii_3216[num][i];
 1555              		.loc 1 289 10 is_stmt 0 view .LVU345
 1556 012c 019B     		ldr	r3, [sp, #4]
 1557 012e 182B     		cmp	r3, #24
 1558 0130 B7D0     		beq	.L59
 290:Drivers/UserDrivers/lcd.c **** 		else return;
 1559              		.loc 1 290 8 is_stmt 1 view .LVU346
 290:Drivers/UserDrivers/lcd.c **** 		else return;
 1560              		.loc 1 290 10 is_stmt 0 view .LVU347
 1561 0132 019B     		ldr	r3, [sp, #4]
 1562 0134 202B     		cmp	r3, #32
 1563 0136 13D1     		bne	.L37
ARM GAS  D:\noval\Temp\ccGOMXvb.s 			page 36


 290:Drivers/UserDrivers/lcd.c **** 		else return;
 1564              		.loc 1 290 21 is_stmt 1 discriminator 1 view .LVU348
 290:Drivers/UserDrivers/lcd.c **** 		else return;
 1565              		.loc 1 290 25 is_stmt 0 discriminator 1 view .LVU349
 1566 0138 059B     		ldr	r3, [sp, #20]
 1567 013a 9B01     		lsls	r3, r3, #6
 1568 013c 40F20002 		movw	r2, #:lower16:ascii_3216
 1569 0140 C0F20002 		movt	r2, #:upper16:ascii_3216
 1570 0144 9446     		mov	ip, r2
 1571 0146 6344     		add	r3, r3, ip
 1572 0148 5A46     		mov	r2, fp
 1573 014a 9B5C     		ldrb	r3, [r3, r2]
 1574 014c 9846     		mov	r8, r3
 1575              	.LVL242:
 290:Drivers/UserDrivers/lcd.c **** 		else return;
 1576              		.loc 1 290 25 discriminator 1 view .LVU350
 1577 014e 9AE7     		b	.L40
 1578              	.LVL243:
 1579              	.L56:
 307:Drivers/UserDrivers/lcd.c **** 				x++;
 1580              		.loc 1 307 24 is_stmt 1 discriminator 1 view .LVU351
 1581 0150 009A     		ldr	r2, [sp]
 1582 0152 0399     		ldr	r1, [sp, #12]
 1583 0154 3000     		movs	r0, r6
 1584 0156 FFF7FEFF 		bl	LCD_Draw_Point
 1585              	.LVL244:
 1586 015a CFE7     		b	.L50
 1587              	.L55:
 301:Drivers/UserDrivers/lcd.c **** 					break;
 1588              		.loc 1 301 7 is_stmt 0 view .LVU352
 1589 015c 1D00     		movs	r5, r3
 1590              	.LVL245:
 301:Drivers/UserDrivers/lcd.c **** 					break;
 1591              		.loc 1 301 7 view .LVU353
 1592 015e D8E7     		b	.L48
 1593              	.LVL246:
 1594              	.L37:
 314:Drivers/UserDrivers/lcd.c **** 				}
 315:Drivers/UserDrivers/lcd.c **** 			}
 316:Drivers/UserDrivers/lcd.c **** 		}
 317:Drivers/UserDrivers/lcd.c **** 	}   	 	  
 318:Drivers/UserDrivers/lcd.c **** }
 1595              		.loc 1 318 1 view .LVU354
 1596 0160 07B0     		add	sp, sp, #28
 1597              	.LVL247:
 1598              		.loc 1 318 1 view .LVU355
 1599              		@ sp needed
 1600              	.LVL248:
 1601              	.LVL249:
 1602              	.LVL250:
 1603              	.LVL251:
 1604              	.LVL252:
 1605              		.loc 1 318 1 view .LVU356
 1606 0162 F0BC     		pop	{r4, r5, r6, r7}
 1607 0164 BB46     		mov	fp, r7
 1608 0166 B246     		mov	r10, r6
 1609 0168 A946     		mov	r9, r5
ARM GAS  D:\noval\Temp\ccGOMXvb.s 			page 37


 1610 016a A046     		mov	r8, r4
 1611 016c F0BD     		pop	{r4, r5, r6, r7, pc}
 1612              		.cfi_endproc
 1613              	.LFE73:
 1615              		.section	.text.LCD_Show_String,"ax",%progbits
 1616              		.align	1
 1617              		.global	LCD_Show_String
 1618              		.syntax unified
 1619              		.code	16
 1620              		.thumb_func
 1622              	LCD_Show_String:
 1623              	.LVL253:
 1624              	.LFB74:
 319:Drivers/UserDrivers/lcd.c **** 
 320:Drivers/UserDrivers/lcd.c **** void LCD_Show_String(uint16_t x,uint16_t y,const uint8_t *p,uint16_t fc,uint16_t bc,uint8_t sizey,u
 321:Drivers/UserDrivers/lcd.c **** {         
 1625              		.loc 1 321 1 is_stmt 1 view -0
 1626              		.cfi_startproc
 1627              		@ args = 12, pretend = 0, frame = 0
 1628              		@ frame_needed = 0, uses_anonymous_args = 0
 1629              		.loc 1 321 1 is_stmt 0 view .LVU358
 1630 0000 F0B5     		push	{r4, r5, r6, r7, lr}
 1631              	.LCFI21:
 1632              		.cfi_def_cfa_offset 20
 1633              		.cfi_offset 4, -20
 1634              		.cfi_offset 5, -16
 1635              		.cfi_offset 6, -12
 1636              		.cfi_offset 7, -8
 1637              		.cfi_offset 14, -4
 1638 0002 D646     		mov	lr, r10
 1639 0004 4F46     		mov	r7, r9
 1640 0006 4646     		mov	r6, r8
 1641 0008 C0B5     		push	{r6, r7, lr}
 1642              	.LCFI22:
 1643              		.cfi_def_cfa_offset 32
 1644              		.cfi_offset 8, -32
 1645              		.cfi_offset 9, -28
 1646              		.cfi_offset 10, -24
 1647 000a 84B0     		sub	sp, sp, #16
 1648              	.LCFI23:
 1649              		.cfi_def_cfa_offset 48
 1650 000c 0600     		movs	r6, r0
 1651 000e 0F00     		movs	r7, r1
 1652 0010 1400     		movs	r4, r2
 1653 0012 9A46     		mov	r10, r3
 1654 0014 0CAB     		add	r3, sp, #48
 1655              	.LVL254:
 1656              		.loc 1 321 1 view .LVU359
 1657 0016 1B88     		ldrh	r3, [r3]
 1658              	.LVL255:
 1659              		.loc 1 321 1 view .LVU360
 1660 0018 9946     		mov	r9, r3
 1661 001a 0DAB     		add	r3, sp, #52
 1662              	.LVL256:
 1663              		.loc 1 321 1 view .LVU361
 1664 001c 1D78     		ldrb	r5, [r3]
 1665 001e 0EAB     		add	r3, sp, #56
ARM GAS  D:\noval\Temp\ccGOMXvb.s 			page 38


 1666              	.LVL257:
 1667              		.loc 1 321 1 view .LVU362
 1668 0020 1B78     		ldrb	r3, [r3]
 1669              	.LVL258:
 1670              		.loc 1 321 1 view .LVU363
 1671 0022 9846     		mov	r8, r3
 322:Drivers/UserDrivers/lcd.c **** 	while(*p != '\0')
 1672              		.loc 1 322 2 is_stmt 1 view .LVU364
 1673              		.loc 1 322 7 is_stmt 0 view .LVU365
 1674 0024 0DE0     		b	.L61
 1675              	.LVL259:
 1676              	.L62:
 323:Drivers/UserDrivers/lcd.c **** 	{       
 324:Drivers/UserDrivers/lcd.c **** 		LCD_Show_Char(x, y, *p, fc, bc, sizey, mode);
 1677              		.loc 1 324 3 is_stmt 1 view .LVU366
 1678 0026 4346     		mov	r3, r8
 1679 0028 0293     		str	r3, [sp, #8]
 1680 002a 0195     		str	r5, [sp, #4]
 1681 002c 4B46     		mov	r3, r9
 1682 002e 0093     		str	r3, [sp]
 1683 0030 5346     		mov	r3, r10
 1684 0032 3900     		movs	r1, r7
 1685 0034 3000     		movs	r0, r6
 1686 0036 FFF7FEFF 		bl	LCD_Show_Char
 1687              	.LVL260:
 325:Drivers/UserDrivers/lcd.c **** 		x += sizey / 2;
 1688              		.loc 1 325 3 view .LVU367
 1689              		.loc 1 325 5 is_stmt 0 view .LVU368
 1690 003a 6808     		lsrs	r0, r5, #1
 1691 003c 3618     		adds	r6, r6, r0
 1692              	.LVL261:
 1693              		.loc 1 325 5 view .LVU369
 1694 003e B6B2     		uxth	r6, r6
 1695              	.LVL262:
 326:Drivers/UserDrivers/lcd.c **** 		p ++;
 1696              		.loc 1 326 3 is_stmt 1 view .LVU370
 1697              		.loc 1 326 5 is_stmt 0 view .LVU371
 1698 0040 0134     		adds	r4, r4, #1
 1699              	.LVL263:
 1700              	.L61:
 322:Drivers/UserDrivers/lcd.c **** 	{       
 1701              		.loc 1 322 11 is_stmt 1 view .LVU372
 322:Drivers/UserDrivers/lcd.c **** 	{       
 1702              		.loc 1 322 8 is_stmt 0 view .LVU373
 1703 0042 2278     		ldrb	r2, [r4]
 322:Drivers/UserDrivers/lcd.c **** 	{       
 1704              		.loc 1 322 11 view .LVU374
 1705 0044 002A     		cmp	r2, #0
 1706 0046 EED1     		bne	.L62
 327:Drivers/UserDrivers/lcd.c **** 	}  
 328:Drivers/UserDrivers/lcd.c **** }
 1707              		.loc 1 328 1 view .LVU375
 1708 0048 04B0     		add	sp, sp, #16
 1709              		@ sp needed
 1710              	.LVL264:
 1711              	.LVL265:
 1712              	.LVL266:
ARM GAS  D:\noval\Temp\ccGOMXvb.s 			page 39


 1713              	.LVL267:
 1714              		.loc 1 328 1 view .LVU376
 1715 004a E0BC     		pop	{r5, r6, r7}
 1716 004c BA46     		mov	r10, r7
 1717 004e B146     		mov	r9, r6
 1718 0050 A846     		mov	r8, r5
 1719 0052 F0BD     		pop	{r4, r5, r6, r7, pc}
 1720              		.cfi_endproc
 1721              	.LFE74:
 1723              		.section	.text.LCD_Draw_Curve,"ax",%progbits
 1724              		.align	1
 1725              		.global	LCD_Draw_Curve
 1726              		.syntax unified
 1727              		.code	16
 1728              		.thumb_func
 1730              	LCD_Draw_Curve:
 1731              	.LVL268:
 1732              	.LFB75:
 329:Drivers/UserDrivers/lcd.c **** 
 330:Drivers/UserDrivers/lcd.c **** uint16_t LCD_Draw_Curve(uint8_t xoffset, uint8_t yoffset, int16_t rawvalue)
 331:Drivers/UserDrivers/lcd.c **** {
 1733              		.loc 1 331 1 is_stmt 1 view -0
 1734              		.cfi_startproc
 1735              		@ args = 0, pretend = 0, frame = 0
 1736              		@ frame_needed = 0, uses_anonymous_args = 0
 1737              		.loc 1 331 1 is_stmt 0 view .LVU378
 1738 0000 30B5     		push	{r4, r5, lr}
 1739              	.LCFI24:
 1740              		.cfi_def_cfa_offset 12
 1741              		.cfi_offset 4, -12
 1742              		.cfi_offset 5, -8
 1743              		.cfi_offset 14, -4
 1744 0002 83B0     		sub	sp, sp, #12
 1745              	.LCFI25:
 1746              		.cfi_def_cfa_offset 24
 1747 0004 0500     		movs	r5, r0
 332:Drivers/UserDrivers/lcd.c **** 	static uint8_t  first_point = 1;
 1748              		.loc 1 332 2 is_stmt 1 view .LVU379
 333:Drivers/UserDrivers/lcd.c **** 	static uint16_t lastX, lastY;
 1749              		.loc 1 333 2 view .LVU380
 334:Drivers/UserDrivers/lcd.c **** 	uint16_t y;
 1750              		.loc 1 334 2 view .LVU381
 335:Drivers/UserDrivers/lcd.c **** 	
 336:Drivers/UserDrivers/lcd.c **** 	y = (uint16_t)(yoffset - rawvalue);
 1751              		.loc 1 336 2 view .LVU382
 1752              		.loc 1 336 6 is_stmt 0 view .LVU383
 1753 0006 92B2     		uxth	r2, r2
 1754              		.loc 1 336 4 view .LVU384
 1755 0008 891A     		subs	r1, r1, r2
 1756              	.LVL269:
 1757              		.loc 1 336 4 view .LVU385
 1758 000a 8CB2     		uxth	r4, r1
 1759              	.LVL270:
 337:Drivers/UserDrivers/lcd.c **** 	if (first_point) {
 1760              		.loc 1 337 2 is_stmt 1 view .LVU386
 1761              		.loc 1 337 6 is_stmt 0 view .LVU387
 1762 000c 40F20003 		movw	r3, #:lower16:first_point.2
ARM GAS  D:\noval\Temp\ccGOMXvb.s 			page 40


 1763 0010 C0F20003 		movt	r3, #:upper16:first_point.2
 1764 0014 1B78     		ldrb	r3, [r3]
 1765              		.loc 1 337 5 view .LVU388
 1766 0016 13BB     		cbnz	r3, .L67
 338:Drivers/UserDrivers/lcd.c **** 		first_point = 0;
 339:Drivers/UserDrivers/lcd.c **** 		LCD_Draw_Point(xoffset, y, GREEN);
 340:Drivers/UserDrivers/lcd.c **** 		lastX = xoffset;
 341:Drivers/UserDrivers/lcd.c **** 		lastY = y;
 342:Drivers/UserDrivers/lcd.c **** 	} else {
 343:Drivers/UserDrivers/lcd.c **** 		if (lastX < 159) {
 1767              		.loc 1 343 3 is_stmt 1 view .LVU389
 1768              		.loc 1 343 13 is_stmt 0 view .LVU390
 1769 0018 40F20003 		movw	r3, #:lower16:lastX.1
 1770 001c C0F20003 		movt	r3, #:upper16:lastX.1
 1771 0020 1888     		ldrh	r0, [r3]
 1772              	.LVL271:
 1773              		.loc 1 343 6 view .LVU391
 1774 0022 9E28     		cmp	r0, #158
 1775 0024 31D8     		bhi	.L66
 344:Drivers/UserDrivers/lcd.c **** 			LCD_Draw_Line(lastX, lastY, lastX + 1, y, YELLOW);
 1776              		.loc 1 344 4 is_stmt 1 view .LVU392
 1777 0026 421C     		adds	r2, r0, #1
 1778              	.LVL272:
 1779              		.loc 1 344 4 is_stmt 0 view .LVU393
 1780 0028 92B2     		uxth	r2, r2
 1781 002a 40F20005 		movw	r5, #:lower16:lastY.0
 1782              	.LVL273:
 1783              		.loc 1 344 4 view .LVU394
 1784 002e C0F20005 		movt	r5, #:upper16:lastY.0
 1785 0032 2988     		ldrh	r1, [r5]
 1786 0034 4FF6E073 		movw	r3, #65504
 1787 0038 0093     		str	r3, [sp]
 1788 003a 2300     		movs	r3, r4
 1789 003c FFF7FEFF 		bl	LCD_Draw_Line
 1790              	.LVL274:
 345:Drivers/UserDrivers/lcd.c **** 			lastX ++;
 1791              		.loc 1 345 4 is_stmt 1 view .LVU395
 1792              		.loc 1 345 10 is_stmt 0 view .LVU396
 1793 0040 40F20003 		movw	r3, #:lower16:lastX.1
 1794 0044 C0F20003 		movt	r3, #:upper16:lastX.1
 1795 0048 1A88     		ldrh	r2, [r3]
 1796 004a 0132     		adds	r2, r2, #1
 1797 004c 1A80     		strh	r2, [r3]
 346:Drivers/UserDrivers/lcd.c **** 			lastY = y;
 1798              		.loc 1 346 4 is_stmt 1 view .LVU397
 1799              		.loc 1 346 10 is_stmt 0 view .LVU398
 1800 004e 2C80     		strh	r4, [r5]
 1801              	.L65:
 347:Drivers/UserDrivers/lcd.c **** 		} else {
 348:Drivers/UserDrivers/lcd.c **** 			LCD_Draw_Point(xoffset, y, GREEN);
 349:Drivers/UserDrivers/lcd.c **** 			lastX = xoffset;
 350:Drivers/UserDrivers/lcd.c **** 			lastY = y;
 351:Drivers/UserDrivers/lcd.c **** 		}
 352:Drivers/UserDrivers/lcd.c **** 	}
 353:Drivers/UserDrivers/lcd.c **** 	return lastX;
 1802              		.loc 1 353 2 is_stmt 1 view .LVU399
 1803              		.loc 1 353 9 is_stmt 0 view .LVU400
ARM GAS  D:\noval\Temp\ccGOMXvb.s 			page 41


 1804 0050 40F20003 		movw	r3, #:lower16:lastX.1
 1805 0054 C0F20003 		movt	r3, #:upper16:lastX.1
 1806              		.loc 1 353 9 discriminator 1 view .LVU401
 1807 0058 1888     		ldrh	r0, [r3]
 354:Drivers/UserDrivers/lcd.c **** }
 1808              		.loc 1 354 1 view .LVU402
 1809 005a 03B0     		add	sp, sp, #12
 1810              		@ sp needed
 1811              	.LVL275:
 1812              		.loc 1 354 1 view .LVU403
 1813 005c 30BD     		pop	{r4, r5, pc}
 1814              	.LVL276:
 1815              	.L67:
 338:Drivers/UserDrivers/lcd.c **** 		LCD_Draw_Point(xoffset, y, GREEN);
 1816              		.loc 1 338 3 is_stmt 1 view .LVU404
 338:Drivers/UserDrivers/lcd.c **** 		LCD_Draw_Point(xoffset, y, GREEN);
 1817              		.loc 1 338 15 is_stmt 0 view .LVU405
 1818 005e 40F20003 		movw	r3, #:lower16:first_point.2
 1819 0062 C0F20003 		movt	r3, #:upper16:first_point.2
 1820 0066 0022     		movs	r2, #0
 1821 0068 1A70     		strb	r2, [r3]
 339:Drivers/UserDrivers/lcd.c **** 		lastX = xoffset;
 1822              		.loc 1 339 3 is_stmt 1 view .LVU406
 1823 006a 40F2E072 		movw	r2, #2016
 1824 006e 2100     		movs	r1, r4
 1825 0070 FFF7FEFF 		bl	LCD_Draw_Point
 1826              	.LVL277:
 340:Drivers/UserDrivers/lcd.c **** 		lastY = y;
 1827              		.loc 1 340 3 view .LVU407
 340:Drivers/UserDrivers/lcd.c **** 		lastY = y;
 1828              		.loc 1 340 9 is_stmt 0 view .LVU408
 1829 0074 40F20003 		movw	r3, #:lower16:lastX.1
 1830 0078 C0F20003 		movt	r3, #:upper16:lastX.1
 1831 007c 1D80     		strh	r5, [r3]
 341:Drivers/UserDrivers/lcd.c **** 	} else {
 1832              		.loc 1 341 3 is_stmt 1 view .LVU409
 341:Drivers/UserDrivers/lcd.c **** 	} else {
 1833              		.loc 1 341 9 is_stmt 0 view .LVU410
 1834 007e 40F20003 		movw	r3, #:lower16:lastY.0
 1835 0082 C0F20003 		movt	r3, #:upper16:lastY.0
 1836 0086 1C80     		strh	r4, [r3]
 1837 0088 E2E7     		b	.L65
 1838              	.L66:
 348:Drivers/UserDrivers/lcd.c **** 			lastX = xoffset;
 1839              		.loc 1 348 4 is_stmt 1 view .LVU411
 1840 008a 40F2E072 		movw	r2, #2016
 1841 008e 2100     		movs	r1, r4
 1842 0090 2800     		movs	r0, r5
 1843 0092 FFF7FEFF 		bl	LCD_Draw_Point
 1844              	.LVL278:
 349:Drivers/UserDrivers/lcd.c **** 			lastY = y;
 1845              		.loc 1 349 4 view .LVU412
 349:Drivers/UserDrivers/lcd.c **** 			lastY = y;
 1846              		.loc 1 349 10 is_stmt 0 view .LVU413
 1847 0096 40F20003 		movw	r3, #:lower16:lastX.1
 1848 009a C0F20003 		movt	r3, #:upper16:lastX.1
 1849 009e 1D80     		strh	r5, [r3]
ARM GAS  D:\noval\Temp\ccGOMXvb.s 			page 42


 350:Drivers/UserDrivers/lcd.c **** 		}
 1850              		.loc 1 350 4 is_stmt 1 view .LVU414
 350:Drivers/UserDrivers/lcd.c **** 		}
 1851              		.loc 1 350 10 is_stmt 0 view .LVU415
 1852 00a0 40F20003 		movw	r3, #:lower16:lastY.0
 1853 00a4 C0F20003 		movt	r3, #:upper16:lastY.0
 1854 00a8 1C80     		strh	r4, [r3]
 1855 00aa D1E7     		b	.L65
 1856              		.cfi_endproc
 1857              	.LFE75:
 1859              		.section	.text.mypow,"ax",%progbits
 1860              		.align	1
 1861              		.global	mypow
 1862              		.syntax unified
 1863              		.code	16
 1864              		.thumb_func
 1866              	mypow:
 1867              	.LVL279:
 1868              	.LFB76:
 355:Drivers/UserDrivers/lcd.c **** 
 356:Drivers/UserDrivers/lcd.c **** uint32_t mypow(uint8_t m, uint8_t n)
 357:Drivers/UserDrivers/lcd.c **** {
 1869              		.loc 1 357 1 is_stmt 1 view -0
 1870              		.cfi_startproc
 1871              		@ args = 0, pretend = 0, frame = 0
 1872              		@ frame_needed = 0, uses_anonymous_args = 0
 1873              		@ link register save eliminated.
 1874              		.loc 1 357 1 is_stmt 0 view .LVU417
 1875 0000 0200     		movs	r2, r0
 358:Drivers/UserDrivers/lcd.c **** 	uint32_t result=1;	 
 1876              		.loc 1 358 2 is_stmt 1 view .LVU418
 1877              	.LVL280:
 359:Drivers/UserDrivers/lcd.c **** 	while(n--)result*=m;
 1878              		.loc 1 359 2 view .LVU419
 358:Drivers/UserDrivers/lcd.c **** 	uint32_t result=1;	 
 1879              		.loc 1 358 11 is_stmt 0 view .LVU420
 1880 0002 0120     		movs	r0, #1
 1881              	.LVL281:
 1882              		.loc 1 359 7 view .LVU421
 1883 0004 01E0     		b	.L69
 1884              	.LVL282:
 1885              	.L70:
 1886              		.loc 1 359 12 is_stmt 1 discriminator 2 view .LVU422
 1887              		.loc 1 359 18 is_stmt 0 discriminator 2 view .LVU423
 1888 0006 5043     		muls	r0, r2
 1889              	.LVL283:
 1890              		.loc 1 359 9 discriminator 1 view .LVU424
 1891 0008 1900     		movs	r1, r3
 1892              	.LVL284:
 1893              	.L69:
 1894              		.loc 1 359 8 is_stmt 1 discriminator 1 view .LVU425
 1895              		.loc 1 359 9 is_stmt 0 discriminator 1 view .LVU426
 1896 000a 4B1E     		subs	r3, r1, #1
 1897 000c DBB2     		uxtb	r3, r3
 1898              	.LVL285:
 1899              		.loc 1 359 8 discriminator 1 view .LVU427
 1900 000e 0029     		cmp	r1, #0
ARM GAS  D:\noval\Temp\ccGOMXvb.s 			page 43


 1901 0010 F9D1     		bne	.L70
 360:Drivers/UserDrivers/lcd.c **** 	return result;
 1902              		.loc 1 360 2 is_stmt 1 view .LVU428
 361:Drivers/UserDrivers/lcd.c **** }
 1903              		.loc 1 361 1 is_stmt 0 view .LVU429
 1904              		@ sp needed
 1905 0012 7047     		bx	lr
 1906              		.cfi_endproc
 1907              	.LFE76:
 1909              		.global	__aeabi_fmul
 1910              		.global	__aeabi_f2uiz
 1911              		.section	.text.LCD_ShowFloatNum1,"ax",%progbits
 1912              		.align	1
 1913              		.global	LCD_ShowFloatNum1
 1914              		.syntax unified
 1915              		.code	16
 1916              		.thumb_func
 1918              	LCD_ShowFloatNum1:
 1919              	.LVL286:
 1920              	.LFB77:
 362:Drivers/UserDrivers/lcd.c **** 
 363:Drivers/UserDrivers/lcd.c **** void LCD_ShowFloatNum1(uint16_t x, uint16_t y, float num, uint16_t len, uint16_t fc, uint16_t bc,ui
 364:Drivers/UserDrivers/lcd.c **** {         	
 1921              		.loc 1 364 1 is_stmt 1 view -0
 1922              		.cfi_startproc
 1923              		@ args = 12, pretend = 0, frame = 8
 1924              		@ frame_needed = 0, uses_anonymous_args = 0
 1925              		.loc 1 364 1 is_stmt 0 view .LVU431
 1926 0000 F0B5     		push	{r4, r5, r6, r7, lr}
 1927              	.LCFI26:
 1928              		.cfi_def_cfa_offset 20
 1929              		.cfi_offset 4, -20
 1930              		.cfi_offset 5, -16
 1931              		.cfi_offset 6, -12
 1932              		.cfi_offset 7, -8
 1933              		.cfi_offset 14, -4
 1934 0002 DE46     		mov	lr, fp
 1935 0004 5746     		mov	r7, r10
 1936 0006 4E46     		mov	r6, r9
 1937 0008 4546     		mov	r5, r8
 1938 000a E0B5     		push	{r5, r6, r7, lr}
 1939              	.LCFI27:
 1940              		.cfi_def_cfa_offset 36
 1941              		.cfi_offset 8, -36
 1942              		.cfi_offset 9, -32
 1943              		.cfi_offset 10, -28
 1944              		.cfi_offset 11, -24
 1945 000c 87B0     		sub	sp, sp, #28
 1946              	.LCFI28:
 1947              		.cfi_def_cfa_offset 64
 1948 000e 0700     		movs	r7, r0
 1949 0010 0491     		str	r1, [sp, #16]
 1950 0012 101C     		adds	r0, r2, #0
 1951              	.LVL287:
 1952              		.loc 1 364 1 view .LVU432
 1953 0014 1E00     		movs	r6, r3
 1954 0016 10AB     		add	r3, sp, #64
ARM GAS  D:\noval\Temp\ccGOMXvb.s 			page 44


 1955              	.LVL288:
 1956              		.loc 1 364 1 view .LVU433
 1957 0018 1B88     		ldrh	r3, [r3]
 1958              	.LVL289:
 1959              		.loc 1 364 1 view .LVU434
 1960 001a 0593     		str	r3, [sp, #20]
 1961 001c 11AB     		add	r3, sp, #68
 1962              	.LVL290:
 1963              		.loc 1 364 1 view .LVU435
 1964 001e 1B88     		ldrh	r3, [r3]
 1965              	.LVL291:
 1966              		.loc 1 364 1 view .LVU436
 1967 0020 9B46     		mov	fp, r3
 1968 0022 12AB     		add	r3, sp, #72
 1969              	.LVL292:
 1970              		.loc 1 364 1 view .LVU437
 1971 0024 1B78     		ldrb	r3, [r3]
 1972              	.LVL293:
 1973              		.loc 1 364 1 view .LVU438
 1974 0026 9846     		mov	r8, r3
 365:Drivers/UserDrivers/lcd.c **** 	uint8_t t,temp,sizex;
 1975              		.loc 1 365 2 is_stmt 1 view .LVU439
 366:Drivers/UserDrivers/lcd.c **** 	uint16_t num1;
 1976              		.loc 1 366 2 view .LVU440
 367:Drivers/UserDrivers/lcd.c **** 	sizex=sizey/2;
 1977              		.loc 1 367 2 view .LVU441
 1978              		.loc 1 367 7 is_stmt 0 view .LVU442
 1979 0028 5B08     		lsrs	r3, r3, #1
 1980 002a 9A46     		mov	r10, r3
 1981              	.LVL294:
 368:Drivers/UserDrivers/lcd.c **** 	num1=num*100;
 1982              		.loc 1 368 2 is_stmt 1 view .LVU443
 1983              		.loc 1 368 10 is_stmt 0 view .LVU444
 1984 002c 0021     		movs	r1, #0
 1985              	.LVL295:
 1986              		.loc 1 368 10 view .LVU445
 1987 002e C4F2C821 		movt	r1, 17096
 1988 0032 FFF7FEFF 		bl	__aeabi_fmul
 1989              	.LVL296:
 1990              		.loc 1 368 6 view .LVU446
 1991 0036 FFF7FEFF 		bl	__aeabi_f2uiz
 1992              	.LVL297:
 1993 003a 83B2     		uxth	r3, r0
 1994 003c 9946     		mov	r9, r3
 1995              	.LVL298:
 369:Drivers/UserDrivers/lcd.c **** 	for(t=0;t<len;t++)
 1996              		.loc 1 369 2 is_stmt 1 view .LVU447
 1997              		.loc 1 369 7 is_stmt 0 view .LVU448
 1998 003e 0025     		movs	r5, #0
 1999 0040 3B00     		movs	r3, r7
 2000 0042 5746     		mov	r7, r10
 2001              	.LVL299:
 2002              		.loc 1 369 7 view .LVU449
 2003 0044 9A46     		mov	r10, r3
 2004              	.LVL300:
 2005              		.loc 1 369 2 view .LVU450
 2006 0046 11E0     		b	.L72
ARM GAS  D:\noval\Temp\ccGOMXvb.s 			page 45


 2007              	.LVL301:
 2008              	.L73:
 370:Drivers/UserDrivers/lcd.c **** 	{
 371:Drivers/UserDrivers/lcd.c **** 		temp=(num1/mypow(10,len-t-1))%10;
 372:Drivers/UserDrivers/lcd.c **** 		if(t==(len-2))
 373:Drivers/UserDrivers/lcd.c **** 		{
 374:Drivers/UserDrivers/lcd.c **** 			LCD_Show_Char(x+(len-2)*sizex,y,'.',fc,bc,sizey,0);
 375:Drivers/UserDrivers/lcd.c **** 			t++;
 376:Drivers/UserDrivers/lcd.c **** 			len+=1;
 377:Drivers/UserDrivers/lcd.c **** 		}
 378:Drivers/UserDrivers/lcd.c **** 	 	LCD_Show_Char(x+t*sizex,y,temp+48,fc,bc,sizey,0);
 2009              		.loc 1 378 4 is_stmt 1 view .LVU451
 2010              		.loc 1 378 21 is_stmt 0 view .LVU452
 2011 0048 3800     		movs	r0, r7
 2012 004a 6843     		muls	r0, r5
 2013              		.loc 1 378 4 view .LVU453
 2014 004c 3034     		adds	r4, r4, #48
 2015              	.LVL302:
 2016              		.loc 1 378 4 view .LVU454
 2017 004e E2B2     		uxtb	r2, r4
 2018 0050 5044     		add	r0, r0, r10
 2019 0052 80B2     		uxth	r0, r0
 2020 0054 0023     		movs	r3, #0
 2021 0056 0293     		str	r3, [sp, #8]
 2022 0058 4346     		mov	r3, r8
 2023 005a 0193     		str	r3, [sp, #4]
 2024 005c 5B46     		mov	r3, fp
 2025 005e 0093     		str	r3, [sp]
 2026 0060 059B     		ldr	r3, [sp, #20]
 2027 0062 0499     		ldr	r1, [sp, #16]
 2028 0064 FFF7FEFF 		bl	LCD_Show_Char
 2029              	.LVL303:
 369:Drivers/UserDrivers/lcd.c **** 	for(t=0;t<len;t++)
 2030              		.loc 1 369 17 is_stmt 1 discriminator 2 view .LVU455
 2031 0068 0135     		adds	r5, r5, #1
 2032              	.LVL304:
 369:Drivers/UserDrivers/lcd.c **** 	for(t=0;t<len;t++)
 2033              		.loc 1 369 17 is_stmt 0 discriminator 2 view .LVU456
 2034 006a EDB2     		uxtb	r5, r5
 2035              	.LVL305:
 2036              	.L72:
 369:Drivers/UserDrivers/lcd.c **** 	for(t=0;t<len;t++)
 2037              		.loc 1 369 11 is_stmt 1 discriminator 1 view .LVU457
 2038 006c B542     		cmp	r5, r6
 2039 006e 27D2     		bcs	.L75
 371:Drivers/UserDrivers/lcd.c **** 		if(t==(len-2))
 2040              		.loc 1 371 3 view .LVU458
 371:Drivers/UserDrivers/lcd.c **** 		if(t==(len-2))
 2041              		.loc 1 371 26 is_stmt 0 view .LVU459
 2042 0070 711B     		subs	r1, r6, r5
 2043 0072 C9B2     		uxtb	r1, r1
 371:Drivers/UserDrivers/lcd.c **** 		if(t==(len-2))
 2044              		.loc 1 371 14 view .LVU460
 2045 0074 0139     		subs	r1, r1, #1
 2046 0076 C9B2     		uxtb	r1, r1
 2047 0078 0A20     		movs	r0, #10
 2048 007a FFF7FEFF 		bl	mypow
ARM GAS  D:\noval\Temp\ccGOMXvb.s 			page 46


 2049              	.LVL306:
 371:Drivers/UserDrivers/lcd.c **** 		if(t==(len-2))
 2050              		.loc 1 371 13 discriminator 1 view .LVU461
 2051 007e B9FBF0F0 		udiv	r0, r9, r0
 371:Drivers/UserDrivers/lcd.c **** 		if(t==(len-2))
 2052              		.loc 1 371 32 discriminator 1 view .LVU462
 2053 0082 0A23     		movs	r3, #10
 2054 0084 B0FBF3F3 		udiv	r3, r0, r3
 2055 0088 9C00     		lsls	r4, r3, #2
 2056 008a E418     		adds	r4, r4, r3
 2057 008c 6400     		lsls	r4, r4, #1
 2058 008e 041B     		subs	r4, r0, r4
 371:Drivers/UserDrivers/lcd.c **** 		if(t==(len-2))
 2059              		.loc 1 371 7 discriminator 1 view .LVU463
 2060 0090 E4B2     		uxtb	r4, r4
 2061              	.LVL307:
 372:Drivers/UserDrivers/lcd.c **** 		{
 2062              		.loc 1 372 3 is_stmt 1 view .LVU464
 372:Drivers/UserDrivers/lcd.c **** 		{
 2063              		.loc 1 372 13 is_stmt 0 view .LVU465
 2064 0092 B31E     		subs	r3, r6, #2
 372:Drivers/UserDrivers/lcd.c **** 		{
 2065              		.loc 1 372 5 view .LVU466
 2066 0094 9D42     		cmp	r5, r3
 2067 0096 D7D1     		bne	.L73
 374:Drivers/UserDrivers/lcd.c **** 			t++;
 2068              		.loc 1 374 4 is_stmt 1 view .LVU467
 2069 0098 1800     		movs	r0, r3
 2070 009a 7843     		muls	r0, r7
 2071 009c 5044     		add	r0, r0, r10
 2072 009e 80B2     		uxth	r0, r0
 2073 00a0 0023     		movs	r3, #0
 2074 00a2 0293     		str	r3, [sp, #8]
 2075 00a4 4346     		mov	r3, r8
 2076 00a6 0193     		str	r3, [sp, #4]
 2077 00a8 5B46     		mov	r3, fp
 2078 00aa 0093     		str	r3, [sp]
 2079 00ac 059B     		ldr	r3, [sp, #20]
 2080 00ae 2E22     		movs	r2, #46
 2081 00b0 0499     		ldr	r1, [sp, #16]
 2082 00b2 FFF7FEFF 		bl	LCD_Show_Char
 2083              	.LVL308:
 375:Drivers/UserDrivers/lcd.c **** 			len+=1;
 2084              		.loc 1 375 4 view .LVU468
 375:Drivers/UserDrivers/lcd.c **** 			len+=1;
 2085              		.loc 1 375 5 is_stmt 0 view .LVU469
 2086 00b6 0135     		adds	r5, r5, #1
 2087              	.LVL309:
 375:Drivers/UserDrivers/lcd.c **** 			len+=1;
 2088              		.loc 1 375 5 view .LVU470
 2089 00b8 EDB2     		uxtb	r5, r5
 2090              	.LVL310:
 376:Drivers/UserDrivers/lcd.c **** 		}
 2091              		.loc 1 376 4 is_stmt 1 view .LVU471
 376:Drivers/UserDrivers/lcd.c **** 		}
 2092              		.loc 1 376 7 is_stmt 0 view .LVU472
 2093 00ba 0136     		adds	r6, r6, #1
ARM GAS  D:\noval\Temp\ccGOMXvb.s 			page 47


 2094              	.LVL311:
 376:Drivers/UserDrivers/lcd.c **** 		}
 2095              		.loc 1 376 7 view .LVU473
 2096 00bc B6B2     		uxth	r6, r6
 2097              	.LVL312:
 376:Drivers/UserDrivers/lcd.c **** 		}
 2098              		.loc 1 376 7 view .LVU474
 2099 00be C3E7     		b	.L73
 2100              	.LVL313:
 2101              	.L75:
 379:Drivers/UserDrivers/lcd.c **** 	}
 380:Drivers/UserDrivers/lcd.c **** }
 2102              		.loc 1 380 1 view .LVU475
 2103 00c0 07B0     		add	sp, sp, #28
 2104              		@ sp needed
 2105              	.LVL314:
 2106              	.LVL315:
 2107              	.LVL316:
 2108              	.LVL317:
 2109              	.LVL318:
 2110              	.LVL319:
 2111              		.loc 1 380 1 view .LVU476
 2112 00c2 F0BC     		pop	{r4, r5, r6, r7}
 2113 00c4 BB46     		mov	fp, r7
 2114 00c6 B246     		mov	r10, r6
 2115 00c8 A946     		mov	r9, r5
 2116 00ca A046     		mov	r8, r4
 2117 00cc F0BD     		pop	{r4, r5, r6, r7, pc}
 2118              		.cfi_endproc
 2119              	.LFE77:
 2121              		.section	.text.LCD_ShowIntNum,"ax",%progbits
 2122              		.align	1
 2123              		.global	LCD_ShowIntNum
 2124              		.syntax unified
 2125              		.code	16
 2126              		.thumb_func
 2128              	LCD_ShowIntNum:
 2129              	.LVL320:
 2130              	.LFB78:
 381:Drivers/UserDrivers/lcd.c **** void LCD_ShowIntNum(uint16_t x, uint16_t y, uint16_t num, uint8_t len, uint16_t fc, uint16_t bc, ui
 382:Drivers/UserDrivers/lcd.c **** {         	
 2131              		.loc 1 382 1 is_stmt 1 view -0
 2132              		.cfi_startproc
 2133              		@ args = 12, pretend = 0, frame = 8
 2134              		@ frame_needed = 0, uses_anonymous_args = 0
 2135              		.loc 1 382 1 is_stmt 0 view .LVU478
 2136 0000 F0B5     		push	{r4, r5, r6, r7, lr}
 2137              	.LCFI29:
 2138              		.cfi_def_cfa_offset 20
 2139              		.cfi_offset 4, -20
 2140              		.cfi_offset 5, -16
 2141              		.cfi_offset 6, -12
 2142              		.cfi_offset 7, -8
 2143              		.cfi_offset 14, -4
 2144 0002 DE46     		mov	lr, fp
 2145 0004 5746     		mov	r7, r10
 2146 0006 4E46     		mov	r6, r9
ARM GAS  D:\noval\Temp\ccGOMXvb.s 			page 48


 2147 0008 4546     		mov	r5, r8
 2148 000a E0B5     		push	{r5, r6, r7, lr}
 2149              	.LCFI30:
 2150              		.cfi_def_cfa_offset 36
 2151              		.cfi_offset 8, -36
 2152              		.cfi_offset 9, -32
 2153              		.cfi_offset 10, -28
 2154              		.cfi_offset 11, -24
 2155 000c 87B0     		sub	sp, sp, #28
 2156              	.LCFI31:
 2157              		.cfi_def_cfa_offset 64
 2158 000e 0490     		str	r0, [sp, #16]
 2159 0010 0591     		str	r1, [sp, #20]
 2160 0012 1700     		movs	r7, r2
 2161 0014 1D00     		movs	r5, r3
 2162 0016 10AB     		add	r3, sp, #64
 2163              	.LVL321:
 2164              		.loc 1 382 1 view .LVU479
 2165 0018 1B88     		ldrh	r3, [r3]
 2166              	.LVL322:
 2167              		.loc 1 382 1 view .LVU480
 2168 001a 9B46     		mov	fp, r3
 2169 001c 11AB     		add	r3, sp, #68
 2170              	.LVL323:
 2171              		.loc 1 382 1 view .LVU481
 2172 001e 1B88     		ldrh	r3, [r3]
 2173              	.LVL324:
 2174              		.loc 1 382 1 view .LVU482
 2175 0020 9A46     		mov	r10, r3
 2176 0022 12AB     		add	r3, sp, #72
 2177              	.LVL325:
 2178              		.loc 1 382 1 view .LVU483
 2179 0024 1B78     		ldrb	r3, [r3]
 2180              	.LVL326:
 2181              		.loc 1 382 1 view .LVU484
 2182 0026 9946     		mov	r9, r3
 383:Drivers/UserDrivers/lcd.c **** 	uint8_t t,temp;
 2183              		.loc 1 383 2 is_stmt 1 view .LVU485
 384:Drivers/UserDrivers/lcd.c **** 	uint8_t enshow=0;
 2184              		.loc 1 384 2 view .LVU486
 2185              	.LVL327:
 385:Drivers/UserDrivers/lcd.c **** 	uint8_t sizex=sizey/2;
 2186              		.loc 1 385 2 view .LVU487
 2187              		.loc 1 385 10 is_stmt 0 view .LVU488
 2188 0028 5B08     		lsrs	r3, r3, #1
 2189 002a 9846     		mov	r8, r3
 2190              	.LVL328:
 386:Drivers/UserDrivers/lcd.c **** 	for(t=0;t<len;t++)
 2191              		.loc 1 386 2 is_stmt 1 view .LVU489
 384:Drivers/UserDrivers/lcd.c **** 	uint8_t enshow=0;
 2192              		.loc 1 384 10 is_stmt 0 view .LVU490
 2193 002c 0026     		movs	r6, #0
 2194              		.loc 1 386 7 view .LVU491
 2195 002e 0024     		movs	r4, #0
 2196              		.loc 1 386 2 view .LVU492
 2197 0030 25E0     		b	.L77
 2198              	.LVL329:
ARM GAS  D:\noval\Temp\ccGOMXvb.s 			page 49


 2199              	.L83:
 387:Drivers/UserDrivers/lcd.c **** 	{
 388:Drivers/UserDrivers/lcd.c **** 		temp=(num/mypow(10,len-t-1))%10;
 389:Drivers/UserDrivers/lcd.c **** 		if(enshow==0&&t<(len-1))
 390:Drivers/UserDrivers/lcd.c **** 		{
 391:Drivers/UserDrivers/lcd.c **** 			if(temp==0)
 392:Drivers/UserDrivers/lcd.c **** 			{
 393:Drivers/UserDrivers/lcd.c **** 				LCD_Show_Char(x+t*sizex,y,' ',fc,bc,sizey,0);
 2200              		.loc 1 393 5 is_stmt 1 view .LVU493
 2201              		.loc 1 393 22 is_stmt 0 view .LVU494
 2202 0032 4046     		mov	r0, r8
 2203              	.LVL330:
 2204              		.loc 1 393 22 view .LVU495
 2205 0034 6043     		muls	r0, r4
 2206              		.loc 1 393 5 view .LVU496
 2207 0036 049B     		ldr	r3, [sp, #16]
 2208 0038 9C46     		mov	ip, r3
 2209 003a 6044     		add	r0, r0, ip
 2210 003c 80B2     		uxth	r0, r0
 2211 003e 0023     		movs	r3, #0
 2212 0040 0293     		str	r3, [sp, #8]
 2213 0042 4B46     		mov	r3, r9
 2214 0044 0193     		str	r3, [sp, #4]
 2215 0046 5346     		mov	r3, r10
 2216 0048 0093     		str	r3, [sp]
 2217 004a 5B46     		mov	r3, fp
 2218 004c 2022     		movs	r2, #32
 2219 004e 0599     		ldr	r1, [sp, #20]
 2220 0050 FFF7FEFF 		bl	LCD_Show_Char
 2221              	.LVL331:
 394:Drivers/UserDrivers/lcd.c **** 				continue;
 2222              		.loc 1 394 5 is_stmt 1 view .LVU497
 2223 0054 11E0     		b	.L79
 2224              	.LVL332:
 2225              	.L78:
 395:Drivers/UserDrivers/lcd.c **** 			}else enshow=1; 
 396:Drivers/UserDrivers/lcd.c **** 		 	 
 397:Drivers/UserDrivers/lcd.c **** 		}
 398:Drivers/UserDrivers/lcd.c **** 	 	LCD_Show_Char(x+t*sizex,y,temp+48,fc,bc,sizey,0);
 2226              		.loc 1 398 4 view .LVU498
 2227 0056 3030     		adds	r0, r0, #48
 2228              	.LVL333:
 2229              		.loc 1 398 4 is_stmt 0 view .LVU499
 2230 0058 C2B2     		uxtb	r2, r0
 2231 005a 4046     		mov	r0, r8
 2232              	.LVL334:
 2233              		.loc 1 398 4 view .LVU500
 2234 005c 6043     		muls	r0, r4
 2235 005e 049B     		ldr	r3, [sp, #16]
 2236 0060 9C46     		mov	ip, r3
 2237 0062 6044     		add	r0, r0, ip
 2238 0064 80B2     		uxth	r0, r0
 2239 0066 0023     		movs	r3, #0
 2240 0068 0293     		str	r3, [sp, #8]
 2241 006a 4B46     		mov	r3, r9
 2242 006c 0193     		str	r3, [sp, #4]
 2243 006e 5346     		mov	r3, r10
ARM GAS  D:\noval\Temp\ccGOMXvb.s 			page 50


 2244 0070 0093     		str	r3, [sp]
 2245 0072 5B46     		mov	r3, fp
 2246 0074 0599     		ldr	r1, [sp, #20]
 2247 0076 FFF7FEFF 		bl	LCD_Show_Char
 2248              	.LVL335:
 2249              	.L79:
 386:Drivers/UserDrivers/lcd.c **** 	{
 2250              		.loc 1 386 17 is_stmt 1 discriminator 2 view .LVU501
 2251 007a 0134     		adds	r4, r4, #1
 2252              	.LVL336:
 386:Drivers/UserDrivers/lcd.c **** 	{
 2253              		.loc 1 386 17 is_stmt 0 discriminator 2 view .LVU502
 2254 007c E4B2     		uxtb	r4, r4
 2255              	.LVL337:
 2256              	.L77:
 386:Drivers/UserDrivers/lcd.c **** 	{
 2257              		.loc 1 386 11 is_stmt 1 discriminator 1 view .LVU503
 2258 007e AC42     		cmp	r4, r5
 2259 0080 19D2     		bcs	.L82
 388:Drivers/UserDrivers/lcd.c **** 		if(enshow==0&&t<(len-1))
 2260              		.loc 1 388 3 view .LVU504
 388:Drivers/UserDrivers/lcd.c **** 		if(enshow==0&&t<(len-1))
 2261              		.loc 1 388 25 is_stmt 0 view .LVU505
 2262 0082 291B     		subs	r1, r5, r4
 2263 0084 C9B2     		uxtb	r1, r1
 388:Drivers/UserDrivers/lcd.c **** 		if(enshow==0&&t<(len-1))
 2264              		.loc 1 388 13 view .LVU506
 2265 0086 0139     		subs	r1, r1, #1
 2266 0088 C9B2     		uxtb	r1, r1
 2267 008a 0A20     		movs	r0, #10
 2268 008c FFF7FEFF 		bl	mypow
 2269              	.LVL338:
 388:Drivers/UserDrivers/lcd.c **** 		if(enshow==0&&t<(len-1))
 2270              		.loc 1 388 12 discriminator 1 view .LVU507
 2271 0090 B7FBF0F0 		udiv	r0, r7, r0
 388:Drivers/UserDrivers/lcd.c **** 		if(enshow==0&&t<(len-1))
 2272              		.loc 1 388 31 discriminator 1 view .LVU508
 2273 0094 0A22     		movs	r2, #10
 2274 0096 B0FBF2F2 		udiv	r2, r0, r2
 2275 009a 9300     		lsls	r3, r2, #2
 2276 009c 9B18     		adds	r3, r3, r2
 2277 009e 5B00     		lsls	r3, r3, #1
 2278 00a0 C01A     		subs	r0, r0, r3
 388:Drivers/UserDrivers/lcd.c **** 		if(enshow==0&&t<(len-1))
 2279              		.loc 1 388 7 discriminator 1 view .LVU509
 2280 00a2 C0B2     		uxtb	r0, r0
 2281              	.LVL339:
 389:Drivers/UserDrivers/lcd.c **** 		{
 2282              		.loc 1 389 3 is_stmt 1 view .LVU510
 389:Drivers/UserDrivers/lcd.c **** 		{
 2283              		.loc 1 389 5 is_stmt 0 view .LVU511
 2284 00a4 002E     		cmp	r6, #0
 2285 00a6 D6D1     		bne	.L78
 389:Drivers/UserDrivers/lcd.c **** 		{
 2286              		.loc 1 389 23 discriminator 1 view .LVU512
 2287 00a8 6B1E     		subs	r3, r5, #1
 389:Drivers/UserDrivers/lcd.c **** 		{
ARM GAS  D:\noval\Temp\ccGOMXvb.s 			page 51


 2288              		.loc 1 389 15 discriminator 1 view .LVU513
 2289 00aa 9C42     		cmp	r4, r3
 2290 00ac D3DA     		bge	.L78
 391:Drivers/UserDrivers/lcd.c **** 			{
 2291              		.loc 1 391 4 is_stmt 1 view .LVU514
 391:Drivers/UserDrivers/lcd.c **** 			{
 2292              		.loc 1 391 6 is_stmt 0 view .LVU515
 2293 00ae 0028     		cmp	r0, #0
 2294 00b0 BFD0     		beq	.L83
 395:Drivers/UserDrivers/lcd.c **** 		 	 
 2295              		.loc 1 395 16 view .LVU516
 2296 00b2 0126     		movs	r6, #1
 2297              	.LVL340:
 395:Drivers/UserDrivers/lcd.c **** 		 	 
 2298              		.loc 1 395 16 view .LVU517
 2299 00b4 CFE7     		b	.L78
 2300              	.LVL341:
 2301              	.L82:
 399:Drivers/UserDrivers/lcd.c **** 	}
 400:Drivers/UserDrivers/lcd.c **** }
 2302              		.loc 1 400 1 view .LVU518
 2303 00b6 07B0     		add	sp, sp, #28
 2304              		@ sp needed
 2305              	.LVL342:
 2306              	.LVL343:
 2307              	.LVL344:
 2308              	.LVL345:
 2309              	.LVL346:
 2310              	.LVL347:
 2311              		.loc 1 400 1 view .LVU519
 2312 00b8 F0BC     		pop	{r4, r5, r6, r7}
 2313 00ba BB46     		mov	fp, r7
 2314 00bc B246     		mov	r10, r6
 2315 00be A946     		mov	r9, r5
 2316 00c0 A046     		mov	r8, r4
 2317 00c2 F0BD     		pop	{r4, r5, r6, r7, pc}
 2318              		.cfi_endproc
 2319              	.LFE78:
 2321              		.section	.bss.lastY.0,"aw",%nobits
 2322              		.align	1
 2325              	lastY.0:
 2326 0000 0000     		.space	2
 2327              		.section	.bss.lastX.1,"aw",%nobits
 2328              		.align	1
 2331              	lastX.1:
 2332 0000 0000     		.space	2
 2333              		.section	.data.first_point.2,"aw"
 2336              	first_point.2:
 2337 0000 01       		.byte	1
 2338              		.global	ascii_3216
 2339              		.section	.rodata.ascii_3216,"a"
 2340              		.align	2
 2343              	ascii_3216:
 2344 0000 00000000 		.ascii	"\000\000\000\000\000\000\000\000\000\000\000\000\000"
 2344      00000000 
 2344      00000000 
 2344      00
ARM GAS  D:\noval\Temp\ccGOMXvb.s 			page 52


 2345 000d 00000000 		.ascii	"\000\000\000\000\000\000\000\000\000\000\000\000\000"
 2345      00000000 
 2345      00000000 
 2345      00
 2346 001a 00000000 		.ascii	"\000\000\000\000\000\000\000\000\000\000\000\000\000"
 2346      00000000 
 2346      00000000 
 2346      00
 2347 0027 00000000 		.ascii	"\000\000\000\000\000\000\000\000\000\000\000\000\000"
 2347      00000000 
 2347      00000000 
 2347      00
 2348 0034 00000000 		.ascii	"\000\000\000\000\000\000\000\000\000\000\000\000"
 2348      00000000 
 2348      00000000 
 2349 0040 00000000 		.ascii	"\000\000\000\000\000\000\000\000\000\000\300\001\300"
 2349      00000000 
 2349      0000C001 
 2349      C0
 2350 004d 01C001C0 		.ascii	"\001\300\001\300\001\300\001\300\001\300\001\200\000"
 2350      01C001C0 
 2350      01C00180 
 2350      00
 2351 005a 80008000 		.ascii	"\200\000\200\000\200\000\200\000\200\000\200\000\000"
 2351      80008000 
 2351      80008000 
 2351      00
 2352 0067 00000000 		.ascii	"\000\000\000\000\000\000\000\200\001\300\003\300\003"
 2352      00000080 
 2352      01C003C0 
 2352      03
 2353 0074 80010000 		.ascii	"\200\001\000\000\000\000\000\000\000\000\000\000"
 2353      00000000 
 2353      00000000 
 2354 0080 00000000 		.ascii	"\000\000\000\000\000\000\340\034\340\034\360\036p\016"
 2354      0000E01C 
 2354      E01CF01E 
 2354      700E
 2355 008e 38071803 		.ascii	"8\007\030\003\010\001\204\000\000\000\000\000\000\000"
 2355      08018400 
 2355      00000000 
 2355      0000
 2356 009c 00000000 		.ascii	"\000\000\000\000\000\000\000\000\000\000\000\000\000"
 2356      00000000 
 2356      00000000 
 2356      00
 2357 00a9 00000000 		.ascii	"\000\000\000\000\000\000\000\000\000\000\000\000\000"
 2357      00000000 
 2357      00000000 
 2357      00
 2358 00b6 00000000 		.ascii	"\000\000\000\000\000\000\000\000\000\000"
 2358      00000000 
 2358      0000
 2359 00c0 00000000 		.ascii	"\000\000\000\000\000\000\000\000\000\000\000\000 \020"
 2359      00000000 
 2359      00000000 
 2359      2010
ARM GAS  D:\noval\Temp\ccGOMXvb.s 			page 53


 2360 00ce 20102010 		.ascii	" \020 \020 \020 \020\376\177\376\177\020\010\020\010"
 2360      20102010 
 2360      FE7FFE7F 
 2360      10081008 
 2361 00de 10081008 		.ascii	"\020\010\020\010\020\010\020\010\020\010\376\177\376"
 2361      10081008 
 2361      1008FE7F 
 2361      FE
 2362 00eb 7F080408 		.ascii	"\177\010\004\010\004\010\004\010\004\010\004\000\000"
 2362      04080408 
 2362      04080400 
 2362      00
 2363 00f8 00000000 		.ascii	"\000\000\000\000\000\000\000\000"
 2363      00000000 
 2364 0100 00000000 		.ascii	"\000\000\000\000\000\000\000\000\000\001\000\001\300"
 2364      00000000 
 2364      00010001 
 2364      C0
 2365 010d 07601910 		.ascii	"\007`\031\0201\0301\0309\03098\001p\001\340\001\300"
 2365      31183118 
 2365      39183938 
 2365      017001E0 
 2365      01C0
 2366 011f 03800700 		.ascii	"\003\200\007\000\017\000\035\0009\0001\0341\0341\014"
 2366      0F001D00 
 2366      3900311C 
 2366      311C310C 
 2367 012f 310C1118 		.ascii	"1\014\021\030\015\340\007\000\001\000\001\000\001\000"
 2367      0DE00700 
 2367      01000100 
 2367      0100
 2368 013d 000000   		.ascii	"\000\000\000"
 2369 0140 00000000 		.ascii	"\000\000\000\000\000\000\000\000\000\000\000\000\034"
 2369      00000000 
 2369      00000000 
 2369      1C
 2370 014d 10361863 		.ascii	"\0206\030c\010c\014c\004c\004c\002c\002c\0016\035\234"
 2370      08630C63 
 2370      04630463 
 2370      02630263 
 2370      01361D9C 
 2371 0161 37802280 		.ascii	"7\200\"\200c@c@c c c0c\020\"\0306\010\034\000\000\000"
 2371      63406340 
 2371      63206320 
 2371      63306310 
 2371      22183608 
 2372 0179 00000000 		.ascii	"\000\000\000\000\000\000\000"
 2372      000000
 2373 0180 00000000 		.ascii	"\000\000\000\000\000\000\000\000\000\000\000\000\360"
 2373      00000000 
 2373      00000000 
 2373      F0
 2374 018d 0098018C 		.ascii	"\000\230\001\214\001\214\001\214\001\214\001\214\000"
 2374      018C018C 
 2374      018C018C 
 2374      00
 2375 019a CC007800 		.ascii	"\314\000x\000\030>\034\0106\0102\010c\004c\004\303\004"
ARM GAS  D:\noval\Temp\ccGOMXvb.s 			page 54


 2375      183E1C08 
 2375      36083208 
 2375      63046304 
 2375      C304
 2376 01ac C3038343 		.ascii	"\303\003\203C\006C\216&x\034\000\000\000\000\000\000"
 2376      06438E26 
 2376      781C0000 
 2376      00000000 
 2377 01bc 00000000 		.ascii	"\000\000\000\000"
 2378 01c0 00000000 		.ascii	"\000\000\000\000\000\000\034\000<\000<\0000\0000\000"
 2378      00001C00 
 2378      3C003C00 
 2378      30003000 
 2379 01d0 10000C00 		.ascii	"\020\000\014\000\006\000\000\000\000\000\000\000\000"
 2379      06000000 
 2379      00000000 
 2379      00
 2380 01dd 00000000 		.ascii	"\000\000\000\000\000\000\000\000\000\000\000\000\000"
 2380      00000000 
 2380      00000000 
 2380      00
 2381 01ea 00000000 		.ascii	"\000\000\000\000\000\000\000\000\000\000\000\000\000"
 2381      00000000 
 2381      00000000 
 2381      00
 2382 01f7 00000000 		.ascii	"\000\000\000\000\000\000\000\000\000"
 2382      00000000 
 2382      00
 2383 0200 00000000 		.ascii	"\000\000\000\000\000\000\000@\000 \000\020\000\010\000"
 2383      00000040 
 2383      00200010 
 2383      000800
 2384 020f 0C000400 		.ascii	"\014\000\004\000\006\000\003\000\003\000\003\200\001"
 2384      06000300 
 2384      03000380 
 2384      01
 2385 021c 80018001 		.ascii	"\200\001\200\001\200\001\200\001\200\001\200\001\200"
 2385      80018001 
 2385      80018001 
 2385      80
 2386 0229 01000300 		.ascii	"\001\000\003\000\003\000\003\000\006\000\006\000\014"
 2386      03000300 
 2386      06000600 
 2386      0C
 2387 0236 00080010 		.ascii	"\000\010\000\020\000 \000@\000\000"
 2387      00200040 
 2387      0000
 2388 0240 00000000 		.ascii	"\000\000\000\000\000\000\002\000\004\000\010\000\020"
 2388      00000200 
 2388      04000800 
 2388      10
 2389 024d 00300020 		.ascii	"\0000\000 \000`\000\300\000\300\000\300\000\200\001"
 2389      006000C0 
 2389      00C000C0 
 2389      008001
 2390 025c 80018001 		.ascii	"\200\001\200\001\200\001\200\001\200\001\200\001\200"
 2390      80018001 
ARM GAS  D:\noval\Temp\ccGOMXvb.s 			page 55


 2390      80018001 
 2390      80
 2391 0269 01C000C0 		.ascii	"\001\300\000\300\000\300\000`\000`\0000\000\020\000"
 2391      00C00060 
 2391      00600030 
 2391      001000
 2392 0278 08000400 		.ascii	"\010\000\004\000\002\000\000\000"
 2392      02000000 
 2393 0280 00000000 		.ascii	"\000\000\000\000\000\000\000\000\000\000\000\000\000"
 2393      00000000 
 2393      00000000 
 2393      00
 2394 028d 00000000 		.ascii	"\000\000\000\000\001\200\003\200\003\000\001\034q<y"
 2394      01800380 
 2394      0300011C 
 2394      713C79
 2395 029c 783DC007 		.ascii	"x=\300\007\000\001\300\007x=<y\034q\000\001\200\003"
 2395      0001C007 
 2395      783D3C79 
 2395      1C710001 
 2395      8003
 2396 02ae 80038001 		.ascii	"\200\003\200\001\000\000\000\000\000\000\000\000\000"
 2396      00000000 
 2396      00000000 
 2396      00
 2397 02bb 00000000 		.ascii	"\000\000\000\000\000"
 2397      00
 2398 02c0 00000000 		.ascii	"\000\000\000\000\000\000\000\000\000\000\000\000\000"
 2398      00000000 
 2398      00000000 
 2398      00
 2399 02cd 00000000 		.ascii	"\000\000\000\000\000\000\001\000\001\000\001\000\001"
 2399      00000100 
 2399      01000100 
 2399      01
 2400 02da 00010001 		.ascii	"\000\001\000\001\000\001\374\177\000\001\000\001\000"
 2400      0001FC7F 
 2400      00010001 
 2400      00
 2401 02e7 01000100 		.ascii	"\001\000\001\000\001\000\001\000\001\000\000\000\000"
 2401      01000100 
 2401      01000000 
 2401      00
 2402 02f4 00000000 		.ascii	"\000\000\000\000\000\000\000\000\000\000\000\000"
 2402      00000000 
 2402      00000000 
 2403 0300 00000000 		.ascii	"\000\000\000\000\000\000\000\000\000\000\000\000\000"
 2403      00000000 
 2403      00000000 
 2403      00
 2404 030d 00000000 		.ascii	"\000\000\000\000\000\000\000\000\000\000\000\000\000"
 2404      00000000 
 2404      00000000 
 2404      00
 2405 031a 00000000 		.ascii	"\000\000\000\000\000\000\000\000\000\000\000\000\000"
 2405      00000000 
 2405      00000000 
ARM GAS  D:\noval\Temp\ccGOMXvb.s 			page 56


 2405      00
 2406 0327 00000000 		.ascii	"\000\000\000\000\000\000\000\000\000\034\000<\000<\000"
 2406      00000000 
 2406      001C003C 
 2406      003C00
 2407 0336 30003000 		.ascii	"0\0000\000\020\000\014\000\006\000"
 2407      10000C00 
 2407      0600
 2408 0340 00000000 		.ascii	"\000\000\000\000\000\000\000\000\000\000\000\000\000"
 2408      00000000 
 2408      00000000 
 2408      00
 2409 034d 00000000 		.ascii	"\000\000\000\000\000\000\000\000\000\000\000\000\000"
 2409      00000000 
 2409      00000000 
 2409      00
 2410 035a 00000000 		.ascii	"\000\000\000\000\000\000\376\177\000\000\000\000\000"
 2410      0000FE7F 
 2410      00000000 
 2410      00
 2411 0367 00000000 		.ascii	"\000\000\000\000\000\000\000\000\000\000\000\000\000"
 2411      00000000 
 2411      00000000 
 2411      00
 2412 0374 00000000 		.ascii	"\000\000\000\000\000\000\000\000\000\000\000\000"
 2412      00000000 
 2412      00000000 
 2413 0380 00000000 		.ascii	"\000\000\000\000\000\000\000\000\000\000\000\000\000"
 2413      00000000 
 2413      00000000 
 2413      00
 2414 038d 00000000 		.ascii	"\000\000\000\000\000\000\000\000\000\000\000\000\000"
 2414      00000000 
 2414      00000000 
 2414      00
 2415 039a 00000000 		.ascii	"\000\000\000\000\000\000\000\000\000\000\000\000\000"
 2415      00000000 
 2415      00000000 
 2415      00
 2416 03a7 00000000 		.ascii	"\000\000\000\000\000\000\000\030\000<\000<\000\030\000"
 2416      00000018 
 2416      003C003C 
 2416      001800
 2417 03b6 00000000 		.ascii	"\000\000\000\000\000\000\000\000\000\000"
 2417      00000000 
 2417      0000
 2418 03c0 00000000 		.ascii	"\000\000\000\000\000\000\000@\000`\000 \0000\000\020"
 2418      00000040 
 2418      00600020 
 2418      00300010 
 2419 03d0 00180008 		.ascii	"\000\030\000\010\000\014\000\004\000\006\000\002\000"
 2419      000C0004 
 2419      00060002 
 2419      00
 2420 03dd 03000180 		.ascii	"\003\000\001\200\001\200\000\300\000@\000`\000 \000"
 2420      018000C0 
 2420      00400060 
ARM GAS  D:\noval\Temp\ccGOMXvb.s 			page 57


 2420      002000
 2421 03ec 30001000 		.ascii	"0\000\020\000\030\000\010\000\014\000\004\000\006\000"
 2421      18000800 
 2421      0C000400 
 2421      0600
 2422 03fa 02000000 		.ascii	"\002\000\000\000\000\000"
 2422      0000
 2423 0400 00000000 		.ascii	"\000\000\000\000\000\000\000\000\000\000\000\000\300"
 2423      00000000 
 2423      00000000 
 2423      C0
 2424 040d 07600C30 		.ascii	"\007`\0140\030\0300\0300\030 \014`\014`\014`\014`\014"
 2424      18183018 
 2424      3018200C 
 2424      600C600C 
 2424      600C600C 
 2425 0421 600C600C 		.ascii	"`\014`\014`\014`\014`\030 \0300\03000\030`\014\300\007"
 2425      600C600C 
 2425      60182018 
 2425      30183030 
 2425      18600CC0 
 2426 0436 00000000 		.ascii	"\000\000\000\000\000\000\000\000\000\000"
 2426      00000000 
 2426      0000
 2427 0440 00000000 		.ascii	"\000\000\000\000\000\000\000\000\000\000\000\000\000"
 2427      00000000 
 2427      00000000 
 2427      00
 2428 044d 018001F8 		.ascii	"\001\200\001\370\001\200\001\200\001\200\001\200\001"
 2428      01800180 
 2428      01800180 
 2428      01
 2429 045a 80018001 		.ascii	"\200\001\200\001\200\001\200\001\200\001\200\001\200"
 2429      80018001 
 2429      80018001 
 2429      80
 2430 0467 01800180 		.ascii	"\001\200\001\200\001\200\001\200\001\200\001\300\003"
 2430      01800180 
 2430      018001C0 
 2430      03
 2431 0474 F81F0000 		.ascii	"\370\037\000\000\000\000\000\000\000\000\000\000"
 2431      00000000 
 2431      00000000 
 2432 0480 00000000 		.ascii	"\000\000\000\000\000\000\000\000\000\000\000\000\340"
 2432      00000000 
 2432      00000000 
 2432      E0
 2433 048d 07101C08 		.ascii	"\007\020\034\010\030\0040\0040\0140\0140\0000\000\030"
 2433      18043004 
 2433      300C300C 
 2433      30003000 
 2433      18
 2434 049e 00080004 		.ascii	"\000\010\000\004\000\002\000\001\200\000@\000  \020"
 2434      00020001 
 2434      80004000 
 2434      202010
 2435 04ad 20082004 		.ascii	" \010 \0040\374\037\374\037\000\000\000\000\000\000"
ARM GAS  D:\noval\Temp\ccGOMXvb.s 			page 58


 2435      30FC1FFC 
 2435      1F000000 
 2435      000000
 2436 04bc 00000000 		.ascii	"\000\000\000\000"
 2437 04c0 00000000 		.ascii	"\000\000\000\000\000\000\000\000\000\000\000\000\340"
 2437      00000000 
 2437      00000000 
 2437      E0
 2438 04cd 03180E0C 		.ascii	"\003\030\016\014\014\014\030\014\030\014\030\000\030"
 2438      0C0C180C 
 2438      180C1800 
 2438      18
 2439 04da 000C0006 		.ascii	"\000\014\000\006\300\003\000\016\000\030\000\020\000"
 2439      C003000E 
 2439      00180010 
 2439      00
 2440 04e7 3000300C 		.ascii	"0\0000\0140\0140\014\020\014\030\030\014\340\003\000"
 2440      300C300C 
 2440      100C1818 
 2440      0CE00300 
 2441 04f7 00000000 		.ascii	"\000\000\000\000\000\000\000\000\000"
 2441      00000000 
 2441      00
 2442 0500 00000000 		.ascii	"\000\000\000\000\000\000\000\000\000\000\000\000\000"
 2442      00000000 
 2442      00000000 
 2442      00
 2443 050d 0C000E00 		.ascii	"\014\000\016\000\016\000\017\200\016\200\016@\016`\016"
 2443      0E000F80 
 2443      0E800E40 
 2443      0E600E
 2444 051c 200E100E 		.ascii	" \016\020\016\020\016\010\016\004\016\004\016\376\177"
 2444      100E080E 
 2444      040E040E 
 2444      FE7F
 2445 052a 000E000E 		.ascii	"\000\016\000\016\000\016\000\016\000\016\000\016\300"
 2445      000E000E 
 2445      000E000E 
 2445      C0
 2446 0537 7F000000 		.ascii	"\177\000\000\000\000\000\000\000\000"
 2446      00000000 
 2446      00
 2447 0540 00000000 		.ascii	"\000\000\000\000\000\000\000\000\000\000\000\000\360"
 2447      00000000 
 2447      00000000 
 2447      F0
 2448 054d 3FF03F10 		.ascii	"?\360?\020\000\020\000\020\000\010\000\010\000\310\007"
 2448      00100010 
 2448      00080008 
 2448      00C807
 2449 055c 280C1818 		.ascii	"(\014\030\030\010\020\0000\0000\0000\0000\0140\0140"
 2449      08100030 
 2449      00300030 
 2449      00300C30 
 2449      0C30
 2450 056e 04180418 		.ascii	"\004\030\004\030\010\014\360\003\000\000\000\000\000"
 2450      080CF003 
ARM GAS  D:\noval\Temp\ccGOMXvb.s 			page 59


 2450      00000000 
 2450      00
 2451 057b 00000000 		.ascii	"\000\000\000\000\000"
 2451      00
 2452 0580 00000000 		.ascii	"\000\000\000\000\000\000\000\000\000\000\000\000\200"
 2452      00000000 
 2452      00000000 
 2452      80
 2453 058d 0FC01020 		.ascii	"\017\300\020 0\0200\030\000\030\000\010\000\014\000"
 2453      30103018 
 2453      00180008 
 2453      000C00
 2454 059c 8C0F6C18 		.ascii	"\214\017l\030<0\034`\014`\014`\014`\014`\030`\030 0"
 2454      3C301C60 
 2454      0C600C60 
 2454      0C600C60 
 2454      18601820 
 2455 05b1 306018C0 		.ascii	"0`\030\300\007\000\000\000\000\000\000\000\000\000\000"
 2455      07000000 
 2455      00000000 
 2455      000000
 2456 05c0 00000000 		.ascii	"\000\000\000\000\000\000\000\000\000\000\000\000\370"
 2456      00000000 
 2456      00000000 
 2456      F8
 2457 05cd 3FF83F1C 		.ascii	"?\370?\034\020\014\010\004\010\004\004\000\004\000\002"
 2457      100C0804 
 2457      08040400 
 2457      040002
 2458 05dc 00020001 		.ascii	"\000\002\000\001\000\001\000\001\200\000\200\000\200"
 2458      00010001 
 2458      80008000 
 2458      80
 2459 05e9 00C000C0 		.ascii	"\000\300\000\300\000\300\000\300\000\300\000\300\000"
 2459      00C000C0 
 2459      00C000C0 
 2459      00
 2460 05f6 00000000 		.ascii	"\000\000\000\000\000\000\000\000\000\000"
 2460      00000000 
 2460      0000
 2461 0600 00000000 		.ascii	"\000\000\000\000\000\000\000\000\000\000\000\000\340"
 2461      00000000 
 2461      00000000 
 2461      E0
 2462 060d 07300C18 		.ascii	"\0070\014\030\030\0140\0140\0140\03408\030p\010\340"
 2462      180C300C 
 2462      300C301C 
 2462      30381870 
 2462      08E0
 2463 061f 07B00718 		.ascii	"\007\260\007\030\016\014\034\0068\0060\0060\0060\006"
 2463      0E0C1C06 
 2463      38063006 
 2463      30063006 
 2464 062f 300C1818 		.ascii	"0\014\030\030\014\340\003\000\000\000\000\000\000\000"
 2464      0CE00300 
 2464      00000000 
 2464      0000
ARM GAS  D:\noval\Temp\ccGOMXvb.s 			page 60


 2465 063d 000000   		.ascii	"\000\000\000"
 2466 0640 00000000 		.ascii	"\000\000\000\000\000\000\000\000\000\000\000\000\340"
 2466      00000000 
 2466      00000000 
 2466      E0
 2467 064d 0318040C 		.ascii	"\003\030\004\014\010\014\030\006\020\0060\0060\0060"
 2467      080C1806 
 2467      10063006 
 2467      300630
 2468 065c 06300638 		.ascii	"\0060\0068\014<\0306\3601\0000\000\030\000\030\000\030"
 2468      0C3C1836 
 2468      F0310030 
 2468      00180018 
 2468      0018
 2469 066e 0C0C0C06 		.ascii	"\014\014\014\006\014\003\360\001\000\000\000\000\000"
 2469      0C03F001 
 2469      00000000 
 2469      00
 2470 067b 00000000 		.ascii	"\000\000\000\000\000"
 2470      00
 2471 0680 00000000 		.ascii	"\000\000\000\000\000\000\000\000\000\000\000\000\000"
 2471      00000000 
 2471      00000000 
 2471      00
 2472 068d 00000000 		.ascii	"\000\000\000\000\000\000\000\000\000\000\000\000\000"
 2472      00000000 
 2472      00000000 
 2472      00
 2473 069a 8001C003 		.ascii	"\200\001\300\003\300\003\200\001\000\000\000\000\000"
 2473      C0038001 
 2473      00000000 
 2473      00
 2474 06a7 00000000 		.ascii	"\000\000\000\000\000\000\000\200\001\300\003\300\003"
 2474      00000080 
 2474      01C003C0 
 2474      03
 2475 06b4 80010000 		.ascii	"\200\001\000\000\000\000\000\000\000\000\000\000"
 2475      00000000 
 2475      00000000 
 2476 06c0 00000000 		.ascii	"\000\000\000\000\000\000\000\000\000\000\000\000\000"
 2476      00000000 
 2476      00000000 
 2476      00
 2477 06cd 00000000 		.ascii	"\000\000\000\000\000\000\000\000\000\000\000\000\000"
 2477      00000000 
 2477      00000000 
 2477      00
 2478 06da C000C000 		.ascii	"\300\000\300\000\000\000\000\000\000\000\000\000\000"
 2478      00000000 
 2478      00000000 
 2478      00
 2479 06e7 00000000 		.ascii	"\000\000\000\000\000\000\000\000\000\000\000\300\000"
 2479      00000000 
 2479      000000C0 
 2479      00
 2480 06f4 C0008000 		.ascii	"\300\000\200\000\200\000@\000@\000\000\000"
 2480      80004000 
ARM GAS  D:\noval\Temp\ccGOMXvb.s 			page 61


 2480      40000000 
 2481 0700 00000000 		.ascii	"\000\000\000\000\000\000\000\000\000\000\000 \000\020"
 2481      00000000 
 2481      00000020 
 2481      0010
 2482 070e 00080004 		.ascii	"\000\010\000\004\000\006\000\003\200\001\300\000`\000"
 2482      00060003 
 2482      8001C000 
 2482      6000
 2483 071c 30001800 		.ascii	"0\000\030\000\014\000\030\0000\000`\000\300\000\200"
 2483      0C001800 
 2483      30006000 
 2483      C00080
 2484 072b 01000300 		.ascii	"\001\000\003\000\006\000\004\000\010\000\020\000 \000"
 2484      06000400 
 2484      08001000 
 2484      2000
 2485 0739 00000000 		.ascii	"\000\000\000\000\000\000\000"
 2485      000000
 2486 0740 00000000 		.ascii	"\000\000\000\000\000\000\000\000\000\000\000\000\000"
 2486      00000000 
 2486      00000000 
 2486      00
 2487 074d 00000000 		.ascii	"\000\000\000\000\000\000\000\000\000\000\000\000\000"
 2487      00000000 
 2487      00000000 
 2487      00
 2488 075a FE7F0000 		.ascii	"\376\177\000\000\000\000\000\000\000\000\000\000\376"
 2488      00000000 
 2488      00000000 
 2488      FE
 2489 0767 7F000000 		.ascii	"\177\000\000\000\000\000\000\000\000\000\000\000\000"
 2489      00000000 
 2489      00000000 
 2489      00
 2490 0774 00000000 		.ascii	"\000\000\000\000\000\000\000\000\000\000\000\000"
 2490      00000000 
 2490      00000000 
 2491 0780 00000000 		.ascii	"\000\000\000\000\000\000\000\000\000\000\004\000\010"
 2491      00000000 
 2491      00000400 
 2491      08
 2492 078d 00100020 		.ascii	"\000\020\000 \000`\000\300\000\200\001\000\003\000\006"
 2492      006000C0 
 2492      00800100 
 2492      030006
 2493 079c 000C0018 		.ascii	"\000\014\000\030\0000\000\030\000\014\000\006\000\003"
 2493      00300018 
 2493      000C0006 
 2493      0003
 2494 07aa 8001C000 		.ascii	"\200\001\300\000`\000 \000\020\000\010\000\004\000\000"
 2494      60002000 
 2494      10000800 
 2494      040000
 2495 07b9 00000000 		.ascii	"\000\000\000\000\000\000\000"
 2495      000000
 2496 07c0 00000000 		.ascii	"\000\000\000\000\000\000\000\000\000\000\300\0070\030"
ARM GAS  D:\noval\Temp\ccGOMXvb.s 			page 62


 2496      00000000 
 2496      0000C007 
 2496      3018
 2497 07ce 08300860 		.ascii	"\0100\010`\014`\034`\034`\034`\0000\000\034\000\006"
 2497      0C601C60 
 2497      1C601C60 
 2497      0030001C 
 2497      0006
 2498 07e0 00018000 		.ascii	"\000\001\200\000\200\000\200\000\200\000\000\000\000"
 2498      80008000 
 2498      80000000 
 2498      00
 2499 07ed 008001C0 		.ascii	"\000\200\001\300\003\300\003\200\001\000\000\000\000"
 2499      03C00380 
 2499      01000000 
 2499      00
 2500 07fa 00000000 		.ascii	"\000\000\000\000\000\000"
 2500      0000
 2501 0800 00000000 		.ascii	"\000\000\000\000\000\000\000\000\000\000\000\000\300"
 2501      00000000 
 2501      00000000 
 2501      C0
 2502 080d 07601810 		.ascii	"\007`\030\0200\030 \014/\214M\206L\306L\306LfLfDfDf"
 2502      3018200C 
 2502      2F8C4D86 
 2502      4CC64CC6 
 2502      4C664C66 
 2503 0825 26662666 		.ascii	"&f&f\025\314\034\014@\010 \03000\030\300\007\000\000"
 2503      15CC1C0C 
 2503      40082018 
 2503      303018C0 
 2503      070000
 2504 0838 00000000 		.ascii	"\000\000\000\000\000\000\000\000"
 2504      00000000 
 2505 0840 00000000 		.ascii	"\000\000\000\000\000\000\000\000\000\000\000\001\300"
 2505      00000000 
 2505      00000001 
 2505      C0
 2506 084d 01C001C0 		.ascii	"\001\300\001\300\001@\001`\003 \003 \003 \0030\006\020"
 2506      01400160 
 2506      03200320 
 2506      03200330 
 2506      0610
 2507 085f 06100610 		.ascii	"\006\020\006\020\006\370\017\010\014\010\014\010\014"
 2507      06F80F08 
 2507      0C080C08 
 2507      0C
 2508 086c 0C0C0418 		.ascii	"\014\014\004\030\004\030\006\030\037|\000\000\000\000"
 2508      04180618 
 2508      1F7C0000 
 2508      0000
 2509 087a 00000000 		.ascii	"\000\000\000\000\000\000"
 2509      0000
 2510 0880 00000000 		.ascii	"\000\000\000\000\000\000\000\000\000\000\000\000\376"
 2510      00000000 
 2510      00000000 
 2510      FE
ARM GAS  D:\noval\Temp\ccGOMXvb.s 			page 63


 2511 088d 07181C18 		.ascii	"\007\030\034\0308\0300\0300\0300\0300\030\030\030\014"
 2511      38183018 
 2511      30183018 
 2511      30181818 
 2511      0C
 2512 089e F8071818 		.ascii	"\370\007\030\030\0300\030 \030`\030`\030`\030`\030`"
 2512      18301820 
 2512      18601860 
 2512      18601860 
 2512      1860
 2513 08b0 18301818 		.ascii	"\0300\030\030\376\017\000\000\000\000\000\000\000\000"
 2513      FE0F0000 
 2513      00000000 
 2513      0000
 2514 08be 0000     		.ascii	"\000\000"
 2515 08c0 00000000 		.ascii	"\000\000\000\000\000\000\000\000\000\000\000\000\300"
 2515      00000000 
 2515      00000000 
 2515      C0
 2516 08cd 27603810 		.ascii	"'`8\0200\030 \014@\014@\004\000\006\000\006\000\006"
 2516      3018200C 
 2516      400C4004 
 2516      00060006 
 2516      0006
 2517 08df 00060006 		.ascii	"\000\006\000\006\000\006\000\006\000\006\000\014@\014"
 2517      00060006 
 2517      0006000C 
 2517      400C
 2518 08ed 400C2018 		.ascii	"@\014 \03000\030\300\007\000\000\000\000\000\000\000"
 2518      303018C0 
 2518      07000000 
 2518      00000000 
 2519 08fd 000000   		.ascii	"\000\000\000"
 2520 0900 00000000 		.ascii	"\000\000\000\000\000\000\000\000\000\000\000\000\376"
 2520      00000000 
 2520      00000000 
 2520      FE
 2521 090d 03180E18 		.ascii	"\003\030\016\030\030\0300\0300\0300\030`\030`\030`\030"
 2521      18183018 
 2521      30183018 
 2521      60186018 
 2521      6018
 2522 091f 60186018 		.ascii	"`\030`\030`\030`\030`\030`\0300\0300\030\020\030\030"
 2522      60186018 
 2522      60186018 
 2522      30183018 
 2522      101818
 2523 0932 180EFE03 		.ascii	"\030\016\376\003\000\000\000\000\000\000\000\000\000"
 2523      00000000 
 2523      00000000 
 2523      00
 2524 093f 00       		.ascii	"\000"
 2525 0940 00000000 		.ascii	"\000\000\000\000\000\000\000\000\000\000\000\000\376"
 2525      00000000 
 2525      00000000 
 2525      FE
 2526 094d 3F183018 		.ascii	"?\0300\030 \030`\030@\030\000\030\010\030\010\030\014"
ARM GAS  D:\noval\Temp\ccGOMXvb.s 			page 64


 2526      20186018 
 2526      40180018 
 2526      08180818 
 2526      0C
 2527 095e F80F180C 		.ascii	"\370\017\030\014\030\010\030\010\030\000\030\000\030"
 2527      18081808 
 2527      18001800 
 2527      18
 2528 096b 00184018 		.ascii	"\000\030@\030@\030 \0300\376?\000\000\000\000\000\000"
 2528      40182018 
 2528      30FE3F00 
 2528      00000000 
 2528      00
 2529 097c 00000000 		.ascii	"\000\000\000\000"
 2530 0980 00000000 		.ascii	"\000\000\000\000\000\000\000\000\000\000\000\000\376"
 2530      00000000 
 2530      00000000 
 2530      FE
 2531 098d 7F187018 		.ascii	"\177\030p\030@\030\300\030\200\030\000\030\020\030\020"
 2531      4018C018 
 2531      80180018 
 2531      101810
 2532 099c 1818F81F 		.ascii	"\030\030\370\037\030\030\030\020\030\020\030\000\030"
 2532      18181810 
 2532      18101800 
 2532      18
 2533 09a9 00180018 		.ascii	"\000\030\000\030\000\030\000\030\000\030\000~\000\000"
 2533      00180018 
 2533      0018007E 
 2533      0000
 2534 09b7 00000000 		.ascii	"\000\000\000\000\000\000\000\000\000"
 2534      00000000 
 2534      00
 2535 09c0 00000000 		.ascii	"\000\000\000\000\000\000\000\000\000\000\000\000\300"
 2535      00000000 
 2535      00000000 
 2535      C0
 2536 09cd 13701C10 		.ascii	"\023p\034\020\020\030\020\014 \014 \004\000\006\000"
 2536      1018100C 
 2536      200C2004 
 2536      000600
 2537 09dc 06000600 		.ascii	"\006\000\006\000\006\000\006\000\006\374\0060\0060\014"
 2537      06000600 
 2537      06FC0630 
 2537      06300C
 2538 09eb 300C3018 		.ascii	"0\0140\0300\03000\010\300\007\000\000\000\000\000\000"
 2538      30183030 
 2538      08C00700 
 2538      00000000 
 2538      00
 2539 09fc 00000000 		.ascii	"\000\000\000\000"
 2540 0a00 00000000 		.ascii	"\000\000\000\000\000\000\000\000\000\000\000\000?~\014"
 2540      00000000 
 2540      00000000 
 2540      3F7E0C
 2541 0a0f 180C180C 		.ascii	"\030\014\030\014\030\014\030\014\030\014\030\014\030"
 2541      180C180C 
ARM GAS  D:\noval\Temp\ccGOMXvb.s 			page 65


 2541      180C180C 
 2541      18
 2542 0a1c 0C180C18 		.ascii	"\014\030\014\030\374\037\014\030\014\030\014\030\014"
 2542      FC1F0C18 
 2542      0C180C18 
 2542      0C
 2543 0a29 180C180C 		.ascii	"\030\014\030\014\030\014\030\014\030\014\030?~\000\000"
 2543      180C180C 
 2543      180C183F 
 2543      7E0000
 2544 0a38 00000000 		.ascii	"\000\000\000\000\000\000\000\000"
 2544      00000000 
 2545 0a40 00000000 		.ascii	"\000\000\000\000\000\000\000\000\000\000\000\000\370"
 2545      00000000 
 2545      00000000 
 2545      F8
 2546 0a4d 1F800180 		.ascii	"\037\200\001\200\001\200\001\200\001\200\001\200\001"
 2546      01800180 
 2546      01800180 
 2546      01
 2547 0a5a 80018001 		.ascii	"\200\001\200\001\200\001\200\001\200\001\200\001\200"
 2547      80018001 
 2547      80018001 
 2547      80
 2548 0a67 01800180 		.ascii	"\001\200\001\200\001\200\001\200\001\200\001\200\001"
 2548      01800180 
 2548      01800180 
 2548      01
 2549 0a74 F81F0000 		.ascii	"\370\037\000\000\000\000\000\000\000\000\000\000"
 2549      00000000 
 2549      00000000 
 2550 0a80 00000000 		.ascii	"\000\000\000\000\000\000\000\000\000\000\000\000\340"
 2550      00000000 
 2550      00000000 
 2550      E0
 2551 0a8d 7F000600 		.ascii	"\177\000\006\000\006\000\006\000\006\000\006\000\006"
 2551      06000600 
 2551      06000600 
 2551      06
 2552 0a9a 00060006 		.ascii	"\000\006\000\006\000\006\000\006\000\006\000\006\000"
 2552      00060006 
 2552      00060006 
 2552      00
 2553 0aa7 06000600 		.ascii	"\006\000\006\000\006\000\006\000\006\000\006\000\006"
 2553      06000600 
 2553      06000600 
 2553      06
 2554 0ab4 00060006 		.ascii	"\000\006\000\006\016\006\016\003\216\001\374\000"
 2554      0E060E03 
 2554      8E01FC00 
 2555 0ac0 00000000 		.ascii	"\000\000\000\000\000\000\000\000\000\000\000\000~|\030"
 2555      00000000 
 2555      00000000 
 2555      7E7C18
 2556 0acf 18180818 		.ascii	"\030\030\010\030\004\030\006\030\002\030\001\230\001"
 2556      04180618 
 2556      02180198 
ARM GAS  D:\noval\Temp\ccGOMXvb.s 			page 66


 2556      01
 2557 0adc 9801D801 		.ascii	"\230\001\330\001\270\0038\003\030\007\030\006\030\016"
 2557      B8033803 
 2557      18071806 
 2557      180E
 2558 0aea 180C181C 		.ascii	"\030\014\030\034\030\030\0300\0300~\374\000\000\000"
 2558      18181830 
 2558      18307EFC 
 2558      000000
 2559 0af9 00000000 		.ascii	"\000\000\000\000\000\000\000"
 2559      000000
 2560 0b00 00000000 		.ascii	"\000\000\000\000\000\000\000\000\000\000\000\000~\000"
 2560      00000000 
 2560      00000000 
 2560      7E00
 2561 0b0e 18001800 		.ascii	"\030\000\030\000\030\000\030\000\030\000\030\000\030"
 2561      18001800 
 2561      18001800 
 2561      18
 2562 0b1b 00180018 		.ascii	"\000\030\000\030\000\030\000\030\000\030\000\030\000"
 2562      00180018 
 2562      00180018 
 2562      00
 2563 0b28 18001800 		.ascii	"\030\000\030\000\030@\030@\030 \0300\376?\000\000\000"
 2563      18401840 
 2563      18201830 
 2563      FE3F0000 
 2563      00
 2564 0b39 00000000 		.ascii	"\000\000\000\000\000\000\000"
 2564      000000
 2565 0b40 00000000 		.ascii	"\000\000\000\000\000\000\000\000\000\000\000\000\037"
 2565      00000000 
 2565      00000000 
 2565      1F
 2566 0b4d F81C381C 		.ascii	"\370\0348\0348\0348\034<44444446t2d2d2d2d1\3041\304"
 2566      381C381C 
 2566      3C343434 
 2566      34343434 
 2566      36743264 
 2567 0b6b 31C431C4 		.ascii	"1\3041\3040\3040\2040\237\374\000\000\000\000\000\000"
 2567      30C43084 
 2567      309FFC00 
 2567      00000000 
 2567      00
 2568 0b7c 00000000 		.ascii	"\000\000\000\000"
 2569 0b80 00000000 		.ascii	"\000\000\000\000\000\000\000\000\000\000\000\000\037"
 2569      00000000 
 2569      00000000 
 2569      1F
 2570 0b8d 7C1C103C 		.ascii	"|\034\020<\0204\0204\020t\020d\020\344\020\304\020\304"
 2570      10341034 
 2570      10741064 
 2570      10E410C4 
 2570      10C4
 2571 0b9f 11841184 		.ascii	"\021\204\021\204\023\004\023\004\027\004\026\004\036"
 2571      13041304 
 2571      17041604 
ARM GAS  D:\noval\Temp\ccGOMXvb.s 			page 67


 2571      1E
 2572 0bac 041C041C 		.ascii	"\004\034\004\034\004\034\004\030\037\030\000\000\000"
 2572      041C0418 
 2572      1F180000 
 2572      00
 2573 0bb9 00000000 		.ascii	"\000\000\000\000\000\000\000"
 2573      000000
 2574 0bc0 00000000 		.ascii	"\000\000\000\000\000\000\000\000\000\000\000\000\300"
 2574      00000000 
 2574      00000000 
 2574      C0
 2575 0bcd 03300C18 		.ascii	"\0030\014\030\030\010\020\0140\0140\006`\006`\006`\006"
 2575      1808100C 
 2575      300C3006 
 2575      60066006 
 2575      6006
 2576 0bdf 60066006 		.ascii	"`\006`\006`\006`\006`\006`\014 \0140\010\020\030\030"
 2576      60066006 
 2576      6006600C 
 2576      200C3008 
 2576      101818
 2577 0bf2 300CC003 		.ascii	"0\014\300\003\000\000\000\000\000\000\000\000\000\000"
 2577      00000000 
 2577      00000000 
 2577      0000
 2578 0c00 00000000 		.ascii	"\000\000\000\000\000\000\000\000\000\000\000\000\376"
 2578      00000000 
 2578      00000000 
 2578      FE
 2579 0c0d 0F181818 		.ascii	"\017\030\030\0300\030`\030`\030`\030`\030`\0300\030"
 2579      30186018 
 2579      60186018 
 2579      60186018 
 2579      3018
 2580 0c1f 18F80F18 		.ascii	"\030\370\017\030\000\030\000\030\000\030\000\030\000"
 2580      00180018 
 2580      00180018 
 2580      00
 2581 0c2c 18001800 		.ascii	"\030\000\030\000\030\000\030\000~\000\000\000\000\000"
 2581      18001800 
 2581      7E000000 
 2581      0000
 2582 0c3a 00000000 		.ascii	"\000\000\000\000\000\000"
 2582      0000
 2583 0c40 00000000 		.ascii	"\000\000\000\000\000\000\000\000\000\000\000\000\300"
 2583      00000000 
 2583      00000000 
 2583      C0
 2584 0c4d 03300C18 		.ascii	"\0030\014\030\030\014\020\0140\014 \006`\006`\006`\006"
 2584      180C100C 
 2584      300C2006 
 2584      60066006 
 2584      6006
 2585 0c5f 60066006 		.ascii	"`\006`\006`\006`\006`\006`\344a,3\0342\030\0260\016"
 2585      60066006 
 2585      600660E4 
 2585      612C331C 
ARM GAS  D:\noval\Temp\ccGOMXvb.s 			page 68


 2585      32181630 
 2586 0c74 C007004C 		.ascii	"\300\007\000L\000|\0008\000\000\000\000"
 2586      007C0038 
 2586      00000000 
 2587 0c80 00000000 		.ascii	"\000\000\000\000\000\000\000\000\000\000\000\000\376"
 2587      00000000 
 2587      00000000 
 2587      FE
 2588 0c8d 07181C18 		.ascii	"\007\030\034\0308\0300\0300\0300\0300\030\030\030\014"
 2588      38183018 
 2588      30183018 
 2588      30181818 
 2588      0C
 2589 0c9e F8079803 		.ascii	"\370\007\230\003\030\003\030\007\030\006\030\006\030"
 2589      18031807 
 2589      18061806 
 2589      18
 2590 0cab 0E180C18 		.ascii	"\016\030\014\030\014\030\034\030\030~x\000\000\000\000"
 2590      0C181C18 
 2590      187E7800 
 2590      000000
 2591 0cba 00000000 		.ascii	"\000\000\000\000\000\000"
 2591      0000
 2592 0cc0 00000000 		.ascii	"\000\000\000\000\000\000\000\000\000\000\000\000\340"
 2592      00000000 
 2592      00000000 
 2592      E0
 2593 0ccd 27303818 		.ascii	"'08\0300\014 \014 \014\000\014\000\030\000x\000\340"
 2593      300C200C 
 2593      200C000C 
 2593      00180078 
 2593      00E0
 2594 0cdf 03800F00 		.ascii	"\003\200\017\000\036\0008\000p\000`\004`\004`\010`\030"
 2594      1E003800 
 2594      70006004 
 2594      60046008 
 2594      6018
 2595 0cf1 303818C8 		.ascii	"08\030\310\017\000\000\000\000\000\000\000\000\000\000"
 2595      0F000000 
 2595      00000000 
 2595      000000
 2596 0d00 00000000 		.ascii	"\000\000\000\000\000\000\000\000\000\000\000\000\374"
 2596      00000000 
 2596      00000000 
 2596      FC
 2597 0d0d 3F8C2184 		.ascii	"?\214!\204a\202A\202A\200\001\200\001\200\001\200\001"
 2597      61824182 
 2597      41800180 
 2597      01800180 
 2597      01
 2598 0d1e 80018001 		.ascii	"\200\001\200\001\200\001\200\001\200\001\200\001\200"
 2598      80018001 
 2598      80018001 
 2598      80
 2599 0d2b 01800180 		.ascii	"\001\200\001\200\001\200\001\200\001\340\007\000\000"
 2599      01800180 
 2599      01E00700 
ARM GAS  D:\noval\Temp\ccGOMXvb.s 			page 69


 2599      00
 2600 0d38 00000000 		.ascii	"\000\000\000\000\000\000\000\000"
 2600      00000000 
 2601 0d40 00000000 		.ascii	"\000\000\000\000\000\000\000\000\000\000\000\000?|\014"
 2601      00000000 
 2601      00000000 
 2601      3F7C0C
 2602 0d4f 100C100C 		.ascii	"\020\014\020\014\020\014\020\014\020\014\020\014\020"
 2602      100C100C 
 2602      100C100C 
 2602      10
 2603 0d5c 0C100C10 		.ascii	"\014\020\014\020\014\020\014\020\014\020\014\020\014"
 2603      0C100C10 
 2603      0C100C10 
 2603      0C
 2604 0d69 100C100C 		.ascii	"\020\014\020\014\020\014\020\010\0108\004\340\003\000"
 2604      100C1008 
 2604      083804E0 
 2604      0300
 2605 0d77 00000000 		.ascii	"\000\000\000\000\000\000\000\000\000"
 2605      00000000 
 2605      00
 2606 0d80 00000000 		.ascii	"\000\000\000\000\000\000\000\000\000\000\000\000>\370"
 2606      00000000 
 2606      00000000 
 2606      3EF8
 2607 0d8e 18201820 		.ascii	"\030 \030 \030 0\0200\0200\0200\020`\010`\010`\010\340"
 2607      18203010 
 2607      30103010 
 2607      30106008 
 2607      60086008 
 2608 0da3 0CC004C0 		.ascii	"\014\300\004\300\004\300\004\200\003\200\003\200\003"
 2608      04C00480 
 2608      03800380 
 2608      03
 2609 0db0 80030001 		.ascii	"\200\003\000\001\000\001\000\000\000\000\000\000\000"
 2609      00010000 
 2609      00000000 
 2609      00
 2610 0dbd 000000   		.ascii	"\000\000\000"
 2611 0dc0 00000000 		.ascii	"\000\000\000\000\000\000\000\000\000\000\000\000\337"
 2611      00000000 
 2611      00000000 
 2611      DF
 2612 0dcd F3866186 		.ascii	"\363\206a\206!\206!\214!\014!\214#\214\023\214\023\214"
 2612      2186218C 
 2612      210C218C 
 2612      238C138C 
 2612      138C
 2613 0ddf 134C1358 		.ascii	"\023L\023X\022X\026X\0168\0168\0168\0160\014\020\004"
 2613      12581658 
 2613      0E380E38 
 2613      0E380E30 
 2613      0C1004
 2614 0df2 10041004 		.ascii	"\020\004\020\004\000\000\000\000\000\000\000\000\000"
 2614      00000000 
 2614      00000000 
ARM GAS  D:\noval\Temp\ccGOMXvb.s 			page 70


 2614      00
 2615 0dff 00       		.ascii	"\000"
 2616 0e00 00000000 		.ascii	"\000\000\000\000\000\000\000\000\000\000\000\000~>\030"
 2616      00000000 
 2616      00000000 
 2616      7E3E18
 2617 0e0f 08380830 		.ascii	"\0108\0100\0040\004p\002`\002\340\001\300\001\300\001"
 2617      04300470 
 2617      026002E0 
 2617      01C001C0 
 2617      01
 2618 0e20 80018003 		.ascii	"\200\001\200\003@\003@\007 \006 \006\020\014\020\014"
 2618      40034007 
 2618      20062006 
 2618      100C100C 
 2619 0e30 08180818 		.ascii	"\010\030\010\030>|\000\000\000\000\000\000\000\000\000"
 2619      3E7C0000 
 2619      00000000 
 2619      000000
 2620 0e3f 00       		.ascii	"\000"
 2621 0e40 00000000 		.ascii	"\000\000\000\000\000\000\000\000\000\000\000\000~|\034"
 2621      00000000 
 2621      00000000 
 2621      7E7C1C
 2622 0e4f 10181018 		.ascii	"\020\030\020\030\0100\0100\014p\004`\004`\002\300\002"
 2622      08300830 
 2622      0C700460 
 2622      046002C0 
 2622      02
 2623 0e60 C002C001 		.ascii	"\300\002\300\001\200\001\200\001\200\001\200\001\200"
 2623      80018001 
 2623      80018001 
 2623      80
 2624 0e6d 01800180 		.ascii	"\001\200\001\200\001\200\001\340\007\000\000\000\000"
 2624      018001E0 
 2624      07000000 
 2624      00
 2625 0e7a 00000000 		.ascii	"\000\000\000\000\000\000"
 2625      0000
 2626 0e80 00000000 		.ascii	"\000\000\000\000\000\000\000\000\000\000\000\000\370"
 2626      00000000 
 2626      00000000 
 2626      F8
 2627 0e8d 3F181808 		.ascii	"?\030\030\010\030\004\014\004\016\000\006\000\007\000"
 2627      18040C04 
 2627      0E000600 
 2627      0700
 2628 0e9b 03800380 		.ascii	"\003\200\003\200\001\300\001\300\000\340\000`\000p\000"
 2628      01C001C0 
 2628      00E00060 
 2628      007000
 2629 0eaa 30003820 		.ascii	"0\0008 \030 \034\020\014\030\376\037\000\000\000\000"
 2629      18201C10 
 2629      0C18FE1F 
 2629      00000000 
 2630 0eba 00000000 		.ascii	"\000\000\000\000\000\000"
 2630      0000
ARM GAS  D:\noval\Temp\ccGOMXvb.s 			page 71


 2631 0ec0 00000000 		.ascii	"\000\000\000\000\000\000\300?@\000@\000@\000@\000@\000"
 2631      0000C03F 
 2631      40004000 
 2631      40004000 
 2631      4000
 2632 0ed2 40004000 		.ascii	"@\000@\000@\000@\000@\000@\000@\000@\000@\000@\000@"
 2632      40004000 
 2632      40004000 
 2632      40004000 
 2632      40004000 
 2633 0ee7 00400040 		.ascii	"\000@\000@\000@\000@\000@\000@\000@\000@\000@\000\300"
 2633      00400040 
 2633      00400040 
 2633      00400040 
 2633      004000C0 
 2634 0efb 3F000000 		.ascii	"?\000\000\000\000"
 2634      00
 2635 0f00 00000000 		.ascii	"\000\000\000\000\000\000\000\000\000\000\010\000\030"
 2635      00000000 
 2635      00000800 
 2635      18
 2636 0f0d 00180010 		.ascii	"\000\030\000\020\0000\000 \000`\000`\000@\000\300\000"
 2636      00300020 
 2636      00600060 
 2636      004000C0 
 2636      00
 2637 0f1e 80008001 		.ascii	"\200\000\200\001\200\001\000\001\000\003\000\002\000"
 2637      80010001 
 2637      00030002 
 2637      00
 2638 0f2b 06000600 		.ascii	"\006\000\006\000\004\000\014\000\010\000\030\000\030"
 2638      04000C00 
 2638      08001800 
 2638      18
 2639 0f38 00100030 		.ascii	"\000\020\0000\000 \000\000"
 2639      00200000 
 2640 0f40 00000000 		.ascii	"\000\000\000\000\000\000\374\003\000\002\000\002\000"
 2640      0000FC03 
 2640      00020002 
 2640      00
 2641 0f4d 02000200 		.ascii	"\002\000\002\000\002\000\002\000\002\000\002\000\002"
 2641      02000200 
 2641      02000200 
 2641      02
 2642 0f5a 00020002 		.ascii	"\000\002\000\002\000\002\000\002\000\002\000\002\000"
 2642      00020002 
 2642      00020002 
 2642      00
 2643 0f67 02000200 		.ascii	"\002\000\002\000\002\000\002\000\002\000\002\000\002"
 2643      02000200 
 2643      02000200 
 2643      02
 2644 0f74 00020002 		.ascii	"\000\002\000\002\000\002\374\003\000\000\000\000"
 2644      0002FC03 
 2644      00000000 
 2645 0f80 00000000 		.ascii	"\000\000\000\000\000\000\200\007\300\006 \010\020\020"
 2645      00008007 
ARM GAS  D:\noval\Temp\ccGOMXvb.s 			page 72


 2645      C0062008 
 2645      1010
 2646 0f8e 00000000 		.ascii	"\000\000\000\000\000\000\000\000\000\000\000\000\000"
 2646      00000000 
 2646      00000000 
 2646      00
 2647 0f9b 00000000 		.ascii	"\000\000\000\000\000\000\000\000\000\000\000\000\000"
 2647      00000000 
 2647      00000000 
 2647      00
 2648 0fa8 00000000 		.ascii	"\000\000\000\000\000\000\000\000\000\000\000\000\000"
 2648      00000000 
 2648      00000000 
 2648      00
 2649 0fb5 00000000 		.ascii	"\000\000\000\000\000\000\000\000\000\000\000"
 2649      00000000 
 2649      000000
 2650 0fc0 00000000 		.ascii	"\000\000\000\000\000\000\000\000\000\000\000\000\000"
 2650      00000000 
 2650      00000000 
 2650      00
 2651 0fcd 00000000 		.ascii	"\000\000\000\000\000\000\000\000\000\000\000\000\000"
 2651      00000000 
 2651      00000000 
 2651      00
 2652 0fda 00000000 		.ascii	"\000\000\000\000\000\000\000\000\000\000\000\000\000"
 2652      00000000 
 2652      00000000 
 2652      00
 2653 0fe7 00000000 		.ascii	"\000\000\000\000\000\000\000\000\000\000\000\000\000"
 2653      00000000 
 2653      00000000 
 2653      00
 2654 0ff4 00000000 		.ascii	"\000\000\000\000\000\000\000\000\000\000\377\377"
 2654      00000000 
 2654      0000FFFF 
 2655 1000 00000000 		.ascii	"\000\000\000\000\000\000x\000\300\000\000\001\000\000"
 2655      00007800 
 2655      C0000001 
 2655      0000
 2656 100e 00000000 		.ascii	"\000\000\000\000\000\000\000\000\000\000\000\000\000"
 2656      00000000 
 2656      00000000 
 2656      00
 2657 101b 00000000 		.ascii	"\000\000\000\000\000\000\000\000\000\000\000\000\000"
 2657      00000000 
 2657      00000000 
 2657      00
 2658 1028 00000000 		.ascii	"\000\000\000\000\000\000\000\000\000\000\000\000\000"
 2658      00000000 
 2658      00000000 
 2658      00
 2659 1035 00000000 		.ascii	"\000\000\000\000\000\000\000\000\000\000\000"
 2659      00000000 
 2659      000000
 2660 1040 00000000 		.ascii	"\000\000\000\000\000\000\000\000\000\000\000\000\000"
 2660      00000000 
ARM GAS  D:\noval\Temp\ccGOMXvb.s 			page 73


 2660      00000000 
 2660      00
 2661 104d 00000000 		.ascii	"\000\000\000\000\000\000\000\000\000\000\000\000\000"
 2661      00000000 
 2661      00000000 
 2661      00
 2662 105a F0031806 		.ascii	"\360\003\030\006\014\014\014\014\000\014\200\017p\014"
 2662      0C0C0C0C 
 2662      000C800F 
 2662      700C
 2663 1068 1C0C0C0C 		.ascii	"\034\014\014\014\006\014\006\014\006L\014O\3708\000"
 2663      060C060C 
 2663      064C0C4F 
 2663      F83800
 2664 1077 00000000 		.ascii	"\000\000\000\000\000\000\000\000\000"
 2664      00000000 
 2664      00
 2665 1080 00000000 		.ascii	"\000\000\000\000\000\000\000\000\000\000\020\000\036"
 2665      00000000 
 2665      00001000 
 2665      1E
 2666 108d 00180018 		.ascii	"\000\030\000\030\000\030\000\030\000\030\000\030\000"
 2666      00180018 
 2666      00180018 
 2666      00
 2667 109a 180FD818 		.ascii	"\030\017\330\030808`\030`\030`\030`\030`\030`\030`\030"
 2667      38303860 
 2667      18601860 
 2667      18601860 
 2667      18601860 
 2668 10af 20383078 		.ascii	" 80x\030\310\007\000\000\000\000\000\000\000\000\000"
 2668      18C80700 
 2668      00000000 
 2668      00000000 
 2669 10bf 00       		.ascii	"\000"
 2670 10c0 00000000 		.ascii	"\000\000\000\000\000\000\000\000\000\000\000\000\000"
 2670      00000000 
 2670      00000000 
 2670      00
 2671 10cd 00000000 		.ascii	"\000\000\000\000\000\000\000\000\000\000\000\000\000"
 2671      00000000 
 2671      00000000 
 2671      00
 2672 10da C007700C 		.ascii	"\300\007p\014\030\030\030\030\014\030\014\000\014\000"
 2672      18181818 
 2672      0C180C00 
 2672      0C00
 2673 10e8 0C000C00 		.ascii	"\014\000\014\000\014 \030 \030\0200\010\300\007\000"
 2673      0C201820 
 2673      18103008 
 2673      C00700
 2674 10f7 00000000 		.ascii	"\000\000\000\000\000\000\000\000\000"
 2674      00000000 
 2674      00
 2675 1100 00000000 		.ascii	"\000\000\000\000\000\000\000\000\000\000\000\020\000"
 2675      00000000 
 2675      00000010 
ARM GAS  D:\noval\Temp\ccGOMXvb.s 			page 74


 2675      00
 2676 110d 1E001800 		.ascii	"\036\000\030\000\030\000\030\000\030\000\030\000\030"
 2676      18001800 
 2676      18001800 
 2676      18
 2677 111a E01B301C 		.ascii	"\340\0330\034\030\030\030\030\014\030\014\030\014\030"
 2677      18181818 
 2677      0C180C18 
 2677      0C18
 2678 1128 0C180C18 		.ascii	"\014\030\014\030\014\030\010\030\030\0340z\340\011\000"
 2678      0C180818 
 2678      181C307A 
 2678      E00900
 2679 1137 00000000 		.ascii	"\000\000\000\000\000\000\000\000\000"
 2679      00000000 
 2679      00
 2680 1140 00000000 		.ascii	"\000\000\000\000\000\000\000\000\000\000\000\000\000"
 2680      00000000 
 2680      00000000 
 2680      00
 2681 114d 00000000 		.ascii	"\000\000\000\000\000\000\000\000\000\000\000\000\000"
 2681      00000000 
 2681      00000000 
 2681      00
 2682 115a C007300C 		.ascii	"\300\0070\014\030\030\010\020\0140\0140\374?\014\000"
 2682      18180810 
 2682      0C300C30 
 2682      FC3F0C00 
 2683 116a 0C000C00 		.ascii	"\014\000\014\000\030 \030\020p\030\300\007\000\000\000"
 2683      18201810 
 2683      7018C007 
 2683      000000
 2684 1179 00000000 		.ascii	"\000\000\000\000\000\000\000"
 2684      000000
 2685 1180 00000000 		.ascii	"\000\000\000\000\000\000\000\000\000\000\000\000\000"
 2685      00000000 
 2685      00000000 
 2685      00
 2686 118d 3E80C380 		.ascii	">\200\303\200\300\300\300\300\000\300\000\300\000\374"
 2686      C0C0C0C0 
 2686      00C000C0 
 2686      00FC
 2687 119b 1FC000C0 		.ascii	"\037\300\000\300\000\300\000\300\000\300\000\300\000"
 2687      00C000C0 
 2687      00C000C0 
 2687      00
 2688 11a8 C000C000 		.ascii	"\300\000\300\000\300\000\300\000\300\000\300\000\370"
 2688      C000C000 
 2688      C000C000 
 2688      F8
 2689 11b5 0F000000 		.ascii	"\017\000\000\000\000\000\000\000\000\000\000"
 2689      00000000 
 2689      000000
 2690 11c0 00000000 		.ascii	"\000\000\000\000\000\000\000\000\000\000\000\000\000"
 2690      00000000 
 2690      00000000 
 2690      00
ARM GAS  D:\noval\Temp\ccGOMXvb.s 			page 75


 2691 11cd 00000000 		.ascii	"\000\000\000\000\000\000\000\000\000\000\000\000\000"
 2691      00000000 
 2691      00000000 
 2691      00
 2692 11da C077306C 		.ascii	"\300w0l\020\030\030\030\030\030\030\030\020\0300\014"
 2692      10181818 
 2692      18181818 
 2692      1018300C 
 2693 11ea F0071800 		.ascii	"\360\007\030\000\030\000\360\017\360?\010p\014`\014"
 2693      1800F00F 
 2693      F03F0870 
 2693      0C600C
 2694 11f9 600C6038 		.ascii	"`\014`88\340\017"
 2694      38E00F
 2695 1200 00000000 		.ascii	"\000\000\000\000\000\000\000\000\000\000\020\000\036"
 2695      00000000 
 2695      00001000 
 2695      1E
 2696 120d 00180018 		.ascii	"\000\030\000\030\000\030\000\030\000\030\000\030\000"
 2696      00180018 
 2696      00180018 
 2696      00
 2697 121a 980FD818 		.ascii	"\230\017\330\03080\0300\0300\0300\0300\0300\0300\030"
 2697      38301830 
 2697      18301830 
 2697      18301830 
 2697      183018
 2698 122d 30183018 		.ascii	"0\0300\0300\0300~\374\000\000\000\000\000\000\000\000"
 2698      3018307E 
 2698      FC000000 
 2698      00000000 
 2698      00
 2699 123e 0000     		.ascii	"\000\000"
 2700 1240 00000000 		.ascii	"\000\000\000\000\000\000\000\000\000\000\000\000\200"
 2700      00000000 
 2700      00000000 
 2700      80
 2701 124d 03800380 		.ascii	"\003\200\003\200\003\000\000\000\000\000\000\000\001"
 2701      03000000 
 2701      00000000 
 2701      01
 2702 125a F8018001 		.ascii	"\370\001\200\001\200\001\200\001\200\001\200\001\200"
 2702      80018001 
 2702      80018001 
 2702      80
 2703 1267 01800180 		.ascii	"\001\200\001\200\001\200\001\200\001\200\001\200\001"
 2703      01800180 
 2703      01800180 
 2703      01
 2704 1274 F81F0000 		.ascii	"\370\037\000\000\000\000\000\000\000\000\000\000"
 2704      00000000 
 2704      00000000 
 2705 1280 00000000 		.ascii	"\000\000\000\000\000\000\000\000\000\000\000\000\000"
 2705      00000000 
 2705      00000000 
 2705      00
 2706 128d 38003800 		.ascii	"8\0008\0008\000\000\000\000\000\000\000\020\200\037"
ARM GAS  D:\noval\Temp\ccGOMXvb.s 			page 76


 2706      38000000 
 2706      00000000 
 2706      10801F
 2707 129c 00180018 		.ascii	"\000\030\000\030\000\030\000\030\000\030\000\030\000"
 2707      00180018 
 2707      00180018 
 2707      00
 2708 12a9 18001800 		.ascii	"\030\000\030\000\030\000\030\000\030\000\030\000\030"
 2708      18001800 
 2708      18001800 
 2708      18
 2709 12b6 00180018 		.ascii	"\000\030\000\030\030\014\030\006\360\003"
 2709      180C1806 
 2709      F003
 2710 12c0 00000000 		.ascii	"\000\000\000\000\000\000\000\000\000\000\020\000\036"
 2710      00000000 
 2710      00001000 
 2710      1E
 2711 12cd 00180018 		.ascii	"\000\030\000\030\000\030\000\030\000\030\000\030\000"
 2711      00180018 
 2711      00180018 
 2711      00
 2712 12da 183E180C 		.ascii	"\030>\030\014\030\006\030\003\030\001\230\001\330\001"
 2712      18061803 
 2712      18019801 
 2712      D801
 2713 12e8 38031807 		.ascii	"8\003\030\007\030\006\030\014\030\034\030\030~|\000"
 2713      1806180C 
 2713      181C1818 
 2713      7E7C00
 2714 12f7 00000000 		.ascii	"\000\000\000\000\000\000\000\000\000"
 2714      00000000 
 2714      00
 2715 1300 00000000 		.ascii	"\000\000\000\000\000\000\000\000\000\000\000\001\370"
 2715      00000000 
 2715      00000001 
 2715      F8
 2716 130d 01800180 		.ascii	"\001\200\001\200\001\200\001\200\001\200\001\200\001"
 2716      01800180 
 2716      01800180 
 2716      01
 2717 131a 80018001 		.ascii	"\200\001\200\001\200\001\200\001\200\001\200\001\200"
 2717      80018001 
 2717      80018001 
 2717      80
 2718 1327 01800180 		.ascii	"\001\200\001\200\001\200\001\200\001\200\001\200\001"
 2718      01800180 
 2718      01800180 
 2718      01
 2719 1334 F81F0000 		.ascii	"\370\037\000\000\000\000\000\000\000\000\000\000"
 2719      00000000 
 2719      00000000 
 2720 1340 00000000 		.ascii	"\000\000\000\000\000\000\000\000\000\000\000\000\000"
 2720      00000000 
 2720      00000000 
 2720      00
 2721 134d 00000000 		.ascii	"\000\000\000\000\000\000\000\000\000\000\000\010\000"
ARM GAS  D:\noval\Temp\ccGOMXvb.s 			page 77


 2721      00000000 
 2721      00000008 
 2721      00
 2722 135a EE1C9C33 		.ascii	"\356\034\2343\2141\2141\2141\2141\2141\2141\2141\214"
 2722      8C318C31 
 2722      8C318C31 
 2722      8C318C31 
 2722      8C318C
 2723 136d 318C318C 		.ascii	"1\2141\2141\2141\336{\000\000\000\000\000\000\000\000"
 2723      318C31DE 
 2723      7B000000 
 2723      00000000 
 2723      00
 2724 137e 0000     		.ascii	"\000\000"
 2725 1380 00000000 		.ascii	"\000\000\000\000\000\000\000\000\000\000\000\000\000"
 2725      00000000 
 2725      00000000 
 2725      00
 2726 138d 00000000 		.ascii	"\000\000\000\000\000\000\000\000\000\000\000\020\000"
 2726      00000000 
 2726      00000010 
 2726      00
 2727 139a 1E0FD818 		.ascii	"\036\017\330\03080\0300\0300\0300\0300\0300\0300\030"
 2727      38301830 
 2727      18301830 
 2727      18301830 
 2727      183018
 2728 13ad 30183018 		.ascii	"0\0300\0300\0300~\374\000\000\000\000\000\000\000\000"
 2728      3018307E 
 2728      FC000000 
 2728      00000000 
 2728      00
 2729 13be 0000     		.ascii	"\000\000"
 2730 13c0 00000000 		.ascii	"\000\000\000\000\000\000\000\000\000\000\000\000\000"
 2730      00000000 
 2730      00000000 
 2730      00
 2731 13cd 00000000 		.ascii	"\000\000\000\000\000\000\000\000\000\000\000\000\000"
 2731      00000000 
 2731      00000000 
 2731      00
 2732 13da C007701C 		.ascii	"\300\007p\034\0200\0300\014`\014`\014`\014`\014`\014"
 2732      10301830 
 2732      0C600C60 
 2732      0C600C60 
 2732      0C600C
 2733 13ed 60183018 		.ascii	"`\0300\03000\030\300\007\000\000\000\000\000\000\000"
 2733      303018C0 
 2733      07000000 
 2733      00000000 
 2734 13fd 000000   		.ascii	"\000\000\000"
 2735 1400 00000000 		.ascii	"\000\000\000\000\000\000\000\000\000\000\000\000\000"
 2735      00000000 
 2735      00000000 
 2735      00
 2736 140d 00000000 		.ascii	"\000\000\000\000\000\000\000\000\000\000\000\020\000"
 2736      00000000 
ARM GAS  D:\noval\Temp\ccGOMXvb.s 			page 78


 2736      00000010 
 2736      00
 2737 141a 9E0F5818 		.ascii	"\236\017X\03080\030 \030`\030`\030`\030`\030`\030`\030"
 2737      38301820 
 2737      18601860 
 2737      18601860 
 2737      18601860 
 2738 142f 30383078 		.ascii	"080x\030\230\007\030\000\030\000\030\000\030\000~\000"
 2738      18980718 
 2738      00180018 
 2738      0018007E 
 2738      00
 2739 1440 00000000 		.ascii	"\000\000\000\000\000\000\000\000\000\000\000\000\000"
 2739      00000000 
 2739      00000000 
 2739      00
 2740 144d 00000000 		.ascii	"\000\000\000\000\000\000\000\000\000\000\000\000\000"
 2740      00000000 
 2740      00000000 
 2740      00
 2741 145a C023303C 		.ascii	"\300#0<\0308\0300\0140\0140\0140\0140\0140\0140\010"
 2741      18381830 
 2741      0C300C30 
 2741      0C300C30 
 2741      0C300C30 
 2742 146f 30183830 		.ascii	"0\03080<\3403\0000\0000\0000\0000\000\374"
 2742      3CE03300 
 2742      30003000 
 2742      30003000 
 2742      FC
 2743 1480 00000000 		.ascii	"\000\000\000\000\000\000\000\000\000\000\000\000\000"
 2743      00000000 
 2743      00000000 
 2743      00
 2744 148d 00000000 		.ascii	"\000\000\000\000\000\000\000\000\000\000\000`\000~<"
 2744      00000000 
 2744      00000060 
 2744      007E3C
 2745 149c 60666061 		.ascii	"`f`a\340\000\340\000`\000`\000`\000`\000`\000`\000`"
 2745      E000E000 
 2745      60006000 
 2745      60006000 
 2745      60006000 
 2746 14b1 006000FE 		.ascii	"\000`\000\376\007\000\000\000\000\000\000\000\000\000"
 2746      07000000 
 2746      00000000 
 2746      0000
 2747 14bf 00       		.ascii	"\000"
 2748 14c0 00000000 		.ascii	"\000\000\000\000\000\000\000\000\000\000\000\000\000"
 2748      00000000 
 2748      00000000 
 2748      00
 2749 14cd 00000000 		.ascii	"\000\000\000\000\000\000\000\000\000\000\000\000\000"
 2749      00000000 
 2749      00000000 
 2749      00
 2750 14da E0273038 		.ascii	"\340'08\0300\030 \030\000p\000\340\003\200\017\000\034"
ARM GAS  D:\noval\Temp\ccGOMXvb.s 			page 79


 2750      18301820 
 2750      18007000 
 2750      E003800F 
 2750      001C
 2751 14ec 04300430 		.ascii	"\0040\0040\0140\034\030\354\017\000\000\000\000\000"
 2751      0C301C18 
 2751      EC0F0000 
 2751      000000
 2752 14fb 00000000 		.ascii	"\000\000\000\000\000"
 2752      00
 2753 1500 00000000 		.ascii	"\000\000\000\000\000\000\000\000\000\000\000\000\000"
 2753      00000000 
 2753      00000000 
 2753      00
 2754 150d 00000080 		.ascii	"\000\000\000\200\000\200\000\200\000\300\000\340\000"
 2754      00800080 
 2754      00C000E0 
 2754      00
 2755 151a FC1FC000 		.ascii	"\374\037\300\000\300\000\300\000\300\000\300\000\300"
 2755      C000C000 
 2755      C000C000 
 2755      C0
 2756 1527 00C000C0 		.ascii	"\000\300\000\300\000\300\000\300 \300 \200\021\000\017"
 2756      00C000C0 
 2756      20C02080 
 2756      11000F
 2757 1536 00000000 		.ascii	"\000\000\000\000\000\000\000\000\000\000"
 2757      00000000 
 2757      0000
 2758 1540 00000000 		.ascii	"\000\000\000\000\000\000\000\000\000\000\000\000\000"
 2758      00000000 
 2758      00000000 
 2758      00
 2759 154d 00000000 		.ascii	"\000\000\000\000\000\000\000\000\000\000\000\020 \036"
 2759      00000000 
 2759      00000010 
 2759      201E
 2760 155b 3C183018 		.ascii	"<\0300\0300\0300\0300\0300\0300\0300\0300\0300\0300"
 2760      30183018 
 2760      30183018 
 2760      30183018 
 2760      30183018 
 2761 1570 183830F4 		.ascii	"\03080\364\340\023\000\000\000\000\000\000\000\000\000"
 2761      E0130000 
 2761      00000000 
 2761      000000
 2762 157f 00       		.ascii	"\000"
 2763 1580 00000000 		.ascii	"\000\000\000\000\000\000\000\000\000\000\000\000\000"
 2763      00000000 
 2763      00000000 
 2763      00
 2764 158d 00000000 		.ascii	"\000\000\000\000\000\000\000\000\000\000\000\000\000"
 2764      00000000 
 2764      00000000 
 2764      00
 2765 159a 7E3C1818 		.ascii	"~<\030\030\030\0108\0100\0040\004p\002`\002`\002\340"
 2765      18083808 
ARM GAS  D:\noval\Temp\ccGOMXvb.s 			page 80


 2765      30043004 
 2765      70026002 
 2765      6002E0
 2766 15ad 01C001C0 		.ascii	"\001\300\001\300\001\300\000\200\000\000\000\000\000"
 2766      01C00080 
 2766      00000000 
 2766      00
 2767 15ba 00000000 		.ascii	"\000\000\000\000\000\000"
 2767      0000
 2768 15c0 00000000 		.ascii	"\000\000\000\000\000\000\000\000\000\000\000\000\000"
 2768      00000000 
 2768      00000000 
 2768      00
 2769 15cd 00000000 		.ascii	"\000\000\000\000\000\000\000\000\000\000\000\000\000"
 2769      00000000 
 2769      00000000 
 2769      00
 2770 15da DFF78E63 		.ascii	"\337\367\216c\014#\214#\214#\230\023\230\023X\026X\026"
 2770      0C238C23 
 2770      8C239813 
 2770      98135816 
 2770      5816
 2771 15ec 700E700E 		.ascii	"p\016p\016p\016 \004 \004\000\000\000\000\000\000\000"
 2771      700E2004 
 2771      20040000 
 2771      00000000 
 2771      00
 2772 15fd 000000   		.ascii	"\000\000\000"
 2773 1600 00000000 		.ascii	"\000\000\000\000\000\000\000\000\000\000\000\000\000"
 2773      00000000 
 2773      00000000 
 2773      00
 2774 160d 00000000 		.ascii	"\000\000\000\000\000\000\000\000\000\000\000\000\000"
 2774      00000000 
 2774      00000000 
 2774      00
 2775 161a FC3E7008 		.ascii	"\374>p\010p\004\340\004\300\002\300\001\200\003\200"
 2775      7004E004 
 2775      C002C001 
 2775      800380
 2776 1629 03400760 		.ascii	"\003@\007`\006 \014\020\014\030\030>~\000\000\000\000"
 2776      06200C10 
 2776      0C18183E 
 2776      7E000000 
 2776      00
 2777 163a 00000000 		.ascii	"\000\000\000\000\000\000"
 2777      0000
 2778 1640 00000000 		.ascii	"\000\000\000\000\000\000\000\000\000\000\000\000\000"
 2778      00000000 
 2778      00000000 
 2778      00
 2779 164d 00000000 		.ascii	"\000\000\000\000\000\000\000\000\000\000\000\000\000"
 2779      00000000 
 2779      00000000 
 2779      00
 2780 165a 7E7C1818 		.ascii	"~|\030\030\030\0100\0100\0100\004`\004`\004\300\002"
 2780      18083008 
ARM GAS  D:\noval\Temp\ccGOMXvb.s 			page 81


 2780      30083004 
 2780      60046004 
 2780      C002
 2781 166c C002C002 		.ascii	"\300\002\300\002\200\001\200\001\200\001\200\000\200"
 2781      80018001 
 2781      80018000 
 2781      80
 2782 1679 0080004C 		.ascii	"\000\200\000L\000<\000"
 2782      003C00
 2783 1680 00000000 		.ascii	"\000\000\000\000\000\000\000\000\000\000\000\000\000"
 2783      00000000 
 2783      00000000 
 2783      00
 2784 168d 00000000 		.ascii	"\000\000\000\000\000\000\000\000\000\000\000\000\000"
 2784      00000000 
 2784      00000000 
 2784      00
 2785 169a FC1F0C0C 		.ascii	"\374\037\014\014\004\016\004\006\000\003\200\003\200"
 2785      040E0406 
 2785      00038003 
 2785      80
 2786 16a7 01C000E0 		.ascii	"\001\300\000\340\000p 0 80\034\030\374\037\000\000\000"
 2786      00702030 
 2786      2038301C 
 2786      18FC1F00 
 2786      0000
 2787 16b9 00000000 		.ascii	"\000\000\000\000\000\000\000"
 2787      000000
 2788 16c0 00000000 		.ascii	"\000\000\000\000\000\000\0000\000\010\000\004\000\004"
 2788      00000030 
 2788      00080004 
 2788      0004
 2789 16ce 00040004 		.ascii	"\000\004\000\004\000\004\000\004\000\004\000\004\000"
 2789      00040004 
 2789      00040004 
 2789      00
 2790 16db 04000400 		.ascii	"\004\000\004\000\002\200\001\000\002\000\004\000\004"
 2790      02800100 
 2790      02000400 
 2790      04
 2791 16e8 00040004 		.ascii	"\000\004\000\004\000\004\000\004\000\004\000\004\000"
 2791      00040004 
 2791      00040004 
 2791      00
 2792 16f5 04000400 		.ascii	"\004\000\004\000\004\000\010\0000\000\000"
 2792      04000800 
 2792      300000
 2793 1700 00010001 		.ascii	"\000\001\000\001\000\001\000\001\000\001\000\001\000"
 2793      00010001 
 2793      00010001 
 2793      00
 2794 170d 01000100 		.ascii	"\001\000\001\000\001\000\001\000\001\000\001\000\001"
 2794      01000100 
 2794      01000100 
 2794      01
 2795 171a 00010001 		.ascii	"\000\001\000\001\000\001\000\001\000\001\000\001\000"
 2795      00010001 
ARM GAS  D:\noval\Temp\ccGOMXvb.s 			page 82


 2795      00010001 
 2795      00
 2796 1727 01000100 		.ascii	"\001\000\001\000\001\000\001\000\001\000\001\000\001"
 2796      01000100 
 2796      01000100 
 2796      01
 2797 1734 00010001 		.ascii	"\000\001\000\001\000\001\000\001\000\001\000\001"
 2797      00010001 
 2797      00010001 
 2798 1740 00000000 		.ascii	"\000\000\000\000\000\000\014\000\020\000 \000 \000 "
 2798      00000C00 
 2798      10002000 
 2798      200020
 2799 174f 00200020 		.ascii	"\000 \000 \000 \000 \000 \000 \000 \000@\000\200\001"
 2799      00200020 
 2799      00200020 
 2799      00200040 
 2799      008001
 2800 1762 40002000 		.ascii	"@\000 \000 \000 \000 \000 \000 \000 \000 \000 \000 "
 2800      20002000 
 2800      20002000 
 2800      20002000 
 2800      20002000 
 2801 1777 00200010 		.ascii	"\000 \000\020\000\014\000\000\000"
 2801      000C0000 
 2801      00
 2802 1780 00003800 		.ascii	"\000\0008\000\304\000\206@\002a\000\"\000\034\000\000"
 2802      C4008640 
 2802      02610022 
 2802      001C0000 
 2803 1790 00000000 		.ascii	"\000\000\000\000\000\000\000\000\000\000\000\000\000"
 2803      00000000 
 2803      00000000 
 2803      00
 2804 179d 00000000 		.ascii	"\000\000\000\000\000\000\000\000\000\000\000\000\000"
 2804      00000000 
 2804      00000000 
 2804      00
 2805 17aa 00000000 		.ascii	"\000\000\000\000\000\000\000\000\000\000\000\000\000"
 2805      00000000 
 2805      00000000 
 2805      00
 2806 17b7 00000000 		.ascii	"\000\000\000\000\000\000\000\000\000"
 2806      00000000 
 2806      00
 2807              		.global	ascii_2412
 2808              		.section	.rodata.ascii_2412,"a"
 2809              		.align	2
 2812              	ascii_2412:
 2813 0000 00000000 		.ascii	"\000\000\000\000\000\000\000\000\000\000\000\000\000"
 2813      00000000 
 2813      00000000 
 2813      00
 2814 000d 00000000 		.ascii	"\000\000\000\000\000\000\000\000\000\000\000\000\000"
 2814      00000000 
 2814      00000000 
 2814      00
ARM GAS  D:\noval\Temp\ccGOMXvb.s 			page 83


 2815 001a 00000000 		.ascii	"\000\000\000\000\000\000\000\000\000\000\000\000\000"
 2815      00000000 
 2815      00000000 
 2815      00
 2816 0027 00000000 		.ascii	"\000\000\000\000\000\000\000\000\000"
 2816      00000000 
 2816      00
 2817 0030 00000000 		.ascii	"\000\000\000\000\000\000\000\000`\000`\000`\000`\000"
 2817      00000000 
 2817      60006000 
 2817      60006000 
 2818 0040 60006000 		.ascii	"`\000`\000`\000@\000 \000 \000 \000\000\000\000\000"
 2818      60004000 
 2818      20002000 
 2818      20000000 
 2818      0000
 2819 0052 00006000 		.ascii	"\000\000`\000`\000`\000\000\000\000\000\000\000"
 2819      60006000 
 2819      00000000 
 2819      0000
 2820 0060 00000000 		.ascii	"\000\000\000\000`\006`\0060\003\230\001\210\000D\000"
 2820      60066006 
 2820      30039801 
 2820      88004400 
 2821 0070 00000000 		.ascii	"\000\000\000\000\000\000\000\000\000\000\000\000\000"
 2821      00000000 
 2821      00000000 
 2821      00
 2822 007d 00000000 		.ascii	"\000\000\000\000\000\000\000\000\000\000\000\000\000"
 2822      00000000 
 2822      00000000 
 2822      00
 2823 008a 00000000 		.ascii	"\000\000\000\000\000\000"
 2823      0000
 2824 0090 00000000 		.ascii	"\000\000\000\000\000\000\000\000\020\002\020\002\020"
 2824      00000000 
 2824      10021002 
 2824      10
 2825 009d 021002FE 		.ascii	"\002\020\002\376\007\376\007\010\002\010\001\010\001"
 2825      07FE0708 
 2825      02080108 
 2825      01
 2826 00aa 08010801 		.ascii	"\010\001\010\001\376\007\376\007\004\001\004\001\004"
 2826      FE07FE07 
 2826      04010401 
 2826      04
 2827 00b7 01040100 		.ascii	"\001\004\001\000\000\000\000\000\000"
 2827      00000000 
 2827      00
 2828 00c0 00000000 		.ascii	"\000\000\000\000\000\000@\000@\000\360\001X\003L\003"
 2828      00004000 
 2828      4000F001 
 2828      58034C03 
 2829 00d0 CC034C00 		.ascii	"\314\003L\000X\000p\000\340\000\300\001\300\001@\003"
 2829      58007000 
 2829      E000C001 
 2829      C0014003 
ARM GAS  D:\noval\Temp\ccGOMXvb.s 			page 84


 2830 00e0 4C035C03 		.ascii	"L\003\\\003L\003H\001\360\000@\000@\000\000\000"
 2830      4C034801 
 2830      F0004000 
 2830      40000000 
 2831 00f0 00000000 		.ascii	"\000\000\000\000\000\000\000\000\016\001\012\001\221"
 2831      00000000 
 2831      0E010A01 
 2831      91
 2832 00fd 00910091 		.ascii	"\000\221\000\221\000Q\000Q\000:\000\256\003\240\002"
 2832      00510051 
 2832      003A00AE 
 2832      03A002
 2833 010c 50045004 		.ascii	"P\004P\004H\004H\004H\004\204\002\204\003\000\000\000"
 2833      48044804 
 2833      48048402 
 2833      84030000 
 2833      00
 2834 011d 000000   		.ascii	"\000\000\000"
 2835 0120 00000000 		.ascii	"\000\000\000\000\000\000\000\0008\000l\000l\000l\000"
 2835      00000000 
 2835      38006C00 
 2835      6C006C00 
 2836 0130 6C006C00 		.ascii	"l\000l\000,\000\230\007\034\001\032\0013\0013\001c\001"
 2836      2C009807 
 2836      1C011A01 
 2836      33013301 
 2836      6301
 2837 0142 E300C308 		.ascii	"\343\000\303\010\306\011<\007\000\000\000\000\000\000"
 2837      C6093C07 
 2837      00000000 
 2837      0000
 2838 0150 00000000 		.ascii	"\000\000\000\000\014\000\034\000\020\000\020\000\010"
 2838      0C001C00 
 2838      10001000 
 2838      08
 2839 015d 00040000 		.ascii	"\000\004\000\000\000\000\000\000\000\000\000\000\000"
 2839      00000000 
 2839      00000000 
 2839      00
 2840 016a 00000000 		.ascii	"\000\000\000\000\000\000\000\000\000\000\000\000\000"
 2840      00000000 
 2840      00000000 
 2840      00
 2841 0177 00000000 		.ascii	"\000\000\000\000\000\000\000\000\000"
 2841      00000000 
 2841      00
 2842 0180 00000000 		.ascii	"\000\000\000\000\000\004\000\002\000\001\200\000\200"
 2842      00040002 
 2842      00018000 
 2842      80
 2843 018d 00400040 		.ascii	"\000@\000@\000 \000 \000 \000 \000 \000 \000 \000@\000"
 2843      00200020 
 2843      00200020 
 2843      00200020 
 2843      00200040 
 2844 01a2 40008000 		.ascii	"@\000\200\000\200\000\000\001\000\002\000\004\000\000"
 2844      80000001 
ARM GAS  D:\noval\Temp\ccGOMXvb.s 			page 85


 2844      00020004 
 2844      0000
 2845 01b0 00000000 		.ascii	"\000\000\000\000\002\000\004\000\010\000\020\000\020"
 2845      02000400 
 2845      08001000 
 2845      10
 2846 01bd 00200020 		.ascii	"\000 \000 \000@\000@\000@\000@\000@\000@\000@\000 \000"
 2846      00400040 
 2846      00400040 
 2846      00400040 
 2846      00400020 
 2847 01d2 20001000 		.ascii	" \000\020\000\020\000\010\000\004\000\002\000\000\000"
 2847      10000800 
 2847      04000200 
 2847      0000
 2848 01e0 00000000 		.ascii	"\000\000\000\000\000\000\000\000\000\000\000\000@\000"
 2848      00000000 
 2848      00000000 
 2848      4000
 2849 01ee C0004000 		.ascii	"\300\000@\000F\014N\017\320\001\360\001^\017F\014@\000"
 2849      460C4E0F 
 2849      D001F001 
 2849      5E0F460C 
 2849      4000
 2850 0200 40004000 		.ascii	"@\000@\000\000\000\000\000\000\000\000\000\000\000\000"
 2850      00000000 
 2850      00000000 
 2850      000000
 2851 020f 00       		.ascii	"\000"
 2852 0210 00000000 		.ascii	"\000\000\000\000\000\000\000\000\000\000\000\000\000"
 2852      00000000 
 2852      00000000 
 2852      00
 2853 021d 00400040 		.ascii	"\000@\000@\000@\000@\000@\000\376\017@\000@\000@\000"
 2853      00400040 
 2853      004000FE 
 2853      0F400040 
 2853      004000
 2854 0230 40004000 		.ascii	"@\000@\000\000\000\000\000\000\000\000\000\000\000\000"
 2854      00000000 
 2854      00000000 
 2854      000000
 2855 023f 00       		.ascii	"\000"
 2856 0240 00000000 		.ascii	"\000\000\000\000\000\000\000\000\000\000\000\000\000"
 2856      00000000 
 2856      00000000 
 2856      00
 2857 024d 00000000 		.ascii	"\000\000\000\000\000\000\000\000\000\000\000\000\000"
 2857      00000000 
 2857      00000000 
 2857      00
 2858 025a 00000000 		.ascii	"\000\000\000\000\000\000\000\000\000\000\014\000\034"
 2858      00000000 
 2858      00000C00 
 2858      1C
 2859 0267 00100010 		.ascii	"\000\020\000\020\000\010\000\004\000"
 2859      00080004 
ARM GAS  D:\noval\Temp\ccGOMXvb.s 			page 86


 2859      00
 2860 0270 00000000 		.ascii	"\000\000\000\000\000\000\000\000\000\000\000\000\000"
 2860      00000000 
 2860      00000000 
 2860      00
 2861 027d 00000000 		.ascii	"\000\000\000\000\000\000\000\000\000\000\000\376\007"
 2861      00000000 
 2861      000000FE 
 2861      07
 2862 028a 00000000 		.ascii	"\000\000\000\000\000\000\000\000\000\000\000\000\000"
 2862      00000000 
 2862      00000000 
 2862      00
 2863 0297 00000000 		.ascii	"\000\000\000\000\000\000\000\000\000"
 2863      00000000 
 2863      00
 2864 02a0 00000000 		.ascii	"\000\000\000\000\000\000\000\000\000\000\000\000\000"
 2864      00000000 
 2864      00000000 
 2864      00
 2865 02ad 00000000 		.ascii	"\000\000\000\000\000\000\000\000\000\000\000\000\000"
 2865      00000000 
 2865      00000000 
 2865      00
 2866 02ba 00000000 		.ascii	"\000\000\000\000\000\000\000\000\000\000\034\000\034"
 2866      00000000 
 2866      00001C00 
 2866      1C
 2867 02c7 001C0000 		.ascii	"\000\034\000\000\000\000\000\000\000"
 2867      00000000 
 2867      00
 2868 02d0 00000000 		.ascii	"\000\000\000\000\000\004\000\006\000\002\000\003\000"
 2868      00040006 
 2868      00020003 
 2868      00
 2869 02dd 01000180 		.ascii	"\001\000\001\200\000\200\000@\000@\000`\000 \000 \000"
 2869      00800040 
 2869      00400060 
 2869      00200020 
 2869      00
 2870 02ee 10001000 		.ascii	"\020\000\020\000\010\000\010\000\014\000\004\000\006"
 2870      08000800 
 2870      0C000400 
 2870      06
 2871 02fb 00020000 		.ascii	"\000\002\000\000\000"
 2871      00
 2872 0300 00000000 		.ascii	"\000\000\000\000\000\000\000\000\000\000\360\000\230"
 2872      00000000 
 2872      0000F000 
 2872      98
 2873 030d 010C030C 		.ascii	"\001\014\003\014\003\006\006\006\006\006\006\006\006"
 2873      03060606 
 2873      06060606 
 2873      06
 2874 031a 06060606 		.ascii	"\006\006\006\006\006\006\006\006\014\003\014\003\230"
 2874      06060606 
 2874      0C030C03 
ARM GAS  D:\noval\Temp\ccGOMXvb.s 			page 87


 2874      98
 2875 0327 01F00000 		.ascii	"\001\360\000\000\000\000\000\000\000"
 2875      00000000 
 2875      00
 2876 0330 00000000 		.ascii	"\000\000\000\000\000\000\000\000\000\000@\000|\000`"
 2876      00000000 
 2876      00004000 
 2876      7C0060
 2877 033f 00600060 		.ascii	"\000`\000`\000`\000`\000`\000`\000`\000`\000`\000`\000"
 2877      00600060 
 2877      00600060 
 2877      00600060 
 2877      00600060 
 2878 0354 60006000 		.ascii	"`\000`\000\374\003\000\000\000\000\000\000"
 2878      FC030000 
 2878      00000000 
 2879 0360 00000000 		.ascii	"\000\000\000\000\000\000\000\000\000\000\370\000\204"
 2879      00000000 
 2879      0000F800 
 2879      84
 2880 036d 01020306 		.ascii	"\001\002\003\006\003\006\003\000\003\000\001\200\001"
 2880      03060300 
 2880      03000180 
 2880      01
 2881 037a C0006000 		.ascii	"\300\000`\000 \000\020\000\010\002\004\002\006\002\376"
 2881      20001000 
 2881      08020402 
 2881      0602FE
 2882 0389 03000000 		.ascii	"\003\000\000\000\000\000\000"
 2882      000000
 2883 0390 00000000 		.ascii	"\000\000\000\000\000\000\000\000\000\000x\000\306\000"
 2883      00000000 
 2883      00007800 
 2883      C600
 2884 039e 86018601 		.ascii	"\206\001\206\001\200\001\200\001\300\000p\000\200\001"
 2884      80018001 
 2884      C0007000 
 2884      8001
 2885 03ac 00010003 		.ascii	"\000\001\000\003\000\003\006\003\006\003\206\001\370"
 2885      00030603 
 2885      06038601 
 2885      F8
 2886 03b9 00000000 		.ascii	"\000\000\000\000\000\000\000"
 2886      000000
 2887 03c0 00000000 		.ascii	"\000\000\000\000\000\000\000\000\000\000\200\001\200"
 2887      00000000 
 2887      00008001 
 2887      80
 2888 03cd 01C001A0 		.ascii	"\001\300\001\240\001\240\001\220\001\210\001\210\001"
 2888      01A00190 
 2888      01880188 
 2888      01
 2889 03da 84018201 		.ascii	"\204\001\202\001\376\017\200\001\200\001\200\001\200"
 2889      FE0F8001 
 2889      80018001 
 2889      80
 2890 03e7 01E00700 		.ascii	"\001\340\007\000\000\000\000\000\000"
ARM GAS  D:\noval\Temp\ccGOMXvb.s 			page 88


 2890      00000000 
 2890      00
 2891 03f0 00000000 		.ascii	"\000\000\000\000\000\000\000\000\000\000\374\003\004"
 2891      00000000 
 2891      0000FC03 
 2891      04
 2892 03fd 00040004 		.ascii	"\000\004\000\004\000\004\000\004\000\364\000\214\001"
 2892      00040004 
 2892      00F4008C 
 2892      01
 2893 040a 04030003 		.ascii	"\004\003\000\003\000\003\006\003\006\003\202\001\204"
 2893      00030603 
 2893      06038201 
 2893      84
 2894 0417 01F80000 		.ascii	"\001\370\000\000\000\000\000\000\000"
 2894      00000000 
 2894      00
 2895 0420 00000000 		.ascii	"\000\000\000\000\000\000\000\000\000\000\340\001\030"
 2895      00000000 
 2895      0000E001 
 2895      18
 2896 042d 030C030C 		.ascii	"\003\014\003\014\000\004\000\006\000\346\001\026\003"
 2896      00040006 
 2896      00E60116 
 2896      03
 2897 043a 0E060606 		.ascii	"\016\006\006\006\006\006\006\006\004\006\014\002\030"
 2897      06060606 
 2897      04060C02 
 2897      18
 2898 0447 03F00000 		.ascii	"\003\360\000\000\000\000\000\000\000"
 2898      00000000 
 2898      00
 2899 0450 00000000 		.ascii	"\000\000\000\000\000\000\000\000\000\000\370\007\014"
 2899      00000000 
 2899      0000F807 
 2899      0C
 2900 045d 06040204 		.ascii	"\006\004\002\004\001\000\001\000\001\200\000\200\000"
 2900      01000100 
 2900      01800080 
 2900      00
 2901 046a 40004000 		.ascii	"@\000@\000@\000`\000`\000`\000`\000`\000\000\000\000"
 2901      40006000 
 2901      60006000 
 2901      60006000 
 2901      000000
 2902 047d 000000   		.ascii	"\000\000\000"
 2903 0480 00000000 		.ascii	"\000\000\000\000\000\000\000\000\000\000\370\001\014"
 2903      00000000 
 2903      0000F801 
 2903      0C
 2904 048d 03060606 		.ascii	"\003\006\006\006\006\006\006\014\002\034\003\360\000"
 2904      0606060C 
 2904      021C03F0 
 2904      00
 2905 049a C8010C03 		.ascii	"\310\001\014\003\006\006\006\006\006\006\006\006\014"
 2905      06060606 
 2905      06060606 
ARM GAS  D:\noval\Temp\ccGOMXvb.s 			page 89


 2905      0C
 2906 04a7 03F00100 		.ascii	"\003\360\001\000\000\000\000\000\000"
 2906      00000000 
 2906      00
 2907 04b0 00000000 		.ascii	"\000\000\000\000\000\000\000\000\000\000\360\000\014"
 2907      00000000 
 2907      0000F000 
 2907      0C
 2908 04bd 010C0306 		.ascii	"\001\014\003\006\002\006\006\006\006\006\006\006\007"
 2908      02060606 
 2908      06060606 
 2908      07
 2909 04ca 8C067806 		.ascii	"\214\006x\006\000\006\000\003\000\003\014\001\214\001"
 2909      00060003 
 2909      00030C01 
 2909      8C01
 2910 04d8 78000000 		.ascii	"x\000\000\000\000\000\000\000"
 2910      00000000 
 2911 04e0 00000000 		.ascii	"\000\000\000\000\000\000\000\000\000\000\000\000\000"
 2911      00000000 
 2911      00000000 
 2911      00
 2912 04ed 00000000 		.ascii	"\000\000\000\000\000\000\000\340\000\340\000\340\000"
 2912      000000E0 
 2912      00E000E0 
 2912      00
 2913 04fa 00000000 		.ascii	"\000\000\000\000\000\000\000\000\000\000\340\000\340"
 2913      00000000 
 2913      0000E000 
 2913      E0
 2914 0507 00E00000 		.ascii	"\000\340\000\000\000\000\000\000\000"
 2914      00000000 
 2914      00
 2915 0510 00000000 		.ascii	"\000\000\000\000\000\000\000\000\000\000\000\000\000"
 2915      00000000 
 2915      00000000 
 2915      00
 2916 051d 00000000 		.ascii	"\000\000\000\000\000\000\000`\000`\000\000\000\000\000"
 2916      00000060 
 2916      00600000 
 2916      000000
 2917 052c 00000000 		.ascii	"\000\000\000\000\000\000\000\000\000\000`\000`\000@"
 2917      00000000 
 2917      00006000 
 2917      600040
 2918 053b 00200020 		.ascii	"\000 \000 \000"
 2918      00
 2919 0540 00000000 		.ascii	"\000\000\000\000\000\000\000\000\000\004\000\002\000"
 2919      00000000 
 2919      00040002 
 2919      00
 2920 054d 01800040 		.ascii	"\001\200\000@\000 \000\020\000\010\000\004\000\010\000"
 2920      00200010 
 2920      00080004 
 2920      000800
 2921 055c 10002000 		.ascii	"\020\000 \000@\000\200\000\000\001\000\002\000\004\000"
 2921      40008000 
ARM GAS  D:\noval\Temp\ccGOMXvb.s 			page 90


 2921      00010002 
 2921      000400
 2922 056b 00000000 		.ascii	"\000\000\000\000\000"
 2922      00
 2923 0570 00000000 		.ascii	"\000\000\000\000\000\000\000\000\000\000\000\000\000"
 2923      00000000 
 2923      00000000 
 2923      00
 2924 057d 00000000 		.ascii	"\000\000\000\000\000\000\000\376\007\000\000\000\000"
 2924      000000FE 
 2924      07000000 
 2924      00
 2925 058a 0000FE07 		.ascii	"\000\000\376\007\000\000\000\000\000\000\000\000\000"
 2925      00000000 
 2925      00000000 
 2925      00
 2926 0597 00000000 		.ascii	"\000\000\000\000\000\000\000\000\000"
 2926      00000000 
 2926      00
 2927 05a0 00000000 		.ascii	"\000\000\000\000\000\000\000\000\004\000\010\000\020"
 2927      00000000 
 2927      04000800 
 2927      10
 2928 05ad 00200040 		.ascii	"\000 \000@\000\200\000\000\001\000\002\000\004\000\002"
 2928      00800000 
 2928      01000200 
 2928      040002
 2929 05bc 00018000 		.ascii	"\000\001\200\000@\000 \000\020\000\010\000\004\000\000"
 2929      40002000 
 2929      10000800 
 2929      040000
 2930 05cb 00000000 		.ascii	"\000\000\000\000\000"
 2930      00
 2931 05d0 00000000 		.ascii	"\000\000\000\000\000\000\000\000\000\000\340\003\030"
 2931      00000000 
 2931      0000E003 
 2931      18
 2932 05dd 06040C04 		.ascii	"\006\004\014\004\014\014\014\014\014\000\007\200\001"
 2932      0C0C0C0C 
 2932      0C000780 
 2932      01
 2933 05ea 40004000 		.ascii	"@\000@\000@\000\000\000\000\000\340\000\340\000\340"
 2933      40000000 
 2933      0000E000 
 2933      E000E0
 2934 05f9 00000000 		.ascii	"\000\000\000\000\000\000\000"
 2934      000000
 2935 0600 00000000 		.ascii	"\000\000\000\000\000\000\000\000\340\000\030\003\014"
 2935      00000000 
 2935      E0001803 
 2935      0C
 2936 060d 02CC0564 		.ascii	"\002\314\005d\005f\005\246\005\266\004\266\004\266\004"
 2936      056605A6 
 2936      05B604B6 
 2936      04B604
 2937 061c B604B602 		.ascii	"\266\004\266\002\344\001\014\004\014\002\030\003\360"
 2937      E4010C04 
ARM GAS  D:\noval\Temp\ccGOMXvb.s 			page 91


 2937      0C021803 
 2937      F0
 2938 0629 00000000 		.ascii	"\000\000\000\000\000\000\000"
 2938      000000
 2939 0630 00000000 		.ascii	"\000\000\000\000\000\000\000\000\000\000`\000`\000P"
 2939      00000000 
 2939      00006000 
 2939      600050
 2940 063f 00D00090 		.ascii	"\000\320\000\220\000\220\000\210\000\210\001\010\001"
 2940      00900088 
 2940      00880108 
 2940      01
 2941 064c F8010403 		.ascii	"\370\001\004\003\004\003\004\002\002\002\002\006\017"
 2941      04030402 
 2941      02020206 
 2941      0F
 2942 0659 0F000000 		.ascii	"\017\000\000\000\000\000\000"
 2942      000000
 2943 0660 00000000 		.ascii	"\000\000\000\000\000\000\000\000\000\000\376\000\214"
 2943      00000000 
 2943      0000FE00 
 2943      8C
 2944 066d 030C030C 		.ascii	"\003\014\003\014\003\014\003\014\003\214\001\374\000"
 2944      030C030C 
 2944      038C01FC 
 2944      00
 2945 067a 0C030C02 		.ascii	"\014\003\014\002\014\006\014\006\014\006\014\006\014"
 2945      0C060C06 
 2945      0C060C06 
 2945      0C
 2946 0687 03FE0100 		.ascii	"\003\376\001\000\000\000\000\000\000"
 2946      00000000 
 2946      00
 2947 0690 00000000 		.ascii	"\000\000\000\000\000\000\000\000\000\000\340\003\030"
 2947      00000000 
 2947      0000E003 
 2947      18
 2948 069d 030C060C 		.ascii	"\003\014\006\014\004\004\004\006\000\006\000\006\000"
 2948      04040406 
 2948      00060006 
 2948      00
 2949 06aa 06000600 		.ascii	"\006\000\006\000\006\000\006\004\014\004\014\002\030"
 2949      06000604 
 2949      0C040C02 
 2949      18
 2950 06b7 03F00000 		.ascii	"\003\360\000\000\000\000\000\000\000"
 2950      00000000 
 2950      00
 2951 06c0 00000000 		.ascii	"\000\000\000\000\000\000\000\000\000\000\177\000\214"
 2951      00000000 
 2951      00007F00 
 2951      8C
 2952 06cd 010C030C 		.ascii	"\001\014\003\014\003\014\006\014\006\014\006\014\006"
 2952      030C060C 
 2952      060C060C 
 2952      06
 2953 06da 0C060C06 		.ascii	"\014\006\014\006\014\006\014\006\014\003\014\003\214"
ARM GAS  D:\noval\Temp\ccGOMXvb.s 			page 92


 2953      0C060C06 
 2953      0C030C03 
 2953      8C
 2954 06e7 017F0000 		.ascii	"\001\177\000\000\000\000\000\000\000"
 2954      00000000 
 2954      00
 2955 06f0 00000000 		.ascii	"\000\000\000\000\000\000\000\000\000\000\377\003\006"
 2955      00000000 
 2955      0000FF03 
 2955      06
 2956 06fd 03060406 		.ascii	"\003\006\004\006\004\006\000\206\000\206\000\376\000"
 2956      04060086 
 2956      008600FE 
 2956      00
 2957 070a 86008600 		.ascii	"\206\000\206\000\206\000\006\000\006\004\006\004\006"
 2957      86000600 
 2957      06040604 
 2957      06
 2958 0717 02FF0300 		.ascii	"\002\377\003\000\000\000\000\000\000"
 2958      00000000 
 2958      00
 2959 0720 00000000 		.ascii	"\000\000\000\000\000\000\000\000\000\000\377\003\006"
 2959      00000000 
 2959      0000FF03 
 2959      06
 2960 072d 03060406 		.ascii	"\003\006\004\006\004\006\000\206\000\206\000\376\000"
 2960      04060086 
 2960      008600FE 
 2960      00
 2961 073a 86008600 		.ascii	"\206\000\206\000\206\000\006\000\006\000\006\000\006"
 2961      86000600 
 2961      06000600 
 2961      06
 2962 0747 001F0000 		.ascii	"\000\037\000\000\000\000\000\000\000"
 2962      00000000 
 2962      00
 2963 0750 00000000 		.ascii	"\000\000\000\000\000\000\000\000\000\000\360\000\030"
 2963      00000000 
 2963      0000F000 
 2963      18
 2964 075d 010C020C 		.ascii	"\001\014\002\014\002\004\002\006\000\006\000\006\000"
 2964      02040206 
 2964      00060006 
 2964      00
 2965 076a 0600C60F 		.ascii	"\006\000\306\017\006\003\006\003\014\003\014\003\030"
 2965      06030603 
 2965      0C030C03 
 2965      18
 2966 0777 03F00000 		.ascii	"\003\360\000\000\000\000\000\000\000"
 2966      00000000 
 2966      00
 2967 0780 00000000 		.ascii	"\000\000\000\000\000\000\000\000\000\000\017\017\006"
 2967      00000000 
 2967      00000F0F 
 2967      06
 2968 078d 06060606 		.ascii	"\006\006\006\006\006\006\006\006\006\006\006\376\007"
 2968      06060606 
ARM GAS  D:\noval\Temp\ccGOMXvb.s 			page 93


 2968      060606FE 
 2968      07
 2969 079a 06060606 		.ascii	"\006\006\006\006\006\006\006\006\006\006\006\006\006"
 2969      06060606 
 2969      06060606 
 2969      06
 2970 07a7 060F0F00 		.ascii	"\006\017\017\000\000\000\000\000\000"
 2970      00000000 
 2970      00
 2971 07b0 00000000 		.ascii	"\000\000\000\000\000\000\000\000\000\000\374\003`\000"
 2971      00000000 
 2971      0000FC03 
 2971      6000
 2972 07be 60006000 		.ascii	"`\000`\000`\000`\000`\000`\000`\000`\000`\000`\000`"
 2972      60006000 
 2972      60006000 
 2972      60006000 
 2972      60006000 
 2973 07d3 00600060 		.ascii	"\000`\000`\000\374\003\000\000\000\000\000\000"
 2973      00FC0300 
 2973      00000000 
 2973      00
 2974 07e0 00000000 		.ascii	"\000\000\000\000\000\000\000\000\000\000\370\007\300"
 2974      00000000 
 2974      0000F807 
 2974      C0
 2975 07ed 00C000C0 		.ascii	"\000\300\000\300\000\300\000\300\000\300\000\300\000"
 2975      00C000C0 
 2975      00C000C0 
 2975      00
 2976 07fa C000C000 		.ascii	"\300\000\300\000\300\000\300\000\300\000\300\000\300"
 2976      C000C000 
 2976      C000C000 
 2976      C0
 2977 0807 00C000C6 		.ascii	"\000\300\000\306\000f\000<\000"
 2977      0066003C 
 2977      00
 2978 0810 00000000 		.ascii	"\000\000\000\000\000\000\000\000\000\000\317\003\206"
 2978      00000000 
 2978      0000CF03 
 2978      86
 2979 081d 01C60046 		.ascii	"\001\306\000F\000&\000\026\0006\000.\000n\000F\000\306"
 2979      00260016 
 2979      0036002E 
 2979      006E0046 
 2979      00C6
 2980 082f 00860086 		.ascii	"\000\206\000\206\001\006\001\006\003\217\007\000\000"
 2980      01060106 
 2980      038F0700 
 2980      00
 2981 083c 00000000 		.ascii	"\000\000\000\000"
 2982 0840 00000000 		.ascii	"\000\000\000\000\000\000\000\000\000\000\037\000\006"
 2982      00000000 
 2982      00001F00 
 2982      06
 2983 084d 00060006 		.ascii	"\000\006\000\006\000\006\000\006\000\006\000\006\000"
 2983      00060006 
ARM GAS  D:\noval\Temp\ccGOMXvb.s 			page 94


 2983      00060006 
 2983      00
 2984 085a 06000600 		.ascii	"\006\000\006\000\006\000\006\000\006\004\006\004\006"
 2984      06000600 
 2984      06040604 
 2984      06
 2985 0867 02FF0300 		.ascii	"\002\377\003\000\000\000\000\000\000"
 2985      00000000 
 2985      00
 2986 0870 00000000 		.ascii	"\000\000\000\000\000\000\000\000\000\000\007\007\206"
 2986      00000000 
 2986      00000707 
 2986      86
 2987 087d 0386038E 		.ascii	"\003\206\003\216\003\216\003N\003N\003J\003Z\003Z\003"
 2987      038E034E 
 2987      034E034A 
 2987      035A035A 
 2987      03
 2988 088e 3A033203 		.ascii	":\0032\0032\0032\003\022\003\207\007\000\000\000\000"
 2988      32033203 
 2988      12038707 
 2988      00000000 
 2989 089e 0000     		.ascii	"\000\000"
 2990 08a0 00000000 		.ascii	"\000\000\000\000\000\000\000\000\000\000\216\017\014"
 2990      00000000 
 2990      00008E0F 
 2990      0C
 2991 08ad 021C021C 		.ascii	"\002\034\002\034\0024\0024\002d\002d\002D\002\304\002"
 2991      02340234 
 2991      02640264 
 2991      024402C4 
 2991      02
 2992 08be 84028403 		.ascii	"\204\002\204\003\204\003\004\003\004\003\037\002\000"
 2992      84030403 
 2992      04031F02 
 2992      00
 2993 08cb 00000000 		.ascii	"\000\000\000\000\000"
 2993      00
 2994 08d0 00000000 		.ascii	"\000\000\000\000\000\000\000\000\000\000\360\000\230"
 2994      00000000 
 2994      0000F000 
 2994      98
 2995 08dd 010C030C 		.ascii	"\001\014\003\014\002\006\006\006\006\006\006\006\006"
 2995      02060606 
 2995      06060606 
 2995      06
 2996 08ea 06060606 		.ascii	"\006\006\006\006\006\006\006\006\014\002\014\003\230"
 2996      06060606 
 2996      0C020C03 
 2996      98
 2997 08f7 01F00000 		.ascii	"\001\360\000\000\000\000\000\000\000"
 2997      00000000 
 2997      00
 2998 0900 00000000 		.ascii	"\000\000\000\000\000\000\000\000\000\000\377\000\006"
 2998      00000000 
 2998      0000FF00 
 2998      06
ARM GAS  D:\noval\Temp\ccGOMXvb.s 			page 95


 2999 090d 03060606 		.ascii	"\003\006\006\006\006\006\006\006\006\006\006\206\003"
 2999      06060606 
 2999      06060686 
 2999      03
 3000 091a FE000600 		.ascii	"\376\000\006\000\006\000\006\000\006\000\006\000\006"
 3000      06000600 
 3000      06000600 
 3000      06
 3001 0927 001F0000 		.ascii	"\000\037\000\000\000\000\000\000\000"
 3001      00000000 
 3001      00
 3002 0930 00000000 		.ascii	"\000\000\000\000\000\000\000\000\000\000\360\000\230"
 3002      00000000 
 3002      0000F000 
 3002      98
 3003 093d 010C030C 		.ascii	"\001\014\003\014\002\006\006\006\006\006\006\006\006"
 3003      02060606 
 3003      06060606 
 3003      06
 3004 094a 06060606 		.ascii	"\006\006\006\006\006\006v\006L\002\314\003\230\001\360"
 3004      06067606 
 3004      4C02CC03 
 3004      9801F0
 3005 0959 00800700 		.ascii	"\000\200\007\000\003\000\000"
 3005      030000
 3006 0960 00000000 		.ascii	"\000\000\000\000\000\000\000\000\000\000\377\001\006"
 3006      00000000 
 3006      0000FF01 
 3006      06
 3007 096d 03060606 		.ascii	"\003\006\006\006\006\006\006\006\006\006\003\376\000"
 3007      06060606 
 3007      060603FE 
 3007      00
 3008 097a 4600C600 		.ascii	"F\000\306\000\206\000\206\001\006\003\006\003\006\006"
 3008      86008601 
 3008      06030603 
 3008      0606
 3009 0988 0F0E0000 		.ascii	"\017\016\000\000\000\000\000\000"
 3009      00000000 
 3010 0990 00000000 		.ascii	"\000\000\000\000\000\000\000\000\000\000\370\002\014"
 3010      00000000 
 3010      0000F802 
 3010      0C
 3011 099d 03060206 		.ascii	"\003\006\002\006\002\006\000\016\000<\000\370\000\340"
 3011      0206000E 
 3011      003C00F8 
 3011      00E0
 3012 09ab 03800300 		.ascii	"\003\200\003\000\007\002\006\002\006\006\006\014\003"
 3012      07020602 
 3012      0606060C 
 3012      03
 3013 09b8 F0010000 		.ascii	"\360\001\000\000\000\000\000\000"
 3013      00000000 
 3014 09c0 00000000 		.ascii	"\000\000\000\000\000\000\000\000\000\000\376\007b\004"
 3014      00000000 
 3014      0000FE07 
 3014      6204
ARM GAS  D:\noval\Temp\ccGOMXvb.s 			page 96


 3015 09ce 61086108 		.ascii	"a\010a\010`\000`\000`\000`\000`\000`\000`\000`\000`"
 3015      60006000 
 3015      60006000 
 3015      60006000 
 3015      60006000 
 3016 09e3 00600060 		.ascii	"\000`\000`\000\370\001\000\000\000\000\000\000"
 3016      00F80100 
 3016      00000000 
 3016      00
 3017 09f0 00000000 		.ascii	"\000\000\000\000\000\000\000\000\000\000\036\007\014"
 3017      00000000 
 3017      00001E07 
 3017      0C
 3018 09fd 020C020C 		.ascii	"\002\014\002\014\002\014\002\014\002\014\002\014\002"
 3018      020C020C 
 3018      020C020C 
 3018      02
 3019 0a0a 0C020C02 		.ascii	"\014\002\014\002\014\002\014\002\014\002\014\002\030"
 3019      0C020C02 
 3019      0C020C02 
 3019      18
 3020 0a17 01F00000 		.ascii	"\001\360\000\000\000\000\000\000\000"
 3020      00000000 
 3020      00
 3021 0a20 00000000 		.ascii	"\000\000\000\000\000\000\000\000\000\000\017\007\006"
 3021      00000000 
 3021      00000F07 
 3021      06
 3022 0a2d 02040104 		.ascii	"\002\004\001\004\001\014\001\014\001\210\000\210\000"
 3022      010C010C 
 3022      01880088 
 3022      00
 3023 0a3a 98009800 		.ascii	"\230\000\230\000P\000P\000p\0000\000 \000 \000\000\000"
 3023      50005000 
 3023      70003000 
 3023      20002000 
 3023      0000
 3024 0a4c 00000000 		.ascii	"\000\000\000\000"
 3025 0a50 00000000 		.ascii	"\000\000\000\000\000\000\000\000\000\000\367\016b\004"
 3025      00000000 
 3025      0000F70E 
 3025      6204
 3026 0a5e 42044604 		.ascii	"B\004F\004F\004d\002d\002\344\002\344\002\234\002\234"
 3026      46046402 
 3026      6402E402 
 3026      E4029C02 
 3026      9C
 3027 0a6f 01980198 		.ascii	"\001\230\001\230\001\210\001\210\000\210\000\000\000"
 3027      01880188 
 3027      00880000 
 3027      00
 3028 0a7c 00000000 		.ascii	"\000\000\000\000"
 3029 0a80 00000000 		.ascii	"\000\000\000\000\000\000\000\000\000\000\236\007\014"
 3029      00000000 
 3029      00009E07 
 3029      0C
 3030 0a8d 01080118 		.ascii	"\001\010\001\030\001\220\000\260\000`\000 \000`\000"
ARM GAS  D:\noval\Temp\ccGOMXvb.s 			page 97


 3030      019000B0 
 3030      00600020 
 3030      006000
 3031 0a9c 6000D000 		.ascii	"`\000\320\000\220\000\210\001\010\001\004\003\216\007"
 3031      90008801 
 3031      08010403 
 3031      8E07
 3032 0aaa 00000000 		.ascii	"\000\000\000\000\000\000"
 3032      0000
 3033 0ab0 00000000 		.ascii	"\000\000\000\000\000\000\000\000\000\000\017\017\006"
 3033      00000000 
 3033      00000F0F 
 3033      06
 3034 0abd 0404020C 		.ascii	"\004\004\002\014\002\010\001\030\001\270\000\260\000"
 3034      02080118 
 3034      01B800B0 
 3034      00
 3035 0aca 70006000 		.ascii	"p\000`\000`\000`\000`\000`\000`\000\370\001\000\000"
 3035      60006000 
 3035      60006000 
 3035      6000F801 
 3035      0000
 3036 0adc 00000000 		.ascii	"\000\000\000\000"
 3037 0ae0 00000000 		.ascii	"\000\000\000\000\000\000\000\000\000\000\374\007\014"
 3037      00000000 
 3037      0000FC07 
 3037      0C
 3038 0aed 02060302 		.ascii	"\002\006\003\002\001\200\001\200\000@\000@\000 \000"
 3038      01800180 
 3038      00400040 
 3038      002000
 3039 0afc 20001000 		.ascii	" \000\020\000\030\000\010\004\014\004\004\002\376\003"
 3039      18000804 
 3039      0C040402 
 3039      FE03
 3040 0b0a 00000000 		.ascii	"\000\000\000\000\000\000"
 3040      0000
 3041 0b10 00000000 		.ascii	"\000\000\000\000\340\003 \000 \000 \000 \000 \000 \000"
 3041      E0032000 
 3041      20002000 
 3041      20002000 
 3041      2000
 3042 0b22 20002000 		.ascii	" \000 \000 \000 \000 \000 \000 \000 \000 \000 \000 "
 3042      20002000 
 3042      20002000 
 3042      20002000 
 3042      20002000 
 3043 0b37 00200020 		.ascii	"\000 \000 \000\340\003\000\000"
 3043      00E00300 
 3043      00
 3044 0b40 00000000 		.ascii	"\000\000\000\000\000\000\000\000\004\000\004\000\010"
 3044      00000000 
 3044      04000400 
 3044      08
 3045 0b4d 00080010 		.ascii	"\000\010\000\020\000\020\000\020\000 \000 \000@\000"
 3045      00100010 
 3045      00200020 
ARM GAS  D:\noval\Temp\ccGOMXvb.s 			page 98


 3045      004000
 3046 0b5c 4000C000 		.ascii	"@\000\300\000\200\000\200\000\000\001\000\001\000\002"
 3046      80008000 
 3046      00010001 
 3046      0002
 3047 0b6a 00020002 		.ascii	"\000\002\000\002\000\004"
 3047      0004
 3048 0b70 00000000 		.ascii	"\000\000\000\000|\000@\000@\000@\000@\000@\000@\000"
 3048      7C004000 
 3048      40004000 
 3048      40004000 
 3048      4000
 3049 0b82 40004000 		.ascii	"@\000@\000@\000@\000@\000@\000@\000@\000@\000@\000@"
 3049      40004000 
 3049      40004000 
 3049      40004000 
 3049      40004000 
 3050 0b97 00400040 		.ascii	"\000@\000@\000|\000\000\000"
 3050      007C0000 
 3050      00
 3051 0ba0 00006000 		.ascii	"\000\000`\000\220\000\010\001\000\000\000\000\000\000"
 3051      90000801 
 3051      00000000 
 3051      0000
 3052 0bae 00000000 		.ascii	"\000\000\000\000\000\000\000\000\000\000\000\000\000"
 3052      00000000 
 3052      00000000 
 3052      00
 3053 0bbb 00000000 		.ascii	"\000\000\000\000\000\000\000\000\000\000\000\000\000"
 3053      00000000 
 3053      00000000 
 3053      00
 3054 0bc8 00000000 		.ascii	"\000\000\000\000\000\000\000\000"
 3054      00000000 
 3055 0bd0 00000000 		.ascii	"\000\000\000\000\000\000\000\000\000\000\000\000\000"
 3055      00000000 
 3055      00000000 
 3055      00
 3056 0bdd 00000000 		.ascii	"\000\000\000\000\000\000\000\000\000\000\000\000\000"
 3056      00000000 
 3056      00000000 
 3056      00
 3057 0bea 00000000 		.ascii	"\000\000\000\000\000\000\000\000\000\000\000\000\000"
 3057      00000000 
 3057      00000000 
 3057      00
 3058 0bf7 00000000 		.ascii	"\000\000\000\000\000\000\000\377\017"
 3058      000000FF 
 3058      0F
 3059 0c00 00000000 		.ascii	"\000\000\000\000\030\000`\000\000\000\000\000\000\000"
 3059      18006000 
 3059      00000000 
 3059      0000
 3060 0c0e 00000000 		.ascii	"\000\000\000\000\000\000\000\000\000\000\000\000\000"
 3060      00000000 
 3060      00000000 
 3060      00
ARM GAS  D:\noval\Temp\ccGOMXvb.s 			page 99


 3061 0c1b 00000000 		.ascii	"\000\000\000\000\000\000\000\000\000\000\000\000\000"
 3061      00000000 
 3061      00000000 
 3061      00
 3062 0c28 00000000 		.ascii	"\000\000\000\000\000\000\000\000"
 3062      00000000 
 3063 0c30 00000000 		.ascii	"\000\000\000\000\000\000\000\000\000\000\000\000\000"
 3063      00000000 
 3063      00000000 
 3063      00
 3064 0c3d 00000000 		.ascii	"\000\000\000\000\000\000\000\360\001\014\003\014\003"
 3064      000000F0 
 3064      010C030C 
 3064      03
 3065 0c4a 0003E003 		.ascii	"\000\003\340\003\034\003\016\003\006\003\006\003\216"
 3065      1C030E03 
 3065      06030603 
 3065      8E
 3066 0c57 0B7C0E00 		.ascii	"\013|\016\000\000\000\000\000\000"
 3066      00000000 
 3066      00
 3067 0c60 00000000 		.ascii	"\000\000\000\000\000\000\000\000\010\000\016\000\014"
 3067      00000000 
 3067      08000E00 
 3067      0C
 3068 0c6d 000C000C 		.ascii	"\000\014\000\014\000\014\000\314\001<\003\034\006\014"
 3068      000C00CC 
 3068      013C031C 
 3068      060C
 3069 0c7b 060C060C 		.ascii	"\006\014\006\014\006\014\006\014\006\014\002\034\003"
 3069      060C060C 
 3069      060C021C 
 3069      03
 3070 0c88 E4010000 		.ascii	"\344\001\000\000\000\000\000\000"
 3070      00000000 
 3071 0c90 00000000 		.ascii	"\000\000\000\000\000\000\000\000\000\000\000\000\000"
 3071      00000000 
 3071      00000000 
 3071      00
 3072 0c9d 00000000 		.ascii	"\000\000\000\000\000\000\000\360\000\214\001\214\001"
 3072      000000F0 
 3072      008C018C 
 3072      01
 3073 0caa 86010600 		.ascii	"\206\001\006\000\006\000\006\000\006\002\014\002\014"
 3073      06000600 
 3073      06020C02 
 3073      0C
 3074 0cb7 01F00000 		.ascii	"\001\360\000\000\000\000\000\000\000"
 3074      00000000 
 3074      00
 3075 0cc0 00000000 		.ascii	"\000\000\000\000\000\000\000\000\000\002\300\003\000"
 3075      00000000 
 3075      0002C003 
 3075      00
 3076 0ccd 03000300 		.ascii	"\003\000\003\000\003\000\003x\003\214\003\014\003\006"
 3076      03000378 
 3076      038C030C 
ARM GAS  D:\noval\Temp\ccGOMXvb.s 			page 100


 3076      0306
 3077 0cdb 03060306 		.ascii	"\003\006\003\006\003\006\003\006\003\004\003\214\007"
 3077      03060306 
 3077      0304038C 
 3077      07
 3078 0ce8 78010000 		.ascii	"x\001\000\000\000\000\000\000"
 3078      00000000 
 3079 0cf0 00000000 		.ascii	"\000\000\000\000\000\000\000\000\000\000\000\000\000"
 3079      00000000 
 3079      00000000 
 3079      00
 3080 0cfd 00000000 		.ascii	"\000\000\000\000\000\000\000\340\001\030\003\010\002"
 3080      000000E0 
 3080      01180308 
 3080      02
 3081 0d0a 0C060C06 		.ascii	"\014\006\014\006\374\007\014\000\014\000\030\004\030"
 3081      FC070C00 
 3081      0C001804 
 3081      18
 3082 0d17 02E00100 		.ascii	"\002\340\001\000\000\000\000\000\000"
 3082      00000000 
 3082      00
 3083 0d20 00000000 		.ascii	"\000\000\000\000\000\000\000\000\000\000\300\003`\006"
 3083      00000000 
 3083      0000C003 
 3083      6006
 3084 0d2e 30063000 		.ascii	"0\0060\0000\000\376\0010\0000\0000\0000\0000\0000\000"
 3084      3000FE01 
 3084      30003000 
 3084      30003000 
 3084      30003000 
 3085 0d42 30003000 		.ascii	"0\0000\0000\000\374\001\000\000\000\000\000\000"
 3085      3000FC01 
 3085      00000000 
 3085      0000
 3086 0d50 00000000 		.ascii	"\000\000\000\000\000\000\000\000\000\000\000\000\000"
 3086      00000000 
 3086      00000000 
 3086      00
 3087 0d5d 00000000 		.ascii	"\000\000\000\000\000\000\000\360\007\330\006\214\001"
 3087      000000F0 
 3087      07D8068C 
 3087      01
 3088 0d6a 8C018C01 		.ascii	"\214\001\214\001\230\001\370\000\014\000\374\000\314"
 3088      9801F800 
 3088      0C00FC00 
 3088      CC
 3089 0d77 03060306 		.ascii	"\003\006\003\006\003\216\003\370\000"
 3089      038E03F8 
 3089      00
 3090 0d80 00000000 		.ascii	"\000\000\000\000\000\000\000\000\010\000\016\000\014"
 3090      00000000 
 3090      08000E00 
 3090      0C
 3091 0d8d 000C000C 		.ascii	"\000\014\000\014\000\014\000\354\001\034\003\014\003"
 3091      000C00EC 
 3091      011C030C 
ARM GAS  D:\noval\Temp\ccGOMXvb.s 			page 101


 3091      03
 3092 0d9a 0C030C03 		.ascii	"\014\003\014\003\014\003\014\003\014\003\014\003\014"
 3092      0C030C03 
 3092      0C030C03 
 3092      0C
 3093 0da7 039E0700 		.ascii	"\003\236\007\000\000\000\000\000\000"
 3093      00000000 
 3093      00
 3094 0db0 00000000 		.ascii	"\000\000\000\000\000\000\000\000\000\000`\000`\000\000"
 3094      00000000 
 3094      00006000 
 3094      600000
 3095 0dbf 00000040 		.ascii	"\000\000\000@\000|\000`\000`\000`\000`\000`\000`\000"
 3095      007C0060 
 3095      00600060 
 3095      00600060 
 3095      006000
 3096 0dd2 60006000 		.ascii	"`\000`\000`\000\374\003\000\000\000\000\000\000"
 3096      6000FC03 
 3096      00000000 
 3096      0000
 3097 0de0 00000000 		.ascii	"\000\000\000\000\000\000\000\000\000\000\300\001\300"
 3097      00000000 
 3097      0000C001 
 3097      C0
 3098 0ded 01000000 		.ascii	"\001\000\000\000\000\000\001\360\001\200\001\200\001"
 3098      000001F0 
 3098      01800180 
 3098      01
 3099 0dfa 80018001 		.ascii	"\200\001\200\001\200\001\200\001\200\001\200\001\200"
 3099      80018001 
 3099      80018001 
 3099      80
 3100 0e07 01800180 		.ascii	"\001\200\001\200\001\314\000|\000"
 3100      01CC007C 
 3100      00
 3101 0e10 00000000 		.ascii	"\000\000\000\000\000\000\000\000\010\000\016\000\014"
 3101      00000000 
 3101      08000E00 
 3101      0C
 3102 0e1d 000C000C 		.ascii	"\000\014\000\014\000\014\000\214\003\214\000\214\000"
 3102      000C008C 
 3102      038C008C 
 3102      00
 3103 0e2a 4C006C00 		.ascii	"L\000l\000\\\000\214\000\214\001\014\001\014\003\236"
 3103      5C008C00 
 3103      8C010C01 
 3103      0C039E
 3104 0e39 07000000 		.ascii	"\007\000\000\000\000\000\000"
 3104      000000
 3105 0e40 00000000 		.ascii	"\000\000\000\000\000\000\000\000@\000|\000`\000`\000"
 3105      00000000 
 3105      40007C00 
 3105      60006000 
 3106 0e50 60006000 		.ascii	"`\000`\000`\000`\000`\000`\000`\000`\000`\000`\000`"
 3106      60006000 
 3106      60006000 
ARM GAS  D:\noval\Temp\ccGOMXvb.s 			page 102


 3106      60006000 
 3106      60006000 
 3107 0e65 006000FC 		.ascii	"\000`\000\374\003\000\000\000\000\000\000"
 3107      03000000 
 3107      000000
 3108 0e70 00000000 		.ascii	"\000\000\000\000\000\000\000\000\000\000\000\000\000"
 3108      00000000 
 3108      00000000 
 3108      00
 3109 0e7d 00000000 		.ascii	"\000\000\000\000\000\000\0007\007\356\006f\006f\006"
 3109      00000037 
 3109      07EE0666 
 3109      066606
 3110 0e8c 66066606 		.ascii	"f\006f\006f\006f\006f\006f\006\377\017\000\000\000\000"
 3110      66066606 
 3110      66066606 
 3110      FF0F0000 
 3110      0000
 3111 0e9e 0000     		.ascii	"\000\000"
 3112 0ea0 00000000 		.ascii	"\000\000\000\000\000\000\000\000\000\000\000\000\000"
 3112      00000000 
 3112      00000000 
 3112      00
 3113 0ead 00000000 		.ascii	"\000\000\000\000\000\000\000\356\001\034\003\014\003"
 3113      000000EE 
 3113      011C030C 
 3113      03
 3114 0eba 0C030C03 		.ascii	"\014\003\014\003\014\003\014\003\014\003\014\003\014"
 3114      0C030C03 
 3114      0C030C03 
 3114      0C
 3115 0ec7 039E0700 		.ascii	"\003\236\007\000\000\000\000\000\000"
 3115      00000000 
 3115      00
 3116 0ed0 00000000 		.ascii	"\000\000\000\000\000\000\000\000\000\000\000\000\000"
 3116      00000000 
 3116      00000000 
 3116      00
 3117 0edd 00000000 		.ascii	"\000\000\000\000\000\000\000\360\000\230\001\014\003"
 3117      000000F0 
 3117      0098010C 
 3117      03
 3118 0eea 06060606 		.ascii	"\006\006\006\006\006\006\006\006\006\006\014\003\014"
 3118      06060606 
 3118      06060C03 
 3118      0C
 3119 0ef7 03F00000 		.ascii	"\003\360\000\000\000\000\000\000\000"
 3119      00000000 
 3119      00
 3120 0f00 00000000 		.ascii	"\000\000\000\000\000\000\000\000\000\000\000\000\000"
 3120      00000000 
 3120      00000000 
 3120      00
 3121 0f0d 00000000 		.ascii	"\000\000\000\000\000\000\000\356\001\034\003\014\006"
 3121      000000EE 
 3121      011C030C 
 3121      06
ARM GAS  D:\noval\Temp\ccGOMXvb.s 			page 103


 3122 0f1a 0C060C06 		.ascii	"\014\006\014\006\014\006\014\006\014\006\014\003\034"
 3122      0C060C06 
 3122      0C060C03 
 3122      1C
 3123 0f27 03EC010C 		.ascii	"\003\354\001\014\000\014\000>\000"
 3123      000C003E 
 3123      00
 3124 0f30 00000000 		.ascii	"\000\000\000\000\000\000\000\000\000\000\000\000\000"
 3124      00000000 
 3124      00000000 
 3124      00
 3125 0f3d 00000000 		.ascii	"\000\000\000\000\000\000\000x\002\214\003\014\003\006"
 3125      00000078 
 3125      028C030C 
 3125      0306
 3126 0f4b 03060306 		.ascii	"\003\006\003\006\003\006\003\006\003\004\003\214\003"
 3126      03060306 
 3126      0304038C 
 3126      03
 3127 0f58 78030003 		.ascii	"x\003\000\003\000\003\300\007"
 3127      0003C007 
 3128 0f60 00000000 		.ascii	"\000\000\000\000\000\000\000\000\000\000\000\000\000"
 3128      00000000 
 3128      00000000 
 3128      00
 3129 0f6d 00000000 		.ascii	"\000\000\000\000\000\000\000\237\003X\0068\006\030\000"
 3129      0000009F 
 3129      03580638 
 3129      061800
 3130 0f7c 18001800 		.ascii	"\030\000\030\000\030\000\030\000\030\000\030\000\377"
 3130      18001800 
 3130      18001800 
 3130      FF
 3131 0f89 00000000 		.ascii	"\000\000\000\000\000\000\000"
 3131      000000
 3132 0f90 00000000 		.ascii	"\000\000\000\000\000\000\000\000\000\000\000\000\000"
 3132      00000000 
 3132      00000000 
 3132      00
 3133 0f9d 00000000 		.ascii	"\000\000\000\000\000\000\000\360\003\034\003\014\002"
 3133      000000F0 
 3133      031C030C 
 3133      02
 3134 0faa 0C023800 		.ascii	"\014\0028\000\360\000\300\003\004\003\004\003\214\003"
 3134      F000C003 
 3134      04030403 
 3134      8C03
 3135 0fb8 FC010000 		.ascii	"\374\001\000\000\000\000\000\000"
 3135      00000000 
 3136 0fc0 00000000 		.ascii	"\000\000\000\000\000\000\000\000\000\000\000\000 \000"
 3136      00000000 
 3136      00000000 
 3136      2000
 3137 0fce 20003000 		.ascii	" \0000\0000\000\376\0010\0000\0000\0000\0000\0000\000"
 3137      3000FE01 
 3137      30003000 
 3137      30003000 
ARM GAS  D:\noval\Temp\ccGOMXvb.s 			page 104


 3137      30003000 
 3138 0fe2 30003002 		.ascii	"0\0000\0020\002\340\001\000\000\000\000\000\000"
 3138      3002E001 
 3138      00000000 
 3138      0000
 3139 0ff0 00000000 		.ascii	"\000\000\000\000\000\000\000\000\000\000\000\000\000"
 3139      00000000 
 3139      00000000 
 3139      00
 3140 0ffd 00000000 		.ascii	"\000\000\000\000\000\010\002\216\003\014\003\014\003"
 3140      0008028E 
 3140      030C030C 
 3140      03
 3141 100a 0C030C03 		.ascii	"\014\003\014\003\014\003\014\003\014\003\014\003\234"
 3141      0C030C03 
 3141      0C030C03 
 3141      9C
 3142 1017 07780100 		.ascii	"\007x\001\000\000\000\000\000\000"
 3142      00000000 
 3142      00
 3143 1020 00000000 		.ascii	"\000\000\000\000\000\000\000\000\000\000\000\000\000"
 3143      00000000 
 3143      00000000 
 3143      00
 3144 102d 00000000 		.ascii	"\000\000\000\000\000\000\000\036\007\014\002\010\001"
 3144      0000001E 
 3144      070C0208 
 3144      01
 3145 103a 08011801 		.ascii	"\010\001\030\001\220\000\260\000\260\000`\000`\000 "
 3145      9000B000 
 3145      B0006000 
 3145      600020
 3146 1049 00000000 		.ascii	"\000\000\000\000\000\000\000"
 3146      000000
 3147 1050 00000000 		.ascii	"\000\000\000\000\000\000\000\000\000\000\000\000\000"
 3147      00000000 
 3147      00000000 
 3147      00
 3148 105d 00000000 		.ascii	"\000\000\000\000\000\000\000\367\016b\004F\004d\002"
 3148      000000F7 
 3148      0E620446 
 3148      046402
 3149 106c 6402EC02 		.ascii	"d\002\354\002\234\001\230\001\230\001\230\001\010\000"
 3149      9C019801 
 3149      98019801 
 3149      0800
 3150 107a 00000000 		.ascii	"\000\000\000\000\000\000"
 3150      0000
 3151 1080 00000000 		.ascii	"\000\000\000\000\000\000\000\000\000\000\000\000\000"
 3151      00000000 
 3151      00000000 
 3151      00
 3152 108d 00000000 		.ascii	"\000\000\000\000\000\000\000\274\007\030\001\020\001"
 3152      000000BC 
 3152      07180110 
 3152      01
 3153 109a B0006000 		.ascii	"\260\000`\000`\000\340\000\220\000\010\001\010\003\236"
ARM GAS  D:\noval\Temp\ccGOMXvb.s 			page 105


 3153      6000E000 
 3153      90000801 
 3153      08039E
 3154 10a9 07000000 		.ascii	"\007\000\000\000\000\000\000"
 3154      000000
 3155 10b0 00000000 		.ascii	"\000\000\000\000\000\000\000\000\000\000\000\000\000"
 3155      00000000 
 3155      00000000 
 3155      00
 3156 10bd 00000000 		.ascii	"\000\000\000\000\000\000\000\236\007\010\001\010\001"
 3156      0000009E 
 3156      07080108 
 3156      01
 3157 10ca 08019000 		.ascii	"\010\001\220\000\220\000\260\000`\000`\000`\000 \000"
 3157      9000B000 
 3157      60006000 
 3157      60002000 
 3158 10da 20002400 		.ascii	" \000$\000\034\000"
 3158      1C00
 3159 10e0 00000000 		.ascii	"\000\000\000\000\000\000\000\000\000\000\000\000\000"
 3159      00000000 
 3159      00000000 
 3159      00
 3160 10ed 00000000 		.ascii	"\000\000\000\000\000\000\000\374\001\204\001\304\000"
 3160      000000FC 
 3160      018401C4 
 3160      00
 3161 10fa 44006000 		.ascii	"D\000`\000 \0000\000\030\002\010\002\014\003\374\001"
 3161      20003000 
 3161      18020802 
 3161      0C03FC01 
 3162 110a 00000000 		.ascii	"\000\000\000\000\000\000"
 3162      0000
 3163 1110 00000000 		.ascii	"\000\000\000\000\000\003\200\000\200\000\200\000\200"
 3163      00038000 
 3163      80008000 
 3163      80
 3164 111d 00800080 		.ascii	"\000\200\000\200\000\200\000\200\000@\000 \000@\000"
 3164      00800080 
 3164      00400020 
 3164      004000
 3165 112c 80008000 		.ascii	"\200\000\200\000\200\000\200\000\200\000\200\000\200"
 3165      80008000 
 3165      80008000 
 3165      80
 3166 1139 00800000 		.ascii	"\000\200\000\000\003\000\000"
 3166      030000
 3167 1140 40004000 		.ascii	"@\000@\000@\000@\000@\000@\000@\000@\000@\000@\000@"
 3167      40004000 
 3167      40004000 
 3167      40004000 
 3167      40004000 
 3168 1155 00400040 		.ascii	"\000@\000@\000@\000@\000@\000@\000@\000@\000@\000@\000"
 3168      00400040 
 3168      00400040 
 3168      00400040 
 3168      00400040 
ARM GAS  D:\noval\Temp\ccGOMXvb.s 			page 106


 3169 116a 40004000 		.ascii	"@\000@\000@\000"
 3169      4000
 3170 1170 00000000 		.ascii	"\000\000\000\000\014\000\020\000\020\000\020\000\020"
 3170      0C001000 
 3170      10001000 
 3170      10
 3171 117d 00100010 		.ascii	"\000\020\000\020\000\020\000\020\000 \000@\000 \000"
 3171      00100010 
 3171      00200040 
 3171      002000
 3172 118c 10001000 		.ascii	"\020\000\020\000\020\000\020\000\020\000\020\000\020"
 3172      10001000 
 3172      10001000 
 3172      10
 3173 1199 0010000C 		.ascii	"\000\020\000\014\000\000\000"
 3173      000000
 3174 11a0 00001C00 		.ascii	"\000\000\034\000\"\004\302\004\200\003\000\000\000\000"
 3174      2204C204 
 3174      80030000 
 3174      0000
 3175 11ae 00000000 		.ascii	"\000\000\000\000\000\000\000\000\000\000\000\000\000"
 3175      00000000 
 3175      00000000 
 3175      00
 3176 11bb 00000000 		.ascii	"\000\000\000\000\000\000\000\000\000\000\000\000\000"
 3176      00000000 
 3176      00000000 
 3176      00
 3177 11c8 00000000 		.ascii	"\000\000\000\000\000\000\000\000"
 3177      00000000 
 3178              		.global	ascii_1608
 3179              		.section	.rodata.ascii_1608,"a"
 3180              		.align	2
 3183              	ascii_1608:
 3184 0000 00000000 		.ascii	"\000\000\000\000\000\000\000\000\000\000\000\000\000"
 3184      00000000 
 3184      00000000 
 3184      00
 3185 000d 000000   		.ascii	"\000\000\000"
 3186 0010 00000008 		.ascii	"\000\000\000\010\010\010\010\010\010\010\000\000\030"
 3186      08080808 
 3186      08080000 
 3186      18
 3187 001d 180000   		.ascii	"\030\000\000"
 3188 0020 00486C24 		.ascii	"\000Hl$\022\000\000\000\000\000\000\000\000\000\000"
 3188      12000000 
 3188      00000000 
 3188      000000
 3189 002f 00       		.ascii	"\000"
 3190 0030 00000024 		.ascii	"\000\000\000$$$\177\022\022\022\177\022\022\022\000"
 3190      24247F12 
 3190      12127F12 
 3190      121200
 3191 003f 00       		.ascii	"\000"
 3192 0040 0000081C 		.ascii	"\000\000\010\034**\012\014\030((**\034\010\010"
 3192      2A2A0A0C 
 3192      1828282A 
ARM GAS  D:\noval\Temp\ccGOMXvb.s 			page 107


 3192      2A1C0808 
 3193 0050 00000022 		.ascii	"\000\000\000\"%\025\025\025*XTTT\"\000\000"
 3193      25151515 
 3193      2A585454 
 3193      54220000 
 3194 0060 0000000C 		.ascii	"\000\000\000\014\022\022\022\012v%)\021\221n\000\000"
 3194      1212120A 
 3194      76252911 
 3194      916E0000 
 3195 0070 00060604 		.ascii	"\000\006\006\004\003\000\000\000\000\000\000\000\000"
 3195      03000000 
 3195      00000000 
 3195      00
 3196 007d 000000   		.ascii	"\000\000\000"
 3197 0080 00402010 		.ascii	"\000@ \020\020\010\010\010\010\010\010\020\020 @\000"
 3197      10080808 
 3197      08080810 
 3197      10204000 
 3198 0090 00020408 		.ascii	"\000\002\004\010\010\020\020\020\020\020\020\010\010"
 3198      08101010 
 3198      10101008 
 3198      08
 3199 009d 040200   		.ascii	"\004\002\000"
 3200 00a0 00000000 		.ascii	"\000\000\000\000\010\010k\034\034k\010\010\000\000\000"
 3200      08086B1C 
 3200      1C6B0808 
 3200      000000
 3201 00af 00       		.ascii	"\000"
 3202 00b0 00000000 		.ascii	"\000\000\000\000\010\010\010\010\177\010\010\010\010"
 3202      08080808 
 3202      7F080808 
 3202      08
 3203 00bd 000000   		.ascii	"\000\000\000"
 3204 00c0 00000000 		.ascii	"\000\000\000\000\000\000\000\000\000\000\000\000\006"
 3204      00000000 
 3204      00000000 
 3204      06
 3205 00cd 060403   		.ascii	"\006\004\003"
 3206 00d0 00000000 		.ascii	"\000\000\000\000\000\000\000\000\376\000\000\000\000"
 3206      00000000 
 3206      FE000000 
 3206      00
 3207 00dd 000000   		.ascii	"\000\000\000"
 3208 00e0 00000000 		.ascii	"\000\000\000\000\000\000\000\000\000\000\000\000\006"
 3208      00000000 
 3208      00000000 
 3208      06
 3209 00ed 060000   		.ascii	"\006\000\000"
 3210 00f0 00008040 		.ascii	"\000\000\200@@  \020\020\010\010\004\004\002\002\000"
 3210      40202010 
 3210      10080804 
 3210      04020200 
 3211 0100 00000018 		.ascii	"\000\000\000\030$BBBBBBB$\030\000\000"
 3211      24424242 
 3211      42424242 
 3211      24180000 
 3212 0110 00000008 		.ascii	"\000\000\000\010\016\010\010\010\010\010\010\010\010"
ARM GAS  D:\noval\Temp\ccGOMXvb.s 			page 108


 3212      0E080808 
 3212      08080808 
 3212      08
 3213 011d 3E0000   		.ascii	">\000\000"
 3214 0120 0000003C 		.ascii	"\000\000\000<BBB  \020\010\004B~\000\000"
 3214      42424220 
 3214      20100804 
 3214      427E0000 
 3215 0130 0000003C 		.ascii	"\000\000\000<BB \030 @@B\"\034\000\000"
 3215      42422018 
 3215      20404042 
 3215      221C0000 
 3216 0140 00000020 		.ascii	"\000\000\000 0($$\"\"~  x\000\000"
 3216      30282424 
 3216      22227E20 
 3216      20780000 
 3217 0150 0000007E 		.ascii	"\000\000\000~\002\002\002\032&@@B\"\034\000\000"
 3217      0202021A 
 3217      26404042 
 3217      221C0000 
 3218 0160 00000038 		.ascii	"\000\000\0008$\002\002\032&BBB$\030\000\000"
 3218      2402021A 
 3218      26424242 
 3218      24180000 
 3219 0170 0000007E 		.ascii	"\000\000\000~\"\"\020\020\010\010\010\010\010\010\000"
 3219      22221010 
 3219      08080808 
 3219      080800
 3220 017f 00       		.ascii	"\000"
 3221 0180 0000003C 		.ascii	"\000\000\000<BBB$\030$BBB<\000\000"
 3221      42424224 
 3221      18244242 
 3221      423C0000 
 3222 0190 00000018 		.ascii	"\000\000\000\030$BBBdX@@$\034\000\000"
 3222      24424242 
 3222      64584040 
 3222      241C0000 
 3223 01a0 00000000 		.ascii	"\000\000\000\000\000\000\030\030\000\000\000\000\030"
 3223      00001818 
 3223      00000000 
 3223      18
 3224 01ad 180000   		.ascii	"\030\000\000"
 3225 01b0 00000000 		.ascii	"\000\000\000\000\000\000\000\010\000\000\000\000\000"
 3225      00000008 
 3225      00000000 
 3225      00
 3226 01bd 080804   		.ascii	"\010\010\004"
 3227 01c0 00000040 		.ascii	"\000\000\000@ \020\010\004\002\004\010\020 @\000\000"
 3227      20100804 
 3227      02040810 
 3227      20400000 
 3228 01d0 00000000 		.ascii	"\000\000\000\000\000\000\177\000\000\000\177\000\000"
 3228      00007F00 
 3228      00007F00 
 3228      00
 3229 01dd 000000   		.ascii	"\000\000\000"
 3230 01e0 00000002 		.ascii	"\000\000\000\002\004\010\020 @ \020\010\004\002\000"
ARM GAS  D:\noval\Temp\ccGOMXvb.s 			page 109


 3230      04081020 
 3230      40201008 
 3230      040200
 3231 01ef 00       		.ascii	"\000"
 3232 01f0 0000003C 		.ascii	"\000\000\000<BBF@ \020\020\000\030\030\000\000"
 3232      42424640 
 3232      20101000 
 3232      18180000 
 3233 0200 0000001C 		.ascii	"\000\000\000\034\"ZUUUU-B\"\034\000\000"
 3233      225A5555 
 3233      55552D42 
 3233      221C0000 
 3234 0210 00000008 		.ascii	"\000\000\000\010\010\030\024\024$<\"BB\347\000\000"
 3234      08181414 
 3234      243C2242 
 3234      42E70000 
 3235 0220 0000001F 		.ascii	"\000\000\000\037\"\"\"\036\"BBB\"\037\000\000"
 3235      2222221E 
 3235      22424242 
 3235      221F0000 
 3236 0230 0000007C 		.ascii	"\000\000\000|BB\001\001\001\001\001B\"\034\000\000"
 3236      42420101 
 3236      01010142 
 3236      221C0000 
 3237 0240 0000001F 		.ascii	"\000\000\000\037\"BBBBBBB\"\037\000\000"
 3237      22424242 
 3237      42424242 
 3237      221F0000 
 3238 0250 0000003F 		.ascii	"\000\000\000?B\022\022\036\022\022\002BB?\000\000"
 3238      4212121E 
 3238      12120242 
 3238      423F0000 
 3239 0260 0000003F 		.ascii	"\000\000\000?B\022\022\036\022\022\002\002\002\007\000"
 3239      4212121E 
 3239      12120202 
 3239      020700
 3240 026f 00       		.ascii	"\000"
 3241 0270 0000003C 		.ascii	"\000\000\000<\"\"\001\001\001q!\"\"\034\000\000"
 3241      22220101 
 3241      01712122 
 3241      221C0000 
 3242 0280 000000E7 		.ascii	"\000\000\000\347BBBB~BBBB\347\000\000"
 3242      42424242 
 3242      7E424242 
 3242      42E70000 
 3243 0290 0000003E 		.ascii	"\000\000\000>\010\010\010\010\010\010\010\010\010>\000"
 3243      08080808 
 3243      08080808 
 3243      083E00
 3244 029f 00       		.ascii	"\000"
 3245 02a0 0000007C 		.ascii	"\000\000\000|\020\020\020\020\020\020\020\020\020\020"
 3245      10101010 
 3245      10101010 
 3245      1010
 3246 02ae 110F     		.ascii	"\021\017"
 3247 02b0 00000077 		.ascii	"\000\000\000w\"\022\012\016\012\022\022\"\"w\000\000"
 3247      22120A0E 
ARM GAS  D:\noval\Temp\ccGOMXvb.s 			page 110


 3247      0A121222 
 3247      22770000 
 3248 02c0 00000007 		.ascii	"\000\000\000\007\002\002\002\002\002\002\002\002B\177"
 3248      02020202 
 3248      02020202 
 3248      427F
 3249 02ce 0000     		.ascii	"\000\000"
 3250 02d0 00000077 		.ascii	"\000\000\000w6666*****k\000\000"
 3250      36363636 
 3250      2A2A2A2A 
 3250      2A6B0000 
 3251 02e0 000000E3 		.ascii	"\000\000\000\343FFJJRRRbbG\000\000"
 3251      46464A4A 
 3251      52525262 
 3251      62470000 
 3252 02f0 0000001C 		.ascii	"\000\000\000\034\"AAAAAAA\"\034\000\000"
 3252      22414141 
 3252      41414141 
 3252      221C0000 
 3253 0300 0000003F 		.ascii	"\000\000\000?BBBB>\002\002\002\002\007\000\000"
 3253      42424242 
 3253      3E020202 
 3253      02070000 
 3254 0310 0000001C 		.ascii	"\000\000\000\034\"AAAAAMS2\034`\000"
 3254      22414141 
 3254      41414D53 
 3254      321C6000 
 3255 0320 0000003F 		.ascii	"\000\000\000?BBB>\022\022\"\"B\307\000\000"
 3255      4242423E 
 3255      12122222 
 3255      42C70000 
 3256 0330 0000007C 		.ascii	"\000\000\000|BB\002\004\030 @BB>\000\000"
 3256      42420204 
 3256      18204042 
 3256      423E0000 
 3257 0340 0000007F 		.ascii	"\000\000\000\177I\010\010\010\010\010\010\010\010\034"
 3257      49080808 
 3257      08080808 
 3257      081C
 3258 034e 0000     		.ascii	"\000\000"
 3259 0350 000000E7 		.ascii	"\000\000\000\347BBBBBBBBB<\000\000"
 3259      42424242 
 3259      42424242 
 3259      423C0000 
 3260 0360 000000E7 		.ascii	"\000\000\000\347BB\"$$\024\024\030\010\010\000\000"
 3260      42422224 
 3260      24141418 
 3260      08080000 
 3261 0370 0000006B 		.ascii	"\000\000\000kIIIIUU6\"\"\"\000\000"
 3261      49494949 
 3261      55553622 
 3261      22220000 
 3262 0380 000000E7 		.ascii	"\000\000\000\347B$$\030\030\030$$B\347\000\000"
 3262      42242418 
 3262      18182424 
 3262      42E70000 
 3263 0390 00000077 		.ascii	"\000\000\000w\"\"\024\024\010\010\010\010\010\034\000"
ARM GAS  D:\noval\Temp\ccGOMXvb.s 			page 111


 3263      22221414 
 3263      08080808 
 3263      081C00
 3264 039f 00       		.ascii	"\000"
 3265 03a0 0000007E 		.ascii	"\000\000\000~! \020\020\010\004\004BB?\000\000"
 3265      21201010 
 3265      08040442 
 3265      423F0000 
 3266 03b0 00780808 		.ascii	"\000x\010\010\010\010\010\010\010\010\010\010\010\010"
 3266      08080808 
 3266      08080808 
 3266      0808
 3267 03be 7800     		.ascii	"x\000"
 3268 03c0 00000202 		.ascii	"\000\000\002\002\004\004\010\010\010\020\020   @@"
 3268      04040808 
 3268      08101020 
 3268      20204040 
 3269 03d0 001E1010 		.ascii	"\000\036\020\020\020\020\020\020\020\020\020\020\020"
 3269      10101010 
 3269      10101010 
 3269      10
 3270 03dd 101E00   		.ascii	"\020\036\000"
 3271 03e0 00384400 		.ascii	"\0008D\000\000\000\000\000\000\000\000\000\000\000\000"
 3271      00000000 
 3271      00000000 
 3271      000000
 3272 03ef 00       		.ascii	"\000"
 3273 03f0 00000000 		.ascii	"\000\000\000\000\000\000\000\000\000\000\000\000\000"
 3273      00000000 
 3273      00000000 
 3273      00
